; Listing generated by Microsoft (R) Optimizing Compiler Version 14.00.50727.762 

	TITLE	c:\NuanceExperimental\EmitMEM.cpp
	.686P
	.XMM
	include listing.inc
	.model	flat

INCLUDELIB LIBCMTD
INCLUDELIB OLDNAMES

_DATA	SEGMENT
__bad_alloc_Message DD FLAT:$SG12350
_DATA	ENDS
CONST	SEGMENT
$SG12350 DB	'bad allocation', 00H
CONST	ENDS
PUBLIC	?GetScalarRegEmitDisp@@YAHPAVEmitterVariables@@I@Z ; GetScalarRegEmitDisp
PUBLIC	?GetScalarRegWriteBaseReg@@YA?AW4x86BaseReg@@PAVEmitterVariables@@I@Z ; GetScalarRegWriteBaseReg
PUBLIC	?GetScalarRegReadBaseReg@@YA?AW4x86BaseReg@@PAVEmitterVariables@@I@Z ; GetScalarRegReadBaseReg
PUBLIC	?Emit_Mirror@@YAXPAVEmitterVariables@@AAVNuance@@@Z ; Emit_Mirror
EXTRN	?X86Emit_MOVRM@NativeCodeCache@@QAEXW4x86Reg@@IW4x86IndexReg@@W4x86ScaleVal@@H@Z:PROC ; NativeCodeCache::X86Emit_MOVRM
EXTRN	?X86Emit_ROLRR@NativeCodeCache@@QAEXW4x86Reg@@@Z:PROC ; NativeCodeCache::X86Emit_ROLRR
EXTRN	?X86Emit_ORRR@NativeCodeCache@@QAEXW4x86Reg@@0@Z:PROC ; NativeCodeCache::X86Emit_ORRR
EXTRN	?X86Emit_SHLIR@NativeCodeCache@@QAEXW4x86Reg@@E@Z:PROC ; NativeCodeCache::X86Emit_SHLIR
EXTRN	?X86Emit_SHRIR@NativeCodeCache@@QAEXW4x86Reg@@E@Z:PROC ; NativeCodeCache::X86Emit_SHRIR
EXTRN	?X86Emit_ANDIR@NativeCodeCache@@QAEXHW4x86Reg@@@Z:PROC ; NativeCodeCache::X86Emit_ANDIR
EXTRN	?X86Emit_MOVRR@NativeCodeCache@@QAEXW4x86Reg@@0@Z:PROC ; NativeCodeCache::X86Emit_MOVRR
EXTRN	?X86Emit_MOVIR@NativeCodeCache@@QAEXHW4x86Reg@@@Z:PROC ; NativeCodeCache::X86Emit_MOVIR
EXTRN	?X86Emit_MOVMR@NativeCodeCache@@QAEXW4x86Reg@@IW4x86IndexReg@@W4x86ScaleVal@@H@Z:PROC ; NativeCodeCache::X86Emit_MOVMR
EXTRN	__RTC_CheckEsp:PROC
EXTRN	__RTC_Shutdown:PROC
EXTRN	__RTC_InitBase:PROC
;	COMDAT rtc$TMZ
; File c:\nuanceexperimental\emitmem.cpp
rtc$TMZ	SEGMENT
__RTC_Shutdown.rtc$TMZ DD FLAT:__RTC_Shutdown
rtc$TMZ	ENDS
;	COMDAT rtc$IMZ
rtc$IMZ	SEGMENT
__RTC_InitBase.rtc$IMZ DD FLAT:__RTC_InitBase
; Function compile flags: /Odtp /RTCsu
rtc$IMZ	ENDS
_TEXT	SEGMENT
_destRegDisp$ = -24					; size = 4
_srcRegDisp$ = -20					; size = 4
_destRegWriteBaseReg$ = -16				; size = 4
_srcRegReadBaseReg$ = -12				; size = 4
_destRegIndex$ = -8					; size = 4
_srcRegIndex$ = -4					; size = 4
_vars$ = 8						; size = 4
_nuance$ = 12						; size = 4
?Emit_Mirror@@YAXPAVEmitterVariables@@AAVNuance@@@Z PROC ; Emit_Mirror

; 21   : {

	push	ebp
	mov	ebp, esp
	sub	esp, 24					; 00000018H
	mov	eax, -858993460				; ccccccccH
	mov	DWORD PTR [ebp-24], eax
	mov	DWORD PTR [ebp-20], eax
	mov	DWORD PTR [ebp-16], eax
	mov	DWORD PTR [ebp-12], eax
	mov	DWORD PTR [ebp-8], eax
	mov	DWORD PTR [ebp-4], eax

; 22   :   uint32 srcRegIndex = nuance.fields[FIELD_MEM_FROM];

	mov	eax, DWORD PTR _nuance$[ebp]
	mov	ecx, DWORD PTR [eax+12]
	mov	DWORD PTR _srcRegIndex$[ebp], ecx

; 23   :   uint32 destRegIndex = nuance.fields[FIELD_MEM_TO];

	mov	edx, DWORD PTR _nuance$[ebp]
	mov	eax, DWORD PTR [edx+8]
	mov	DWORD PTR _destRegIndex$[ebp], eax

; 24   :   x86BaseReg srcRegReadBaseReg = GetScalarRegReadBaseReg(vars,srcRegIndex);

	mov	ecx, DWORD PTR _srcRegIndex$[ebp]
	push	ecx
	mov	edx, DWORD PTR _vars$[ebp]
	push	edx
	call	?GetScalarRegReadBaseReg@@YA?AW4x86BaseReg@@PAVEmitterVariables@@I@Z ; GetScalarRegReadBaseReg
	add	esp, 8
	mov	DWORD PTR _srcRegReadBaseReg$[ebp], eax

; 25   :   x86BaseReg destRegWriteBaseReg = GetScalarRegWriteBaseReg(vars,destRegIndex);

	mov	eax, DWORD PTR _destRegIndex$[ebp]
	push	eax
	mov	ecx, DWORD PTR _vars$[ebp]
	push	ecx
	call	?GetScalarRegWriteBaseReg@@YA?AW4x86BaseReg@@PAVEmitterVariables@@I@Z ; GetScalarRegWriteBaseReg
	add	esp, 8
	mov	DWORD PTR _destRegWriteBaseReg$[ebp], eax

; 26   :   int32 srcRegDisp = GetScalarRegEmitDisp(vars,srcRegIndex);

	mov	edx, DWORD PTR _srcRegIndex$[ebp]
	push	edx
	mov	eax, DWORD PTR _vars$[ebp]
	push	eax
	call	?GetScalarRegEmitDisp@@YAHPAVEmitterVariables@@I@Z ; GetScalarRegEmitDisp
	add	esp, 8
	mov	DWORD PTR _srcRegDisp$[ebp], eax

; 27   :   int32 destRegDisp = GetScalarRegEmitDisp(vars,destRegIndex);

	mov	ecx, DWORD PTR _destRegIndex$[ebp]
	push	ecx
	mov	edx, DWORD PTR _vars$[ebp]
	push	edx
	call	?GetScalarRegEmitDisp@@YAHPAVEmitterVariables@@I@Z ; GetScalarRegEmitDisp
	add	esp, 8
	mov	DWORD PTR _destRegDisp$[ebp], eax

; 28   : 
; 29   :   if(vars->scalarRegOutDep)

	mov	eax, DWORD PTR _vars$[ebp]
	cmp	DWORD PTR [eax+36], 0
	je	$LN2@Emit_Mirro

; 30   :   {
; 31   :     vars->codeCache->X86Emit_MOVMR(x86Reg_eax, srcRegReadBaseReg, x86IndexReg_none, x86Scale_1, srcRegDisp);

	mov	ecx, DWORD PTR _srcRegDisp$[ebp]
	push	ecx
	push	0
	push	4
	mov	edx, DWORD PTR _srcRegReadBaseReg$[ebp]
	push	edx
	push	16					; 00000010H
	mov	eax, DWORD PTR _vars$[ebp]
	mov	ecx, DWORD PTR [eax+4]
	call	?X86Emit_MOVMR@NativeCodeCache@@QAEXW4x86Reg@@IW4x86IndexReg@@W4x86ScaleVal@@H@Z ; NativeCodeCache::X86Emit_MOVMR

; 32   :     vars->codeCache->X86Emit_MOVIR(16, x86Reg_ecx);

	push	17					; 00000011H
	push	16					; 00000010H
	mov	ecx, DWORD PTR _vars$[ebp]
	mov	ecx, DWORD PTR [ecx+4]
	call	?X86Emit_MOVIR@NativeCodeCache@@QAEXHW4x86Reg@@@Z ; NativeCodeCache::X86Emit_MOVIR

; 33   :     vars->codeCache->X86Emit_MOVRR(x86Reg_ebx, x86Reg_eax);

	push	16					; 00000010H
	push	19					; 00000013H
	mov	edx, DWORD PTR _vars$[ebp]
	mov	ecx, DWORD PTR [edx+4]
	call	?X86Emit_MOVRR@NativeCodeCache@@QAEXW4x86Reg@@0@Z ; NativeCodeCache::X86Emit_MOVRR

; 34   :     vars->codeCache->X86Emit_ANDIR(0xAAAAAAAA, x86Reg_eax);

	push	16					; 00000010H
	push	-1431655766				; aaaaaaaaH
	mov	eax, DWORD PTR _vars$[ebp]
	mov	ecx, DWORD PTR [eax+4]
	call	?X86Emit_ANDIR@NativeCodeCache@@QAEXHW4x86Reg@@@Z ; NativeCodeCache::X86Emit_ANDIR

; 35   :     vars->codeCache->X86Emit_ANDIR(0x55555555, x86Reg_ebx);

	push	19					; 00000013H
	push	1431655765				; 55555555H
	mov	ecx, DWORD PTR _vars$[ebp]
	mov	ecx, DWORD PTR [ecx+4]
	call	?X86Emit_ANDIR@NativeCodeCache@@QAEXHW4x86Reg@@@Z ; NativeCodeCache::X86Emit_ANDIR

; 36   :     vars->codeCache->X86Emit_SHRIR(x86Reg_eax, 1);

	push	1
	push	16					; 00000010H
	mov	edx, DWORD PTR _vars$[ebp]
	mov	ecx, DWORD PTR [edx+4]
	call	?X86Emit_SHRIR@NativeCodeCache@@QAEXW4x86Reg@@E@Z ; NativeCodeCache::X86Emit_SHRIR

; 37   :     vars->codeCache->X86Emit_SHLIR(x86Reg_ebx, 1);

	push	1
	push	19					; 00000013H
	mov	eax, DWORD PTR _vars$[ebp]
	mov	ecx, DWORD PTR [eax+4]
	call	?X86Emit_SHLIR@NativeCodeCache@@QAEXW4x86Reg@@E@Z ; NativeCodeCache::X86Emit_SHLIR

; 38   :     vars->codeCache->X86Emit_ORRR(x86Reg_eax, x86Reg_ebx);

	push	19					; 00000013H
	push	16					; 00000010H
	mov	ecx, DWORD PTR _vars$[ebp]
	mov	ecx, DWORD PTR [ecx+4]
	call	?X86Emit_ORRR@NativeCodeCache@@QAEXW4x86Reg@@0@Z ; NativeCodeCache::X86Emit_ORRR

; 39   : 
; 40   :     vars->codeCache->X86Emit_MOVRR(x86Reg_ebx, x86Reg_eax);

	push	16					; 00000010H
	push	19					; 00000013H
	mov	edx, DWORD PTR _vars$[ebp]
	mov	ecx, DWORD PTR [edx+4]
	call	?X86Emit_MOVRR@NativeCodeCache@@QAEXW4x86Reg@@0@Z ; NativeCodeCache::X86Emit_MOVRR

; 41   :     vars->codeCache->X86Emit_ANDIR(0xCCCCCCCC, x86Reg_eax);

	push	16					; 00000010H
	push	-858993460				; ccccccccH
	mov	eax, DWORD PTR _vars$[ebp]
	mov	ecx, DWORD PTR [eax+4]
	call	?X86Emit_ANDIR@NativeCodeCache@@QAEXHW4x86Reg@@@Z ; NativeCodeCache::X86Emit_ANDIR

; 42   :     vars->codeCache->X86Emit_ANDIR(0x33333333, x86Reg_ebx);

	push	19					; 00000013H
	push	858993459				; 33333333H
	mov	ecx, DWORD PTR _vars$[ebp]
	mov	ecx, DWORD PTR [ecx+4]
	call	?X86Emit_ANDIR@NativeCodeCache@@QAEXHW4x86Reg@@@Z ; NativeCodeCache::X86Emit_ANDIR

; 43   :     vars->codeCache->X86Emit_SHRIR(x86Reg_eax, 2);

	push	2
	push	16					; 00000010H
	mov	edx, DWORD PTR _vars$[ebp]
	mov	ecx, DWORD PTR [edx+4]
	call	?X86Emit_SHRIR@NativeCodeCache@@QAEXW4x86Reg@@E@Z ; NativeCodeCache::X86Emit_SHRIR

; 44   :     vars->codeCache->X86Emit_SHLIR(x86Reg_ebx, 2);

	push	2
	push	19					; 00000013H
	mov	eax, DWORD PTR _vars$[ebp]
	mov	ecx, DWORD PTR [eax+4]
	call	?X86Emit_SHLIR@NativeCodeCache@@QAEXW4x86Reg@@E@Z ; NativeCodeCache::X86Emit_SHLIR

; 45   :     vars->codeCache->X86Emit_ORRR(x86Reg_eax, x86Reg_ebx);

	push	19					; 00000013H
	push	16					; 00000010H
	mov	ecx, DWORD PTR _vars$[ebp]
	mov	ecx, DWORD PTR [ecx+4]
	call	?X86Emit_ORRR@NativeCodeCache@@QAEXW4x86Reg@@0@Z ; NativeCodeCache::X86Emit_ORRR

; 46   : 
; 47   :     vars->codeCache->X86Emit_MOVRR(x86Reg_ebx, x86Reg_eax);

	push	16					; 00000010H
	push	19					; 00000013H
	mov	edx, DWORD PTR _vars$[ebp]
	mov	ecx, DWORD PTR [edx+4]
	call	?X86Emit_MOVRR@NativeCodeCache@@QAEXW4x86Reg@@0@Z ; NativeCodeCache::X86Emit_MOVRR

; 48   :     vars->codeCache->X86Emit_ANDIR(0xF0F0F0F0, x86Reg_eax);

	push	16					; 00000010H
	push	-252645136				; f0f0f0f0H
	mov	eax, DWORD PTR _vars$[ebp]
	mov	ecx, DWORD PTR [eax+4]
	call	?X86Emit_ANDIR@NativeCodeCache@@QAEXHW4x86Reg@@@Z ; NativeCodeCache::X86Emit_ANDIR

; 49   :     vars->codeCache->X86Emit_ANDIR(0x0F0F0F0F, x86Reg_ebx);

	push	19					; 00000013H
	push	252645135				; 0f0f0f0fH
	mov	ecx, DWORD PTR _vars$[ebp]
	mov	ecx, DWORD PTR [ecx+4]
	call	?X86Emit_ANDIR@NativeCodeCache@@QAEXHW4x86Reg@@@Z ; NativeCodeCache::X86Emit_ANDIR

; 50   :     vars->codeCache->X86Emit_SHRIR(x86Reg_eax, 4);

	push	4
	push	16					; 00000010H
	mov	edx, DWORD PTR _vars$[ebp]
	mov	ecx, DWORD PTR [edx+4]
	call	?X86Emit_SHRIR@NativeCodeCache@@QAEXW4x86Reg@@E@Z ; NativeCodeCache::X86Emit_SHRIR

; 51   :     vars->codeCache->X86Emit_SHLIR(x86Reg_ebx, 4);

	push	4
	push	19					; 00000013H
	mov	eax, DWORD PTR _vars$[ebp]
	mov	ecx, DWORD PTR [eax+4]
	call	?X86Emit_SHLIR@NativeCodeCache@@QAEXW4x86Reg@@E@Z ; NativeCodeCache::X86Emit_SHLIR

; 52   :     vars->codeCache->X86Emit_ORRR(x86Reg_eax, x86Reg_ebx);

	push	19					; 00000013H
	push	16					; 00000010H
	mov	ecx, DWORD PTR _vars$[ebp]
	mov	ecx, DWORD PTR [ecx+4]
	call	?X86Emit_ORRR@NativeCodeCache@@QAEXW4x86Reg@@0@Z ; NativeCodeCache::X86Emit_ORRR

; 53   : 
; 54   :     vars->codeCache->X86Emit_MOVRR(x86Reg_ebx, x86Reg_eax);

	push	16					; 00000010H
	push	19					; 00000013H
	mov	edx, DWORD PTR _vars$[ebp]
	mov	ecx, DWORD PTR [edx+4]
	call	?X86Emit_MOVRR@NativeCodeCache@@QAEXW4x86Reg@@0@Z ; NativeCodeCache::X86Emit_MOVRR

; 55   :     vars->codeCache->X86Emit_ANDIR(0xFF00FF00, x86Reg_eax);

	push	16					; 00000010H
	push	-16711936				; ff00ff00H
	mov	eax, DWORD PTR _vars$[ebp]
	mov	ecx, DWORD PTR [eax+4]
	call	?X86Emit_ANDIR@NativeCodeCache@@QAEXHW4x86Reg@@@Z ; NativeCodeCache::X86Emit_ANDIR

; 56   :     vars->codeCache->X86Emit_ANDIR(0x00FF00FF, x86Reg_ebx);

	push	19					; 00000013H
	push	16711935				; 00ff00ffH
	mov	ecx, DWORD PTR _vars$[ebp]
	mov	ecx, DWORD PTR [ecx+4]
	call	?X86Emit_ANDIR@NativeCodeCache@@QAEXHW4x86Reg@@@Z ; NativeCodeCache::X86Emit_ANDIR

; 57   :     vars->codeCache->X86Emit_SHRIR(x86Reg_eax, 8);

	push	8
	push	16					; 00000010H
	mov	edx, DWORD PTR _vars$[ebp]
	mov	ecx, DWORD PTR [edx+4]
	call	?X86Emit_SHRIR@NativeCodeCache@@QAEXW4x86Reg@@E@Z ; NativeCodeCache::X86Emit_SHRIR

; 58   :     vars->codeCache->X86Emit_SHLIR(x86Reg_ebx, 8);

	push	8
	push	19					; 00000013H
	mov	eax, DWORD PTR _vars$[ebp]
	mov	ecx, DWORD PTR [eax+4]
	call	?X86Emit_SHLIR@NativeCodeCache@@QAEXW4x86Reg@@E@Z ; NativeCodeCache::X86Emit_SHLIR

; 59   :     vars->codeCache->X86Emit_ORRR(x86Reg_eax, x86Reg_ebx);

	push	19					; 00000013H
	push	16					; 00000010H
	mov	ecx, DWORD PTR _vars$[ebp]
	mov	ecx, DWORD PTR [ecx+4]
	call	?X86Emit_ORRR@NativeCodeCache@@QAEXW4x86Reg@@0@Z ; NativeCodeCache::X86Emit_ORRR

; 60   : 
; 61   :     vars->codeCache->X86Emit_ROLRR(x86Reg_eax);

	push	16					; 00000010H
	mov	edx, DWORD PTR _vars$[ebp]
	mov	ecx, DWORD PTR [edx+4]
	call	?X86Emit_ROLRR@NativeCodeCache@@QAEXW4x86Reg@@@Z ; NativeCodeCache::X86Emit_ROLRR

; 62   :     vars->codeCache->X86Emit_MOVRM(x86Reg_eax, destRegWriteBaseReg, x86IndexReg_none, x86Scale_1, destRegDisp);

	mov	eax, DWORD PTR _destRegDisp$[ebp]
	push	eax
	push	0
	push	4
	mov	ecx, DWORD PTR _destRegWriteBaseReg$[ebp]
	push	ecx
	push	16					; 00000010H
	mov	edx, DWORD PTR _vars$[ebp]
	mov	ecx, DWORD PTR [edx+4]
	call	?X86Emit_MOVRM@NativeCodeCache@@QAEXW4x86Reg@@IW4x86IndexReg@@W4x86ScaleVal@@H@Z ; NativeCodeCache::X86Emit_MOVRM
$LN2@Emit_Mirro:

; 63   :   }
; 64   : }

	add	esp, 24					; 00000018H
	cmp	ebp, esp
	call	__RTC_CheckEsp
	mov	esp, ebp
	pop	ebp
	ret	0
?Emit_Mirror@@YAXPAVEmitterVariables@@AAVNuance@@@Z ENDP ; Emit_Mirror
; Function compile flags: /Odtp /RTCsu
; File c:\nuanceexperimental\emitmisc.h
_TEXT	ENDS
;	COMDAT ?GetScalarRegReadBaseReg@@YA?AW4x86BaseReg@@PAVEmitterVariables@@I@Z
_TEXT	SEGMENT
_vars$ = 8						; size = 4
_regIndex$ = 12						; size = 4
?GetScalarRegReadBaseReg@@YA?AW4x86BaseReg@@PAVEmitterVariables@@I@Z PROC ; GetScalarRegReadBaseReg, COMDAT

; 35   : {

	push	ebp
	mov	ebp, esp

; 36   :   if(vars->scalarRegDep & SCALAR_REG_DEPENDENCY_MASK(regIndex))

	mov	eax, 1
	mov	ecx, DWORD PTR _regIndex$[ebp]
	shl	eax, cl
	mov	ecx, DWORD PTR _vars$[ebp]
	and	eax, DWORD PTR [ecx+28]
	je	SHORT $LN2@GetScalarR

; 37   :   {
; 38   :     return x86BaseReg_edi;

	mov	eax, 7
	jmp	SHORT $LN3@GetScalarR

; 39   :   }
; 40   :   else

	jmp	SHORT $LN3@GetScalarR
$LN2@GetScalarR:

; 41   :   {
; 42   :     return x86BaseReg_esi;

	mov	eax, 6
$LN3@GetScalarR:

; 43   :   }
; 44   : }

	pop	ebp
	ret	0
?GetScalarRegReadBaseReg@@YA?AW4x86BaseReg@@PAVEmitterVariables@@I@Z ENDP ; GetScalarRegReadBaseReg
; Function compile flags: /Odtp /RTCsu
_TEXT	ENDS
;	COMDAT ?GetScalarRegWriteBaseReg@@YA?AW4x86BaseReg@@PAVEmitterVariables@@I@Z
_TEXT	SEGMENT
_vars$ = 8						; size = 4
_regIndex$ = 12						; size = 4
?GetScalarRegWriteBaseReg@@YA?AW4x86BaseReg@@PAVEmitterVariables@@I@Z PROC ; GetScalarRegWriteBaseReg, COMDAT

; 47   : {

	push	ebp
	mov	ebp, esp

; 48   :   return x86BaseReg_esi;

	mov	eax, 6

; 49   : }

	pop	ebp
	ret	0
?GetScalarRegWriteBaseReg@@YA?AW4x86BaseReg@@PAVEmitterVariables@@I@Z ENDP ; GetScalarRegWriteBaseReg
; Function compile flags: /Odtp /RTCsu
_TEXT	ENDS
;	COMDAT ?GetScalarRegEmitDisp@@YAHPAVEmitterVariables@@I@Z
_TEXT	SEGMENT
_vars$ = 8						; size = 4
_regIndex$ = 12						; size = 4
?GetScalarRegEmitDisp@@YAHPAVEmitterVariables@@I@Z PROC	; GetScalarRegEmitDisp, COMDAT

; 85   : {

	push	ebp
	mov	ebp, esp

; 86   :   return -((32 - (int32)regIndex) * ((int32)sizeof(uint32)));

	mov	eax, 32					; 00000020H
	sub	eax, DWORD PTR _regIndex$[ebp]
	shl	eax, 2
	neg	eax

; 87   : }

	pop	ebp
	ret	0
?GetScalarRegEmitDisp@@YAHPAVEmitterVariables@@I@Z ENDP	; GetScalarRegEmitDisp
_TEXT	ENDS
PUBLIC	?Emit_MV_SImmediate@@YAXPAVEmitterVariables@@AAVNuance@@@Z ; Emit_MV_SImmediate
EXTRN	?X86Emit_MOVIM@NativeCodeCache@@QAEXHW4x86MemPtr@@IW4x86IndexReg@@W4x86ScaleVal@@H@Z:PROC ; NativeCodeCache::X86Emit_MOVIM
; Function compile flags: /Odtp /RTCsu
; File c:\nuanceexperimental\emitmem.cpp
_TEXT	SEGMENT
_destRegDisp$ = -16					; size = 4
_destRegWriteBaseReg$ = -12				; size = 4
_imm$ = -8						; size = 4
_destRegIndex$ = -4					; size = 4
_vars$ = 8						; size = 4
_nuance$ = 12						; size = 4
?Emit_MV_SImmediate@@YAXPAVEmitterVariables@@AAVNuance@@@Z PROC ; Emit_MV_SImmediate

; 67   : {

	push	ebp
	mov	ebp, esp
	sub	esp, 16					; 00000010H
	mov	eax, -858993460				; ccccccccH
	mov	DWORD PTR [ebp-16], eax
	mov	DWORD PTR [ebp-12], eax
	mov	DWORD PTR [ebp-8], eax
	mov	DWORD PTR [ebp-4], eax

; 68   :   uint32 destRegIndex = nuance.fields[FIELD_MEM_TO];

	mov	eax, DWORD PTR _nuance$[ebp]
	mov	ecx, DWORD PTR [eax+8]
	mov	DWORD PTR _destRegIndex$[ebp], ecx

; 69   :   uint32 imm = nuance.fields[FIELD_MEM_FROM];

	mov	edx, DWORD PTR _nuance$[ebp]
	mov	eax, DWORD PTR [edx+12]
	mov	DWORD PTR _imm$[ebp], eax

; 70   :   x86BaseReg destRegWriteBaseReg = GetScalarRegWriteBaseReg(vars,destRegIndex);

	mov	ecx, DWORD PTR _destRegIndex$[ebp]
	push	ecx
	mov	edx, DWORD PTR _vars$[ebp]
	push	edx
	call	?GetScalarRegWriteBaseReg@@YA?AW4x86BaseReg@@PAVEmitterVariables@@I@Z ; GetScalarRegWriteBaseReg
	add	esp, 8
	mov	DWORD PTR _destRegWriteBaseReg$[ebp], eax

; 71   :   int32 destRegDisp = GetScalarRegEmitDisp(vars,destRegIndex);

	mov	eax, DWORD PTR _destRegIndex$[ebp]
	push	eax
	mov	ecx, DWORD PTR _vars$[ebp]
	push	ecx
	call	?GetScalarRegEmitDisp@@YAHPAVEmitterVariables@@I@Z ; GetScalarRegEmitDisp
	add	esp, 8
	mov	DWORD PTR _destRegDisp$[ebp], eax

; 72   : 
; 73   :   if(vars->scalarRegOutDep)

	mov	edx, DWORD PTR _vars$[ebp]
	cmp	DWORD PTR [edx+36], 0
	je	SHORT $LN2@Emit_MV_SI

; 74   :   {
; 75   :     vars->codeCache->X86Emit_MOVIM(imm, x86MemPtr_dword, destRegWriteBaseReg, x86IndexReg_none, x86Scale_1, destRegDisp);

	mov	eax, DWORD PTR _destRegDisp$[ebp]
	push	eax
	push	0
	push	4
	mov	ecx, DWORD PTR _destRegWriteBaseReg$[ebp]
	push	ecx
	push	2
	mov	edx, DWORD PTR _imm$[ebp]
	push	edx
	mov	eax, DWORD PTR _vars$[ebp]
	mov	ecx, DWORD PTR [eax+4]
	call	?X86Emit_MOVIM@NativeCodeCache@@QAEXHW4x86MemPtr@@IW4x86IndexReg@@W4x86ScaleVal@@H@Z ; NativeCodeCache::X86Emit_MOVIM
$LN2@Emit_MV_SI:

; 76   :   }
; 77   : }

	add	esp, 16					; 00000010H
	cmp	ebp, esp
	call	__RTC_CheckEsp
	mov	esp, ebp
	pop	ebp
	ret	0
?Emit_MV_SImmediate@@YAXPAVEmitterVariables@@AAVNuance@@@Z ENDP ; Emit_MV_SImmediate
_TEXT	ENDS
PUBLIC	?Emit_MV_SScalar@@YAXPAVEmitterVariables@@AAVNuance@@@Z ; Emit_MV_SScalar
; Function compile flags: /Odtp /RTCsu
_TEXT	SEGMENT
_destRegDisp$ = -24					; size = 4
_srcRegDisp$ = -20					; size = 4
_destRegWriteBaseReg$ = -16				; size = 4
_srcRegReadBaseReg$ = -12				; size = 4
_srcRegIndex$ = -8					; size = 4
_destRegIndex$ = -4					; size = 4
_vars$ = 8						; size = 4
_nuance$ = 12						; size = 4
?Emit_MV_SScalar@@YAXPAVEmitterVariables@@AAVNuance@@@Z PROC ; Emit_MV_SScalar

; 80   : {

	push	ebp
	mov	ebp, esp
	sub	esp, 24					; 00000018H
	mov	eax, -858993460				; ccccccccH
	mov	DWORD PTR [ebp-24], eax
	mov	DWORD PTR [ebp-20], eax
	mov	DWORD PTR [ebp-16], eax
	mov	DWORD PTR [ebp-12], eax
	mov	DWORD PTR [ebp-8], eax
	mov	DWORD PTR [ebp-4], eax

; 81   :   uint32 destRegIndex = nuance.fields[FIELD_MEM_TO];

	mov	eax, DWORD PTR _nuance$[ebp]
	mov	ecx, DWORD PTR [eax+8]
	mov	DWORD PTR _destRegIndex$[ebp], ecx

; 82   :   uint32 srcRegIndex = nuance.fields[FIELD_MEM_FROM];

	mov	edx, DWORD PTR _nuance$[ebp]
	mov	eax, DWORD PTR [edx+12]
	mov	DWORD PTR _srcRegIndex$[ebp], eax

; 83   :   x86BaseReg srcRegReadBaseReg = GetScalarRegReadBaseReg(vars,srcRegIndex);

	mov	ecx, DWORD PTR _srcRegIndex$[ebp]
	push	ecx
	mov	edx, DWORD PTR _vars$[ebp]
	push	edx
	call	?GetScalarRegReadBaseReg@@YA?AW4x86BaseReg@@PAVEmitterVariables@@I@Z ; GetScalarRegReadBaseReg
	add	esp, 8
	mov	DWORD PTR _srcRegReadBaseReg$[ebp], eax

; 84   :   x86BaseReg destRegWriteBaseReg = GetScalarRegWriteBaseReg(vars,destRegIndex);

	mov	eax, DWORD PTR _destRegIndex$[ebp]
	push	eax
	mov	ecx, DWORD PTR _vars$[ebp]
	push	ecx
	call	?GetScalarRegWriteBaseReg@@YA?AW4x86BaseReg@@PAVEmitterVariables@@I@Z ; GetScalarRegWriteBaseReg
	add	esp, 8
	mov	DWORD PTR _destRegWriteBaseReg$[ebp], eax

; 85   :   int32 srcRegDisp = GetScalarRegEmitDisp(vars,srcRegIndex);

	mov	edx, DWORD PTR _srcRegIndex$[ebp]
	push	edx
	mov	eax, DWORD PTR _vars$[ebp]
	push	eax
	call	?GetScalarRegEmitDisp@@YAHPAVEmitterVariables@@I@Z ; GetScalarRegEmitDisp
	add	esp, 8
	mov	DWORD PTR _srcRegDisp$[ebp], eax

; 86   :   int32 destRegDisp = GetScalarRegEmitDisp(vars,destRegIndex);

	mov	ecx, DWORD PTR _destRegIndex$[ebp]
	push	ecx
	mov	edx, DWORD PTR _vars$[ebp]
	push	edx
	call	?GetScalarRegEmitDisp@@YAHPAVEmitterVariables@@I@Z ; GetScalarRegEmitDisp
	add	esp, 8
	mov	DWORD PTR _destRegDisp$[ebp], eax

; 87   : 
; 88   :   if(vars->scalarRegOutDep)

	mov	eax, DWORD PTR _vars$[ebp]
	cmp	DWORD PTR [eax+36], 0
	je	SHORT $LN2@Emit_MV_SS

; 89   :   {
; 90   :     vars->codeCache->X86Emit_MOVMR(x86Reg_eax, srcRegReadBaseReg, x86IndexReg_none, x86Scale_1, srcRegDisp);

	mov	ecx, DWORD PTR _srcRegDisp$[ebp]
	push	ecx
	push	0
	push	4
	mov	edx, DWORD PTR _srcRegReadBaseReg$[ebp]
	push	edx
	push	16					; 00000010H
	mov	eax, DWORD PTR _vars$[ebp]
	mov	ecx, DWORD PTR [eax+4]
	call	?X86Emit_MOVMR@NativeCodeCache@@QAEXW4x86Reg@@IW4x86IndexReg@@W4x86ScaleVal@@H@Z ; NativeCodeCache::X86Emit_MOVMR

; 91   :     vars->codeCache->X86Emit_MOVRM(x86Reg_eax, destRegWriteBaseReg, x86IndexReg_none, x86Scale_1, destRegDisp);

	mov	ecx, DWORD PTR _destRegDisp$[ebp]
	push	ecx
	push	0
	push	4
	mov	edx, DWORD PTR _destRegWriteBaseReg$[ebp]
	push	edx
	push	16					; 00000010H
	mov	eax, DWORD PTR _vars$[ebp]
	mov	ecx, DWORD PTR [eax+4]
	call	?X86Emit_MOVRM@NativeCodeCache@@QAEXW4x86Reg@@IW4x86IndexReg@@W4x86ScaleVal@@H@Z ; NativeCodeCache::X86Emit_MOVRM
$LN2@Emit_MV_SS:

; 92   :   }
; 93   : }

	add	esp, 24					; 00000018H
	cmp	ebp, esp
	call	__RTC_CheckEsp
	mov	esp, ebp
	pop	ebp
	ret	0
?Emit_MV_SScalar@@YAXPAVEmitterVariables@@AAVNuance@@@Z ENDP ; Emit_MV_SScalar
_TEXT	ENDS
PUBLIC	?Emit_MV_V@@YAXPAVEmitterVariables@@AAVNuance@@@Z ; Emit_MV_V
EXTRN	?X86Emit_MOVQRM@NativeCodeCache@@QAEXW4x86Reg@@IW4x86IndexReg@@W4x86ScaleVal@@H@Z:PROC ; NativeCodeCache::X86Emit_MOVQRM
EXTRN	?X86Emit_MOVQMR@NativeCodeCache@@QAEXW4x86Reg@@IW4x86IndexReg@@W4x86ScaleVal@@H@Z:PROC ; NativeCodeCache::X86Emit_MOVQMR
; Function compile flags: /Odtp /RTCsu
_TEXT	SEGMENT
_destRegDisp$ = -36					; size = 4
_src1RegDisp$ = -32					; size = 4
_destRegWriteBaseReg$ = -28				; size = 4
_src1RegReadBaseReg_3$ = -24				; size = 4
_src1RegReadBaseReg_2$ = -20				; size = 4
_src1RegReadBaseReg_1$ = -16				; size = 4
_src1RegReadBaseReg_0$ = -12				; size = 4
_src1RegIndex$ = -8					; size = 4
_destRegIndex$ = -4					; size = 4
_vars$ = 8						; size = 4
_nuance$ = 12						; size = 4
?Emit_MV_V@@YAXPAVEmitterVariables@@AAVNuance@@@Z PROC	; Emit_MV_V

; 96   : {

	push	ebp
	mov	ebp, esp
	sub	esp, 36					; 00000024H
	mov	eax, -858993460				; ccccccccH
	mov	DWORD PTR [ebp-36], eax
	mov	DWORD PTR [ebp-32], eax
	mov	DWORD PTR [ebp-28], eax
	mov	DWORD PTR [ebp-24], eax
	mov	DWORD PTR [ebp-20], eax
	mov	DWORD PTR [ebp-16], eax
	mov	DWORD PTR [ebp-12], eax
	mov	DWORD PTR [ebp-8], eax
	mov	DWORD PTR [ebp-4], eax

; 97   :   uint32 destRegIndex = nuance.fields[FIELD_MEM_TO];

	mov	eax, DWORD PTR _nuance$[ebp]
	mov	ecx, DWORD PTR [eax+8]
	mov	DWORD PTR _destRegIndex$[ebp], ecx

; 98   :   uint32 src1RegIndex = nuance.fields[FIELD_MEM_FROM];

	mov	edx, DWORD PTR _nuance$[ebp]
	mov	eax, DWORD PTR [edx+12]
	mov	DWORD PTR _src1RegIndex$[ebp], eax

; 99   :   x86BaseReg src1RegReadBaseReg_0 = GetScalarRegReadBaseReg(vars,src1RegIndex);

	mov	ecx, DWORD PTR _src1RegIndex$[ebp]
	push	ecx
	mov	edx, DWORD PTR _vars$[ebp]
	push	edx
	call	?GetScalarRegReadBaseReg@@YA?AW4x86BaseReg@@PAVEmitterVariables@@I@Z ; GetScalarRegReadBaseReg
	add	esp, 8
	mov	DWORD PTR _src1RegReadBaseReg_0$[ebp], eax

; 100  :   x86BaseReg src1RegReadBaseReg_1 = GetScalarRegReadBaseReg(vars,src1RegIndex+1);

	mov	eax, DWORD PTR _src1RegIndex$[ebp]
	add	eax, 1
	push	eax
	mov	ecx, DWORD PTR _vars$[ebp]
	push	ecx
	call	?GetScalarRegReadBaseReg@@YA?AW4x86BaseReg@@PAVEmitterVariables@@I@Z ; GetScalarRegReadBaseReg
	add	esp, 8
	mov	DWORD PTR _src1RegReadBaseReg_1$[ebp], eax

; 101  :   x86BaseReg src1RegReadBaseReg_2 = GetScalarRegReadBaseReg(vars,src1RegIndex+2);

	mov	edx, DWORD PTR _src1RegIndex$[ebp]
	add	edx, 2
	push	edx
	mov	eax, DWORD PTR _vars$[ebp]
	push	eax
	call	?GetScalarRegReadBaseReg@@YA?AW4x86BaseReg@@PAVEmitterVariables@@I@Z ; GetScalarRegReadBaseReg
	add	esp, 8
	mov	DWORD PTR _src1RegReadBaseReg_2$[ebp], eax

; 102  :   x86BaseReg src1RegReadBaseReg_3 = GetScalarRegReadBaseReg(vars,src1RegIndex+3);

	mov	ecx, DWORD PTR _src1RegIndex$[ebp]
	add	ecx, 3
	push	ecx
	mov	edx, DWORD PTR _vars$[ebp]
	push	edx
	call	?GetScalarRegReadBaseReg@@YA?AW4x86BaseReg@@PAVEmitterVariables@@I@Z ; GetScalarRegReadBaseReg
	add	esp, 8
	mov	DWORD PTR _src1RegReadBaseReg_3$[ebp], eax

; 103  :   x86BaseReg destRegWriteBaseReg = GetScalarRegWriteBaseReg(vars,destRegIndex);

	mov	eax, DWORD PTR _destRegIndex$[ebp]
	push	eax
	mov	ecx, DWORD PTR _vars$[ebp]
	push	ecx
	call	?GetScalarRegWriteBaseReg@@YA?AW4x86BaseReg@@PAVEmitterVariables@@I@Z ; GetScalarRegWriteBaseReg
	add	esp, 8
	mov	DWORD PTR _destRegWriteBaseReg$[ebp], eax

; 104  :   int32 src1RegDisp = GetScalarRegEmitDisp(vars,src1RegIndex);

	mov	edx, DWORD PTR _src1RegIndex$[ebp]
	push	edx
	mov	eax, DWORD PTR _vars$[ebp]
	push	eax
	call	?GetScalarRegEmitDisp@@YAHPAVEmitterVariables@@I@Z ; GetScalarRegEmitDisp
	add	esp, 8
	mov	DWORD PTR _src1RegDisp$[ebp], eax

; 105  :   int32 destRegDisp = GetScalarRegEmitDisp(vars,destRegIndex);

	mov	ecx, DWORD PTR _destRegIndex$[ebp]
	push	ecx
	mov	edx, DWORD PTR _vars$[ebp]
	push	edx
	call	?GetScalarRegEmitDisp@@YAHPAVEmitterVariables@@I@Z ; GetScalarRegEmitDisp
	add	esp, 8
	mov	DWORD PTR _destRegDisp$[ebp], eax

; 106  : 
; 107  :   if((src1RegReadBaseReg_0 == src1RegReadBaseReg_1) && (src1RegReadBaseReg_2 == src1RegReadBaseReg_3) && (src1RegReadBaseReg_0 == src1RegReadBaseReg_2))

	mov	eax, DWORD PTR _src1RegReadBaseReg_0$[ebp]
	cmp	eax, DWORD PTR _src1RegReadBaseReg_1$[ebp]
	jne	$LN2@Emit_MV_V
	mov	ecx, DWORD PTR _src1RegReadBaseReg_2$[ebp]
	cmp	ecx, DWORD PTR _src1RegReadBaseReg_3$[ebp]
	jne	SHORT $LN2@Emit_MV_V
	mov	edx, DWORD PTR _src1RegReadBaseReg_0$[ebp]
	cmp	edx, DWORD PTR _src1RegReadBaseReg_2$[ebp]
	jne	SHORT $LN2@Emit_MV_V

; 108  :   {
; 109  :     vars->codeCache->X86Emit_MOVQMR(x86Reg_mm0, src1RegReadBaseReg_0, x86IndexReg_none, x86Scale_1, src1RegDisp);

	mov	eax, DWORD PTR _src1RegDisp$[ebp]
	push	eax
	push	0
	push	4
	mov	ecx, DWORD PTR _src1RegReadBaseReg_0$[ebp]
	push	ecx
	push	32					; 00000020H
	mov	edx, DWORD PTR _vars$[ebp]
	mov	ecx, DWORD PTR [edx+4]
	call	?X86Emit_MOVQMR@NativeCodeCache@@QAEXW4x86Reg@@IW4x86IndexReg@@W4x86ScaleVal@@H@Z ; NativeCodeCache::X86Emit_MOVQMR

; 110  :     vars->codeCache->X86Emit_MOVQMR(x86Reg_mm1, src1RegReadBaseReg_0, x86IndexReg_none, x86Scale_1, src1RegDisp+8);

	mov	eax, DWORD PTR _src1RegDisp$[ebp]
	add	eax, 8
	push	eax
	push	0
	push	4
	mov	ecx, DWORD PTR _src1RegReadBaseReg_0$[ebp]
	push	ecx
	push	33					; 00000021H
	mov	edx, DWORD PTR _vars$[ebp]
	mov	ecx, DWORD PTR [edx+4]
	call	?X86Emit_MOVQMR@NativeCodeCache@@QAEXW4x86Reg@@IW4x86IndexReg@@W4x86ScaleVal@@H@Z ; NativeCodeCache::X86Emit_MOVQMR

; 111  :     vars->codeCache->X86Emit_MOVQRM(x86Reg_mm0, src1RegReadBaseReg_0, x86IndexReg_none, x86Scale_1, destRegDisp);

	mov	eax, DWORD PTR _destRegDisp$[ebp]
	push	eax
	push	0
	push	4
	mov	ecx, DWORD PTR _src1RegReadBaseReg_0$[ebp]
	push	ecx
	push	32					; 00000020H
	mov	edx, DWORD PTR _vars$[ebp]
	mov	ecx, DWORD PTR [edx+4]
	call	?X86Emit_MOVQRM@NativeCodeCache@@QAEXW4x86Reg@@IW4x86IndexReg@@W4x86ScaleVal@@H@Z ; NativeCodeCache::X86Emit_MOVQRM

; 112  :     vars->codeCache->X86Emit_MOVQRM(x86Reg_mm1, src1RegReadBaseReg_0, x86IndexReg_none, x86Scale_1, destRegDisp+8);

	mov	eax, DWORD PTR _destRegDisp$[ebp]
	add	eax, 8
	push	eax
	push	0
	push	4
	mov	ecx, DWORD PTR _src1RegReadBaseReg_0$[ebp]
	push	ecx
	push	33					; 00000021H
	mov	edx, DWORD PTR _vars$[ebp]
	mov	ecx, DWORD PTR [edx+4]
	call	?X86Emit_MOVQRM@NativeCodeCache@@QAEXW4x86Reg@@IW4x86IndexReg@@W4x86ScaleVal@@H@Z ; NativeCodeCache::X86Emit_MOVQRM

; 113  :     vars->bUsesMMX = true;

	mov	eax, DWORD PTR _vars$[ebp]
	mov	BYTE PTR [eax+18], 1

; 114  :   }
; 115  :   else

	jmp	$LN3@Emit_MV_V
$LN2@Emit_MV_V:

; 116  :   {
; 117  :     vars->codeCache->X86Emit_MOVMR(x86Reg_eax, src1RegReadBaseReg_0, x86IndexReg_none, x86Scale_1, src1RegDisp);

	mov	ecx, DWORD PTR _src1RegDisp$[ebp]
	push	ecx
	push	0
	push	4
	mov	edx, DWORD PTR _src1RegReadBaseReg_0$[ebp]
	push	edx
	push	16					; 00000010H
	mov	eax, DWORD PTR _vars$[ebp]
	mov	ecx, DWORD PTR [eax+4]
	call	?X86Emit_MOVMR@NativeCodeCache@@QAEXW4x86Reg@@IW4x86IndexReg@@W4x86ScaleVal@@H@Z ; NativeCodeCache::X86Emit_MOVMR

; 118  :     vars->codeCache->X86Emit_MOVMR(x86Reg_ebx, src1RegReadBaseReg_1, x86IndexReg_none, x86Scale_1, src1RegDisp+4);

	mov	ecx, DWORD PTR _src1RegDisp$[ebp]
	add	ecx, 4
	push	ecx
	push	0
	push	4
	mov	edx, DWORD PTR _src1RegReadBaseReg_1$[ebp]
	push	edx
	push	19					; 00000013H
	mov	eax, DWORD PTR _vars$[ebp]
	mov	ecx, DWORD PTR [eax+4]
	call	?X86Emit_MOVMR@NativeCodeCache@@QAEXW4x86Reg@@IW4x86IndexReg@@W4x86ScaleVal@@H@Z ; NativeCodeCache::X86Emit_MOVMR

; 119  :     vars->codeCache->X86Emit_MOVMR(x86Reg_ecx, src1RegReadBaseReg_2, x86IndexReg_none, x86Scale_1, src1RegDisp+8);

	mov	ecx, DWORD PTR _src1RegDisp$[ebp]
	add	ecx, 8
	push	ecx
	push	0
	push	4
	mov	edx, DWORD PTR _src1RegReadBaseReg_2$[ebp]
	push	edx
	push	17					; 00000011H
	mov	eax, DWORD PTR _vars$[ebp]
	mov	ecx, DWORD PTR [eax+4]
	call	?X86Emit_MOVMR@NativeCodeCache@@QAEXW4x86Reg@@IW4x86IndexReg@@W4x86ScaleVal@@H@Z ; NativeCodeCache::X86Emit_MOVMR

; 120  :     vars->codeCache->X86Emit_MOVMR(x86Reg_edx, src1RegReadBaseReg_3, x86IndexReg_none, x86Scale_1, src1RegDisp+12);

	mov	ecx, DWORD PTR _src1RegDisp$[ebp]
	add	ecx, 12					; 0000000cH
	push	ecx
	push	0
	push	4
	mov	edx, DWORD PTR _src1RegReadBaseReg_3$[ebp]
	push	edx
	push	18					; 00000012H
	mov	eax, DWORD PTR _vars$[ebp]
	mov	ecx, DWORD PTR [eax+4]
	call	?X86Emit_MOVMR@NativeCodeCache@@QAEXW4x86Reg@@IW4x86IndexReg@@W4x86ScaleVal@@H@Z ; NativeCodeCache::X86Emit_MOVMR

; 121  : 
; 122  :     vars->codeCache->X86Emit_MOVRM(x86Reg_eax, destRegWriteBaseReg, x86IndexReg_none, x86Scale_1, destRegDisp);

	mov	ecx, DWORD PTR _destRegDisp$[ebp]
	push	ecx
	push	0
	push	4
	mov	edx, DWORD PTR _destRegWriteBaseReg$[ebp]
	push	edx
	push	16					; 00000010H
	mov	eax, DWORD PTR _vars$[ebp]
	mov	ecx, DWORD PTR [eax+4]
	call	?X86Emit_MOVRM@NativeCodeCache@@QAEXW4x86Reg@@IW4x86IndexReg@@W4x86ScaleVal@@H@Z ; NativeCodeCache::X86Emit_MOVRM

; 123  :     vars->codeCache->X86Emit_MOVRM(x86Reg_ebx, destRegWriteBaseReg, x86IndexReg_none, x86Scale_1, destRegDisp+4);

	mov	ecx, DWORD PTR _destRegDisp$[ebp]
	add	ecx, 4
	push	ecx
	push	0
	push	4
	mov	edx, DWORD PTR _destRegWriteBaseReg$[ebp]
	push	edx
	push	19					; 00000013H
	mov	eax, DWORD PTR _vars$[ebp]
	mov	ecx, DWORD PTR [eax+4]
	call	?X86Emit_MOVRM@NativeCodeCache@@QAEXW4x86Reg@@IW4x86IndexReg@@W4x86ScaleVal@@H@Z ; NativeCodeCache::X86Emit_MOVRM

; 124  :     vars->codeCache->X86Emit_MOVRM(x86Reg_ecx, destRegWriteBaseReg, x86IndexReg_none, x86Scale_1, destRegDisp+8);

	mov	ecx, DWORD PTR _destRegDisp$[ebp]
	add	ecx, 8
	push	ecx
	push	0
	push	4
	mov	edx, DWORD PTR _destRegWriteBaseReg$[ebp]
	push	edx
	push	17					; 00000011H
	mov	eax, DWORD PTR _vars$[ebp]
	mov	ecx, DWORD PTR [eax+4]
	call	?X86Emit_MOVRM@NativeCodeCache@@QAEXW4x86Reg@@IW4x86IndexReg@@W4x86ScaleVal@@H@Z ; NativeCodeCache::X86Emit_MOVRM

; 125  :     vars->codeCache->X86Emit_MOVRM(x86Reg_edx, destRegWriteBaseReg, x86IndexReg_none, x86Scale_1, destRegDisp+12);

	mov	ecx, DWORD PTR _destRegDisp$[ebp]
	add	ecx, 12					; 0000000cH
	push	ecx
	push	0
	push	4
	mov	edx, DWORD PTR _destRegWriteBaseReg$[ebp]
	push	edx
	push	18					; 00000012H
	mov	eax, DWORD PTR _vars$[ebp]
	mov	ecx, DWORD PTR [eax+4]
	call	?X86Emit_MOVRM@NativeCodeCache@@QAEXW4x86Reg@@IW4x86IndexReg@@W4x86ScaleVal@@H@Z ; NativeCodeCache::X86Emit_MOVRM
$LN3@Emit_MV_V:

; 126  :   }
; 127  : }

	add	esp, 36					; 00000024H
	cmp	ebp, esp
	call	__RTC_CheckEsp
	mov	esp, ebp
	pop	ebp
	ret	0
?Emit_MV_V@@YAXPAVEmitterVariables@@AAVNuance@@@Z ENDP	; Emit_MV_V
_TEXT	ENDS
PUBLIC	?Emit_LoadByteAbsolute@@YAXPAVEmitterVariables@@AAVNuance@@@Z ; Emit_LoadByteAbsolute
; Function compile flags: /Odtp /RTCsu
_TEXT	SEGMENT
_destRegDisp$ = -16					; size = 4
_destRegWriteBaseReg$ = -12				; size = 4
_srcAddress$ = -8					; size = 4
_destRegIndex$ = -4					; size = 4
_vars$ = 8						; size = 4
_nuance$ = 12						; size = 4
?Emit_LoadByteAbsolute@@YAXPAVEmitterVariables@@AAVNuance@@@Z PROC ; Emit_LoadByteAbsolute

; 130  : {

	push	ebp
	mov	ebp, esp
	sub	esp, 16					; 00000010H
	mov	eax, -858993460				; ccccccccH
	mov	DWORD PTR [ebp-16], eax
	mov	DWORD PTR [ebp-12], eax
	mov	DWORD PTR [ebp-8], eax
	mov	DWORD PTR [ebp-4], eax

; 131  :   uint32 destRegIndex = nuance.fields[FIELD_MEM_TO];

	mov	eax, DWORD PTR _nuance$[ebp]
	mov	ecx, DWORD PTR [eax+8]
	mov	DWORD PTR _destRegIndex$[ebp], ecx

; 132  :   uint32 srcAddress = nuance.fields[FIELD_MEM_POINTER];

	mov	edx, DWORD PTR _nuance$[ebp]
	mov	eax, DWORD PTR [edx+16]
	mov	DWORD PTR _srcAddress$[ebp], eax

; 133  :   x86BaseReg destRegWriteBaseReg = GetScalarRegWriteBaseReg(vars,destRegIndex);

	mov	ecx, DWORD PTR _destRegIndex$[ebp]
	push	ecx
	mov	edx, DWORD PTR _vars$[ebp]
	push	edx
	call	?GetScalarRegWriteBaseReg@@YA?AW4x86BaseReg@@PAVEmitterVariables@@I@Z ; GetScalarRegWriteBaseReg
	add	esp, 8
	mov	DWORD PTR _destRegWriteBaseReg$[ebp], eax

; 134  :   int32 destRegDisp = GetScalarRegEmitDisp(vars,destRegIndex);

	mov	eax, DWORD PTR _destRegIndex$[ebp]
	push	eax
	mov	ecx, DWORD PTR _vars$[ebp]
	push	ecx
	call	?GetScalarRegEmitDisp@@YAHPAVEmitterVariables@@I@Z ; GetScalarRegEmitDisp
	add	esp, 8
	mov	DWORD PTR _destRegDisp$[ebp], eax

; 135  : 
; 136  :   if(vars->scalarRegOutDep)

	mov	edx, DWORD PTR _vars$[ebp]
	cmp	DWORD PTR [edx+36], 0
	je	SHORT $LN2@Emit_LoadB

; 137  :   {
; 138  :     vars->codeCache->X86Emit_MOVMR(x86Reg_eax, srcAddress);

	push	0
	push	0
	push	4
	mov	eax, DWORD PTR _srcAddress$[ebp]
	push	eax
	push	16					; 00000010H
	mov	ecx, DWORD PTR _vars$[ebp]
	mov	ecx, DWORD PTR [ecx+4]
	call	?X86Emit_MOVMR@NativeCodeCache@@QAEXW4x86Reg@@IW4x86IndexReg@@W4x86ScaleVal@@H@Z ; NativeCodeCache::X86Emit_MOVMR

; 139  :     vars->codeCache->X86Emit_SHLIR(x86Reg_eax, 24);

	push	24					; 00000018H
	push	16					; 00000010H
	mov	edx, DWORD PTR _vars$[ebp]
	mov	ecx, DWORD PTR [edx+4]
	call	?X86Emit_SHLIR@NativeCodeCache@@QAEXW4x86Reg@@E@Z ; NativeCodeCache::X86Emit_SHLIR

; 140  :     vars->codeCache->X86Emit_MOVRM(x86Reg_eax, destRegWriteBaseReg, x86IndexReg_none, x86Scale_1, destRegDisp);

	mov	eax, DWORD PTR _destRegDisp$[ebp]
	push	eax
	push	0
	push	4
	mov	ecx, DWORD PTR _destRegWriteBaseReg$[ebp]
	push	ecx
	push	16					; 00000010H
	mov	edx, DWORD PTR _vars$[ebp]
	mov	ecx, DWORD PTR [edx+4]
	call	?X86Emit_MOVRM@NativeCodeCache@@QAEXW4x86Reg@@IW4x86IndexReg@@W4x86ScaleVal@@H@Z ; NativeCodeCache::X86Emit_MOVRM
$LN2@Emit_LoadB:

; 141  :   }
; 142  : }

	add	esp, 16					; 00000010H
	cmp	ebp, esp
	call	__RTC_CheckEsp
	mov	esp, ebp
	pop	ebp
	ret	0
?Emit_LoadByteAbsolute@@YAXPAVEmitterVariables@@AAVNuance@@@Z ENDP ; Emit_LoadByteAbsolute
_TEXT	ENDS
PUBLIC	?GetBasePointer@FlashEEPROM@@QAEPAEXZ		; FlashEEPROM::GetBasePointer
PUBLIC	?SetLabelPointer@PatchManager@@QAEXIPAE@Z	; PatchManager::SetLabelPointer
PUBLIC	?GetEmitPointer@NativeCodeCache@@QAEPAEXZ	; NativeCodeCache::GetEmitPointer
PUBLIC	?Reset@PatchManager@@QAEXXZ			; PatchManager::Reset
PUBLIC	?Emit_LoadByteLinear@@YAXPAVEmitterVariables@@AAVNuance@@@Z ; Emit_LoadByteLinear
EXTRN	?ApplyPatches@PatchManager@@QAEXXZ:PROC		; PatchManager::ApplyPatches
EXTRN	?X86Emit_CMOVNBRR@NativeCodeCache@@QAEXW4x86Reg@@I@Z:PROC ; NativeCodeCache::X86Emit_CMOVNBRR
EXTRN	?nuonEnv@@3PAVNuonEnvironment@@A:DWORD		; nuonEnv
EXTRN	?Emit_ExitBlock@@YAXPAVEmitterVariables@@@Z:PROC ; Emit_ExitBlock
EXTRN	?X86Emit_JCC_Label@NativeCodeCache@@QAEXPAVPatchManager@@CI@Z:PROC ; NativeCodeCache::X86Emit_JCC_Label
EXTRN	?X86Emit_CMPIR@NativeCodeCache@@QAEXHW4x86Reg@@@Z:PROC ; NativeCodeCache::X86Emit_CMPIR
; Function compile flags: /Odtp /RTCsu
_TEXT	SEGMENT
_destRegDisp$ = -28					; size = 4
_srcRegDisp$ = -24					; size = 4
_destRegWriteBaseReg$ = -20				; size = 4
_srcRegReadBaseReg$ = -16				; size = 4
_srcRegIndex$ = -12					; size = 4
_destRegIndex$ = -8					; size = 4
_l_not_control_reg$ = -4				; size = 4
_vars$ = 8						; size = 4
_nuance$ = 12						; size = 4
?Emit_LoadByteLinear@@YAXPAVEmitterVariables@@AAVNuance@@@Z PROC ; Emit_LoadByteLinear

; 145  : {

	push	ebp
	mov	ebp, esp
	sub	esp, 28					; 0000001cH
	mov	eax, -858993460				; ccccccccH
	mov	DWORD PTR [ebp-28], eax
	mov	DWORD PTR [ebp-24], eax
	mov	DWORD PTR [ebp-20], eax
	mov	DWORD PTR [ebp-16], eax
	mov	DWORD PTR [ebp-12], eax
	mov	DWORD PTR [ebp-8], eax
	mov	DWORD PTR [ebp-4], eax

; 146  :   uint32 l_not_control_reg = 0;

	mov	DWORD PTR _l_not_control_reg$[ebp], 0

; 147  : 
; 148  :   uint32 destRegIndex = nuance.fields[FIELD_MEM_TO];

	mov	eax, DWORD PTR _nuance$[ebp]
	mov	ecx, DWORD PTR [eax+8]
	mov	DWORD PTR _destRegIndex$[ebp], ecx

; 149  :   uint32 srcRegIndex = nuance.fields[FIELD_MEM_FROM];

	mov	edx, DWORD PTR _nuance$[ebp]
	mov	eax, DWORD PTR [edx+12]
	mov	DWORD PTR _srcRegIndex$[ebp], eax

; 150  :   x86BaseReg srcRegReadBaseReg = GetScalarRegReadBaseReg(vars,srcRegIndex);

	mov	ecx, DWORD PTR _srcRegIndex$[ebp]
	push	ecx
	mov	edx, DWORD PTR _vars$[ebp]
	push	edx
	call	?GetScalarRegReadBaseReg@@YA?AW4x86BaseReg@@PAVEmitterVariables@@I@Z ; GetScalarRegReadBaseReg
	add	esp, 8
	mov	DWORD PTR _srcRegReadBaseReg$[ebp], eax

; 151  :   x86BaseReg destRegWriteBaseReg = GetScalarRegWriteBaseReg(vars,destRegIndex);

	mov	eax, DWORD PTR _destRegIndex$[ebp]
	push	eax
	mov	ecx, DWORD PTR _vars$[ebp]
	push	ecx
	call	?GetScalarRegWriteBaseReg@@YA?AW4x86BaseReg@@PAVEmitterVariables@@I@Z ; GetScalarRegWriteBaseReg
	add	esp, 8
	mov	DWORD PTR _destRegWriteBaseReg$[ebp], eax

; 152  :   int32 srcRegDisp = GetScalarRegEmitDisp(vars,srcRegIndex);

	mov	edx, DWORD PTR _srcRegIndex$[ebp]
	push	edx
	mov	eax, DWORD PTR _vars$[ebp]
	push	eax
	call	?GetScalarRegEmitDisp@@YAHPAVEmitterVariables@@I@Z ; GetScalarRegEmitDisp
	add	esp, 8
	mov	DWORD PTR _srcRegDisp$[ebp], eax

; 153  :   int32 destRegDisp = GetScalarRegEmitDisp(vars,destRegIndex);

	mov	ecx, DWORD PTR _destRegIndex$[ebp]
	push	ecx
	mov	edx, DWORD PTR _vars$[ebp]
	push	edx
	call	?GetScalarRegEmitDisp@@YAHPAVEmitterVariables@@I@Z ; GetScalarRegEmitDisp
	add	esp, 8
	mov	DWORD PTR _destRegDisp$[ebp], eax

; 154  : 
; 155  :   vars->patchMgr->Reset();

	mov	eax, DWORD PTR _vars$[ebp]
	mov	ecx, DWORD PTR [eax+8]
	call	?Reset@PatchManager@@QAEXXZ		; PatchManager::Reset

; 156  : 
; 157  :   vars->codeCache->X86Emit_MOVMR(x86Reg_eax, srcRegReadBaseReg, x86IndexReg_none, x86Scale_1, srcRegDisp);

	mov	ecx, DWORD PTR _srcRegDisp$[ebp]
	push	ecx
	push	0
	push	4
	mov	edx, DWORD PTR _srcRegReadBaseReg$[ebp]
	push	edx
	push	16					; 00000010H
	mov	eax, DWORD PTR _vars$[ebp]
	mov	ecx, DWORD PTR [eax+4]
	call	?X86Emit_MOVMR@NativeCodeCache@@QAEXW4x86Reg@@IW4x86IndexReg@@W4x86ScaleVal@@H@Z ; NativeCodeCache::X86Emit_MOVMR

; 158  :   vars->codeCache->X86Emit_MOVRR(x86Reg_ebx, x86Reg_eax);

	push	16					; 00000010H
	push	19					; 00000013H
	mov	ecx, DWORD PTR _vars$[ebp]
	mov	ecx, DWORD PTR [ecx+4]
	call	?X86Emit_MOVRR@NativeCodeCache@@QAEXW4x86Reg@@0@Z ; NativeCodeCache::X86Emit_MOVRR

; 159  :   vars->codeCache->X86Emit_ANDIR(0xFFF00000, x86Reg_ebx);

	push	19					; 00000013H
	push	-1048576				; fff00000H
	mov	edx, DWORD PTR _vars$[ebp]
	mov	ecx, DWORD PTR [edx+4]
	call	?X86Emit_ANDIR@NativeCodeCache@@QAEXHW4x86Reg@@@Z ; NativeCodeCache::X86Emit_ANDIR

; 160  :   vars->codeCache->X86Emit_CMPIR(0x20500000, x86Reg_ebx);

	push	19					; 00000013H
	push	542113792				; 20500000H
	mov	eax, DWORD PTR _vars$[ebp]
	mov	ecx, DWORD PTR [eax+4]
	call	?X86Emit_CMPIR@NativeCodeCache@@QAEXHW4x86Reg@@@Z ; NativeCodeCache::X86Emit_CMPIR

; 161  :   vars->codeCache->X86Emit_JCC_Label(vars->patchMgr, X86_CC_NZ, l_not_control_reg);

	mov	ecx, DWORD PTR _l_not_control_reg$[ebp]
	push	ecx
	push	5
	mov	edx, DWORD PTR _vars$[ebp]
	mov	eax, DWORD PTR [edx+8]
	push	eax
	mov	ecx, DWORD PTR _vars$[ebp]
	mov	ecx, DWORD PTR [ecx+4]
	call	?X86Emit_JCC_Label@NativeCodeCache@@QAEXPAVPatchManager@@CI@Z ; NativeCodeCache::X86Emit_JCC_Label

; 162  :   vars->codeCache->X86Emit_MOVIM(1, x86MemPtr_dword, (uint32)&(vars->mpe->interpretNextPacket));

	push	0
	push	0
	push	4
	mov	edx, DWORD PTR _vars$[ebp]
	mov	eax, DWORD PTR [edx]
	add	eax, 620				; 0000026cH
	push	eax
	push	2
	push	1
	mov	ecx, DWORD PTR _vars$[ebp]
	mov	ecx, DWORD PTR [ecx+4]
	call	?X86Emit_MOVIM@NativeCodeCache@@QAEXHW4x86MemPtr@@IW4x86IndexReg@@W4x86ScaleVal@@H@Z ; NativeCodeCache::X86Emit_MOVIM

; 163  :   vars->codeCache->X86Emit_MOVIM(vars->pInstructionEntry->packet->pcexec, x86MemPtr_dword, (uint32)&(vars->mpe->pcexec));

	push	0
	push	0
	push	4
	mov	edx, DWORD PTR _vars$[ebp]
	mov	eax, DWORD PTR [edx]
	add	eax, 408				; 00000198H
	push	eax
	push	2
	mov	ecx, DWORD PTR _vars$[ebp]
	mov	edx, DWORD PTR [ecx+12]
	mov	eax, DWORD PTR [edx]
	mov	ecx, DWORD PTR [eax]
	push	ecx
	mov	edx, DWORD PTR _vars$[ebp]
	mov	ecx, DWORD PTR [edx+4]
	call	?X86Emit_MOVIM@NativeCodeCache@@QAEXHW4x86MemPtr@@IW4x86IndexReg@@W4x86ScaleVal@@H@Z ; NativeCodeCache::X86Emit_MOVIM

; 164  :   Emit_ExitBlock(vars);

	mov	eax, DWORD PTR _vars$[ebp]
	push	eax
	call	?Emit_ExitBlock@@YAXPAVEmitterVariables@@@Z ; Emit_ExitBlock
	add	esp, 4

; 165  :   vars->codeCache->patchMgr->SetLabelPointer(l_not_control_reg,vars->codeCache->GetEmitPointer());

	mov	ecx, DWORD PTR _vars$[ebp]
	mov	ecx, DWORD PTR [ecx+4]
	call	?GetEmitPointer@NativeCodeCache@@QAEPAEXZ ; NativeCodeCache::GetEmitPointer
	push	eax
	mov	edx, DWORD PTR _l_not_control_reg$[ebp]
	push	edx
	mov	eax, DWORD PTR _vars$[ebp]
	mov	ecx, DWORD PTR [eax+4]
	mov	ecx, DWORD PTR [ecx]
	call	?SetLabelPointer@PatchManager@@QAEXIPAE@Z ; PatchManager::SetLabelPointer

; 166  :   vars->codeCache->X86Emit_MOVIR((uint32)(vars->mpe->dtrom), x86Reg_ebx);

	push	19					; 00000013H
	mov	edx, DWORD PTR _vars$[ebp]
	mov	eax, DWORD PTR [edx]
	mov	ecx, DWORD PTR [eax+560]
	push	ecx
	mov	edx, DWORD PTR _vars$[ebp]
	mov	ecx, DWORD PTR [edx+4]
	call	?X86Emit_MOVIR@NativeCodeCache@@QAEXHW4x86Reg@@@Z ; NativeCodeCache::X86Emit_MOVIR

; 167  :   vars->codeCache->X86Emit_MOVIR((uint32)(nuonEnv->mainBusDRAM), x86Reg_ecx);

	push	17					; 00000011H
	mov	eax, DWORD PTR ?nuonEnv@@3PAVNuonEnvironment@@A ; nuonEnv
	mov	ecx, DWORD PTR [eax+24]
	push	ecx
	mov	edx, DWORD PTR _vars$[ebp]
	mov	ecx, DWORD PTR [edx+4]
	call	?X86Emit_MOVIR@NativeCodeCache@@QAEXHW4x86Reg@@@Z ; NativeCodeCache::X86Emit_MOVIR

; 168  :   vars->codeCache->X86Emit_MOVIR((uint32)(nuonEnv->systemBusDRAM), x86Reg_edx);

	push	18					; 00000012H
	mov	eax, DWORD PTR ?nuonEnv@@3PAVNuonEnvironment@@A ; nuonEnv
	mov	ecx, DWORD PTR [eax+28]
	push	ecx
	mov	edx, DWORD PTR _vars$[ebp]
	mov	ecx, DWORD PTR [edx+4]
	call	?X86Emit_MOVIR@NativeCodeCache@@QAEXHW4x86Reg@@@Z ; NativeCodeCache::X86Emit_MOVIR

; 169  :   vars->codeCache->X86Emit_MOVIR((uint32)(nuonEnv->flashEEPROM->GetBasePointer()), x86Reg_ebp);

	push	21					; 00000015H
	mov	eax, DWORD PTR ?nuonEnv@@3PAVNuonEnvironment@@A ; nuonEnv
	mov	ecx, DWORD PTR [eax+32]
	call	?GetBasePointer@FlashEEPROM@@QAEPAEXZ	; FlashEEPROM::GetBasePointer
	push	eax
	mov	ecx, DWORD PTR _vars$[ebp]
	mov	ecx, DWORD PTR [ecx+4]
	call	?X86Emit_MOVIR@NativeCodeCache@@QAEXHW4x86Reg@@@Z ; NativeCodeCache::X86Emit_MOVIR

; 170  :   vars->codeCache->X86Emit_CMPIR(0x40000000, x86Reg_eax);

	push	16					; 00000010H
	push	1073741824				; 40000000H
	mov	edx, DWORD PTR _vars$[ebp]
	mov	ecx, DWORD PTR [edx+4]
	call	?X86Emit_CMPIR@NativeCodeCache@@QAEXHW4x86Reg@@@Z ; NativeCodeCache::X86Emit_CMPIR

; 171  :   vars->codeCache->X86Emit_CMOVNBRR(x86Reg_ebx, x86Reg_ecx);

	push	17					; 00000011H
	push	19					; 00000013H
	mov	eax, DWORD PTR _vars$[ebp]
	mov	ecx, DWORD PTR [eax+4]
	call	?X86Emit_CMOVNBRR@NativeCodeCache@@QAEXW4x86Reg@@I@Z ; NativeCodeCache::X86Emit_CMOVNBRR

; 172  :   vars->codeCache->X86Emit_CMPIR(0x80000000, x86Reg_eax);

	push	16					; 00000010H
	push	-2147483648				; 80000000H
	mov	ecx, DWORD PTR _vars$[ebp]
	mov	ecx, DWORD PTR [ecx+4]
	call	?X86Emit_CMPIR@NativeCodeCache@@QAEXHW4x86Reg@@@Z ; NativeCodeCache::X86Emit_CMPIR

; 173  :   vars->codeCache->X86Emit_CMOVNBRR(x86Reg_ebx, x86Reg_edx);

	push	18					; 00000012H
	push	19					; 00000013H
	mov	edx, DWORD PTR _vars$[ebp]
	mov	ecx, DWORD PTR [edx+4]
	call	?X86Emit_CMOVNBRR@NativeCodeCache@@QAEXW4x86Reg@@I@Z ; NativeCodeCache::X86Emit_CMOVNBRR

; 174  :   vars->codeCache->X86Emit_CMPIR(0xF0000000, x86Reg_eax);

	push	16					; 00000010H
	push	-268435456				; f0000000H
	mov	eax, DWORD PTR _vars$[ebp]
	mov	ecx, DWORD PTR [eax+4]
	call	?X86Emit_CMPIR@NativeCodeCache@@QAEXHW4x86Reg@@@Z ; NativeCodeCache::X86Emit_CMPIR

; 175  :   vars->codeCache->X86Emit_CMOVNBRR(x86Reg_ebx, x86Reg_ebp);

	push	21					; 00000015H
	push	19					; 00000013H
	mov	ecx, DWORD PTR _vars$[ebp]
	mov	ecx, DWORD PTR [ecx+4]
	call	?X86Emit_CMOVNBRR@NativeCodeCache@@QAEXW4x86Reg@@I@Z ; NativeCodeCache::X86Emit_CMOVNBRR

; 176  :   vars->codeCache->X86Emit_ANDIR(0x007FFFFF, x86Reg_eax);

	push	16					; 00000010H
	push	8388607					; 007fffffH
	mov	edx, DWORD PTR _vars$[ebp]
	mov	ecx, DWORD PTR [edx+4]
	call	?X86Emit_ANDIR@NativeCodeCache@@QAEXHW4x86Reg@@@Z ; NativeCodeCache::X86Emit_ANDIR

; 177  :   vars->codeCache->X86Emit_MOVMR(x86Reg_ebp, x86BaseReg_eax, x86IndexReg_ebx);

	push	0
	push	0
	push	3
	push	0
	push	21					; 00000015H
	mov	eax, DWORD PTR _vars$[ebp]
	mov	ecx, DWORD PTR [eax+4]
	call	?X86Emit_MOVMR@NativeCodeCache@@QAEXW4x86Reg@@IW4x86IndexReg@@W4x86ScaleVal@@H@Z ; NativeCodeCache::X86Emit_MOVMR

; 178  :   vars->codeCache->X86Emit_SHLIR(x86Reg_ebp, 24);

	push	24					; 00000018H
	push	21					; 00000015H
	mov	ecx, DWORD PTR _vars$[ebp]
	mov	ecx, DWORD PTR [ecx+4]
	call	?X86Emit_SHLIR@NativeCodeCache@@QAEXW4x86Reg@@E@Z ; NativeCodeCache::X86Emit_SHLIR

; 179  :   vars->codeCache->X86Emit_MOVRM(x86Reg_ebp, destRegWriteBaseReg, x86IndexReg_none, x86Scale_1, destRegDisp);

	mov	edx, DWORD PTR _destRegDisp$[ebp]
	push	edx
	push	0
	push	4
	mov	eax, DWORD PTR _destRegWriteBaseReg$[ebp]
	push	eax
	push	21					; 00000015H
	mov	ecx, DWORD PTR _vars$[ebp]
	mov	ecx, DWORD PTR [ecx+4]
	call	?X86Emit_MOVRM@NativeCodeCache@@QAEXW4x86Reg@@IW4x86IndexReg@@W4x86ScaleVal@@H@Z ; NativeCodeCache::X86Emit_MOVRM

; 180  : 
; 181  :   vars->patchMgr->ApplyPatches();

	mov	edx, DWORD PTR _vars$[ebp]
	mov	ecx, DWORD PTR [edx+8]
	call	?ApplyPatches@PatchManager@@QAEXXZ	; PatchManager::ApplyPatches

; 182  : }

	add	esp, 28					; 0000001cH
	cmp	ebp, esp
	call	__RTC_CheckEsp
	mov	esp, ebp
	pop	ebp
	ret	0
?Emit_LoadByteLinear@@YAXPAVEmitterVariables@@AAVNuance@@@Z ENDP ; Emit_LoadByteLinear
; Function compile flags: /Odtp /RTCsu
; File c:\nuanceexperimental\patchmanager.h
_TEXT	ENDS
;	COMDAT ?Reset@PatchManager@@QAEXXZ
_TEXT	SEGMENT
_this$ = -4						; size = 4
?Reset@PatchManager@@QAEXXZ PROC			; PatchManager::Reset, COMDAT
; _this$ = ecx

; 54   :   {

	push	ebp
	mov	ebp, esp
	push	ecx
	mov	DWORD PTR [ebp-4], -858993460		; ccccccccH
	mov	DWORD PTR _this$[ebp], ecx

; 55   :     numPatches = 0;

	mov	eax, DWORD PTR _this$[ebp]
	mov	DWORD PTR [eax+1280], 0

; 56   :     numLabels = 0;

	mov	ecx, DWORD PTR _this$[ebp]
	mov	DWORD PTR [ecx+1284], 0

; 57   :   }

	mov	esp, ebp
	pop	ebp
	ret	0
?Reset@PatchManager@@QAEXXZ ENDP			; PatchManager::Reset
; Function compile flags: /Odtp /RTCsu
_TEXT	ENDS
;	COMDAT ?SetLabelPointer@PatchManager@@QAEXIPAE@Z
_TEXT	SEGMENT
_this$ = -4						; size = 4
_labelIndex$ = 8					; size = 4
_ptr$ = 12						; size = 4
?SetLabelPointer@PatchManager@@QAEXIPAE@Z PROC		; PatchManager::SetLabelPointer, COMDAT
; _this$ = ecx

; 69   :   {

	push	ebp
	mov	ebp, esp
	push	ecx
	mov	DWORD PTR [ebp-4], -858993460		; ccccccccH
	mov	DWORD PTR _this$[ebp], ecx

; 70   :     labelPointers[labelIndex] = ptr;

	mov	eax, DWORD PTR _labelIndex$[ebp]
	mov	ecx, DWORD PTR _this$[ebp]
	mov	edx, DWORD PTR _ptr$[ebp]
	mov	DWORD PTR [ecx+eax*4+1024], edx

; 71   :     numLabels++;

	mov	eax, DWORD PTR _this$[ebp]
	mov	ecx, DWORD PTR [eax+1284]
	add	ecx, 1
	mov	edx, DWORD PTR _this$[ebp]
	mov	DWORD PTR [edx+1284], ecx

; 72   :   }

	mov	esp, ebp
	pop	ebp
	ret	8
?SetLabelPointer@PatchManager@@QAEXIPAE@Z ENDP		; PatchManager::SetLabelPointer
; Function compile flags: /Odtp /RTCsu
; File c:\nuanceexperimental\nativecodecache.h
_TEXT	ENDS
;	COMDAT ?GetEmitPointer@NativeCodeCache@@QAEPAEXZ
_TEXT	SEGMENT
_this$ = -4						; size = 4
?GetEmitPointer@NativeCodeCache@@QAEPAEXZ PROC		; NativeCodeCache::GetEmitPointer, COMDAT
; _this$ = ecx

; 51   :   {

	push	ebp
	mov	ebp, esp
	push	ecx
	mov	DWORD PTR [ebp-4], -858993460		; ccccccccH
	mov	DWORD PTR _this$[ebp], ecx

; 52   :     return pEmitLoc;

	mov	eax, DWORD PTR _this$[ebp]
	mov	eax, DWORD PTR [eax+4]

; 53   :   }

	mov	esp, ebp
	pop	ebp
	ret	0
?GetEmitPointer@NativeCodeCache@@QAEPAEXZ ENDP		; NativeCodeCache::GetEmitPointer
; Function compile flags: /Odtp /RTCsu
; File c:\nuanceexperimental\flasheeprom.h
_TEXT	ENDS
;	COMDAT ?GetBasePointer@FlashEEPROM@@QAEPAEXZ
_TEXT	SEGMENT
_this$ = -4						; size = 4
?GetBasePointer@FlashEEPROM@@QAEPAEXZ PROC		; FlashEEPROM::GetBasePointer, COMDAT
; _this$ = ecx

; 55   :   {

	push	ebp
	mov	ebp, esp
	push	ecx
	mov	DWORD PTR [ebp-4], -858993460		; ccccccccH
	mov	DWORD PTR _this$[ebp], ecx

; 56   :     return eeprom;

	mov	eax, DWORD PTR _this$[ebp]
	mov	eax, DWORD PTR [eax+4]

; 57   :   }

	mov	esp, ebp
	pop	ebp
	ret	0
?GetBasePointer@FlashEEPROM@@QAEPAEXZ ENDP		; FlashEEPROM::GetBasePointer
_TEXT	ENDS
PUBLIC	?GetMiscRegEmitDisp@@YAHPAVEmitterVariables@@I@Z ; GetMiscRegEmitDisp
PUBLIC	?GetMiscRegReadBaseReg@@YA?AW4x86BaseReg@@PAVEmitterVariables@@I@Z ; GetMiscRegReadBaseReg
PUBLIC	?Emit_LoadByteBilinearXY@@YAXPAVEmitterVariables@@AAVNuance@@@Z ; Emit_LoadByteBilinearXY
EXTRN	?X86Emit_CALLI@NativeCodeCache@@QAEXIG@Z:PROC	; NativeCodeCache::X86Emit_CALLI
EXTRN	?GetBilinearAddress@@YAXXZ:PROC			; GetBilinearAddress
EXTRN	?bilinearAddressInfo@@3UstructBilinearAddressInfo@@A:BYTE ; bilinearAddressInfo
; Function compile flags: /Odtp /RTCsu
; File c:\nuanceexperimental\emitmem.cpp
_TEXT	SEGMENT
_xyctlRegDisp$ = -36					; size = 4
_ryRegDisp$ = -32					; size = 4
_rxRegDisp$ = -28					; size = 4
_destRegDisp$ = -24					; size = 4
_destRegWriteBaseReg$ = -20				; size = 4
_xyctlRegReadBaseReg$ = -16				; size = 4
_ryRegReadBaseReg$ = -12				; size = 4
_rxRegReadBaseReg$ = -8					; size = 4
_destRegIndex$ = -4					; size = 4
_vars$ = 8						; size = 4
_nuance$ = 12						; size = 4
?Emit_LoadByteBilinearXY@@YAXPAVEmitterVariables@@AAVNuance@@@Z PROC ; Emit_LoadByteBilinearXY

; 185  : {

	push	ebp
	mov	ebp, esp
	sub	esp, 36					; 00000024H
	mov	eax, -858993460				; ccccccccH
	mov	DWORD PTR [ebp-36], eax
	mov	DWORD PTR [ebp-32], eax
	mov	DWORD PTR [ebp-28], eax
	mov	DWORD PTR [ebp-24], eax
	mov	DWORD PTR [ebp-20], eax
	mov	DWORD PTR [ebp-16], eax
	mov	DWORD PTR [ebp-12], eax
	mov	DWORD PTR [ebp-8], eax
	mov	DWORD PTR [ebp-4], eax

; 186  :   uint32 destRegIndex = nuance.fields[FIELD_MEM_TO];

	mov	eax, DWORD PTR _nuance$[ebp]
	mov	ecx, DWORD PTR [eax+8]
	mov	DWORD PTR _destRegIndex$[ebp], ecx

; 187  :   x86BaseReg rxRegReadBaseReg = GetMiscRegReadBaseReg(vars,REGINDEX_RX);

	push	3
	mov	edx, DWORD PTR _vars$[ebp]
	push	edx
	call	?GetMiscRegReadBaseReg@@YA?AW4x86BaseReg@@PAVEmitterVariables@@I@Z ; GetMiscRegReadBaseReg
	add	esp, 8
	mov	DWORD PTR _rxRegReadBaseReg$[ebp], eax

; 188  :   x86BaseReg ryRegReadBaseReg = GetMiscRegReadBaseReg(vars,REGINDEX_RY);

	push	4
	mov	eax, DWORD PTR _vars$[ebp]
	push	eax
	call	?GetMiscRegReadBaseReg@@YA?AW4x86BaseReg@@PAVEmitterVariables@@I@Z ; GetMiscRegReadBaseReg
	add	esp, 8
	mov	DWORD PTR _ryRegReadBaseReg$[ebp], eax

; 189  :   x86BaseReg xyctlRegReadBaseReg = GetMiscRegReadBaseReg(vars,REGINDEX_XYCTL);

	push	10					; 0000000aH
	mov	ecx, DWORD PTR _vars$[ebp]
	push	ecx
	call	?GetMiscRegReadBaseReg@@YA?AW4x86BaseReg@@PAVEmitterVariables@@I@Z ; GetMiscRegReadBaseReg
	add	esp, 8
	mov	DWORD PTR _xyctlRegReadBaseReg$[ebp], eax

; 190  :   x86BaseReg destRegWriteBaseReg = GetScalarRegWriteBaseReg(vars,destRegIndex);

	mov	edx, DWORD PTR _destRegIndex$[ebp]
	push	edx
	mov	eax, DWORD PTR _vars$[ebp]
	push	eax
	call	?GetScalarRegWriteBaseReg@@YA?AW4x86BaseReg@@PAVEmitterVariables@@I@Z ; GetScalarRegWriteBaseReg
	add	esp, 8
	mov	DWORD PTR _destRegWriteBaseReg$[ebp], eax

; 191  :   int32 destRegDisp = GetScalarRegEmitDisp(vars,destRegIndex);

	mov	ecx, DWORD PTR _destRegIndex$[ebp]
	push	ecx
	mov	edx, DWORD PTR _vars$[ebp]
	push	edx
	call	?GetScalarRegEmitDisp@@YAHPAVEmitterVariables@@I@Z ; GetScalarRegEmitDisp
	add	esp, 8
	mov	DWORD PTR _destRegDisp$[ebp], eax

; 192  :   int32 rxRegDisp = GetMiscRegEmitDisp(vars,REGINDEX_RX);

	push	3
	mov	eax, DWORD PTR _vars$[ebp]
	push	eax
	call	?GetMiscRegEmitDisp@@YAHPAVEmitterVariables@@I@Z ; GetMiscRegEmitDisp
	add	esp, 8
	mov	DWORD PTR _rxRegDisp$[ebp], eax

; 193  :   int32 ryRegDisp = GetMiscRegEmitDisp(vars,REGINDEX_RY);

	push	4
	mov	ecx, DWORD PTR _vars$[ebp]
	push	ecx
	call	?GetMiscRegEmitDisp@@YAHPAVEmitterVariables@@I@Z ; GetMiscRegEmitDisp
	add	esp, 8
	mov	DWORD PTR _ryRegDisp$[ebp], eax

; 194  :   int32 xyctlRegDisp = GetMiscRegEmitDisp(vars,REGINDEX_XYCTL);

	push	10					; 0000000aH
	mov	edx, DWORD PTR _vars$[ebp]
	push	edx
	call	?GetMiscRegEmitDisp@@YAHPAVEmitterVariables@@I@Z ; GetMiscRegEmitDisp
	add	esp, 8
	mov	DWORD PTR _xyctlRegDisp$[ebp], eax

; 195  : 
; 196  :   vars->codeCache->X86Emit_MOVMR(x86Reg_eax, rxRegReadBaseReg, x86IndexReg_none, x86Scale_1, rxRegDisp);

	mov	eax, DWORD PTR _rxRegDisp$[ebp]
	push	eax
	push	0
	push	4
	mov	ecx, DWORD PTR _rxRegReadBaseReg$[ebp]
	push	ecx
	push	16					; 00000010H
	mov	edx, DWORD PTR _vars$[ebp]
	mov	ecx, DWORD PTR [edx+4]
	call	?X86Emit_MOVMR@NativeCodeCache@@QAEXW4x86Reg@@IW4x86IndexReg@@W4x86ScaleVal@@H@Z ; NativeCodeCache::X86Emit_MOVMR

; 197  :   vars->codeCache->X86Emit_MOVMR(x86Reg_ebx, ryRegReadBaseReg, x86IndexReg_none, x86Scale_1, ryRegDisp);

	mov	eax, DWORD PTR _ryRegDisp$[ebp]
	push	eax
	push	0
	push	4
	mov	ecx, DWORD PTR _ryRegReadBaseReg$[ebp]
	push	ecx
	push	19					; 00000013H
	mov	edx, DWORD PTR _vars$[ebp]
	mov	ecx, DWORD PTR [edx+4]
	call	?X86Emit_MOVMR@NativeCodeCache@@QAEXW4x86Reg@@IW4x86IndexReg@@W4x86ScaleVal@@H@Z ; NativeCodeCache::X86Emit_MOVMR

; 198  :   vars->codeCache->X86Emit_MOVMR(x86Reg_ecx, xyctlRegReadBaseReg, x86IndexReg_none, x86Scale_1, xyctlRegDisp);

	mov	eax, DWORD PTR _xyctlRegDisp$[ebp]
	push	eax
	push	0
	push	4
	mov	ecx, DWORD PTR _xyctlRegReadBaseReg$[ebp]
	push	ecx
	push	17					; 00000011H
	mov	edx, DWORD PTR _vars$[ebp]
	mov	ecx, DWORD PTR [edx+4]
	call	?X86Emit_MOVMR@NativeCodeCache@@QAEXW4x86Reg@@IW4x86IndexReg@@W4x86ScaleVal@@H@Z ; NativeCodeCache::X86Emit_MOVMR

; 199  :   vars->codeCache->X86Emit_MOVMR(x86Reg_ebp, (uint32)&vars->mpe->xybase);

	push	0
	push	0
	push	4
	mov	eax, DWORD PTR _vars$[ebp]
	mov	ecx, DWORD PTR [eax]
	add	ecx, 448				; 000001c0H
	push	ecx
	push	21					; 00000015H
	mov	edx, DWORD PTR _vars$[ebp]
	mov	ecx, DWORD PTR [edx+4]
	call	?X86Emit_MOVMR@NativeCodeCache@@QAEXW4x86Reg@@IW4x86IndexReg@@W4x86ScaleVal@@H@Z ; NativeCodeCache::X86Emit_MOVMR

; 200  :   vars->codeCache->X86Emit_MOVRM(x86Reg_eax, (uint32)&bilinearAddressInfo.x);

	push	0
	push	0
	push	4
	push	OFFSET ?bilinearAddressInfo@@3UstructBilinearAddressInfo@@A+28
	push	16					; 00000010H
	mov	eax, DWORD PTR _vars$[ebp]
	mov	ecx, DWORD PTR [eax+4]
	call	?X86Emit_MOVRM@NativeCodeCache@@QAEXW4x86Reg@@IW4x86IndexReg@@W4x86ScaleVal@@H@Z ; NativeCodeCache::X86Emit_MOVRM

; 201  :   vars->codeCache->X86Emit_MOVRM(x86Reg_ebx, (uint32)&bilinearAddressInfo.y);

	push	0
	push	0
	push	4
	push	OFFSET ?bilinearAddressInfo@@3UstructBilinearAddressInfo@@A+32
	push	19					; 00000013H
	mov	ecx, DWORD PTR _vars$[ebp]
	mov	ecx, DWORD PTR [ecx+4]
	call	?X86Emit_MOVRM@NativeCodeCache@@QAEXW4x86Reg@@IW4x86IndexReg@@W4x86ScaleVal@@H@Z ; NativeCodeCache::X86Emit_MOVRM

; 202  :   vars->codeCache->X86Emit_MOVRM(x86Reg_ecx, (uint32)&bilinearAddressInfo.control);

	push	0
	push	0
	push	4
	push	OFFSET ?bilinearAddressInfo@@3UstructBilinearAddressInfo@@A+24
	push	17					; 00000011H
	mov	edx, DWORD PTR _vars$[ebp]
	mov	ecx, DWORD PTR [edx+4]
	call	?X86Emit_MOVRM@NativeCodeCache@@QAEXW4x86Reg@@IW4x86IndexReg@@W4x86ScaleVal@@H@Z ; NativeCodeCache::X86Emit_MOVRM

; 203  :   vars->codeCache->X86Emit_MOVRM(x86Reg_ebp, (uint32)&bilinearAddressInfo.base);

	push	0
	push	0
	push	4
	push	OFFSET ?bilinearAddressInfo@@3UstructBilinearAddressInfo@@A+20
	push	21					; 00000015H
	mov	eax, DWORD PTR _vars$[ebp]
	mov	ecx, DWORD PTR [eax+4]
	call	?X86Emit_MOVRM@NativeCodeCache@@QAEXW4x86Reg@@IW4x86IndexReg@@W4x86ScaleVal@@H@Z ; NativeCodeCache::X86Emit_MOVRM

; 204  :   vars->codeCache->X86Emit_CALLI((uint32)GetBilinearAddress,0);

	push	0
	push	OFFSET ?GetBilinearAddress@@YAXXZ	; GetBilinearAddress
	mov	ecx, DWORD PTR _vars$[ebp]
	mov	ecx, DWORD PTR [ecx+4]
	call	?X86Emit_CALLI@NativeCodeCache@@QAEXIG@Z ; NativeCodeCache::X86Emit_CALLI

; 205  :   vars->codeCache->X86Emit_MOVMR(x86Reg_eax, (uint32)&bilinearAddressInfo.offset_address);

	push	0
	push	0
	push	4
	push	OFFSET ?bilinearAddressInfo@@3UstructBilinearAddressInfo@@A+40
	push	16					; 00000010H
	mov	edx, DWORD PTR _vars$[ebp]
	mov	ecx, DWORD PTR [edx+4]
	call	?X86Emit_MOVMR@NativeCodeCache@@QAEXW4x86Reg@@IW4x86IndexReg@@W4x86ScaleVal@@H@Z ; NativeCodeCache::X86Emit_MOVMR

; 206  : 
; 207  :   vars->codeCache->X86Emit_MOVIR((uint32)(vars->mpe->dtrom), x86Reg_ebx);

	push	19					; 00000013H
	mov	eax, DWORD PTR _vars$[ebp]
	mov	ecx, DWORD PTR [eax]
	mov	edx, DWORD PTR [ecx+560]
	push	edx
	mov	eax, DWORD PTR _vars$[ebp]
	mov	ecx, DWORD PTR [eax+4]
	call	?X86Emit_MOVIR@NativeCodeCache@@QAEXHW4x86Reg@@@Z ; NativeCodeCache::X86Emit_MOVIR

; 208  :   vars->codeCache->X86Emit_MOVIR((uint32)(nuonEnv->mainBusDRAM), x86Reg_ecx);

	push	17					; 00000011H
	mov	ecx, DWORD PTR ?nuonEnv@@3PAVNuonEnvironment@@A ; nuonEnv
	mov	edx, DWORD PTR [ecx+24]
	push	edx
	mov	eax, DWORD PTR _vars$[ebp]
	mov	ecx, DWORD PTR [eax+4]
	call	?X86Emit_MOVIR@NativeCodeCache@@QAEXHW4x86Reg@@@Z ; NativeCodeCache::X86Emit_MOVIR

; 209  :   vars->codeCache->X86Emit_MOVIR((uint32)(nuonEnv->systemBusDRAM), x86Reg_edx);

	push	18					; 00000012H
	mov	ecx, DWORD PTR ?nuonEnv@@3PAVNuonEnvironment@@A ; nuonEnv
	mov	edx, DWORD PTR [ecx+28]
	push	edx
	mov	eax, DWORD PTR _vars$[ebp]
	mov	ecx, DWORD PTR [eax+4]
	call	?X86Emit_MOVIR@NativeCodeCache@@QAEXHW4x86Reg@@@Z ; NativeCodeCache::X86Emit_MOVIR

; 210  :   vars->codeCache->X86Emit_MOVIR((uint32)(nuonEnv->flashEEPROM->GetBasePointer()), x86Reg_ebp);

	push	21					; 00000015H
	mov	ecx, DWORD PTR ?nuonEnv@@3PAVNuonEnvironment@@A ; nuonEnv
	mov	ecx, DWORD PTR [ecx+32]
	call	?GetBasePointer@FlashEEPROM@@QAEPAEXZ	; FlashEEPROM::GetBasePointer
	push	eax
	mov	edx, DWORD PTR _vars$[ebp]
	mov	ecx, DWORD PTR [edx+4]
	call	?X86Emit_MOVIR@NativeCodeCache@@QAEXHW4x86Reg@@@Z ; NativeCodeCache::X86Emit_MOVIR

; 211  :   vars->codeCache->X86Emit_CMPIR(0x40000000, x86Reg_eax);

	push	16					; 00000010H
	push	1073741824				; 40000000H
	mov	eax, DWORD PTR _vars$[ebp]
	mov	ecx, DWORD PTR [eax+4]
	call	?X86Emit_CMPIR@NativeCodeCache@@QAEXHW4x86Reg@@@Z ; NativeCodeCache::X86Emit_CMPIR

; 212  :   vars->codeCache->X86Emit_CMOVNBRR(x86Reg_ebx, x86Reg_ecx);

	push	17					; 00000011H
	push	19					; 00000013H
	mov	ecx, DWORD PTR _vars$[ebp]
	mov	ecx, DWORD PTR [ecx+4]
	call	?X86Emit_CMOVNBRR@NativeCodeCache@@QAEXW4x86Reg@@I@Z ; NativeCodeCache::X86Emit_CMOVNBRR

; 213  :   vars->codeCache->X86Emit_CMPIR(0x80000000, x86Reg_eax);

	push	16					; 00000010H
	push	-2147483648				; 80000000H
	mov	edx, DWORD PTR _vars$[ebp]
	mov	ecx, DWORD PTR [edx+4]
	call	?X86Emit_CMPIR@NativeCodeCache@@QAEXHW4x86Reg@@@Z ; NativeCodeCache::X86Emit_CMPIR

; 214  :   vars->codeCache->X86Emit_CMOVNBRR(x86Reg_ebx, x86Reg_edx);

	push	18					; 00000012H
	push	19					; 00000013H
	mov	eax, DWORD PTR _vars$[ebp]
	mov	ecx, DWORD PTR [eax+4]
	call	?X86Emit_CMOVNBRR@NativeCodeCache@@QAEXW4x86Reg@@I@Z ; NativeCodeCache::X86Emit_CMOVNBRR

; 215  :   vars->codeCache->X86Emit_CMPIR(0xF0000000, x86Reg_eax);

	push	16					; 00000010H
	push	-268435456				; f0000000H
	mov	ecx, DWORD PTR _vars$[ebp]
	mov	ecx, DWORD PTR [ecx+4]
	call	?X86Emit_CMPIR@NativeCodeCache@@QAEXHW4x86Reg@@@Z ; NativeCodeCache::X86Emit_CMPIR

; 216  :   vars->codeCache->X86Emit_CMOVNBRR(x86Reg_ebx, x86Reg_ebp);

	push	21					; 00000015H
	push	19					; 00000013H
	mov	edx, DWORD PTR _vars$[ebp]
	mov	ecx, DWORD PTR [edx+4]
	call	?X86Emit_CMOVNBRR@NativeCodeCache@@QAEXW4x86Reg@@I@Z ; NativeCodeCache::X86Emit_CMOVNBRR

; 217  :   vars->codeCache->X86Emit_ANDIR(0x007FFFFF, x86Reg_eax);

	push	16					; 00000010H
	push	8388607					; 007fffffH
	mov	eax, DWORD PTR _vars$[ebp]
	mov	ecx, DWORD PTR [eax+4]
	call	?X86Emit_ANDIR@NativeCodeCache@@QAEXHW4x86Reg@@@Z ; NativeCodeCache::X86Emit_ANDIR

; 218  :   vars->codeCache->X86Emit_MOVMR(x86Reg_ebp, x86BaseReg_eax, x86IndexReg_ebx);

	push	0
	push	0
	push	3
	push	0
	push	21					; 00000015H
	mov	ecx, DWORD PTR _vars$[ebp]
	mov	ecx, DWORD PTR [ecx+4]
	call	?X86Emit_MOVMR@NativeCodeCache@@QAEXW4x86Reg@@IW4x86IndexReg@@W4x86ScaleVal@@H@Z ; NativeCodeCache::X86Emit_MOVMR

; 219  :   vars->codeCache->X86Emit_SHLIR(x86Reg_ebp, 24);

	push	24					; 00000018H
	push	21					; 00000015H
	mov	edx, DWORD PTR _vars$[ebp]
	mov	ecx, DWORD PTR [edx+4]
	call	?X86Emit_SHLIR@NativeCodeCache@@QAEXW4x86Reg@@E@Z ; NativeCodeCache::X86Emit_SHLIR

; 220  :   vars->codeCache->X86Emit_MOVRM(x86Reg_ebp, destRegWriteBaseReg, x86IndexReg_none, x86Scale_1, destRegDisp);

	mov	eax, DWORD PTR _destRegDisp$[ebp]
	push	eax
	push	0
	push	4
	mov	ecx, DWORD PTR _destRegWriteBaseReg$[ebp]
	push	ecx
	push	21					; 00000015H
	mov	edx, DWORD PTR _vars$[ebp]
	mov	ecx, DWORD PTR [edx+4]
	call	?X86Emit_MOVRM@NativeCodeCache@@QAEXW4x86Reg@@IW4x86IndexReg@@W4x86ScaleVal@@H@Z ; NativeCodeCache::X86Emit_MOVRM

; 221  : }

	add	esp, 36					; 00000024H
	cmp	ebp, esp
	call	__RTC_CheckEsp
	mov	esp, ebp
	pop	ebp
	ret	0
?Emit_LoadByteBilinearXY@@YAXPAVEmitterVariables@@AAVNuance@@@Z ENDP ; Emit_LoadByteBilinearXY
; Function compile flags: /Odtp /RTCsu
; File c:\nuanceexperimental\emitmisc.h
_TEXT	ENDS
;	COMDAT ?GetMiscRegReadBaseReg@@YA?AW4x86BaseReg@@PAVEmitterVariables@@I@Z
_TEXT	SEGMENT
_mask$ = -4						; size = 4
_vars$ = 8						; size = 4
_regIndex$ = 12						; size = 4
?GetMiscRegReadBaseReg@@YA?AW4x86BaseReg@@PAVEmitterVariables@@I@Z PROC ; GetMiscRegReadBaseReg, COMDAT

; 52   : {

	push	ebp
	mov	ebp, esp
	push	ecx
	mov	DWORD PTR [ebp-4], -858993460		; ccccccccH

; 53   :   uint32 mask = regIndex;

	mov	eax, DWORD PTR _regIndex$[ebp]
	mov	DWORD PTR _mask$[ebp], eax

; 54   : 
; 55   :   if(!regIndex)

	cmp	DWORD PTR _regIndex$[ebp], 0
	jne	SHORT $LN4@GetMiscReg

; 56   :   {
; 57   :     mask = DEPENDENCY_FLAG_ALLFLAGS;

	mov	DWORD PTR _mask$[ebp], 67076096		; 03ff8000H

; 58   :   }
; 59   :   else

	jmp	SHORT $LN3@GetMiscReg
$LN4@GetMiscReg:

; 60   :   {
; 61   :     mask = MISC_REG_DEPENDENCY_MASK(regIndex - 1);

	mov	ecx, DWORD PTR _regIndex$[ebp]
	sub	ecx, 1
	mov	edx, 1
	shl	edx, cl
	mov	DWORD PTR _mask$[ebp], edx
$LN3@GetMiscReg:

; 62   :   }
; 63   :     
; 64   : 
; 65   :   if(vars->miscRegDep & mask)

	mov	eax, DWORD PTR _vars$[ebp]
	mov	ecx, DWORD PTR [eax+32]
	and	ecx, DWORD PTR _mask$[ebp]
	je	SHORT $LN2@GetMiscReg

; 66   :   {
; 67   :     return x86BaseReg_edi;

	mov	eax, 7
	jmp	SHORT $LN5@GetMiscReg

; 68   :   }
; 69   :   else

	jmp	SHORT $LN5@GetMiscReg
$LN2@GetMiscReg:

; 70   :   {
; 71   :     return x86BaseReg_esi;

	mov	eax, 6
$LN5@GetMiscReg:

; 72   :   }
; 73   : }

	mov	esp, ebp
	pop	ebp
	ret	0
?GetMiscRegReadBaseReg@@YA?AW4x86BaseReg@@PAVEmitterVariables@@I@Z ENDP ; GetMiscRegReadBaseReg
; Function compile flags: /Odtp /RTCsu
_TEXT	ENDS
;	COMDAT ?GetMiscRegEmitDisp@@YAHPAVEmitterVariables@@I@Z
_TEXT	SEGMENT
_vars$ = 8						; size = 4
_regIndex$ = 12						; size = 4
?GetMiscRegEmitDisp@@YAHPAVEmitterVariables@@I@Z PROC	; GetMiscRegEmitDisp, COMDAT

; 80   : {

	push	ebp
	mov	ebp, esp

; 81   :   return regIndex*sizeof(uint32);

	mov	eax, DWORD PTR _regIndex$[ebp]
	shl	eax, 2

; 82   : }

	pop	ebp
	ret	0
?GetMiscRegEmitDisp@@YAHPAVEmitterVariables@@I@Z ENDP	; GetMiscRegEmitDisp
_TEXT	ENDS
PUBLIC	?Emit_LoadByteBilinearUV@@YAXPAVEmitterVariables@@AAVNuance@@@Z ; Emit_LoadByteBilinearUV
; Function compile flags: /Odtp /RTCsu
; File c:\nuanceexperimental\emitmem.cpp
_TEXT	SEGMENT
_uvctlRegDisp$ = -36					; size = 4
_rvRegDisp$ = -32					; size = 4
_ruRegDisp$ = -28					; size = 4
_destRegDisp$ = -24					; size = 4
_destRegWriteBaseReg$ = -20				; size = 4
_uvctlRegReadBaseReg$ = -16				; size = 4
_rvRegReadBaseReg$ = -12				; size = 4
_ruRegReadBaseReg$ = -8					; size = 4
_destRegIndex$ = -4					; size = 4
_vars$ = 8						; size = 4
_nuance$ = 12						; size = 4
?Emit_LoadByteBilinearUV@@YAXPAVEmitterVariables@@AAVNuance@@@Z PROC ; Emit_LoadByteBilinearUV

; 224  : {

	push	ebp
	mov	ebp, esp
	sub	esp, 36					; 00000024H
	mov	eax, -858993460				; ccccccccH
	mov	DWORD PTR [ebp-36], eax
	mov	DWORD PTR [ebp-32], eax
	mov	DWORD PTR [ebp-28], eax
	mov	DWORD PTR [ebp-24], eax
	mov	DWORD PTR [ebp-20], eax
	mov	DWORD PTR [ebp-16], eax
	mov	DWORD PTR [ebp-12], eax
	mov	DWORD PTR [ebp-8], eax
	mov	DWORD PTR [ebp-4], eax

; 225  :   uint32 destRegIndex = nuance.fields[FIELD_MEM_TO];

	mov	eax, DWORD PTR _nuance$[ebp]
	mov	ecx, DWORD PTR [eax+8]
	mov	DWORD PTR _destRegIndex$[ebp], ecx

; 226  :   x86BaseReg ruRegReadBaseReg = GetMiscRegReadBaseReg(vars,REGINDEX_RU);

	push	5
	mov	edx, DWORD PTR _vars$[ebp]
	push	edx
	call	?GetMiscRegReadBaseReg@@YA?AW4x86BaseReg@@PAVEmitterVariables@@I@Z ; GetMiscRegReadBaseReg
	add	esp, 8
	mov	DWORD PTR _ruRegReadBaseReg$[ebp], eax

; 227  :   x86BaseReg rvRegReadBaseReg = GetMiscRegReadBaseReg(vars,REGINDEX_RV);

	push	6
	mov	eax, DWORD PTR _vars$[ebp]
	push	eax
	call	?GetMiscRegReadBaseReg@@YA?AW4x86BaseReg@@PAVEmitterVariables@@I@Z ; GetMiscRegReadBaseReg
	add	esp, 8
	mov	DWORD PTR _rvRegReadBaseReg$[ebp], eax

; 228  :   x86BaseReg uvctlRegReadBaseReg = GetMiscRegReadBaseReg(vars,REGINDEX_UVCTL);

	push	11					; 0000000bH
	mov	ecx, DWORD PTR _vars$[ebp]
	push	ecx
	call	?GetMiscRegReadBaseReg@@YA?AW4x86BaseReg@@PAVEmitterVariables@@I@Z ; GetMiscRegReadBaseReg
	add	esp, 8
	mov	DWORD PTR _uvctlRegReadBaseReg$[ebp], eax

; 229  :   x86BaseReg destRegWriteBaseReg = GetScalarRegWriteBaseReg(vars,destRegIndex);

	mov	edx, DWORD PTR _destRegIndex$[ebp]
	push	edx
	mov	eax, DWORD PTR _vars$[ebp]
	push	eax
	call	?GetScalarRegWriteBaseReg@@YA?AW4x86BaseReg@@PAVEmitterVariables@@I@Z ; GetScalarRegWriteBaseReg
	add	esp, 8
	mov	DWORD PTR _destRegWriteBaseReg$[ebp], eax

; 230  :   int32 destRegDisp = GetScalarRegEmitDisp(vars,destRegIndex);

	mov	ecx, DWORD PTR _destRegIndex$[ebp]
	push	ecx
	mov	edx, DWORD PTR _vars$[ebp]
	push	edx
	call	?GetScalarRegEmitDisp@@YAHPAVEmitterVariables@@I@Z ; GetScalarRegEmitDisp
	add	esp, 8
	mov	DWORD PTR _destRegDisp$[ebp], eax

; 231  :   int32 ruRegDisp = GetMiscRegEmitDisp(vars,REGINDEX_RU);

	push	5
	mov	eax, DWORD PTR _vars$[ebp]
	push	eax
	call	?GetMiscRegEmitDisp@@YAHPAVEmitterVariables@@I@Z ; GetMiscRegEmitDisp
	add	esp, 8
	mov	DWORD PTR _ruRegDisp$[ebp], eax

; 232  :   int32 rvRegDisp = GetMiscRegEmitDisp(vars,REGINDEX_RV);

	push	6
	mov	ecx, DWORD PTR _vars$[ebp]
	push	ecx
	call	?GetMiscRegEmitDisp@@YAHPAVEmitterVariables@@I@Z ; GetMiscRegEmitDisp
	add	esp, 8
	mov	DWORD PTR _rvRegDisp$[ebp], eax

; 233  :   int32 uvctlRegDisp = GetMiscRegEmitDisp(vars,REGINDEX_UVCTL);

	push	11					; 0000000bH
	mov	edx, DWORD PTR _vars$[ebp]
	push	edx
	call	?GetMiscRegEmitDisp@@YAHPAVEmitterVariables@@I@Z ; GetMiscRegEmitDisp
	add	esp, 8
	mov	DWORD PTR _uvctlRegDisp$[ebp], eax

; 234  : 
; 235  :   vars->codeCache->X86Emit_MOVMR(x86Reg_eax, ruRegReadBaseReg, x86IndexReg_none, x86Scale_1, ruRegDisp);

	mov	eax, DWORD PTR _ruRegDisp$[ebp]
	push	eax
	push	0
	push	4
	mov	ecx, DWORD PTR _ruRegReadBaseReg$[ebp]
	push	ecx
	push	16					; 00000010H
	mov	edx, DWORD PTR _vars$[ebp]
	mov	ecx, DWORD PTR [edx+4]
	call	?X86Emit_MOVMR@NativeCodeCache@@QAEXW4x86Reg@@IW4x86IndexReg@@W4x86ScaleVal@@H@Z ; NativeCodeCache::X86Emit_MOVMR

; 236  :   vars->codeCache->X86Emit_MOVMR(x86Reg_ebx, rvRegReadBaseReg, x86IndexReg_none, x86Scale_1, rvRegDisp);

	mov	eax, DWORD PTR _rvRegDisp$[ebp]
	push	eax
	push	0
	push	4
	mov	ecx, DWORD PTR _rvRegReadBaseReg$[ebp]
	push	ecx
	push	19					; 00000013H
	mov	edx, DWORD PTR _vars$[ebp]
	mov	ecx, DWORD PTR [edx+4]
	call	?X86Emit_MOVMR@NativeCodeCache@@QAEXW4x86Reg@@IW4x86IndexReg@@W4x86ScaleVal@@H@Z ; NativeCodeCache::X86Emit_MOVMR

; 237  :   vars->codeCache->X86Emit_MOVMR(x86Reg_ecx, uvctlRegReadBaseReg, x86IndexReg_none, x86Scale_1, uvctlRegDisp);

	mov	eax, DWORD PTR _uvctlRegDisp$[ebp]
	push	eax
	push	0
	push	4
	mov	ecx, DWORD PTR _uvctlRegReadBaseReg$[ebp]
	push	ecx
	push	17					; 00000011H
	mov	edx, DWORD PTR _vars$[ebp]
	mov	ecx, DWORD PTR [edx+4]
	call	?X86Emit_MOVMR@NativeCodeCache@@QAEXW4x86Reg@@IW4x86IndexReg@@W4x86ScaleVal@@H@Z ; NativeCodeCache::X86Emit_MOVMR

; 238  :   vars->codeCache->X86Emit_MOVMR(x86Reg_ebp, (uint32)&vars->mpe->uvbase);

	push	0
	push	0
	push	4
	mov	eax, DWORD PTR _vars$[ebp]
	mov	ecx, DWORD PTR [eax]
	add	ecx, 452				; 000001c4H
	push	ecx
	push	21					; 00000015H
	mov	edx, DWORD PTR _vars$[ebp]
	mov	ecx, DWORD PTR [edx+4]
	call	?X86Emit_MOVMR@NativeCodeCache@@QAEXW4x86Reg@@IW4x86IndexReg@@W4x86ScaleVal@@H@Z ; NativeCodeCache::X86Emit_MOVMR

; 239  :   vars->codeCache->X86Emit_MOVRM(x86Reg_eax, (uint32)&bilinearAddressInfo.x);

	push	0
	push	0
	push	4
	push	OFFSET ?bilinearAddressInfo@@3UstructBilinearAddressInfo@@A+28
	push	16					; 00000010H
	mov	eax, DWORD PTR _vars$[ebp]
	mov	ecx, DWORD PTR [eax+4]
	call	?X86Emit_MOVRM@NativeCodeCache@@QAEXW4x86Reg@@IW4x86IndexReg@@W4x86ScaleVal@@H@Z ; NativeCodeCache::X86Emit_MOVRM

; 240  :   vars->codeCache->X86Emit_MOVRM(x86Reg_ebx, (uint32)&bilinearAddressInfo.y);

	push	0
	push	0
	push	4
	push	OFFSET ?bilinearAddressInfo@@3UstructBilinearAddressInfo@@A+32
	push	19					; 00000013H
	mov	ecx, DWORD PTR _vars$[ebp]
	mov	ecx, DWORD PTR [ecx+4]
	call	?X86Emit_MOVRM@NativeCodeCache@@QAEXW4x86Reg@@IW4x86IndexReg@@W4x86ScaleVal@@H@Z ; NativeCodeCache::X86Emit_MOVRM

; 241  :   vars->codeCache->X86Emit_MOVRM(x86Reg_ecx, (uint32)&bilinearAddressInfo.control);

	push	0
	push	0
	push	4
	push	OFFSET ?bilinearAddressInfo@@3UstructBilinearAddressInfo@@A+24
	push	17					; 00000011H
	mov	edx, DWORD PTR _vars$[ebp]
	mov	ecx, DWORD PTR [edx+4]
	call	?X86Emit_MOVRM@NativeCodeCache@@QAEXW4x86Reg@@IW4x86IndexReg@@W4x86ScaleVal@@H@Z ; NativeCodeCache::X86Emit_MOVRM

; 242  :   vars->codeCache->X86Emit_MOVRM(x86Reg_ebp, (uint32)&bilinearAddressInfo.base);

	push	0
	push	0
	push	4
	push	OFFSET ?bilinearAddressInfo@@3UstructBilinearAddressInfo@@A+20
	push	21					; 00000015H
	mov	eax, DWORD PTR _vars$[ebp]
	mov	ecx, DWORD PTR [eax+4]
	call	?X86Emit_MOVRM@NativeCodeCache@@QAEXW4x86Reg@@IW4x86IndexReg@@W4x86ScaleVal@@H@Z ; NativeCodeCache::X86Emit_MOVRM

; 243  :   vars->codeCache->X86Emit_CALLI((uint32)GetBilinearAddress,0);

	push	0
	push	OFFSET ?GetBilinearAddress@@YAXXZ	; GetBilinearAddress
	mov	ecx, DWORD PTR _vars$[ebp]
	mov	ecx, DWORD PTR [ecx+4]
	call	?X86Emit_CALLI@NativeCodeCache@@QAEXIG@Z ; NativeCodeCache::X86Emit_CALLI

; 244  :   vars->codeCache->X86Emit_MOVMR(x86Reg_eax, (uint32)&bilinearAddressInfo.offset_address);

	push	0
	push	0
	push	4
	push	OFFSET ?bilinearAddressInfo@@3UstructBilinearAddressInfo@@A+40
	push	16					; 00000010H
	mov	edx, DWORD PTR _vars$[ebp]
	mov	ecx, DWORD PTR [edx+4]
	call	?X86Emit_MOVMR@NativeCodeCache@@QAEXW4x86Reg@@IW4x86IndexReg@@W4x86ScaleVal@@H@Z ; NativeCodeCache::X86Emit_MOVMR

; 245  : 
; 246  :   vars->codeCache->X86Emit_MOVIR((uint32)(vars->mpe->dtrom), x86Reg_ebx);

	push	19					; 00000013H
	mov	eax, DWORD PTR _vars$[ebp]
	mov	ecx, DWORD PTR [eax]
	mov	edx, DWORD PTR [ecx+560]
	push	edx
	mov	eax, DWORD PTR _vars$[ebp]
	mov	ecx, DWORD PTR [eax+4]
	call	?X86Emit_MOVIR@NativeCodeCache@@QAEXHW4x86Reg@@@Z ; NativeCodeCache::X86Emit_MOVIR

; 247  :   vars->codeCache->X86Emit_MOVIR((uint32)(nuonEnv->mainBusDRAM), x86Reg_ecx);

	push	17					; 00000011H
	mov	ecx, DWORD PTR ?nuonEnv@@3PAVNuonEnvironment@@A ; nuonEnv
	mov	edx, DWORD PTR [ecx+24]
	push	edx
	mov	eax, DWORD PTR _vars$[ebp]
	mov	ecx, DWORD PTR [eax+4]
	call	?X86Emit_MOVIR@NativeCodeCache@@QAEXHW4x86Reg@@@Z ; NativeCodeCache::X86Emit_MOVIR

; 248  :   vars->codeCache->X86Emit_MOVIR((uint32)(nuonEnv->systemBusDRAM), x86Reg_edx);

	push	18					; 00000012H
	mov	ecx, DWORD PTR ?nuonEnv@@3PAVNuonEnvironment@@A ; nuonEnv
	mov	edx, DWORD PTR [ecx+28]
	push	edx
	mov	eax, DWORD PTR _vars$[ebp]
	mov	ecx, DWORD PTR [eax+4]
	call	?X86Emit_MOVIR@NativeCodeCache@@QAEXHW4x86Reg@@@Z ; NativeCodeCache::X86Emit_MOVIR

; 249  :   vars->codeCache->X86Emit_MOVIR((uint32)(nuonEnv->flashEEPROM->GetBasePointer()), x86Reg_ebp);

	push	21					; 00000015H
	mov	ecx, DWORD PTR ?nuonEnv@@3PAVNuonEnvironment@@A ; nuonEnv
	mov	ecx, DWORD PTR [ecx+32]
	call	?GetBasePointer@FlashEEPROM@@QAEPAEXZ	; FlashEEPROM::GetBasePointer
	push	eax
	mov	edx, DWORD PTR _vars$[ebp]
	mov	ecx, DWORD PTR [edx+4]
	call	?X86Emit_MOVIR@NativeCodeCache@@QAEXHW4x86Reg@@@Z ; NativeCodeCache::X86Emit_MOVIR

; 250  :   vars->codeCache->X86Emit_CMPIR(0x40000000, x86Reg_eax);

	push	16					; 00000010H
	push	1073741824				; 40000000H
	mov	eax, DWORD PTR _vars$[ebp]
	mov	ecx, DWORD PTR [eax+4]
	call	?X86Emit_CMPIR@NativeCodeCache@@QAEXHW4x86Reg@@@Z ; NativeCodeCache::X86Emit_CMPIR

; 251  :   vars->codeCache->X86Emit_CMOVNBRR(x86Reg_ebx, x86Reg_ecx);

	push	17					; 00000011H
	push	19					; 00000013H
	mov	ecx, DWORD PTR _vars$[ebp]
	mov	ecx, DWORD PTR [ecx+4]
	call	?X86Emit_CMOVNBRR@NativeCodeCache@@QAEXW4x86Reg@@I@Z ; NativeCodeCache::X86Emit_CMOVNBRR

; 252  :   vars->codeCache->X86Emit_CMPIR(0x80000000, x86Reg_eax);

	push	16					; 00000010H
	push	-2147483648				; 80000000H
	mov	edx, DWORD PTR _vars$[ebp]
	mov	ecx, DWORD PTR [edx+4]
	call	?X86Emit_CMPIR@NativeCodeCache@@QAEXHW4x86Reg@@@Z ; NativeCodeCache::X86Emit_CMPIR

; 253  :   vars->codeCache->X86Emit_CMOVNBRR(x86Reg_ebx, x86Reg_edx);

	push	18					; 00000012H
	push	19					; 00000013H
	mov	eax, DWORD PTR _vars$[ebp]
	mov	ecx, DWORD PTR [eax+4]
	call	?X86Emit_CMOVNBRR@NativeCodeCache@@QAEXW4x86Reg@@I@Z ; NativeCodeCache::X86Emit_CMOVNBRR

; 254  :   vars->codeCache->X86Emit_CMPIR(0xF0000000, x86Reg_eax);

	push	16					; 00000010H
	push	-268435456				; f0000000H
	mov	ecx, DWORD PTR _vars$[ebp]
	mov	ecx, DWORD PTR [ecx+4]
	call	?X86Emit_CMPIR@NativeCodeCache@@QAEXHW4x86Reg@@@Z ; NativeCodeCache::X86Emit_CMPIR

; 255  :   vars->codeCache->X86Emit_CMOVNBRR(x86Reg_ebx, x86Reg_ebp);

	push	21					; 00000015H
	push	19					; 00000013H
	mov	edx, DWORD PTR _vars$[ebp]
	mov	ecx, DWORD PTR [edx+4]
	call	?X86Emit_CMOVNBRR@NativeCodeCache@@QAEXW4x86Reg@@I@Z ; NativeCodeCache::X86Emit_CMOVNBRR

; 256  :   vars->codeCache->X86Emit_ANDIR(0x007FFFFF, x86Reg_eax);

	push	16					; 00000010H
	push	8388607					; 007fffffH
	mov	eax, DWORD PTR _vars$[ebp]
	mov	ecx, DWORD PTR [eax+4]
	call	?X86Emit_ANDIR@NativeCodeCache@@QAEXHW4x86Reg@@@Z ; NativeCodeCache::X86Emit_ANDIR

; 257  :   vars->codeCache->X86Emit_MOVMR(x86Reg_ebp, x86BaseReg_eax, x86IndexReg_ebx);

	push	0
	push	0
	push	3
	push	0
	push	21					; 00000015H
	mov	ecx, DWORD PTR _vars$[ebp]
	mov	ecx, DWORD PTR [ecx+4]
	call	?X86Emit_MOVMR@NativeCodeCache@@QAEXW4x86Reg@@IW4x86IndexReg@@W4x86ScaleVal@@H@Z ; NativeCodeCache::X86Emit_MOVMR

; 258  :   vars->codeCache->X86Emit_SHLIR(x86Reg_ebp, 24);

	push	24					; 00000018H
	push	21					; 00000015H
	mov	edx, DWORD PTR _vars$[ebp]
	mov	ecx, DWORD PTR [edx+4]
	call	?X86Emit_SHLIR@NativeCodeCache@@QAEXW4x86Reg@@E@Z ; NativeCodeCache::X86Emit_SHLIR

; 259  :   vars->codeCache->X86Emit_MOVRM(x86Reg_ebp, destRegWriteBaseReg, x86IndexReg_none, x86Scale_1, destRegDisp);

	mov	eax, DWORD PTR _destRegDisp$[ebp]
	push	eax
	push	0
	push	4
	mov	ecx, DWORD PTR _destRegWriteBaseReg$[ebp]
	push	ecx
	push	21					; 00000015H
	mov	edx, DWORD PTR _vars$[ebp]
	mov	ecx, DWORD PTR [edx+4]
	call	?X86Emit_MOVRM@NativeCodeCache@@QAEXW4x86Reg@@IW4x86IndexReg@@W4x86ScaleVal@@H@Z ; NativeCodeCache::X86Emit_MOVRM

; 260  : }

	add	esp, 36					; 00000024H
	cmp	ebp, esp
	call	__RTC_CheckEsp
	mov	esp, ebp
	pop	ebp
	ret	0
?Emit_LoadByteBilinearUV@@YAXPAVEmitterVariables@@AAVNuance@@@Z ENDP ; Emit_LoadByteBilinearUV
_TEXT	ENDS
PUBLIC	?Emit_LoadWordAbsolute@@YAXPAVEmitterVariables@@AAVNuance@@@Z ; Emit_LoadWordAbsolute
EXTRN	?X86Emit_BSWAP@NativeCodeCache@@QAEXW4x86Reg@@@Z:PROC ; NativeCodeCache::X86Emit_BSWAP
EXTRN	?X86Emit_MOVZXMR@NativeCodeCache@@QAEXW4x86Reg@@W4x86MemPtr@@IW4x86IndexReg@@W4x86ScaleVal@@H@Z:PROC ; NativeCodeCache::X86Emit_MOVZXMR
; Function compile flags: /Odtp /RTCsu
_TEXT	SEGMENT
_destRegDisp$ = -16					; size = 4
_destRegWriteBaseReg$ = -12				; size = 4
_srcAddress$ = -8					; size = 4
_destRegIndex$ = -4					; size = 4
_vars$ = 8						; size = 4
_nuance$ = 12						; size = 4
?Emit_LoadWordAbsolute@@YAXPAVEmitterVariables@@AAVNuance@@@Z PROC ; Emit_LoadWordAbsolute

; 263  : {

	push	ebp
	mov	ebp, esp
	sub	esp, 16					; 00000010H
	mov	eax, -858993460				; ccccccccH
	mov	DWORD PTR [ebp-16], eax
	mov	DWORD PTR [ebp-12], eax
	mov	DWORD PTR [ebp-8], eax
	mov	DWORD PTR [ebp-4], eax

; 264  :   uint32 destRegIndex = nuance.fields[FIELD_MEM_TO];

	mov	eax, DWORD PTR _nuance$[ebp]
	mov	ecx, DWORD PTR [eax+8]
	mov	DWORD PTR _destRegIndex$[ebp], ecx

; 265  :   uint32 srcAddress = nuance.fields[FIELD_MEM_POINTER];

	mov	edx, DWORD PTR _nuance$[ebp]
	mov	eax, DWORD PTR [edx+16]
	mov	DWORD PTR _srcAddress$[ebp], eax

; 266  :   x86BaseReg destRegWriteBaseReg = GetScalarRegWriteBaseReg(vars,destRegIndex);

	mov	ecx, DWORD PTR _destRegIndex$[ebp]
	push	ecx
	mov	edx, DWORD PTR _vars$[ebp]
	push	edx
	call	?GetScalarRegWriteBaseReg@@YA?AW4x86BaseReg@@PAVEmitterVariables@@I@Z ; GetScalarRegWriteBaseReg
	add	esp, 8
	mov	DWORD PTR _destRegWriteBaseReg$[ebp], eax

; 267  :   int32 destRegDisp = GetScalarRegEmitDisp(vars,destRegIndex);

	mov	eax, DWORD PTR _destRegIndex$[ebp]
	push	eax
	mov	ecx, DWORD PTR _vars$[ebp]
	push	ecx
	call	?GetScalarRegEmitDisp@@YAHPAVEmitterVariables@@I@Z ; GetScalarRegEmitDisp
	add	esp, 8
	mov	DWORD PTR _destRegDisp$[ebp], eax

; 268  : 
; 269  :   if(vars->scalarRegOutDep)

	mov	edx, DWORD PTR _vars$[ebp]
	cmp	DWORD PTR [edx+36], 0
	je	SHORT $LN2@Emit_LoadW

; 270  :   {
; 271  :     vars->codeCache->X86Emit_MOVZXMR(x86Reg_eax, x86MemPtr_word, srcAddress);

	push	0
	push	0
	push	4
	mov	eax, DWORD PTR _srcAddress$[ebp]
	push	eax
	push	1
	push	16					; 00000010H
	mov	ecx, DWORD PTR _vars$[ebp]
	mov	ecx, DWORD PTR [ecx+4]
	call	?X86Emit_MOVZXMR@NativeCodeCache@@QAEXW4x86Reg@@W4x86MemPtr@@IW4x86IndexReg@@W4x86ScaleVal@@H@Z ; NativeCodeCache::X86Emit_MOVZXMR

; 272  :     vars->codeCache->X86Emit_BSWAP(x86Reg_eax);

	push	16					; 00000010H
	mov	edx, DWORD PTR _vars$[ebp]
	mov	ecx, DWORD PTR [edx+4]
	call	?X86Emit_BSWAP@NativeCodeCache@@QAEXW4x86Reg@@@Z ; NativeCodeCache::X86Emit_BSWAP

; 273  :     vars->codeCache->X86Emit_MOVRM(x86Reg_eax, destRegWriteBaseReg, x86IndexReg_none, x86Scale_1, destRegDisp);

	mov	eax, DWORD PTR _destRegDisp$[ebp]
	push	eax
	push	0
	push	4
	mov	ecx, DWORD PTR _destRegWriteBaseReg$[ebp]
	push	ecx
	push	16					; 00000010H
	mov	edx, DWORD PTR _vars$[ebp]
	mov	ecx, DWORD PTR [edx+4]
	call	?X86Emit_MOVRM@NativeCodeCache@@QAEXW4x86Reg@@IW4x86IndexReg@@W4x86ScaleVal@@H@Z ; NativeCodeCache::X86Emit_MOVRM
$LN2@Emit_LoadW:

; 274  :   }
; 275  : }

	add	esp, 16					; 00000010H
	cmp	ebp, esp
	call	__RTC_CheckEsp
	mov	esp, ebp
	pop	ebp
	ret	0
?Emit_LoadWordAbsolute@@YAXPAVEmitterVariables@@AAVNuance@@@Z ENDP ; Emit_LoadWordAbsolute
_TEXT	ENDS
PUBLIC	?Emit_LoadWordLinear@@YAXPAVEmitterVariables@@AAVNuance@@@Z ; Emit_LoadWordLinear
; Function compile flags: /Odtp /RTCsu
_TEXT	SEGMENT
_destRegDisp$ = -28					; size = 4
_srcRegDisp$ = -24					; size = 4
_destRegWriteBaseReg$ = -20				; size = 4
_srcRegReadBaseReg$ = -16				; size = 4
_srcRegIndex$ = -12					; size = 4
_destRegIndex$ = -8					; size = 4
_l_not_control_reg$ = -4				; size = 4
_vars$ = 8						; size = 4
_nuance$ = 12						; size = 4
?Emit_LoadWordLinear@@YAXPAVEmitterVariables@@AAVNuance@@@Z PROC ; Emit_LoadWordLinear

; 278  : {

	push	ebp
	mov	ebp, esp
	sub	esp, 28					; 0000001cH
	mov	eax, -858993460				; ccccccccH
	mov	DWORD PTR [ebp-28], eax
	mov	DWORD PTR [ebp-24], eax
	mov	DWORD PTR [ebp-20], eax
	mov	DWORD PTR [ebp-16], eax
	mov	DWORD PTR [ebp-12], eax
	mov	DWORD PTR [ebp-8], eax
	mov	DWORD PTR [ebp-4], eax

; 279  :   uint32 l_not_control_reg = 0;

	mov	DWORD PTR _l_not_control_reg$[ebp], 0

; 280  : 
; 281  :   uint32 destRegIndex = nuance.fields[FIELD_MEM_TO];

	mov	eax, DWORD PTR _nuance$[ebp]
	mov	ecx, DWORD PTR [eax+8]
	mov	DWORD PTR _destRegIndex$[ebp], ecx

; 282  :   uint32 srcRegIndex = nuance.fields[FIELD_MEM_FROM];

	mov	edx, DWORD PTR _nuance$[ebp]
	mov	eax, DWORD PTR [edx+12]
	mov	DWORD PTR _srcRegIndex$[ebp], eax

; 283  :   x86BaseReg srcRegReadBaseReg = GetScalarRegReadBaseReg(vars,srcRegIndex);

	mov	ecx, DWORD PTR _srcRegIndex$[ebp]
	push	ecx
	mov	edx, DWORD PTR _vars$[ebp]
	push	edx
	call	?GetScalarRegReadBaseReg@@YA?AW4x86BaseReg@@PAVEmitterVariables@@I@Z ; GetScalarRegReadBaseReg
	add	esp, 8
	mov	DWORD PTR _srcRegReadBaseReg$[ebp], eax

; 284  :   x86BaseReg destRegWriteBaseReg = GetScalarRegWriteBaseReg(vars,destRegIndex);

	mov	eax, DWORD PTR _destRegIndex$[ebp]
	push	eax
	mov	ecx, DWORD PTR _vars$[ebp]
	push	ecx
	call	?GetScalarRegWriteBaseReg@@YA?AW4x86BaseReg@@PAVEmitterVariables@@I@Z ; GetScalarRegWriteBaseReg
	add	esp, 8
	mov	DWORD PTR _destRegWriteBaseReg$[ebp], eax

; 285  :   int32 srcRegDisp = GetScalarRegEmitDisp(vars,srcRegIndex);

	mov	edx, DWORD PTR _srcRegIndex$[ebp]
	push	edx
	mov	eax, DWORD PTR _vars$[ebp]
	push	eax
	call	?GetScalarRegEmitDisp@@YAHPAVEmitterVariables@@I@Z ; GetScalarRegEmitDisp
	add	esp, 8
	mov	DWORD PTR _srcRegDisp$[ebp], eax

; 286  :   int32 destRegDisp = GetScalarRegEmitDisp(vars,destRegIndex);

	mov	ecx, DWORD PTR _destRegIndex$[ebp]
	push	ecx
	mov	edx, DWORD PTR _vars$[ebp]
	push	edx
	call	?GetScalarRegEmitDisp@@YAHPAVEmitterVariables@@I@Z ; GetScalarRegEmitDisp
	add	esp, 8
	mov	DWORD PTR _destRegDisp$[ebp], eax

; 287  : 
; 288  :   vars->patchMgr->Reset();

	mov	eax, DWORD PTR _vars$[ebp]
	mov	ecx, DWORD PTR [eax+8]
	call	?Reset@PatchManager@@QAEXXZ		; PatchManager::Reset

; 289  : 
; 290  :   vars->codeCache->X86Emit_MOVMR(x86Reg_eax, srcRegReadBaseReg, x86IndexReg_none, x86Scale_1, srcRegDisp);

	mov	ecx, DWORD PTR _srcRegDisp$[ebp]
	push	ecx
	push	0
	push	4
	mov	edx, DWORD PTR _srcRegReadBaseReg$[ebp]
	push	edx
	push	16					; 00000010H
	mov	eax, DWORD PTR _vars$[ebp]
	mov	ecx, DWORD PTR [eax+4]
	call	?X86Emit_MOVMR@NativeCodeCache@@QAEXW4x86Reg@@IW4x86IndexReg@@W4x86ScaleVal@@H@Z ; NativeCodeCache::X86Emit_MOVMR

; 291  :   vars->codeCache->X86Emit_MOVRR(x86Reg_ebx, x86Reg_eax);

	push	16					; 00000010H
	push	19					; 00000013H
	mov	ecx, DWORD PTR _vars$[ebp]
	mov	ecx, DWORD PTR [ecx+4]
	call	?X86Emit_MOVRR@NativeCodeCache@@QAEXW4x86Reg@@0@Z ; NativeCodeCache::X86Emit_MOVRR

; 292  :   vars->codeCache->X86Emit_ANDIR(0xFFF00000, x86Reg_ebx);

	push	19					; 00000013H
	push	-1048576				; fff00000H
	mov	edx, DWORD PTR _vars$[ebp]
	mov	ecx, DWORD PTR [edx+4]
	call	?X86Emit_ANDIR@NativeCodeCache@@QAEXHW4x86Reg@@@Z ; NativeCodeCache::X86Emit_ANDIR

; 293  :   vars->codeCache->X86Emit_CMPIR(0x20500000, x86Reg_ebx);

	push	19					; 00000013H
	push	542113792				; 20500000H
	mov	eax, DWORD PTR _vars$[ebp]
	mov	ecx, DWORD PTR [eax+4]
	call	?X86Emit_CMPIR@NativeCodeCache@@QAEXHW4x86Reg@@@Z ; NativeCodeCache::X86Emit_CMPIR

; 294  :   vars->codeCache->X86Emit_JCC_Label(vars->patchMgr, X86_CC_NZ, l_not_control_reg);

	mov	ecx, DWORD PTR _l_not_control_reg$[ebp]
	push	ecx
	push	5
	mov	edx, DWORD PTR _vars$[ebp]
	mov	eax, DWORD PTR [edx+8]
	push	eax
	mov	ecx, DWORD PTR _vars$[ebp]
	mov	ecx, DWORD PTR [ecx+4]
	call	?X86Emit_JCC_Label@NativeCodeCache@@QAEXPAVPatchManager@@CI@Z ; NativeCodeCache::X86Emit_JCC_Label

; 295  :   vars->codeCache->X86Emit_MOVIM(1, x86MemPtr_dword, (uint32)&(vars->mpe->interpretNextPacket));

	push	0
	push	0
	push	4
	mov	edx, DWORD PTR _vars$[ebp]
	mov	eax, DWORD PTR [edx]
	add	eax, 620				; 0000026cH
	push	eax
	push	2
	push	1
	mov	ecx, DWORD PTR _vars$[ebp]
	mov	ecx, DWORD PTR [ecx+4]
	call	?X86Emit_MOVIM@NativeCodeCache@@QAEXHW4x86MemPtr@@IW4x86IndexReg@@W4x86ScaleVal@@H@Z ; NativeCodeCache::X86Emit_MOVIM

; 296  :   vars->codeCache->X86Emit_MOVIM(vars->pInstructionEntry->packet->pcexec, x86MemPtr_dword, (uint32)&(vars->mpe->pcexec));

	push	0
	push	0
	push	4
	mov	edx, DWORD PTR _vars$[ebp]
	mov	eax, DWORD PTR [edx]
	add	eax, 408				; 00000198H
	push	eax
	push	2
	mov	ecx, DWORD PTR _vars$[ebp]
	mov	edx, DWORD PTR [ecx+12]
	mov	eax, DWORD PTR [edx]
	mov	ecx, DWORD PTR [eax]
	push	ecx
	mov	edx, DWORD PTR _vars$[ebp]
	mov	ecx, DWORD PTR [edx+4]
	call	?X86Emit_MOVIM@NativeCodeCache@@QAEXHW4x86MemPtr@@IW4x86IndexReg@@W4x86ScaleVal@@H@Z ; NativeCodeCache::X86Emit_MOVIM

; 297  :   Emit_ExitBlock(vars);

	mov	eax, DWORD PTR _vars$[ebp]
	push	eax
	call	?Emit_ExitBlock@@YAXPAVEmitterVariables@@@Z ; Emit_ExitBlock
	add	esp, 4

; 298  :   vars->codeCache->patchMgr->SetLabelPointer(l_not_control_reg,vars->codeCache->GetEmitPointer());

	mov	ecx, DWORD PTR _vars$[ebp]
	mov	ecx, DWORD PTR [ecx+4]
	call	?GetEmitPointer@NativeCodeCache@@QAEPAEXZ ; NativeCodeCache::GetEmitPointer
	push	eax
	mov	edx, DWORD PTR _l_not_control_reg$[ebp]
	push	edx
	mov	eax, DWORD PTR _vars$[ebp]
	mov	ecx, DWORD PTR [eax+4]
	mov	ecx, DWORD PTR [ecx]
	call	?SetLabelPointer@PatchManager@@QAEXIPAE@Z ; PatchManager::SetLabelPointer

; 299  :   vars->codeCache->X86Emit_MOVIR((uint32)(vars->mpe->dtrom), x86Reg_ebx);

	push	19					; 00000013H
	mov	edx, DWORD PTR _vars$[ebp]
	mov	eax, DWORD PTR [edx]
	mov	ecx, DWORD PTR [eax+560]
	push	ecx
	mov	edx, DWORD PTR _vars$[ebp]
	mov	ecx, DWORD PTR [edx+4]
	call	?X86Emit_MOVIR@NativeCodeCache@@QAEXHW4x86Reg@@@Z ; NativeCodeCache::X86Emit_MOVIR

; 300  :   vars->codeCache->X86Emit_MOVIR((uint32)(nuonEnv->mainBusDRAM), x86Reg_ecx);

	push	17					; 00000011H
	mov	eax, DWORD PTR ?nuonEnv@@3PAVNuonEnvironment@@A ; nuonEnv
	mov	ecx, DWORD PTR [eax+24]
	push	ecx
	mov	edx, DWORD PTR _vars$[ebp]
	mov	ecx, DWORD PTR [edx+4]
	call	?X86Emit_MOVIR@NativeCodeCache@@QAEXHW4x86Reg@@@Z ; NativeCodeCache::X86Emit_MOVIR

; 301  :   vars->codeCache->X86Emit_MOVIR((uint32)(nuonEnv->systemBusDRAM), x86Reg_edx);

	push	18					; 00000012H
	mov	eax, DWORD PTR ?nuonEnv@@3PAVNuonEnvironment@@A ; nuonEnv
	mov	ecx, DWORD PTR [eax+28]
	push	ecx
	mov	edx, DWORD PTR _vars$[ebp]
	mov	ecx, DWORD PTR [edx+4]
	call	?X86Emit_MOVIR@NativeCodeCache@@QAEXHW4x86Reg@@@Z ; NativeCodeCache::X86Emit_MOVIR

; 302  :   vars->codeCache->X86Emit_MOVIR((uint32)(nuonEnv->flashEEPROM->GetBasePointer()), x86Reg_ebp);

	push	21					; 00000015H
	mov	eax, DWORD PTR ?nuonEnv@@3PAVNuonEnvironment@@A ; nuonEnv
	mov	ecx, DWORD PTR [eax+32]
	call	?GetBasePointer@FlashEEPROM@@QAEPAEXZ	; FlashEEPROM::GetBasePointer
	push	eax
	mov	ecx, DWORD PTR _vars$[ebp]
	mov	ecx, DWORD PTR [ecx+4]
	call	?X86Emit_MOVIR@NativeCodeCache@@QAEXHW4x86Reg@@@Z ; NativeCodeCache::X86Emit_MOVIR

; 303  :   vars->codeCache->X86Emit_CMPIR(0x40000000, x86Reg_eax);

	push	16					; 00000010H
	push	1073741824				; 40000000H
	mov	edx, DWORD PTR _vars$[ebp]
	mov	ecx, DWORD PTR [edx+4]
	call	?X86Emit_CMPIR@NativeCodeCache@@QAEXHW4x86Reg@@@Z ; NativeCodeCache::X86Emit_CMPIR

; 304  :   vars->codeCache->X86Emit_CMOVNBRR(x86Reg_ebx, x86Reg_ecx);

	push	17					; 00000011H
	push	19					; 00000013H
	mov	eax, DWORD PTR _vars$[ebp]
	mov	ecx, DWORD PTR [eax+4]
	call	?X86Emit_CMOVNBRR@NativeCodeCache@@QAEXW4x86Reg@@I@Z ; NativeCodeCache::X86Emit_CMOVNBRR

; 305  :   vars->codeCache->X86Emit_CMPIR(0x80000000, x86Reg_eax);

	push	16					; 00000010H
	push	-2147483648				; 80000000H
	mov	ecx, DWORD PTR _vars$[ebp]
	mov	ecx, DWORD PTR [ecx+4]
	call	?X86Emit_CMPIR@NativeCodeCache@@QAEXHW4x86Reg@@@Z ; NativeCodeCache::X86Emit_CMPIR

; 306  :   vars->codeCache->X86Emit_CMOVNBRR(x86Reg_ebx, x86Reg_edx);

	push	18					; 00000012H
	push	19					; 00000013H
	mov	edx, DWORD PTR _vars$[ebp]
	mov	ecx, DWORD PTR [edx+4]
	call	?X86Emit_CMOVNBRR@NativeCodeCache@@QAEXW4x86Reg@@I@Z ; NativeCodeCache::X86Emit_CMOVNBRR

; 307  :   vars->codeCache->X86Emit_CMPIR(0xF0000000, x86Reg_eax);

	push	16					; 00000010H
	push	-268435456				; f0000000H
	mov	eax, DWORD PTR _vars$[ebp]
	mov	ecx, DWORD PTR [eax+4]
	call	?X86Emit_CMPIR@NativeCodeCache@@QAEXHW4x86Reg@@@Z ; NativeCodeCache::X86Emit_CMPIR

; 308  :   vars->codeCache->X86Emit_CMOVNBRR(x86Reg_ebx, x86Reg_ebp);

	push	21					; 00000015H
	push	19					; 00000013H
	mov	ecx, DWORD PTR _vars$[ebp]
	mov	ecx, DWORD PTR [ecx+4]
	call	?X86Emit_CMOVNBRR@NativeCodeCache@@QAEXW4x86Reg@@I@Z ; NativeCodeCache::X86Emit_CMOVNBRR

; 309  :   vars->codeCache->X86Emit_ANDIR(0x007FFFFE, x86Reg_eax);

	push	16					; 00000010H
	push	8388606					; 007ffffeH
	mov	edx, DWORD PTR _vars$[ebp]
	mov	ecx, DWORD PTR [edx+4]
	call	?X86Emit_ANDIR@NativeCodeCache@@QAEXHW4x86Reg@@@Z ; NativeCodeCache::X86Emit_ANDIR

; 310  :   vars->codeCache->X86Emit_MOVMR(x86Reg_ebp, x86BaseReg_eax, x86IndexReg_ebx);

	push	0
	push	0
	push	3
	push	0
	push	21					; 00000015H
	mov	eax, DWORD PTR _vars$[ebp]
	mov	ecx, DWORD PTR [eax+4]
	call	?X86Emit_MOVMR@NativeCodeCache@@QAEXW4x86Reg@@IW4x86IndexReg@@W4x86ScaleVal@@H@Z ; NativeCodeCache::X86Emit_MOVMR

; 311  :   vars->codeCache->X86Emit_ANDIR(0xFFFF, x86Reg_ebp);

	push	21					; 00000015H
	push	65535					; 0000ffffH
	mov	ecx, DWORD PTR _vars$[ebp]
	mov	ecx, DWORD PTR [ecx+4]
	call	?X86Emit_ANDIR@NativeCodeCache@@QAEXHW4x86Reg@@@Z ; NativeCodeCache::X86Emit_ANDIR

; 312  :   vars->codeCache->X86Emit_BSWAP(x86Reg_ebp);

	push	21					; 00000015H
	mov	edx, DWORD PTR _vars$[ebp]
	mov	ecx, DWORD PTR [edx+4]
	call	?X86Emit_BSWAP@NativeCodeCache@@QAEXW4x86Reg@@@Z ; NativeCodeCache::X86Emit_BSWAP

; 313  :   vars->codeCache->X86Emit_MOVRM(x86Reg_ebp, destRegWriteBaseReg, x86IndexReg_none, x86Scale_1, destRegDisp);

	mov	eax, DWORD PTR _destRegDisp$[ebp]
	push	eax
	push	0
	push	4
	mov	ecx, DWORD PTR _destRegWriteBaseReg$[ebp]
	push	ecx
	push	21					; 00000015H
	mov	edx, DWORD PTR _vars$[ebp]
	mov	ecx, DWORD PTR [edx+4]
	call	?X86Emit_MOVRM@NativeCodeCache@@QAEXW4x86Reg@@IW4x86IndexReg@@W4x86ScaleVal@@H@Z ; NativeCodeCache::X86Emit_MOVRM

; 314  : 
; 315  :   vars->patchMgr->ApplyPatches();

	mov	eax, DWORD PTR _vars$[ebp]
	mov	ecx, DWORD PTR [eax+8]
	call	?ApplyPatches@PatchManager@@QAEXXZ	; PatchManager::ApplyPatches

; 316  : }

	add	esp, 28					; 0000001cH
	cmp	ebp, esp
	call	__RTC_CheckEsp
	mov	esp, ebp
	pop	ebp
	ret	0
?Emit_LoadWordLinear@@YAXPAVEmitterVariables@@AAVNuance@@@Z ENDP ; Emit_LoadWordLinear
_TEXT	ENDS
PUBLIC	?Emit_LoadWordBilinearXY@@YAXPAVEmitterVariables@@AAVNuance@@@Z ; Emit_LoadWordBilinearXY
; Function compile flags: /Odtp /RTCsu
_TEXT	SEGMENT
_xyctlRegDisp$ = -36					; size = 4
_ryRegDisp$ = -32					; size = 4
_rxRegDisp$ = -28					; size = 4
_destRegDisp$ = -24					; size = 4
_destRegWriteBaseReg$ = -20				; size = 4
_xyctlRegReadBaseReg$ = -16				; size = 4
_ryRegReadBaseReg$ = -12				; size = 4
_rxRegReadBaseReg$ = -8					; size = 4
_destRegIndex$ = -4					; size = 4
_vars$ = 8						; size = 4
_nuance$ = 12						; size = 4
?Emit_LoadWordBilinearXY@@YAXPAVEmitterVariables@@AAVNuance@@@Z PROC ; Emit_LoadWordBilinearXY

; 319  : {

	push	ebp
	mov	ebp, esp
	sub	esp, 36					; 00000024H
	mov	eax, -858993460				; ccccccccH
	mov	DWORD PTR [ebp-36], eax
	mov	DWORD PTR [ebp-32], eax
	mov	DWORD PTR [ebp-28], eax
	mov	DWORD PTR [ebp-24], eax
	mov	DWORD PTR [ebp-20], eax
	mov	DWORD PTR [ebp-16], eax
	mov	DWORD PTR [ebp-12], eax
	mov	DWORD PTR [ebp-8], eax
	mov	DWORD PTR [ebp-4], eax

; 320  :   uint32 destRegIndex = nuance.fields[FIELD_MEM_TO];

	mov	eax, DWORD PTR _nuance$[ebp]
	mov	ecx, DWORD PTR [eax+8]
	mov	DWORD PTR _destRegIndex$[ebp], ecx

; 321  :   x86BaseReg rxRegReadBaseReg = GetMiscRegReadBaseReg(vars,REGINDEX_RX);

	push	3
	mov	edx, DWORD PTR _vars$[ebp]
	push	edx
	call	?GetMiscRegReadBaseReg@@YA?AW4x86BaseReg@@PAVEmitterVariables@@I@Z ; GetMiscRegReadBaseReg
	add	esp, 8
	mov	DWORD PTR _rxRegReadBaseReg$[ebp], eax

; 322  :   x86BaseReg ryRegReadBaseReg = GetMiscRegReadBaseReg(vars,REGINDEX_RY);

	push	4
	mov	eax, DWORD PTR _vars$[ebp]
	push	eax
	call	?GetMiscRegReadBaseReg@@YA?AW4x86BaseReg@@PAVEmitterVariables@@I@Z ; GetMiscRegReadBaseReg
	add	esp, 8
	mov	DWORD PTR _ryRegReadBaseReg$[ebp], eax

; 323  :   x86BaseReg xyctlRegReadBaseReg = GetMiscRegReadBaseReg(vars,REGINDEX_XYCTL);

	push	10					; 0000000aH
	mov	ecx, DWORD PTR _vars$[ebp]
	push	ecx
	call	?GetMiscRegReadBaseReg@@YA?AW4x86BaseReg@@PAVEmitterVariables@@I@Z ; GetMiscRegReadBaseReg
	add	esp, 8
	mov	DWORD PTR _xyctlRegReadBaseReg$[ebp], eax

; 324  :   x86BaseReg destRegWriteBaseReg = GetScalarRegWriteBaseReg(vars,destRegIndex);

	mov	edx, DWORD PTR _destRegIndex$[ebp]
	push	edx
	mov	eax, DWORD PTR _vars$[ebp]
	push	eax
	call	?GetScalarRegWriteBaseReg@@YA?AW4x86BaseReg@@PAVEmitterVariables@@I@Z ; GetScalarRegWriteBaseReg
	add	esp, 8
	mov	DWORD PTR _destRegWriteBaseReg$[ebp], eax

; 325  :   int32 destRegDisp = GetScalarRegEmitDisp(vars,destRegIndex);

	mov	ecx, DWORD PTR _destRegIndex$[ebp]
	push	ecx
	mov	edx, DWORD PTR _vars$[ebp]
	push	edx
	call	?GetScalarRegEmitDisp@@YAHPAVEmitterVariables@@I@Z ; GetScalarRegEmitDisp
	add	esp, 8
	mov	DWORD PTR _destRegDisp$[ebp], eax

; 326  :   int32 rxRegDisp = GetMiscRegEmitDisp(vars,REGINDEX_RX);

	push	3
	mov	eax, DWORD PTR _vars$[ebp]
	push	eax
	call	?GetMiscRegEmitDisp@@YAHPAVEmitterVariables@@I@Z ; GetMiscRegEmitDisp
	add	esp, 8
	mov	DWORD PTR _rxRegDisp$[ebp], eax

; 327  :   int32 ryRegDisp = GetMiscRegEmitDisp(vars,REGINDEX_RY);

	push	4
	mov	ecx, DWORD PTR _vars$[ebp]
	push	ecx
	call	?GetMiscRegEmitDisp@@YAHPAVEmitterVariables@@I@Z ; GetMiscRegEmitDisp
	add	esp, 8
	mov	DWORD PTR _ryRegDisp$[ebp], eax

; 328  :   int32 xyctlRegDisp = GetMiscRegEmitDisp(vars,REGINDEX_XYCTL);

	push	10					; 0000000aH
	mov	edx, DWORD PTR _vars$[ebp]
	push	edx
	call	?GetMiscRegEmitDisp@@YAHPAVEmitterVariables@@I@Z ; GetMiscRegEmitDisp
	add	esp, 8
	mov	DWORD PTR _xyctlRegDisp$[ebp], eax

; 329  : 
; 330  :   vars->codeCache->X86Emit_MOVMR(x86Reg_eax, rxRegReadBaseReg, x86IndexReg_none, x86Scale_1, rxRegDisp);

	mov	eax, DWORD PTR _rxRegDisp$[ebp]
	push	eax
	push	0
	push	4
	mov	ecx, DWORD PTR _rxRegReadBaseReg$[ebp]
	push	ecx
	push	16					; 00000010H
	mov	edx, DWORD PTR _vars$[ebp]
	mov	ecx, DWORD PTR [edx+4]
	call	?X86Emit_MOVMR@NativeCodeCache@@QAEXW4x86Reg@@IW4x86IndexReg@@W4x86ScaleVal@@H@Z ; NativeCodeCache::X86Emit_MOVMR

; 331  :   vars->codeCache->X86Emit_MOVMR(x86Reg_ebx, ryRegReadBaseReg, x86IndexReg_none, x86Scale_1, ryRegDisp);

	mov	eax, DWORD PTR _ryRegDisp$[ebp]
	push	eax
	push	0
	push	4
	mov	ecx, DWORD PTR _ryRegReadBaseReg$[ebp]
	push	ecx
	push	19					; 00000013H
	mov	edx, DWORD PTR _vars$[ebp]
	mov	ecx, DWORD PTR [edx+4]
	call	?X86Emit_MOVMR@NativeCodeCache@@QAEXW4x86Reg@@IW4x86IndexReg@@W4x86ScaleVal@@H@Z ; NativeCodeCache::X86Emit_MOVMR

; 332  :   vars->codeCache->X86Emit_MOVMR(x86Reg_ecx, xyctlRegReadBaseReg, x86IndexReg_none, x86Scale_1, xyctlRegDisp);

	mov	eax, DWORD PTR _xyctlRegDisp$[ebp]
	push	eax
	push	0
	push	4
	mov	ecx, DWORD PTR _xyctlRegReadBaseReg$[ebp]
	push	ecx
	push	17					; 00000011H
	mov	edx, DWORD PTR _vars$[ebp]
	mov	ecx, DWORD PTR [edx+4]
	call	?X86Emit_MOVMR@NativeCodeCache@@QAEXW4x86Reg@@IW4x86IndexReg@@W4x86ScaleVal@@H@Z ; NativeCodeCache::X86Emit_MOVMR

; 333  :   vars->codeCache->X86Emit_MOVMR(x86Reg_ebp, (uint32)&vars->mpe->xybase);

	push	0
	push	0
	push	4
	mov	eax, DWORD PTR _vars$[ebp]
	mov	ecx, DWORD PTR [eax]
	add	ecx, 448				; 000001c0H
	push	ecx
	push	21					; 00000015H
	mov	edx, DWORD PTR _vars$[ebp]
	mov	ecx, DWORD PTR [edx+4]
	call	?X86Emit_MOVMR@NativeCodeCache@@QAEXW4x86Reg@@IW4x86IndexReg@@W4x86ScaleVal@@H@Z ; NativeCodeCache::X86Emit_MOVMR

; 334  :   vars->codeCache->X86Emit_MOVRM(x86Reg_eax, (uint32)&bilinearAddressInfo.x);

	push	0
	push	0
	push	4
	push	OFFSET ?bilinearAddressInfo@@3UstructBilinearAddressInfo@@A+28
	push	16					; 00000010H
	mov	eax, DWORD PTR _vars$[ebp]
	mov	ecx, DWORD PTR [eax+4]
	call	?X86Emit_MOVRM@NativeCodeCache@@QAEXW4x86Reg@@IW4x86IndexReg@@W4x86ScaleVal@@H@Z ; NativeCodeCache::X86Emit_MOVRM

; 335  :   vars->codeCache->X86Emit_MOVRM(x86Reg_ebx, (uint32)&bilinearAddressInfo.y);

	push	0
	push	0
	push	4
	push	OFFSET ?bilinearAddressInfo@@3UstructBilinearAddressInfo@@A+32
	push	19					; 00000013H
	mov	ecx, DWORD PTR _vars$[ebp]
	mov	ecx, DWORD PTR [ecx+4]
	call	?X86Emit_MOVRM@NativeCodeCache@@QAEXW4x86Reg@@IW4x86IndexReg@@W4x86ScaleVal@@H@Z ; NativeCodeCache::X86Emit_MOVRM

; 336  :   vars->codeCache->X86Emit_MOVRM(x86Reg_ecx, (uint32)&bilinearAddressInfo.control);

	push	0
	push	0
	push	4
	push	OFFSET ?bilinearAddressInfo@@3UstructBilinearAddressInfo@@A+24
	push	17					; 00000011H
	mov	edx, DWORD PTR _vars$[ebp]
	mov	ecx, DWORD PTR [edx+4]
	call	?X86Emit_MOVRM@NativeCodeCache@@QAEXW4x86Reg@@IW4x86IndexReg@@W4x86ScaleVal@@H@Z ; NativeCodeCache::X86Emit_MOVRM

; 337  :   vars->codeCache->X86Emit_MOVRM(x86Reg_ebp, (uint32)&bilinearAddressInfo.base);

	push	0
	push	0
	push	4
	push	OFFSET ?bilinearAddressInfo@@3UstructBilinearAddressInfo@@A+20
	push	21					; 00000015H
	mov	eax, DWORD PTR _vars$[ebp]
	mov	ecx, DWORD PTR [eax+4]
	call	?X86Emit_MOVRM@NativeCodeCache@@QAEXW4x86Reg@@IW4x86IndexReg@@W4x86ScaleVal@@H@Z ; NativeCodeCache::X86Emit_MOVRM

; 338  :   vars->codeCache->X86Emit_CALLI((uint32)GetBilinearAddress,0);

	push	0
	push	OFFSET ?GetBilinearAddress@@YAXXZ	; GetBilinearAddress
	mov	ecx, DWORD PTR _vars$[ebp]
	mov	ecx, DWORD PTR [ecx+4]
	call	?X86Emit_CALLI@NativeCodeCache@@QAEXIG@Z ; NativeCodeCache::X86Emit_CALLI

; 339  :   vars->codeCache->X86Emit_MOVMR(x86Reg_eax, (uint32)&bilinearAddressInfo.offset_address);

	push	0
	push	0
	push	4
	push	OFFSET ?bilinearAddressInfo@@3UstructBilinearAddressInfo@@A+40
	push	16					; 00000010H
	mov	edx, DWORD PTR _vars$[ebp]
	mov	ecx, DWORD PTR [edx+4]
	call	?X86Emit_MOVMR@NativeCodeCache@@QAEXW4x86Reg@@IW4x86IndexReg@@W4x86ScaleVal@@H@Z ; NativeCodeCache::X86Emit_MOVMR

; 340  : 
; 341  :   vars->codeCache->X86Emit_MOVIR((uint32)(vars->mpe->dtrom), x86Reg_ebx);

	push	19					; 00000013H
	mov	eax, DWORD PTR _vars$[ebp]
	mov	ecx, DWORD PTR [eax]
	mov	edx, DWORD PTR [ecx+560]
	push	edx
	mov	eax, DWORD PTR _vars$[ebp]
	mov	ecx, DWORD PTR [eax+4]
	call	?X86Emit_MOVIR@NativeCodeCache@@QAEXHW4x86Reg@@@Z ; NativeCodeCache::X86Emit_MOVIR

; 342  :   vars->codeCache->X86Emit_MOVIR((uint32)(nuonEnv->mainBusDRAM), x86Reg_ecx);

	push	17					; 00000011H
	mov	ecx, DWORD PTR ?nuonEnv@@3PAVNuonEnvironment@@A ; nuonEnv
	mov	edx, DWORD PTR [ecx+24]
	push	edx
	mov	eax, DWORD PTR _vars$[ebp]
	mov	ecx, DWORD PTR [eax+4]
	call	?X86Emit_MOVIR@NativeCodeCache@@QAEXHW4x86Reg@@@Z ; NativeCodeCache::X86Emit_MOVIR

; 343  :   vars->codeCache->X86Emit_MOVIR((uint32)(nuonEnv->systemBusDRAM), x86Reg_edx);

	push	18					; 00000012H
	mov	ecx, DWORD PTR ?nuonEnv@@3PAVNuonEnvironment@@A ; nuonEnv
	mov	edx, DWORD PTR [ecx+28]
	push	edx
	mov	eax, DWORD PTR _vars$[ebp]
	mov	ecx, DWORD PTR [eax+4]
	call	?X86Emit_MOVIR@NativeCodeCache@@QAEXHW4x86Reg@@@Z ; NativeCodeCache::X86Emit_MOVIR

; 344  :   vars->codeCache->X86Emit_MOVIR((uint32)(nuonEnv->flashEEPROM->GetBasePointer()), x86Reg_ebp);

	push	21					; 00000015H
	mov	ecx, DWORD PTR ?nuonEnv@@3PAVNuonEnvironment@@A ; nuonEnv
	mov	ecx, DWORD PTR [ecx+32]
	call	?GetBasePointer@FlashEEPROM@@QAEPAEXZ	; FlashEEPROM::GetBasePointer
	push	eax
	mov	edx, DWORD PTR _vars$[ebp]
	mov	ecx, DWORD PTR [edx+4]
	call	?X86Emit_MOVIR@NativeCodeCache@@QAEXHW4x86Reg@@@Z ; NativeCodeCache::X86Emit_MOVIR

; 345  :   vars->codeCache->X86Emit_CMPIR(0x40000000, x86Reg_eax);

	push	16					; 00000010H
	push	1073741824				; 40000000H
	mov	eax, DWORD PTR _vars$[ebp]
	mov	ecx, DWORD PTR [eax+4]
	call	?X86Emit_CMPIR@NativeCodeCache@@QAEXHW4x86Reg@@@Z ; NativeCodeCache::X86Emit_CMPIR

; 346  :   vars->codeCache->X86Emit_CMOVNBRR(x86Reg_ebx, x86Reg_ecx);

	push	17					; 00000011H
	push	19					; 00000013H
	mov	ecx, DWORD PTR _vars$[ebp]
	mov	ecx, DWORD PTR [ecx+4]
	call	?X86Emit_CMOVNBRR@NativeCodeCache@@QAEXW4x86Reg@@I@Z ; NativeCodeCache::X86Emit_CMOVNBRR

; 347  :   vars->codeCache->X86Emit_CMPIR(0x80000000, x86Reg_eax);

	push	16					; 00000010H
	push	-2147483648				; 80000000H
	mov	edx, DWORD PTR _vars$[ebp]
	mov	ecx, DWORD PTR [edx+4]
	call	?X86Emit_CMPIR@NativeCodeCache@@QAEXHW4x86Reg@@@Z ; NativeCodeCache::X86Emit_CMPIR

; 348  :   vars->codeCache->X86Emit_CMOVNBRR(x86Reg_ebx, x86Reg_edx);

	push	18					; 00000012H
	push	19					; 00000013H
	mov	eax, DWORD PTR _vars$[ebp]
	mov	ecx, DWORD PTR [eax+4]
	call	?X86Emit_CMOVNBRR@NativeCodeCache@@QAEXW4x86Reg@@I@Z ; NativeCodeCache::X86Emit_CMOVNBRR

; 349  :   vars->codeCache->X86Emit_CMPIR(0xF0000000, x86Reg_eax);

	push	16					; 00000010H
	push	-268435456				; f0000000H
	mov	ecx, DWORD PTR _vars$[ebp]
	mov	ecx, DWORD PTR [ecx+4]
	call	?X86Emit_CMPIR@NativeCodeCache@@QAEXHW4x86Reg@@@Z ; NativeCodeCache::X86Emit_CMPIR

; 350  :   vars->codeCache->X86Emit_CMOVNBRR(x86Reg_ebx, x86Reg_ebp);

	push	21					; 00000015H
	push	19					; 00000013H
	mov	edx, DWORD PTR _vars$[ebp]
	mov	ecx, DWORD PTR [edx+4]
	call	?X86Emit_CMOVNBRR@NativeCodeCache@@QAEXW4x86Reg@@I@Z ; NativeCodeCache::X86Emit_CMOVNBRR

; 351  :   vars->codeCache->X86Emit_ANDIR(0x007FFFFF, x86Reg_eax);

	push	16					; 00000010H
	push	8388607					; 007fffffH
	mov	eax, DWORD PTR _vars$[ebp]
	mov	ecx, DWORD PTR [eax+4]
	call	?X86Emit_ANDIR@NativeCodeCache@@QAEXHW4x86Reg@@@Z ; NativeCodeCache::X86Emit_ANDIR

; 352  :   vars->codeCache->X86Emit_MOVMR(x86Reg_ebp, x86BaseReg_eax, x86IndexReg_ebx);

	push	0
	push	0
	push	3
	push	0
	push	21					; 00000015H
	mov	ecx, DWORD PTR _vars$[ebp]
	mov	ecx, DWORD PTR [ecx+4]
	call	?X86Emit_MOVMR@NativeCodeCache@@QAEXW4x86Reg@@IW4x86IndexReg@@W4x86ScaleVal@@H@Z ; NativeCodeCache::X86Emit_MOVMR

; 353  :   vars->codeCache->X86Emit_ANDIR(0xFFFF, x86Reg_ebp);

	push	21					; 00000015H
	push	65535					; 0000ffffH
	mov	edx, DWORD PTR _vars$[ebp]
	mov	ecx, DWORD PTR [edx+4]
	call	?X86Emit_ANDIR@NativeCodeCache@@QAEXHW4x86Reg@@@Z ; NativeCodeCache::X86Emit_ANDIR

; 354  :   vars->codeCache->X86Emit_BSWAP(x86Reg_ebp);

	push	21					; 00000015H
	mov	eax, DWORD PTR _vars$[ebp]
	mov	ecx, DWORD PTR [eax+4]
	call	?X86Emit_BSWAP@NativeCodeCache@@QAEXW4x86Reg@@@Z ; NativeCodeCache::X86Emit_BSWAP

; 355  :   vars->codeCache->X86Emit_MOVRM(x86Reg_ebp, destRegWriteBaseReg, x86IndexReg_none, x86Scale_1, destRegDisp);

	mov	ecx, DWORD PTR _destRegDisp$[ebp]
	push	ecx
	push	0
	push	4
	mov	edx, DWORD PTR _destRegWriteBaseReg$[ebp]
	push	edx
	push	21					; 00000015H
	mov	eax, DWORD PTR _vars$[ebp]
	mov	ecx, DWORD PTR [eax+4]
	call	?X86Emit_MOVRM@NativeCodeCache@@QAEXW4x86Reg@@IW4x86IndexReg@@W4x86ScaleVal@@H@Z ; NativeCodeCache::X86Emit_MOVRM

; 356  : }

	add	esp, 36					; 00000024H
	cmp	ebp, esp
	call	__RTC_CheckEsp
	mov	esp, ebp
	pop	ebp
	ret	0
?Emit_LoadWordBilinearXY@@YAXPAVEmitterVariables@@AAVNuance@@@Z ENDP ; Emit_LoadWordBilinearXY
_TEXT	ENDS
PUBLIC	?Emit_LoadWordBilinearUV@@YAXPAVEmitterVariables@@AAVNuance@@@Z ; Emit_LoadWordBilinearUV
; Function compile flags: /Odtp /RTCsu
_TEXT	SEGMENT
_uvctlRegDisp$ = -36					; size = 4
_rvRegDisp$ = -32					; size = 4
_ruRegDisp$ = -28					; size = 4
_destRegDisp$ = -24					; size = 4
_destRegWriteBaseReg$ = -20				; size = 4
_uvctlRegReadBaseReg$ = -16				; size = 4
_rvRegReadBaseReg$ = -12				; size = 4
_ruRegReadBaseReg$ = -8					; size = 4
_destRegIndex$ = -4					; size = 4
_vars$ = 8						; size = 4
_nuance$ = 12						; size = 4
?Emit_LoadWordBilinearUV@@YAXPAVEmitterVariables@@AAVNuance@@@Z PROC ; Emit_LoadWordBilinearUV

; 359  : {

	push	ebp
	mov	ebp, esp
	sub	esp, 36					; 00000024H
	mov	eax, -858993460				; ccccccccH
	mov	DWORD PTR [ebp-36], eax
	mov	DWORD PTR [ebp-32], eax
	mov	DWORD PTR [ebp-28], eax
	mov	DWORD PTR [ebp-24], eax
	mov	DWORD PTR [ebp-20], eax
	mov	DWORD PTR [ebp-16], eax
	mov	DWORD PTR [ebp-12], eax
	mov	DWORD PTR [ebp-8], eax
	mov	DWORD PTR [ebp-4], eax

; 360  :   uint32 destRegIndex = nuance.fields[FIELD_MEM_TO];

	mov	eax, DWORD PTR _nuance$[ebp]
	mov	ecx, DWORD PTR [eax+8]
	mov	DWORD PTR _destRegIndex$[ebp], ecx

; 361  :   x86BaseReg ruRegReadBaseReg = GetMiscRegReadBaseReg(vars,REGINDEX_RU);

	push	5
	mov	edx, DWORD PTR _vars$[ebp]
	push	edx
	call	?GetMiscRegReadBaseReg@@YA?AW4x86BaseReg@@PAVEmitterVariables@@I@Z ; GetMiscRegReadBaseReg
	add	esp, 8
	mov	DWORD PTR _ruRegReadBaseReg$[ebp], eax

; 362  :   x86BaseReg rvRegReadBaseReg = GetMiscRegReadBaseReg(vars,REGINDEX_RV);

	push	6
	mov	eax, DWORD PTR _vars$[ebp]
	push	eax
	call	?GetMiscRegReadBaseReg@@YA?AW4x86BaseReg@@PAVEmitterVariables@@I@Z ; GetMiscRegReadBaseReg
	add	esp, 8
	mov	DWORD PTR _rvRegReadBaseReg$[ebp], eax

; 363  :   x86BaseReg uvctlRegReadBaseReg = GetMiscRegReadBaseReg(vars,REGINDEX_UVCTL);

	push	11					; 0000000bH
	mov	ecx, DWORD PTR _vars$[ebp]
	push	ecx
	call	?GetMiscRegReadBaseReg@@YA?AW4x86BaseReg@@PAVEmitterVariables@@I@Z ; GetMiscRegReadBaseReg
	add	esp, 8
	mov	DWORD PTR _uvctlRegReadBaseReg$[ebp], eax

; 364  :   x86BaseReg destRegWriteBaseReg = GetScalarRegWriteBaseReg(vars,destRegIndex);

	mov	edx, DWORD PTR _destRegIndex$[ebp]
	push	edx
	mov	eax, DWORD PTR _vars$[ebp]
	push	eax
	call	?GetScalarRegWriteBaseReg@@YA?AW4x86BaseReg@@PAVEmitterVariables@@I@Z ; GetScalarRegWriteBaseReg
	add	esp, 8
	mov	DWORD PTR _destRegWriteBaseReg$[ebp], eax

; 365  :   int32 destRegDisp = GetScalarRegEmitDisp(vars,destRegIndex);

	mov	ecx, DWORD PTR _destRegIndex$[ebp]
	push	ecx
	mov	edx, DWORD PTR _vars$[ebp]
	push	edx
	call	?GetScalarRegEmitDisp@@YAHPAVEmitterVariables@@I@Z ; GetScalarRegEmitDisp
	add	esp, 8
	mov	DWORD PTR _destRegDisp$[ebp], eax

; 366  :   int32 ruRegDisp = GetMiscRegEmitDisp(vars,REGINDEX_RU);

	push	5
	mov	eax, DWORD PTR _vars$[ebp]
	push	eax
	call	?GetMiscRegEmitDisp@@YAHPAVEmitterVariables@@I@Z ; GetMiscRegEmitDisp
	add	esp, 8
	mov	DWORD PTR _ruRegDisp$[ebp], eax

; 367  :   int32 rvRegDisp = GetMiscRegEmitDisp(vars,REGINDEX_RV);

	push	6
	mov	ecx, DWORD PTR _vars$[ebp]
	push	ecx
	call	?GetMiscRegEmitDisp@@YAHPAVEmitterVariables@@I@Z ; GetMiscRegEmitDisp
	add	esp, 8
	mov	DWORD PTR _rvRegDisp$[ebp], eax

; 368  :   int32 uvctlRegDisp = GetMiscRegEmitDisp(vars,REGINDEX_UVCTL);

	push	11					; 0000000bH
	mov	edx, DWORD PTR _vars$[ebp]
	push	edx
	call	?GetMiscRegEmitDisp@@YAHPAVEmitterVariables@@I@Z ; GetMiscRegEmitDisp
	add	esp, 8
	mov	DWORD PTR _uvctlRegDisp$[ebp], eax

; 369  : 
; 370  :   vars->codeCache->X86Emit_MOVMR(x86Reg_eax, ruRegReadBaseReg, x86IndexReg_none, x86Scale_1, ruRegDisp);

	mov	eax, DWORD PTR _ruRegDisp$[ebp]
	push	eax
	push	0
	push	4
	mov	ecx, DWORD PTR _ruRegReadBaseReg$[ebp]
	push	ecx
	push	16					; 00000010H
	mov	edx, DWORD PTR _vars$[ebp]
	mov	ecx, DWORD PTR [edx+4]
	call	?X86Emit_MOVMR@NativeCodeCache@@QAEXW4x86Reg@@IW4x86IndexReg@@W4x86ScaleVal@@H@Z ; NativeCodeCache::X86Emit_MOVMR

; 371  :   vars->codeCache->X86Emit_MOVMR(x86Reg_ebx, rvRegReadBaseReg, x86IndexReg_none, x86Scale_1, rvRegDisp);

	mov	eax, DWORD PTR _rvRegDisp$[ebp]
	push	eax
	push	0
	push	4
	mov	ecx, DWORD PTR _rvRegReadBaseReg$[ebp]
	push	ecx
	push	19					; 00000013H
	mov	edx, DWORD PTR _vars$[ebp]
	mov	ecx, DWORD PTR [edx+4]
	call	?X86Emit_MOVMR@NativeCodeCache@@QAEXW4x86Reg@@IW4x86IndexReg@@W4x86ScaleVal@@H@Z ; NativeCodeCache::X86Emit_MOVMR

; 372  :   vars->codeCache->X86Emit_MOVMR(x86Reg_ecx, uvctlRegReadBaseReg, x86IndexReg_none, x86Scale_1, uvctlRegDisp);

	mov	eax, DWORD PTR _uvctlRegDisp$[ebp]
	push	eax
	push	0
	push	4
	mov	ecx, DWORD PTR _uvctlRegReadBaseReg$[ebp]
	push	ecx
	push	17					; 00000011H
	mov	edx, DWORD PTR _vars$[ebp]
	mov	ecx, DWORD PTR [edx+4]
	call	?X86Emit_MOVMR@NativeCodeCache@@QAEXW4x86Reg@@IW4x86IndexReg@@W4x86ScaleVal@@H@Z ; NativeCodeCache::X86Emit_MOVMR

; 373  :   vars->codeCache->X86Emit_MOVMR(x86Reg_ebp, (uint32)&vars->mpe->uvbase);

	push	0
	push	0
	push	4
	mov	eax, DWORD PTR _vars$[ebp]
	mov	ecx, DWORD PTR [eax]
	add	ecx, 452				; 000001c4H
	push	ecx
	push	21					; 00000015H
	mov	edx, DWORD PTR _vars$[ebp]
	mov	ecx, DWORD PTR [edx+4]
	call	?X86Emit_MOVMR@NativeCodeCache@@QAEXW4x86Reg@@IW4x86IndexReg@@W4x86ScaleVal@@H@Z ; NativeCodeCache::X86Emit_MOVMR

; 374  :   vars->codeCache->X86Emit_MOVRM(x86Reg_eax, (uint32)&bilinearAddressInfo.x);

	push	0
	push	0
	push	4
	push	OFFSET ?bilinearAddressInfo@@3UstructBilinearAddressInfo@@A+28
	push	16					; 00000010H
	mov	eax, DWORD PTR _vars$[ebp]
	mov	ecx, DWORD PTR [eax+4]
	call	?X86Emit_MOVRM@NativeCodeCache@@QAEXW4x86Reg@@IW4x86IndexReg@@W4x86ScaleVal@@H@Z ; NativeCodeCache::X86Emit_MOVRM

; 375  :   vars->codeCache->X86Emit_MOVRM(x86Reg_ebx, (uint32)&bilinearAddressInfo.y);

	push	0
	push	0
	push	4
	push	OFFSET ?bilinearAddressInfo@@3UstructBilinearAddressInfo@@A+32
	push	19					; 00000013H
	mov	ecx, DWORD PTR _vars$[ebp]
	mov	ecx, DWORD PTR [ecx+4]
	call	?X86Emit_MOVRM@NativeCodeCache@@QAEXW4x86Reg@@IW4x86IndexReg@@W4x86ScaleVal@@H@Z ; NativeCodeCache::X86Emit_MOVRM

; 376  :   vars->codeCache->X86Emit_MOVRM(x86Reg_ecx, (uint32)&bilinearAddressInfo.control);

	push	0
	push	0
	push	4
	push	OFFSET ?bilinearAddressInfo@@3UstructBilinearAddressInfo@@A+24
	push	17					; 00000011H
	mov	edx, DWORD PTR _vars$[ebp]
	mov	ecx, DWORD PTR [edx+4]
	call	?X86Emit_MOVRM@NativeCodeCache@@QAEXW4x86Reg@@IW4x86IndexReg@@W4x86ScaleVal@@H@Z ; NativeCodeCache::X86Emit_MOVRM

; 377  :   vars->codeCache->X86Emit_MOVRM(x86Reg_ebp, (uint32)&bilinearAddressInfo.base);

	push	0
	push	0
	push	4
	push	OFFSET ?bilinearAddressInfo@@3UstructBilinearAddressInfo@@A+20
	push	21					; 00000015H
	mov	eax, DWORD PTR _vars$[ebp]
	mov	ecx, DWORD PTR [eax+4]
	call	?X86Emit_MOVRM@NativeCodeCache@@QAEXW4x86Reg@@IW4x86IndexReg@@W4x86ScaleVal@@H@Z ; NativeCodeCache::X86Emit_MOVRM

; 378  :   vars->codeCache->X86Emit_CALLI((uint32)GetBilinearAddress,0);

	push	0
	push	OFFSET ?GetBilinearAddress@@YAXXZ	; GetBilinearAddress
	mov	ecx, DWORD PTR _vars$[ebp]
	mov	ecx, DWORD PTR [ecx+4]
	call	?X86Emit_CALLI@NativeCodeCache@@QAEXIG@Z ; NativeCodeCache::X86Emit_CALLI

; 379  :   vars->codeCache->X86Emit_MOVMR(x86Reg_eax, (uint32)&bilinearAddressInfo.offset_address);

	push	0
	push	0
	push	4
	push	OFFSET ?bilinearAddressInfo@@3UstructBilinearAddressInfo@@A+40
	push	16					; 00000010H
	mov	edx, DWORD PTR _vars$[ebp]
	mov	ecx, DWORD PTR [edx+4]
	call	?X86Emit_MOVMR@NativeCodeCache@@QAEXW4x86Reg@@IW4x86IndexReg@@W4x86ScaleVal@@H@Z ; NativeCodeCache::X86Emit_MOVMR

; 380  : 
; 381  :   vars->codeCache->X86Emit_MOVIR((uint32)(vars->mpe->dtrom), x86Reg_ebx);

	push	19					; 00000013H
	mov	eax, DWORD PTR _vars$[ebp]
	mov	ecx, DWORD PTR [eax]
	mov	edx, DWORD PTR [ecx+560]
	push	edx
	mov	eax, DWORD PTR _vars$[ebp]
	mov	ecx, DWORD PTR [eax+4]
	call	?X86Emit_MOVIR@NativeCodeCache@@QAEXHW4x86Reg@@@Z ; NativeCodeCache::X86Emit_MOVIR

; 382  :   vars->codeCache->X86Emit_MOVIR((uint32)(nuonEnv->mainBusDRAM), x86Reg_ecx);

	push	17					; 00000011H
	mov	ecx, DWORD PTR ?nuonEnv@@3PAVNuonEnvironment@@A ; nuonEnv
	mov	edx, DWORD PTR [ecx+24]
	push	edx
	mov	eax, DWORD PTR _vars$[ebp]
	mov	ecx, DWORD PTR [eax+4]
	call	?X86Emit_MOVIR@NativeCodeCache@@QAEXHW4x86Reg@@@Z ; NativeCodeCache::X86Emit_MOVIR

; 383  :   vars->codeCache->X86Emit_MOVIR((uint32)(nuonEnv->systemBusDRAM), x86Reg_edx);

	push	18					; 00000012H
	mov	ecx, DWORD PTR ?nuonEnv@@3PAVNuonEnvironment@@A ; nuonEnv
	mov	edx, DWORD PTR [ecx+28]
	push	edx
	mov	eax, DWORD PTR _vars$[ebp]
	mov	ecx, DWORD PTR [eax+4]
	call	?X86Emit_MOVIR@NativeCodeCache@@QAEXHW4x86Reg@@@Z ; NativeCodeCache::X86Emit_MOVIR

; 384  :   vars->codeCache->X86Emit_MOVIR((uint32)(nuonEnv->flashEEPROM->GetBasePointer()), x86Reg_ebp);

	push	21					; 00000015H
	mov	ecx, DWORD PTR ?nuonEnv@@3PAVNuonEnvironment@@A ; nuonEnv
	mov	ecx, DWORD PTR [ecx+32]
	call	?GetBasePointer@FlashEEPROM@@QAEPAEXZ	; FlashEEPROM::GetBasePointer
	push	eax
	mov	edx, DWORD PTR _vars$[ebp]
	mov	ecx, DWORD PTR [edx+4]
	call	?X86Emit_MOVIR@NativeCodeCache@@QAEXHW4x86Reg@@@Z ; NativeCodeCache::X86Emit_MOVIR

; 385  :   vars->codeCache->X86Emit_CMPIR(0x40000000, x86Reg_eax);

	push	16					; 00000010H
	push	1073741824				; 40000000H
	mov	eax, DWORD PTR _vars$[ebp]
	mov	ecx, DWORD PTR [eax+4]
	call	?X86Emit_CMPIR@NativeCodeCache@@QAEXHW4x86Reg@@@Z ; NativeCodeCache::X86Emit_CMPIR

; 386  :   vars->codeCache->X86Emit_CMOVNBRR(x86Reg_ebx, x86Reg_ecx);

	push	17					; 00000011H
	push	19					; 00000013H
	mov	ecx, DWORD PTR _vars$[ebp]
	mov	ecx, DWORD PTR [ecx+4]
	call	?X86Emit_CMOVNBRR@NativeCodeCache@@QAEXW4x86Reg@@I@Z ; NativeCodeCache::X86Emit_CMOVNBRR

; 387  :   vars->codeCache->X86Emit_CMPIR(0x80000000, x86Reg_eax);

	push	16					; 00000010H
	push	-2147483648				; 80000000H
	mov	edx, DWORD PTR _vars$[ebp]
	mov	ecx, DWORD PTR [edx+4]
	call	?X86Emit_CMPIR@NativeCodeCache@@QAEXHW4x86Reg@@@Z ; NativeCodeCache::X86Emit_CMPIR

; 388  :   vars->codeCache->X86Emit_CMOVNBRR(x86Reg_ebx, x86Reg_edx);

	push	18					; 00000012H
	push	19					; 00000013H
	mov	eax, DWORD PTR _vars$[ebp]
	mov	ecx, DWORD PTR [eax+4]
	call	?X86Emit_CMOVNBRR@NativeCodeCache@@QAEXW4x86Reg@@I@Z ; NativeCodeCache::X86Emit_CMOVNBRR

; 389  :   vars->codeCache->X86Emit_CMPIR(0xF0000000, x86Reg_eax);

	push	16					; 00000010H
	push	-268435456				; f0000000H
	mov	ecx, DWORD PTR _vars$[ebp]
	mov	ecx, DWORD PTR [ecx+4]
	call	?X86Emit_CMPIR@NativeCodeCache@@QAEXHW4x86Reg@@@Z ; NativeCodeCache::X86Emit_CMPIR

; 390  :   vars->codeCache->X86Emit_CMOVNBRR(x86Reg_ebx, x86Reg_ebp);

	push	21					; 00000015H
	push	19					; 00000013H
	mov	edx, DWORD PTR _vars$[ebp]
	mov	ecx, DWORD PTR [edx+4]
	call	?X86Emit_CMOVNBRR@NativeCodeCache@@QAEXW4x86Reg@@I@Z ; NativeCodeCache::X86Emit_CMOVNBRR

; 391  :   vars->codeCache->X86Emit_ANDIR(0x007FFFFF, x86Reg_eax);

	push	16					; 00000010H
	push	8388607					; 007fffffH
	mov	eax, DWORD PTR _vars$[ebp]
	mov	ecx, DWORD PTR [eax+4]
	call	?X86Emit_ANDIR@NativeCodeCache@@QAEXHW4x86Reg@@@Z ; NativeCodeCache::X86Emit_ANDIR

; 392  :   vars->codeCache->X86Emit_MOVMR(x86Reg_ebp, x86BaseReg_eax, x86IndexReg_ebx);

	push	0
	push	0
	push	3
	push	0
	push	21					; 00000015H
	mov	ecx, DWORD PTR _vars$[ebp]
	mov	ecx, DWORD PTR [ecx+4]
	call	?X86Emit_MOVMR@NativeCodeCache@@QAEXW4x86Reg@@IW4x86IndexReg@@W4x86ScaleVal@@H@Z ; NativeCodeCache::X86Emit_MOVMR

; 393  :   vars->codeCache->X86Emit_ANDIR(0xFFFF, x86Reg_ebp);

	push	21					; 00000015H
	push	65535					; 0000ffffH
	mov	edx, DWORD PTR _vars$[ebp]
	mov	ecx, DWORD PTR [edx+4]
	call	?X86Emit_ANDIR@NativeCodeCache@@QAEXHW4x86Reg@@@Z ; NativeCodeCache::X86Emit_ANDIR

; 394  :   vars->codeCache->X86Emit_BSWAP(x86Reg_ebp);

	push	21					; 00000015H
	mov	eax, DWORD PTR _vars$[ebp]
	mov	ecx, DWORD PTR [eax+4]
	call	?X86Emit_BSWAP@NativeCodeCache@@QAEXW4x86Reg@@@Z ; NativeCodeCache::X86Emit_BSWAP

; 395  :   vars->codeCache->X86Emit_MOVRM(x86Reg_ebp, destRegWriteBaseReg, x86IndexReg_none, x86Scale_1, destRegDisp);

	mov	ecx, DWORD PTR _destRegDisp$[ebp]
	push	ecx
	push	0
	push	4
	mov	edx, DWORD PTR _destRegWriteBaseReg$[ebp]
	push	edx
	push	21					; 00000015H
	mov	eax, DWORD PTR _vars$[ebp]
	mov	ecx, DWORD PTR [eax+4]
	call	?X86Emit_MOVRM@NativeCodeCache@@QAEXW4x86Reg@@IW4x86IndexReg@@W4x86ScaleVal@@H@Z ; NativeCodeCache::X86Emit_MOVRM

; 396  : }

	add	esp, 36					; 00000024H
	cmp	ebp, esp
	call	__RTC_CheckEsp
	mov	esp, ebp
	pop	ebp
	ret	0
?Emit_LoadWordBilinearUV@@YAXPAVEmitterVariables@@AAVNuance@@@Z ENDP ; Emit_LoadWordBilinearUV
_TEXT	ENDS
PUBLIC	?Emit_LoadScalarAbsolute@@YAXPAVEmitterVariables@@AAVNuance@@@Z ; Emit_LoadScalarAbsolute
; Function compile flags: /Odtp /RTCsu
_TEXT	SEGMENT
_destRegDisp$ = -16					; size = 4
_destRegWriteBaseReg$ = -12				; size = 4
_srcAddress$ = -8					; size = 4
_destRegIndex$ = -4					; size = 4
_vars$ = 8						; size = 4
_nuance$ = 12						; size = 4
?Emit_LoadScalarAbsolute@@YAXPAVEmitterVariables@@AAVNuance@@@Z PROC ; Emit_LoadScalarAbsolute

; 399  : {

	push	ebp
	mov	ebp, esp
	sub	esp, 16					; 00000010H
	mov	eax, -858993460				; ccccccccH
	mov	DWORD PTR [ebp-16], eax
	mov	DWORD PTR [ebp-12], eax
	mov	DWORD PTR [ebp-8], eax
	mov	DWORD PTR [ebp-4], eax

; 400  :   uint32 destRegIndex = nuance.fields[FIELD_MEM_TO];

	mov	eax, DWORD PTR _nuance$[ebp]
	mov	ecx, DWORD PTR [eax+8]
	mov	DWORD PTR _destRegIndex$[ebp], ecx

; 401  :   uint32 srcAddress = nuance.fields[FIELD_MEM_POINTER];

	mov	edx, DWORD PTR _nuance$[ebp]
	mov	eax, DWORD PTR [edx+16]
	mov	DWORD PTR _srcAddress$[ebp], eax

; 402  :   x86BaseReg destRegWriteBaseReg = GetScalarRegWriteBaseReg(vars,destRegIndex);

	mov	ecx, DWORD PTR _destRegIndex$[ebp]
	push	ecx
	mov	edx, DWORD PTR _vars$[ebp]
	push	edx
	call	?GetScalarRegWriteBaseReg@@YA?AW4x86BaseReg@@PAVEmitterVariables@@I@Z ; GetScalarRegWriteBaseReg
	add	esp, 8
	mov	DWORD PTR _destRegWriteBaseReg$[ebp], eax

; 403  :   int32 destRegDisp = GetScalarRegEmitDisp(vars,destRegIndex);

	mov	eax, DWORD PTR _destRegIndex$[ebp]
	push	eax
	mov	ecx, DWORD PTR _vars$[ebp]
	push	ecx
	call	?GetScalarRegEmitDisp@@YAHPAVEmitterVariables@@I@Z ; GetScalarRegEmitDisp
	add	esp, 8
	mov	DWORD PTR _destRegDisp$[ebp], eax

; 404  : 
; 405  :   if(vars->scalarRegOutDep)

	mov	edx, DWORD PTR _vars$[ebp]
	cmp	DWORD PTR [edx+36], 0
	je	SHORT $LN2@Emit_LoadS

; 406  :   {
; 407  :     vars->codeCache->X86Emit_MOVMR(x86Reg_eax, srcAddress);

	push	0
	push	0
	push	4
	mov	eax, DWORD PTR _srcAddress$[ebp]
	push	eax
	push	16					; 00000010H
	mov	ecx, DWORD PTR _vars$[ebp]
	mov	ecx, DWORD PTR [ecx+4]
	call	?X86Emit_MOVMR@NativeCodeCache@@QAEXW4x86Reg@@IW4x86IndexReg@@W4x86ScaleVal@@H@Z ; NativeCodeCache::X86Emit_MOVMR

; 408  :     vars->codeCache->X86Emit_BSWAP(x86Reg_eax);

	push	16					; 00000010H
	mov	edx, DWORD PTR _vars$[ebp]
	mov	ecx, DWORD PTR [edx+4]
	call	?X86Emit_BSWAP@NativeCodeCache@@QAEXW4x86Reg@@@Z ; NativeCodeCache::X86Emit_BSWAP

; 409  :     vars->codeCache->X86Emit_MOVRM(x86Reg_eax, destRegWriteBaseReg, x86IndexReg_none, x86Scale_1, destRegDisp);

	mov	eax, DWORD PTR _destRegDisp$[ebp]
	push	eax
	push	0
	push	4
	mov	ecx, DWORD PTR _destRegWriteBaseReg$[ebp]
	push	ecx
	push	16					; 00000010H
	mov	edx, DWORD PTR _vars$[ebp]
	mov	ecx, DWORD PTR [edx+4]
	call	?X86Emit_MOVRM@NativeCodeCache@@QAEXW4x86Reg@@IW4x86IndexReg@@W4x86ScaleVal@@H@Z ; NativeCodeCache::X86Emit_MOVRM
$LN2@Emit_LoadS:

; 410  :   }
; 411  : }

	add	esp, 16					; 00000010H
	cmp	ebp, esp
	call	__RTC_CheckEsp
	mov	esp, ebp
	pop	ebp
	ret	0
?Emit_LoadScalarAbsolute@@YAXPAVEmitterVariables@@AAVNuance@@@Z ENDP ; Emit_LoadScalarAbsolute
_TEXT	ENDS
PUBLIC	?EmitControlRegisterLoad@@YAXPAVEmitterVariables@@IW4x86Reg@@@Z ; EmitControlRegisterLoad
PUBLIC	?Emit_LoadScalarControlRegisterAbsolute@@YAXPAVEmitterVariables@@AAVNuance@@@Z ; Emit_LoadScalarControlRegisterAbsolute
; Function compile flags: /Odtp /RTCsu
_TEXT	SEGMENT
_destRegDisp$ = -16					; size = 4
_destRegWriteBaseReg$ = -12				; size = 4
_srcAddress$ = -8					; size = 4
_destRegIndex$ = -4					; size = 4
_vars$ = 8						; size = 4
_nuance$ = 12						; size = 4
?Emit_LoadScalarControlRegisterAbsolute@@YAXPAVEmitterVariables@@AAVNuance@@@Z PROC ; Emit_LoadScalarControlRegisterAbsolute

; 414  : {

	push	ebp
	mov	ebp, esp
	sub	esp, 16					; 00000010H
	mov	eax, -858993460				; ccccccccH
	mov	DWORD PTR [ebp-16], eax
	mov	DWORD PTR [ebp-12], eax
	mov	DWORD PTR [ebp-8], eax
	mov	DWORD PTR [ebp-4], eax

; 415  :   uint32 destRegIndex = nuance.fields[FIELD_MEM_TO];

	mov	eax, DWORD PTR _nuance$[ebp]
	mov	ecx, DWORD PTR [eax+8]
	mov	DWORD PTR _destRegIndex$[ebp], ecx

; 416  :   uint32 srcAddress = nuance.fields[FIELD_MEM_FROM];

	mov	edx, DWORD PTR _nuance$[ebp]
	mov	eax, DWORD PTR [edx+12]
	mov	DWORD PTR _srcAddress$[ebp], eax

; 417  : 
; 418  :   x86BaseReg destRegWriteBaseReg = GetScalarRegWriteBaseReg(vars,destRegIndex);

	mov	ecx, DWORD PTR _destRegIndex$[ebp]
	push	ecx
	mov	edx, DWORD PTR _vars$[ebp]
	push	edx
	call	?GetScalarRegWriteBaseReg@@YA?AW4x86BaseReg@@PAVEmitterVariables@@I@Z ; GetScalarRegWriteBaseReg
	add	esp, 8
	mov	DWORD PTR _destRegWriteBaseReg$[ebp], eax

; 419  :   int32 destRegDisp = GetScalarRegEmitDisp(vars,destRegIndex);

	mov	eax, DWORD PTR _destRegIndex$[ebp]
	push	eax
	mov	ecx, DWORD PTR _vars$[ebp]
	push	ecx
	call	?GetScalarRegEmitDisp@@YAHPAVEmitterVariables@@I@Z ; GetScalarRegEmitDisp
	add	esp, 8
	mov	DWORD PTR _destRegDisp$[ebp], eax

; 420  : 
; 421  :   if(vars->scalarRegOutDep)

	mov	edx, DWORD PTR _vars$[ebp]
	cmp	DWORD PTR [edx+36], 0
	je	SHORT $LN2@Emit_LoadS@2

; 422  :   {
; 423  :     EmitControlRegisterLoad(vars, srcAddress, x86Reg_eax);

	push	16					; 00000010H
	mov	eax, DWORD PTR _srcAddress$[ebp]
	push	eax
	mov	ecx, DWORD PTR _vars$[ebp]
	push	ecx
	call	?EmitControlRegisterLoad@@YAXPAVEmitterVariables@@IW4x86Reg@@@Z ; EmitControlRegisterLoad
	add	esp, 12					; 0000000cH

; 424  :     vars->codeCache->X86Emit_MOVRM(x86Reg_eax, destRegWriteBaseReg, x86IndexReg_none, x86Scale_1, destRegDisp);

	mov	edx, DWORD PTR _destRegDisp$[ebp]
	push	edx
	push	0
	push	4
	mov	eax, DWORD PTR _destRegWriteBaseReg$[ebp]
	push	eax
	push	16					; 00000010H
	mov	ecx, DWORD PTR _vars$[ebp]
	mov	ecx, DWORD PTR [ecx+4]
	call	?X86Emit_MOVRM@NativeCodeCache@@QAEXW4x86Reg@@IW4x86IndexReg@@W4x86ScaleVal@@H@Z ; NativeCodeCache::X86Emit_MOVRM
$LN2@Emit_LoadS@2:

; 425  :   }
; 426  : }

	add	esp, 16					; 00000010H
	cmp	ebp, esp
	call	__RTC_CheckEsp
	mov	esp, ebp
	pop	ebp
	ret	0
?Emit_LoadScalarControlRegisterAbsolute@@YAXPAVEmitterVariables@@AAVNuance@@@Z ENDP ; Emit_LoadScalarControlRegisterAbsolute
_TEXT	ENDS
PUBLIC	?Emit_LoadScalarLinear@@YAXPAVEmitterVariables@@AAVNuance@@@Z ; Emit_LoadScalarLinear
; Function compile flags: /Odtp /RTCsu
_TEXT	SEGMENT
_destRegDisp$ = -28					; size = 4
_srcRegDisp$ = -24					; size = 4
_destRegWriteBaseReg$ = -20				; size = 4
_srcRegReadBaseReg$ = -16				; size = 4
_srcRegIndex$ = -12					; size = 4
_destRegIndex$ = -8					; size = 4
_l_not_control_reg$ = -4				; size = 4
_vars$ = 8						; size = 4
_nuance$ = 12						; size = 4
?Emit_LoadScalarLinear@@YAXPAVEmitterVariables@@AAVNuance@@@Z PROC ; Emit_LoadScalarLinear

; 429  : {

	push	ebp
	mov	ebp, esp
	sub	esp, 28					; 0000001cH
	mov	eax, -858993460				; ccccccccH
	mov	DWORD PTR [ebp-28], eax
	mov	DWORD PTR [ebp-24], eax
	mov	DWORD PTR [ebp-20], eax
	mov	DWORD PTR [ebp-16], eax
	mov	DWORD PTR [ebp-12], eax
	mov	DWORD PTR [ebp-8], eax
	mov	DWORD PTR [ebp-4], eax

; 430  :   uint32 l_not_control_reg = 0;

	mov	DWORD PTR _l_not_control_reg$[ebp], 0

; 431  : 
; 432  :   uint32 destRegIndex = nuance.fields[FIELD_MEM_TO];

	mov	eax, DWORD PTR _nuance$[ebp]
	mov	ecx, DWORD PTR [eax+8]
	mov	DWORD PTR _destRegIndex$[ebp], ecx

; 433  :   uint32 srcRegIndex = nuance.fields[FIELD_MEM_FROM];

	mov	edx, DWORD PTR _nuance$[ebp]
	mov	eax, DWORD PTR [edx+12]
	mov	DWORD PTR _srcRegIndex$[ebp], eax

; 434  :   x86BaseReg srcRegReadBaseReg = GetScalarRegReadBaseReg(vars,srcRegIndex);

	mov	ecx, DWORD PTR _srcRegIndex$[ebp]
	push	ecx
	mov	edx, DWORD PTR _vars$[ebp]
	push	edx
	call	?GetScalarRegReadBaseReg@@YA?AW4x86BaseReg@@PAVEmitterVariables@@I@Z ; GetScalarRegReadBaseReg
	add	esp, 8
	mov	DWORD PTR _srcRegReadBaseReg$[ebp], eax

; 435  :   x86BaseReg destRegWriteBaseReg = GetScalarRegWriteBaseReg(vars,destRegIndex);

	mov	eax, DWORD PTR _destRegIndex$[ebp]
	push	eax
	mov	ecx, DWORD PTR _vars$[ebp]
	push	ecx
	call	?GetScalarRegWriteBaseReg@@YA?AW4x86BaseReg@@PAVEmitterVariables@@I@Z ; GetScalarRegWriteBaseReg
	add	esp, 8
	mov	DWORD PTR _destRegWriteBaseReg$[ebp], eax

; 436  :   int32 srcRegDisp = GetScalarRegEmitDisp(vars,srcRegIndex);

	mov	edx, DWORD PTR _srcRegIndex$[ebp]
	push	edx
	mov	eax, DWORD PTR _vars$[ebp]
	push	eax
	call	?GetScalarRegEmitDisp@@YAHPAVEmitterVariables@@I@Z ; GetScalarRegEmitDisp
	add	esp, 8
	mov	DWORD PTR _srcRegDisp$[ebp], eax

; 437  :   int32 destRegDisp = GetScalarRegEmitDisp(vars,destRegIndex);

	mov	ecx, DWORD PTR _destRegIndex$[ebp]
	push	ecx
	mov	edx, DWORD PTR _vars$[ebp]
	push	edx
	call	?GetScalarRegEmitDisp@@YAHPAVEmitterVariables@@I@Z ; GetScalarRegEmitDisp
	add	esp, 8
	mov	DWORD PTR _destRegDisp$[ebp], eax

; 438  : 
; 439  :   vars->patchMgr->Reset();

	mov	eax, DWORD PTR _vars$[ebp]
	mov	ecx, DWORD PTR [eax+8]
	call	?Reset@PatchManager@@QAEXXZ		; PatchManager::Reset

; 440  : 
; 441  :   vars->codeCache->X86Emit_MOVMR(x86Reg_eax, srcRegReadBaseReg, x86IndexReg_none, x86Scale_1, srcRegDisp);

	mov	ecx, DWORD PTR _srcRegDisp$[ebp]
	push	ecx
	push	0
	push	4
	mov	edx, DWORD PTR _srcRegReadBaseReg$[ebp]
	push	edx
	push	16					; 00000010H
	mov	eax, DWORD PTR _vars$[ebp]
	mov	ecx, DWORD PTR [eax+4]
	call	?X86Emit_MOVMR@NativeCodeCache@@QAEXW4x86Reg@@IW4x86IndexReg@@W4x86ScaleVal@@H@Z ; NativeCodeCache::X86Emit_MOVMR

; 442  :   vars->codeCache->X86Emit_MOVRR(x86Reg_ebx, x86Reg_eax);

	push	16					; 00000010H
	push	19					; 00000013H
	mov	ecx, DWORD PTR _vars$[ebp]
	mov	ecx, DWORD PTR [ecx+4]
	call	?X86Emit_MOVRR@NativeCodeCache@@QAEXW4x86Reg@@0@Z ; NativeCodeCache::X86Emit_MOVRR

; 443  :   vars->codeCache->X86Emit_ANDIR(0xFFF00000, x86Reg_ebx);

	push	19					; 00000013H
	push	-1048576				; fff00000H
	mov	edx, DWORD PTR _vars$[ebp]
	mov	ecx, DWORD PTR [edx+4]
	call	?X86Emit_ANDIR@NativeCodeCache@@QAEXHW4x86Reg@@@Z ; NativeCodeCache::X86Emit_ANDIR

; 444  :   vars->codeCache->X86Emit_CMPIR(0x20500000, x86Reg_ebx);

	push	19					; 00000013H
	push	542113792				; 20500000H
	mov	eax, DWORD PTR _vars$[ebp]
	mov	ecx, DWORD PTR [eax+4]
	call	?X86Emit_CMPIR@NativeCodeCache@@QAEXHW4x86Reg@@@Z ; NativeCodeCache::X86Emit_CMPIR

; 445  :   vars->codeCache->X86Emit_JCC_Label(vars->patchMgr, X86_CC_NZ, l_not_control_reg);

	mov	ecx, DWORD PTR _l_not_control_reg$[ebp]
	push	ecx
	push	5
	mov	edx, DWORD PTR _vars$[ebp]
	mov	eax, DWORD PTR [edx+8]
	push	eax
	mov	ecx, DWORD PTR _vars$[ebp]
	mov	ecx, DWORD PTR [ecx+4]
	call	?X86Emit_JCC_Label@NativeCodeCache@@QAEXPAVPatchManager@@CI@Z ; NativeCodeCache::X86Emit_JCC_Label

; 446  :   vars->codeCache->X86Emit_MOVIM(1, x86MemPtr_dword, (uint32)&(vars->mpe->interpretNextPacket));

	push	0
	push	0
	push	4
	mov	edx, DWORD PTR _vars$[ebp]
	mov	eax, DWORD PTR [edx]
	add	eax, 620				; 0000026cH
	push	eax
	push	2
	push	1
	mov	ecx, DWORD PTR _vars$[ebp]
	mov	ecx, DWORD PTR [ecx+4]
	call	?X86Emit_MOVIM@NativeCodeCache@@QAEXHW4x86MemPtr@@IW4x86IndexReg@@W4x86ScaleVal@@H@Z ; NativeCodeCache::X86Emit_MOVIM

; 447  :   vars->codeCache->X86Emit_MOVIM(vars->pInstructionEntry->packet->pcexec, x86MemPtr_dword, (uint32)&(vars->mpe->pcexec));

	push	0
	push	0
	push	4
	mov	edx, DWORD PTR _vars$[ebp]
	mov	eax, DWORD PTR [edx]
	add	eax, 408				; 00000198H
	push	eax
	push	2
	mov	ecx, DWORD PTR _vars$[ebp]
	mov	edx, DWORD PTR [ecx+12]
	mov	eax, DWORD PTR [edx]
	mov	ecx, DWORD PTR [eax]
	push	ecx
	mov	edx, DWORD PTR _vars$[ebp]
	mov	ecx, DWORD PTR [edx+4]
	call	?X86Emit_MOVIM@NativeCodeCache@@QAEXHW4x86MemPtr@@IW4x86IndexReg@@W4x86ScaleVal@@H@Z ; NativeCodeCache::X86Emit_MOVIM

; 448  :   Emit_ExitBlock(vars);

	mov	eax, DWORD PTR _vars$[ebp]
	push	eax
	call	?Emit_ExitBlock@@YAXPAVEmitterVariables@@@Z ; Emit_ExitBlock
	add	esp, 4

; 449  :   vars->codeCache->patchMgr->SetLabelPointer(l_not_control_reg,vars->codeCache->GetEmitPointer());

	mov	ecx, DWORD PTR _vars$[ebp]
	mov	ecx, DWORD PTR [ecx+4]
	call	?GetEmitPointer@NativeCodeCache@@QAEPAEXZ ; NativeCodeCache::GetEmitPointer
	push	eax
	mov	edx, DWORD PTR _l_not_control_reg$[ebp]
	push	edx
	mov	eax, DWORD PTR _vars$[ebp]
	mov	ecx, DWORD PTR [eax+4]
	mov	ecx, DWORD PTR [ecx]
	call	?SetLabelPointer@PatchManager@@QAEXIPAE@Z ; PatchManager::SetLabelPointer

; 450  :   //vars->codeCache->X86Emit_MOVIR((uint32)(vars->mpe->dtrom), x86Reg_ebx);
; 451  :   //vars->codeCache->X86Emit_MOVIR((uint32)(nuonEnv->mainBusDRAM), x86Reg_ecx);
; 452  :   //vars->codeCache->X86Emit_MOVIR((uint32)(nuonEnv->systemBusDRAM), x86Reg_edx);
; 453  :   //vars->codeCache->X86Emit_MOVIR((uint32)(nuonEnv->flashEEPROM->GetBasePointer()), x86Reg_ebp);
; 454  :   //vars->codeCache->X86Emit_CMPIR(0x40000000, x86Reg_eax);
; 455  :   //vars->codeCache->X86Emit_CMOVNBRR(x86Reg_ebx, x86Reg_ecx);
; 456  :   //vars->codeCache->X86Emit_CMPIR(0x80000000, x86Reg_eax);
; 457  :   //vars->codeCache->X86Emit_CMOVNBRR(x86Reg_ebx, x86Reg_edx);
; 458  :   //vars->codeCache->X86Emit_CMPIR(0xF0000000, x86Reg_eax);
; 459  :   //vars->codeCache->X86Emit_CMOVNBRR(x86Reg_ebx, x86Reg_ebp);
; 460  :   vars->codeCache->X86Emit_SHRIR(x86Reg_ebx,26);

	push	26					; 0000001aH
	push	19					; 00000013H
	mov	edx, DWORD PTR _vars$[ebp]
	mov	ecx, DWORD PTR [edx+4]
	call	?X86Emit_SHRIR@NativeCodeCache@@QAEXW4x86Reg@@E@Z ; NativeCodeCache::X86Emit_SHRIR

; 461  :   vars->codeCache->X86Emit_ANDIR(0x3C,x86Reg_ebx);

	push	19					; 00000013H
	push	60					; 0000003cH
	mov	eax, DWORD PTR _vars$[ebp]
	mov	ecx, DWORD PTR [eax+4]
	call	?X86Emit_ANDIR@NativeCodeCache@@QAEXHW4x86Reg@@@Z ; NativeCodeCache::X86Emit_ANDIR

; 462  :   vars->codeCache->X86Emit_MOVMR(x86Reg_ebx, x86BaseReg_ebx, x86IndexReg_none, x86Scale_1, (int32)vars->mpe->bankPtrTable);

	mov	ecx, DWORD PTR _vars$[ebp]
	mov	edx, DWORD PTR [ecx]
	add	edx, 688				; 000002b0H
	push	edx
	push	0
	push	4
	push	3
	push	19					; 00000013H
	mov	eax, DWORD PTR _vars$[ebp]
	mov	ecx, DWORD PTR [eax+4]
	call	?X86Emit_MOVMR@NativeCodeCache@@QAEXW4x86Reg@@IW4x86IndexReg@@W4x86ScaleVal@@H@Z ; NativeCodeCache::X86Emit_MOVMR

; 463  :   vars->codeCache->X86Emit_ANDIR(0x007FFFFC, x86Reg_eax);

	push	16					; 00000010H
	push	8388604					; 007ffffcH
	mov	ecx, DWORD PTR _vars$[ebp]
	mov	ecx, DWORD PTR [ecx+4]
	call	?X86Emit_ANDIR@NativeCodeCache@@QAEXHW4x86Reg@@@Z ; NativeCodeCache::X86Emit_ANDIR

; 464  :   vars->codeCache->X86Emit_MOVMR(x86Reg_ebp, x86BaseReg_eax, x86IndexReg_ebx);

	push	0
	push	0
	push	3
	push	0
	push	21					; 00000015H
	mov	edx, DWORD PTR _vars$[ebp]
	mov	ecx, DWORD PTR [edx+4]
	call	?X86Emit_MOVMR@NativeCodeCache@@QAEXW4x86Reg@@IW4x86IndexReg@@W4x86ScaleVal@@H@Z ; NativeCodeCache::X86Emit_MOVMR

; 465  :   vars->codeCache->X86Emit_BSWAP(x86Reg_ebp);

	push	21					; 00000015H
	mov	eax, DWORD PTR _vars$[ebp]
	mov	ecx, DWORD PTR [eax+4]
	call	?X86Emit_BSWAP@NativeCodeCache@@QAEXW4x86Reg@@@Z ; NativeCodeCache::X86Emit_BSWAP

; 466  :   vars->codeCache->X86Emit_MOVRM(x86Reg_ebp, destRegWriteBaseReg, x86IndexReg_none, x86Scale_1, destRegDisp);

	mov	ecx, DWORD PTR _destRegDisp$[ebp]
	push	ecx
	push	0
	push	4
	mov	edx, DWORD PTR _destRegWriteBaseReg$[ebp]
	push	edx
	push	21					; 00000015H
	mov	eax, DWORD PTR _vars$[ebp]
	mov	ecx, DWORD PTR [eax+4]
	call	?X86Emit_MOVRM@NativeCodeCache@@QAEXW4x86Reg@@IW4x86IndexReg@@W4x86ScaleVal@@H@Z ; NativeCodeCache::X86Emit_MOVRM

; 467  : 
; 468  :   vars->patchMgr->ApplyPatches();

	mov	ecx, DWORD PTR _vars$[ebp]
	mov	ecx, DWORD PTR [ecx+8]
	call	?ApplyPatches@PatchManager@@QAEXXZ	; PatchManager::ApplyPatches

; 469  : }

	add	esp, 28					; 0000001cH
	cmp	ebp, esp
	call	__RTC_CheckEsp
	mov	esp, ebp
	pop	ebp
	ret	0
?Emit_LoadScalarLinear@@YAXPAVEmitterVariables@@AAVNuance@@@Z ENDP ; Emit_LoadScalarLinear
_TEXT	ENDS
PUBLIC	?Emit_LoadScalarBilinearXY@@YAXPAVEmitterVariables@@AAVNuance@@@Z ; Emit_LoadScalarBilinearXY
; Function compile flags: /Odtp /RTCsu
_TEXT	SEGMENT
_xyctlRegDisp$ = -36					; size = 4
_ryRegDisp$ = -32					; size = 4
_rxRegDisp$ = -28					; size = 4
_destRegDisp$ = -24					; size = 4
_destRegWriteBaseReg$ = -20				; size = 4
_xyctlRegReadBaseReg$ = -16				; size = 4
_ryRegReadBaseReg$ = -12				; size = 4
_rxRegReadBaseReg$ = -8					; size = 4
_destRegIndex$ = -4					; size = 4
_vars$ = 8						; size = 4
_nuance$ = 12						; size = 4
?Emit_LoadScalarBilinearXY@@YAXPAVEmitterVariables@@AAVNuance@@@Z PROC ; Emit_LoadScalarBilinearXY

; 472  : {

	push	ebp
	mov	ebp, esp
	sub	esp, 36					; 00000024H
	mov	eax, -858993460				; ccccccccH
	mov	DWORD PTR [ebp-36], eax
	mov	DWORD PTR [ebp-32], eax
	mov	DWORD PTR [ebp-28], eax
	mov	DWORD PTR [ebp-24], eax
	mov	DWORD PTR [ebp-20], eax
	mov	DWORD PTR [ebp-16], eax
	mov	DWORD PTR [ebp-12], eax
	mov	DWORD PTR [ebp-8], eax
	mov	DWORD PTR [ebp-4], eax

; 473  :   uint32 destRegIndex = nuance.fields[FIELD_MEM_TO];

	mov	eax, DWORD PTR _nuance$[ebp]
	mov	ecx, DWORD PTR [eax+8]
	mov	DWORD PTR _destRegIndex$[ebp], ecx

; 474  :   x86BaseReg rxRegReadBaseReg = GetMiscRegReadBaseReg(vars,REGINDEX_RX);

	push	3
	mov	edx, DWORD PTR _vars$[ebp]
	push	edx
	call	?GetMiscRegReadBaseReg@@YA?AW4x86BaseReg@@PAVEmitterVariables@@I@Z ; GetMiscRegReadBaseReg
	add	esp, 8
	mov	DWORD PTR _rxRegReadBaseReg$[ebp], eax

; 475  :   x86BaseReg ryRegReadBaseReg = GetMiscRegReadBaseReg(vars,REGINDEX_RY);

	push	4
	mov	eax, DWORD PTR _vars$[ebp]
	push	eax
	call	?GetMiscRegReadBaseReg@@YA?AW4x86BaseReg@@PAVEmitterVariables@@I@Z ; GetMiscRegReadBaseReg
	add	esp, 8
	mov	DWORD PTR _ryRegReadBaseReg$[ebp], eax

; 476  :   x86BaseReg xyctlRegReadBaseReg = GetMiscRegReadBaseReg(vars,REGINDEX_XYCTL);

	push	10					; 0000000aH
	mov	ecx, DWORD PTR _vars$[ebp]
	push	ecx
	call	?GetMiscRegReadBaseReg@@YA?AW4x86BaseReg@@PAVEmitterVariables@@I@Z ; GetMiscRegReadBaseReg
	add	esp, 8
	mov	DWORD PTR _xyctlRegReadBaseReg$[ebp], eax

; 477  :   x86BaseReg destRegWriteBaseReg = GetScalarRegWriteBaseReg(vars,destRegIndex);

	mov	edx, DWORD PTR _destRegIndex$[ebp]
	push	edx
	mov	eax, DWORD PTR _vars$[ebp]
	push	eax
	call	?GetScalarRegWriteBaseReg@@YA?AW4x86BaseReg@@PAVEmitterVariables@@I@Z ; GetScalarRegWriteBaseReg
	add	esp, 8
	mov	DWORD PTR _destRegWriteBaseReg$[ebp], eax

; 478  :   int32 destRegDisp = GetScalarRegEmitDisp(vars,destRegIndex);

	mov	ecx, DWORD PTR _destRegIndex$[ebp]
	push	ecx
	mov	edx, DWORD PTR _vars$[ebp]
	push	edx
	call	?GetScalarRegEmitDisp@@YAHPAVEmitterVariables@@I@Z ; GetScalarRegEmitDisp
	add	esp, 8
	mov	DWORD PTR _destRegDisp$[ebp], eax

; 479  :   int32 rxRegDisp = GetMiscRegEmitDisp(vars,REGINDEX_RX);

	push	3
	mov	eax, DWORD PTR _vars$[ebp]
	push	eax
	call	?GetMiscRegEmitDisp@@YAHPAVEmitterVariables@@I@Z ; GetMiscRegEmitDisp
	add	esp, 8
	mov	DWORD PTR _rxRegDisp$[ebp], eax

; 480  :   int32 ryRegDisp = GetMiscRegEmitDisp(vars,REGINDEX_RY);

	push	4
	mov	ecx, DWORD PTR _vars$[ebp]
	push	ecx
	call	?GetMiscRegEmitDisp@@YAHPAVEmitterVariables@@I@Z ; GetMiscRegEmitDisp
	add	esp, 8
	mov	DWORD PTR _ryRegDisp$[ebp], eax

; 481  :   int32 xyctlRegDisp = GetMiscRegEmitDisp(vars,REGINDEX_XYCTL);

	push	10					; 0000000aH
	mov	edx, DWORD PTR _vars$[ebp]
	push	edx
	call	?GetMiscRegEmitDisp@@YAHPAVEmitterVariables@@I@Z ; GetMiscRegEmitDisp
	add	esp, 8
	mov	DWORD PTR _xyctlRegDisp$[ebp], eax

; 482  : 
; 483  :   vars->codeCache->X86Emit_MOVMR(x86Reg_eax, rxRegReadBaseReg, x86IndexReg_none, x86Scale_1, rxRegDisp);

	mov	eax, DWORD PTR _rxRegDisp$[ebp]
	push	eax
	push	0
	push	4
	mov	ecx, DWORD PTR _rxRegReadBaseReg$[ebp]
	push	ecx
	push	16					; 00000010H
	mov	edx, DWORD PTR _vars$[ebp]
	mov	ecx, DWORD PTR [edx+4]
	call	?X86Emit_MOVMR@NativeCodeCache@@QAEXW4x86Reg@@IW4x86IndexReg@@W4x86ScaleVal@@H@Z ; NativeCodeCache::X86Emit_MOVMR

; 484  :   vars->codeCache->X86Emit_MOVMR(x86Reg_ebx, ryRegReadBaseReg, x86IndexReg_none, x86Scale_1, ryRegDisp);

	mov	eax, DWORD PTR _ryRegDisp$[ebp]
	push	eax
	push	0
	push	4
	mov	ecx, DWORD PTR _ryRegReadBaseReg$[ebp]
	push	ecx
	push	19					; 00000013H
	mov	edx, DWORD PTR _vars$[ebp]
	mov	ecx, DWORD PTR [edx+4]
	call	?X86Emit_MOVMR@NativeCodeCache@@QAEXW4x86Reg@@IW4x86IndexReg@@W4x86ScaleVal@@H@Z ; NativeCodeCache::X86Emit_MOVMR

; 485  :   vars->codeCache->X86Emit_MOVMR(x86Reg_ecx, xyctlRegReadBaseReg, x86IndexReg_none, x86Scale_1, xyctlRegDisp);

	mov	eax, DWORD PTR _xyctlRegDisp$[ebp]
	push	eax
	push	0
	push	4
	mov	ecx, DWORD PTR _xyctlRegReadBaseReg$[ebp]
	push	ecx
	push	17					; 00000011H
	mov	edx, DWORD PTR _vars$[ebp]
	mov	ecx, DWORD PTR [edx+4]
	call	?X86Emit_MOVMR@NativeCodeCache@@QAEXW4x86Reg@@IW4x86IndexReg@@W4x86ScaleVal@@H@Z ; NativeCodeCache::X86Emit_MOVMR

; 486  :   vars->codeCache->X86Emit_MOVMR(x86Reg_ebp, (uint32)&vars->mpe->xybase);

	push	0
	push	0
	push	4
	mov	eax, DWORD PTR _vars$[ebp]
	mov	ecx, DWORD PTR [eax]
	add	ecx, 448				; 000001c0H
	push	ecx
	push	21					; 00000015H
	mov	edx, DWORD PTR _vars$[ebp]
	mov	ecx, DWORD PTR [edx+4]
	call	?X86Emit_MOVMR@NativeCodeCache@@QAEXW4x86Reg@@IW4x86IndexReg@@W4x86ScaleVal@@H@Z ; NativeCodeCache::X86Emit_MOVMR

; 487  :   vars->codeCache->X86Emit_MOVRM(x86Reg_eax, (uint32)&bilinearAddressInfo.x);

	push	0
	push	0
	push	4
	push	OFFSET ?bilinearAddressInfo@@3UstructBilinearAddressInfo@@A+28
	push	16					; 00000010H
	mov	eax, DWORD PTR _vars$[ebp]
	mov	ecx, DWORD PTR [eax+4]
	call	?X86Emit_MOVRM@NativeCodeCache@@QAEXW4x86Reg@@IW4x86IndexReg@@W4x86ScaleVal@@H@Z ; NativeCodeCache::X86Emit_MOVRM

; 488  :   vars->codeCache->X86Emit_MOVRM(x86Reg_ebx, (uint32)&bilinearAddressInfo.y);

	push	0
	push	0
	push	4
	push	OFFSET ?bilinearAddressInfo@@3UstructBilinearAddressInfo@@A+32
	push	19					; 00000013H
	mov	ecx, DWORD PTR _vars$[ebp]
	mov	ecx, DWORD PTR [ecx+4]
	call	?X86Emit_MOVRM@NativeCodeCache@@QAEXW4x86Reg@@IW4x86IndexReg@@W4x86ScaleVal@@H@Z ; NativeCodeCache::X86Emit_MOVRM

; 489  :   vars->codeCache->X86Emit_MOVRM(x86Reg_ecx, (uint32)&bilinearAddressInfo.control);

	push	0
	push	0
	push	4
	push	OFFSET ?bilinearAddressInfo@@3UstructBilinearAddressInfo@@A+24
	push	17					; 00000011H
	mov	edx, DWORD PTR _vars$[ebp]
	mov	ecx, DWORD PTR [edx+4]
	call	?X86Emit_MOVRM@NativeCodeCache@@QAEXW4x86Reg@@IW4x86IndexReg@@W4x86ScaleVal@@H@Z ; NativeCodeCache::X86Emit_MOVRM

; 490  :   vars->codeCache->X86Emit_MOVRM(x86Reg_ebp, (uint32)&bilinearAddressInfo.base);

	push	0
	push	0
	push	4
	push	OFFSET ?bilinearAddressInfo@@3UstructBilinearAddressInfo@@A+20
	push	21					; 00000015H
	mov	eax, DWORD PTR _vars$[ebp]
	mov	ecx, DWORD PTR [eax+4]
	call	?X86Emit_MOVRM@NativeCodeCache@@QAEXW4x86Reg@@IW4x86IndexReg@@W4x86ScaleVal@@H@Z ; NativeCodeCache::X86Emit_MOVRM

; 491  :   vars->codeCache->X86Emit_CALLI((uint32)GetBilinearAddress,0);

	push	0
	push	OFFSET ?GetBilinearAddress@@YAXXZ	; GetBilinearAddress
	mov	ecx, DWORD PTR _vars$[ebp]
	mov	ecx, DWORD PTR [ecx+4]
	call	?X86Emit_CALLI@NativeCodeCache@@QAEXIG@Z ; NativeCodeCache::X86Emit_CALLI

; 492  :   vars->codeCache->X86Emit_MOVMR(x86Reg_eax, (uint32)&bilinearAddressInfo.offset_address);

	push	0
	push	0
	push	4
	push	OFFSET ?bilinearAddressInfo@@3UstructBilinearAddressInfo@@A+40
	push	16					; 00000010H
	mov	edx, DWORD PTR _vars$[ebp]
	mov	ecx, DWORD PTR [edx+4]
	call	?X86Emit_MOVMR@NativeCodeCache@@QAEXW4x86Reg@@IW4x86IndexReg@@W4x86ScaleVal@@H@Z ; NativeCodeCache::X86Emit_MOVMR

; 493  : 
; 494  :   //vars->codeCache->X86Emit_MOVIR((uint32)(vars->mpe->dtrom), x86Reg_ebx);
; 495  :   //vars->codeCache->X86Emit_MOVIR((uint32)(nuonEnv->mainBusDRAM), x86Reg_ecx);
; 496  :   //vars->codeCache->X86Emit_MOVIR((uint32)(nuonEnv->systemBusDRAM), x86Reg_edx);
; 497  :   //vars->codeCache->X86Emit_MOVIR((uint32)(nuonEnv->flashEEPROM->GetBasePointer()), x86Reg_ebp);
; 498  :   //vars->codeCache->X86Emit_CMPIR(0x40000000, x86Reg_eax);
; 499  :   //vars->codeCache->X86Emit_CMOVNBRR(x86Reg_ebx, x86Reg_ecx);
; 500  :   //vars->codeCache->X86Emit_CMPIR(0x80000000, x86Reg_eax);
; 501  :   //vars->codeCache->X86Emit_CMOVNBRR(x86Reg_ebx, x86Reg_edx);
; 502  :   //vars->codeCache->X86Emit_CMPIR(0xF0000000, x86Reg_eax);
; 503  :   //vars->codeCache->X86Emit_CMOVNBRR(x86Reg_ebx, x86Reg_ebp);
; 504  :   vars->codeCache->X86Emit_MOVRR(x86Reg_ebx, x86Reg_eax);

	push	16					; 00000010H
	push	19					; 00000013H
	mov	eax, DWORD PTR _vars$[ebp]
	mov	ecx, DWORD PTR [eax+4]
	call	?X86Emit_MOVRR@NativeCodeCache@@QAEXW4x86Reg@@0@Z ; NativeCodeCache::X86Emit_MOVRR

; 505  :   vars->codeCache->X86Emit_SHRIR(x86Reg_ebx,26);

	push	26					; 0000001aH
	push	19					; 00000013H
	mov	ecx, DWORD PTR _vars$[ebp]
	mov	ecx, DWORD PTR [ecx+4]
	call	?X86Emit_SHRIR@NativeCodeCache@@QAEXW4x86Reg@@E@Z ; NativeCodeCache::X86Emit_SHRIR

; 506  :   vars->codeCache->X86Emit_ANDIR(0x3C,x86Reg_ebx);

	push	19					; 00000013H
	push	60					; 0000003cH
	mov	edx, DWORD PTR _vars$[ebp]
	mov	ecx, DWORD PTR [edx+4]
	call	?X86Emit_ANDIR@NativeCodeCache@@QAEXHW4x86Reg@@@Z ; NativeCodeCache::X86Emit_ANDIR

; 507  :   vars->codeCache->X86Emit_MOVMR(x86Reg_ebx, x86BaseReg_ebx, x86IndexReg_none, x86Scale_1, (int32)vars->mpe->bankPtrTable);

	mov	eax, DWORD PTR _vars$[ebp]
	mov	ecx, DWORD PTR [eax]
	add	ecx, 688				; 000002b0H
	push	ecx
	push	0
	push	4
	push	3
	push	19					; 00000013H
	mov	edx, DWORD PTR _vars$[ebp]
	mov	ecx, DWORD PTR [edx+4]
	call	?X86Emit_MOVMR@NativeCodeCache@@QAEXW4x86Reg@@IW4x86IndexReg@@W4x86ScaleVal@@H@Z ; NativeCodeCache::X86Emit_MOVMR

; 508  :   vars->codeCache->X86Emit_ANDIR(0x007FFFFF, x86Reg_eax);

	push	16					; 00000010H
	push	8388607					; 007fffffH
	mov	eax, DWORD PTR _vars$[ebp]
	mov	ecx, DWORD PTR [eax+4]
	call	?X86Emit_ANDIR@NativeCodeCache@@QAEXHW4x86Reg@@@Z ; NativeCodeCache::X86Emit_ANDIR

; 509  :   vars->codeCache->X86Emit_MOVMR(x86Reg_ebp, x86BaseReg_eax, x86IndexReg_ebx);

	push	0
	push	0
	push	3
	push	0
	push	21					; 00000015H
	mov	ecx, DWORD PTR _vars$[ebp]
	mov	ecx, DWORD PTR [ecx+4]
	call	?X86Emit_MOVMR@NativeCodeCache@@QAEXW4x86Reg@@IW4x86IndexReg@@W4x86ScaleVal@@H@Z ; NativeCodeCache::X86Emit_MOVMR

; 510  :   vars->codeCache->X86Emit_BSWAP(x86Reg_ebp);

	push	21					; 00000015H
	mov	edx, DWORD PTR _vars$[ebp]
	mov	ecx, DWORD PTR [edx+4]
	call	?X86Emit_BSWAP@NativeCodeCache@@QAEXW4x86Reg@@@Z ; NativeCodeCache::X86Emit_BSWAP

; 511  :   vars->codeCache->X86Emit_MOVRM(x86Reg_ebp, destRegWriteBaseReg, x86IndexReg_none, x86Scale_1, destRegDisp);

	mov	eax, DWORD PTR _destRegDisp$[ebp]
	push	eax
	push	0
	push	4
	mov	ecx, DWORD PTR _destRegWriteBaseReg$[ebp]
	push	ecx
	push	21					; 00000015H
	mov	edx, DWORD PTR _vars$[ebp]
	mov	ecx, DWORD PTR [edx+4]
	call	?X86Emit_MOVRM@NativeCodeCache@@QAEXW4x86Reg@@IW4x86IndexReg@@W4x86ScaleVal@@H@Z ; NativeCodeCache::X86Emit_MOVRM

; 512  : }

	add	esp, 36					; 00000024H
	cmp	ebp, esp
	call	__RTC_CheckEsp
	mov	esp, ebp
	pop	ebp
	ret	0
?Emit_LoadScalarBilinearXY@@YAXPAVEmitterVariables@@AAVNuance@@@Z ENDP ; Emit_LoadScalarBilinearXY
_TEXT	ENDS
PUBLIC	?Emit_LoadScalarBilinearUV@@YAXPAVEmitterVariables@@AAVNuance@@@Z ; Emit_LoadScalarBilinearUV
; Function compile flags: /Odtp /RTCsu
_TEXT	SEGMENT
_uvctlRegDisp$ = -36					; size = 4
_rvRegDisp$ = -32					; size = 4
_ruRegDisp$ = -28					; size = 4
_destRegDisp$ = -24					; size = 4
_destRegWriteBaseReg$ = -20				; size = 4
_uvctlRegReadBaseReg$ = -16				; size = 4
_rvRegReadBaseReg$ = -12				; size = 4
_ruRegReadBaseReg$ = -8					; size = 4
_destRegIndex$ = -4					; size = 4
_vars$ = 8						; size = 4
_nuance$ = 12						; size = 4
?Emit_LoadScalarBilinearUV@@YAXPAVEmitterVariables@@AAVNuance@@@Z PROC ; Emit_LoadScalarBilinearUV

; 515  : {

	push	ebp
	mov	ebp, esp
	sub	esp, 36					; 00000024H
	mov	eax, -858993460				; ccccccccH
	mov	DWORD PTR [ebp-36], eax
	mov	DWORD PTR [ebp-32], eax
	mov	DWORD PTR [ebp-28], eax
	mov	DWORD PTR [ebp-24], eax
	mov	DWORD PTR [ebp-20], eax
	mov	DWORD PTR [ebp-16], eax
	mov	DWORD PTR [ebp-12], eax
	mov	DWORD PTR [ebp-8], eax
	mov	DWORD PTR [ebp-4], eax

; 516  :   uint32 destRegIndex = nuance.fields[FIELD_MEM_TO];

	mov	eax, DWORD PTR _nuance$[ebp]
	mov	ecx, DWORD PTR [eax+8]
	mov	DWORD PTR _destRegIndex$[ebp], ecx

; 517  :   x86BaseReg ruRegReadBaseReg = GetMiscRegReadBaseReg(vars,REGINDEX_RU);

	push	5
	mov	edx, DWORD PTR _vars$[ebp]
	push	edx
	call	?GetMiscRegReadBaseReg@@YA?AW4x86BaseReg@@PAVEmitterVariables@@I@Z ; GetMiscRegReadBaseReg
	add	esp, 8
	mov	DWORD PTR _ruRegReadBaseReg$[ebp], eax

; 518  :   x86BaseReg rvRegReadBaseReg = GetMiscRegReadBaseReg(vars,REGINDEX_RV);

	push	6
	mov	eax, DWORD PTR _vars$[ebp]
	push	eax
	call	?GetMiscRegReadBaseReg@@YA?AW4x86BaseReg@@PAVEmitterVariables@@I@Z ; GetMiscRegReadBaseReg
	add	esp, 8
	mov	DWORD PTR _rvRegReadBaseReg$[ebp], eax

; 519  :   x86BaseReg uvctlRegReadBaseReg = GetMiscRegReadBaseReg(vars,REGINDEX_UVCTL);

	push	11					; 0000000bH
	mov	ecx, DWORD PTR _vars$[ebp]
	push	ecx
	call	?GetMiscRegReadBaseReg@@YA?AW4x86BaseReg@@PAVEmitterVariables@@I@Z ; GetMiscRegReadBaseReg
	add	esp, 8
	mov	DWORD PTR _uvctlRegReadBaseReg$[ebp], eax

; 520  :   x86BaseReg destRegWriteBaseReg = GetScalarRegWriteBaseReg(vars,destRegIndex);

	mov	edx, DWORD PTR _destRegIndex$[ebp]
	push	edx
	mov	eax, DWORD PTR _vars$[ebp]
	push	eax
	call	?GetScalarRegWriteBaseReg@@YA?AW4x86BaseReg@@PAVEmitterVariables@@I@Z ; GetScalarRegWriteBaseReg
	add	esp, 8
	mov	DWORD PTR _destRegWriteBaseReg$[ebp], eax

; 521  :   int32 destRegDisp = GetScalarRegEmitDisp(vars,destRegIndex);

	mov	ecx, DWORD PTR _destRegIndex$[ebp]
	push	ecx
	mov	edx, DWORD PTR _vars$[ebp]
	push	edx
	call	?GetScalarRegEmitDisp@@YAHPAVEmitterVariables@@I@Z ; GetScalarRegEmitDisp
	add	esp, 8
	mov	DWORD PTR _destRegDisp$[ebp], eax

; 522  :   int32 ruRegDisp = GetMiscRegEmitDisp(vars,REGINDEX_RU);

	push	5
	mov	eax, DWORD PTR _vars$[ebp]
	push	eax
	call	?GetMiscRegEmitDisp@@YAHPAVEmitterVariables@@I@Z ; GetMiscRegEmitDisp
	add	esp, 8
	mov	DWORD PTR _ruRegDisp$[ebp], eax

; 523  :   int32 rvRegDisp = GetMiscRegEmitDisp(vars,REGINDEX_RV);

	push	6
	mov	ecx, DWORD PTR _vars$[ebp]
	push	ecx
	call	?GetMiscRegEmitDisp@@YAHPAVEmitterVariables@@I@Z ; GetMiscRegEmitDisp
	add	esp, 8
	mov	DWORD PTR _rvRegDisp$[ebp], eax

; 524  :   int32 uvctlRegDisp = GetMiscRegEmitDisp(vars,REGINDEX_UVCTL);

	push	11					; 0000000bH
	mov	edx, DWORD PTR _vars$[ebp]
	push	edx
	call	?GetMiscRegEmitDisp@@YAHPAVEmitterVariables@@I@Z ; GetMiscRegEmitDisp
	add	esp, 8
	mov	DWORD PTR _uvctlRegDisp$[ebp], eax

; 525  : 
; 526  :   vars->codeCache->X86Emit_MOVMR(x86Reg_eax, ruRegReadBaseReg, x86IndexReg_none, x86Scale_1, ruRegDisp);

	mov	eax, DWORD PTR _ruRegDisp$[ebp]
	push	eax
	push	0
	push	4
	mov	ecx, DWORD PTR _ruRegReadBaseReg$[ebp]
	push	ecx
	push	16					; 00000010H
	mov	edx, DWORD PTR _vars$[ebp]
	mov	ecx, DWORD PTR [edx+4]
	call	?X86Emit_MOVMR@NativeCodeCache@@QAEXW4x86Reg@@IW4x86IndexReg@@W4x86ScaleVal@@H@Z ; NativeCodeCache::X86Emit_MOVMR

; 527  :   vars->codeCache->X86Emit_MOVMR(x86Reg_ebx, rvRegReadBaseReg, x86IndexReg_none, x86Scale_1, rvRegDisp);

	mov	eax, DWORD PTR _rvRegDisp$[ebp]
	push	eax
	push	0
	push	4
	mov	ecx, DWORD PTR _rvRegReadBaseReg$[ebp]
	push	ecx
	push	19					; 00000013H
	mov	edx, DWORD PTR _vars$[ebp]
	mov	ecx, DWORD PTR [edx+4]
	call	?X86Emit_MOVMR@NativeCodeCache@@QAEXW4x86Reg@@IW4x86IndexReg@@W4x86ScaleVal@@H@Z ; NativeCodeCache::X86Emit_MOVMR

; 528  :   vars->codeCache->X86Emit_MOVMR(x86Reg_ecx, uvctlRegReadBaseReg, x86IndexReg_none, x86Scale_1, uvctlRegDisp);

	mov	eax, DWORD PTR _uvctlRegDisp$[ebp]
	push	eax
	push	0
	push	4
	mov	ecx, DWORD PTR _uvctlRegReadBaseReg$[ebp]
	push	ecx
	push	17					; 00000011H
	mov	edx, DWORD PTR _vars$[ebp]
	mov	ecx, DWORD PTR [edx+4]
	call	?X86Emit_MOVMR@NativeCodeCache@@QAEXW4x86Reg@@IW4x86IndexReg@@W4x86ScaleVal@@H@Z ; NativeCodeCache::X86Emit_MOVMR

; 529  :   vars->codeCache->X86Emit_MOVMR(x86Reg_ebp, (uint32)&vars->mpe->uvbase);

	push	0
	push	0
	push	4
	mov	eax, DWORD PTR _vars$[ebp]
	mov	ecx, DWORD PTR [eax]
	add	ecx, 452				; 000001c4H
	push	ecx
	push	21					; 00000015H
	mov	edx, DWORD PTR _vars$[ebp]
	mov	ecx, DWORD PTR [edx+4]
	call	?X86Emit_MOVMR@NativeCodeCache@@QAEXW4x86Reg@@IW4x86IndexReg@@W4x86ScaleVal@@H@Z ; NativeCodeCache::X86Emit_MOVMR

; 530  :   vars->codeCache->X86Emit_MOVRM(x86Reg_eax, (uint32)&bilinearAddressInfo.x);

	push	0
	push	0
	push	4
	push	OFFSET ?bilinearAddressInfo@@3UstructBilinearAddressInfo@@A+28
	push	16					; 00000010H
	mov	eax, DWORD PTR _vars$[ebp]
	mov	ecx, DWORD PTR [eax+4]
	call	?X86Emit_MOVRM@NativeCodeCache@@QAEXW4x86Reg@@IW4x86IndexReg@@W4x86ScaleVal@@H@Z ; NativeCodeCache::X86Emit_MOVRM

; 531  :   vars->codeCache->X86Emit_MOVRM(x86Reg_ebx, (uint32)&bilinearAddressInfo.y);

	push	0
	push	0
	push	4
	push	OFFSET ?bilinearAddressInfo@@3UstructBilinearAddressInfo@@A+32
	push	19					; 00000013H
	mov	ecx, DWORD PTR _vars$[ebp]
	mov	ecx, DWORD PTR [ecx+4]
	call	?X86Emit_MOVRM@NativeCodeCache@@QAEXW4x86Reg@@IW4x86IndexReg@@W4x86ScaleVal@@H@Z ; NativeCodeCache::X86Emit_MOVRM

; 532  :   vars->codeCache->X86Emit_MOVRM(x86Reg_ecx, (uint32)&bilinearAddressInfo.control);

	push	0
	push	0
	push	4
	push	OFFSET ?bilinearAddressInfo@@3UstructBilinearAddressInfo@@A+24
	push	17					; 00000011H
	mov	edx, DWORD PTR _vars$[ebp]
	mov	ecx, DWORD PTR [edx+4]
	call	?X86Emit_MOVRM@NativeCodeCache@@QAEXW4x86Reg@@IW4x86IndexReg@@W4x86ScaleVal@@H@Z ; NativeCodeCache::X86Emit_MOVRM

; 533  :   vars->codeCache->X86Emit_MOVRM(x86Reg_ebp, (uint32)&bilinearAddressInfo.base);

	push	0
	push	0
	push	4
	push	OFFSET ?bilinearAddressInfo@@3UstructBilinearAddressInfo@@A+20
	push	21					; 00000015H
	mov	eax, DWORD PTR _vars$[ebp]
	mov	ecx, DWORD PTR [eax+4]
	call	?X86Emit_MOVRM@NativeCodeCache@@QAEXW4x86Reg@@IW4x86IndexReg@@W4x86ScaleVal@@H@Z ; NativeCodeCache::X86Emit_MOVRM

; 534  :   vars->codeCache->X86Emit_CALLI((uint32)GetBilinearAddress,0);

	push	0
	push	OFFSET ?GetBilinearAddress@@YAXXZ	; GetBilinearAddress
	mov	ecx, DWORD PTR _vars$[ebp]
	mov	ecx, DWORD PTR [ecx+4]
	call	?X86Emit_CALLI@NativeCodeCache@@QAEXIG@Z ; NativeCodeCache::X86Emit_CALLI

; 535  :   vars->codeCache->X86Emit_MOVMR(x86Reg_eax, (uint32)&bilinearAddressInfo.offset_address);

	push	0
	push	0
	push	4
	push	OFFSET ?bilinearAddressInfo@@3UstructBilinearAddressInfo@@A+40
	push	16					; 00000010H
	mov	edx, DWORD PTR _vars$[ebp]
	mov	ecx, DWORD PTR [edx+4]
	call	?X86Emit_MOVMR@NativeCodeCache@@QAEXW4x86Reg@@IW4x86IndexReg@@W4x86ScaleVal@@H@Z ; NativeCodeCache::X86Emit_MOVMR

; 536  : 
; 537  :   //vars->codeCache->X86Emit_MOVIR((uint32)(vars->mpe->dtrom), x86Reg_ebx);
; 538  :   //vars->codeCache->X86Emit_MOVIR((uint32)(nuonEnv->mainBusDRAM), x86Reg_ecx);
; 539  :   //vars->codeCache->X86Emit_MOVIR((uint32)(nuonEnv->systemBusDRAM), x86Reg_edx);
; 540  :   //vars->codeCache->X86Emit_MOVIR((uint32)(nuonEnv->flashEEPROM->GetBasePointer()), x86Reg_ebp);
; 541  :   //vars->codeCache->X86Emit_CMPIR(0x40000000, x86Reg_eax);
; 542  :   //vars->codeCache->X86Emit_CMOVNBRR(x86Reg_ebx, x86Reg_ecx);
; 543  :   //vars->codeCache->X86Emit_CMPIR(0x80000000, x86Reg_eax);
; 544  :   //vars->codeCache->X86Emit_CMOVNBRR(x86Reg_ebx, x86Reg_edx);
; 545  :   //vars->codeCache->X86Emit_CMPIR(0xF0000000, x86Reg_eax);
; 546  :   //vars->codeCache->X86Emit_CMOVNBRR(x86Reg_ebx, x86Reg_ebp);
; 547  :   vars->codeCache->X86Emit_MOVRR(x86Reg_ebx, x86Reg_eax);

	push	16					; 00000010H
	push	19					; 00000013H
	mov	eax, DWORD PTR _vars$[ebp]
	mov	ecx, DWORD PTR [eax+4]
	call	?X86Emit_MOVRR@NativeCodeCache@@QAEXW4x86Reg@@0@Z ; NativeCodeCache::X86Emit_MOVRR

; 548  :   vars->codeCache->X86Emit_SHRIR(x86Reg_ebx,26);

	push	26					; 0000001aH
	push	19					; 00000013H
	mov	ecx, DWORD PTR _vars$[ebp]
	mov	ecx, DWORD PTR [ecx+4]
	call	?X86Emit_SHRIR@NativeCodeCache@@QAEXW4x86Reg@@E@Z ; NativeCodeCache::X86Emit_SHRIR

; 549  :   vars->codeCache->X86Emit_ANDIR(0x3C,x86Reg_ebx);

	push	19					; 00000013H
	push	60					; 0000003cH
	mov	edx, DWORD PTR _vars$[ebp]
	mov	ecx, DWORD PTR [edx+4]
	call	?X86Emit_ANDIR@NativeCodeCache@@QAEXHW4x86Reg@@@Z ; NativeCodeCache::X86Emit_ANDIR

; 550  :   vars->codeCache->X86Emit_MOVMR(x86Reg_ebx, x86BaseReg_ebx, x86IndexReg_none, x86Scale_1, (int32)vars->mpe->bankPtrTable);

	mov	eax, DWORD PTR _vars$[ebp]
	mov	ecx, DWORD PTR [eax]
	add	ecx, 688				; 000002b0H
	push	ecx
	push	0
	push	4
	push	3
	push	19					; 00000013H
	mov	edx, DWORD PTR _vars$[ebp]
	mov	ecx, DWORD PTR [edx+4]
	call	?X86Emit_MOVMR@NativeCodeCache@@QAEXW4x86Reg@@IW4x86IndexReg@@W4x86ScaleVal@@H@Z ; NativeCodeCache::X86Emit_MOVMR

; 551  :   vars->codeCache->X86Emit_ANDIR(0x007FFFFF, x86Reg_eax);

	push	16					; 00000010H
	push	8388607					; 007fffffH
	mov	eax, DWORD PTR _vars$[ebp]
	mov	ecx, DWORD PTR [eax+4]
	call	?X86Emit_ANDIR@NativeCodeCache@@QAEXHW4x86Reg@@@Z ; NativeCodeCache::X86Emit_ANDIR

; 552  :   vars->codeCache->X86Emit_MOVMR(x86Reg_ebp, x86BaseReg_eax, x86IndexReg_ebx);

	push	0
	push	0
	push	3
	push	0
	push	21					; 00000015H
	mov	ecx, DWORD PTR _vars$[ebp]
	mov	ecx, DWORD PTR [ecx+4]
	call	?X86Emit_MOVMR@NativeCodeCache@@QAEXW4x86Reg@@IW4x86IndexReg@@W4x86ScaleVal@@H@Z ; NativeCodeCache::X86Emit_MOVMR

; 553  :   vars->codeCache->X86Emit_BSWAP(x86Reg_ebp);

	push	21					; 00000015H
	mov	edx, DWORD PTR _vars$[ebp]
	mov	ecx, DWORD PTR [edx+4]
	call	?X86Emit_BSWAP@NativeCodeCache@@QAEXW4x86Reg@@@Z ; NativeCodeCache::X86Emit_BSWAP

; 554  :   vars->codeCache->X86Emit_MOVRM(x86Reg_ebp, destRegWriteBaseReg, x86IndexReg_none, x86Scale_1, destRegDisp);

	mov	eax, DWORD PTR _destRegDisp$[ebp]
	push	eax
	push	0
	push	4
	mov	ecx, DWORD PTR _destRegWriteBaseReg$[ebp]
	push	ecx
	push	21					; 00000015H
	mov	edx, DWORD PTR _vars$[ebp]
	mov	ecx, DWORD PTR [edx+4]
	call	?X86Emit_MOVRM@NativeCodeCache@@QAEXW4x86Reg@@IW4x86IndexReg@@W4x86ScaleVal@@H@Z ; NativeCodeCache::X86Emit_MOVRM

; 555  : }

	add	esp, 36					; 00000024H
	cmp	ebp, esp
	call	__RTC_CheckEsp
	mov	esp, ebp
	pop	ebp
	ret	0
?Emit_LoadScalarBilinearUV@@YAXPAVEmitterVariables@@AAVNuance@@@Z ENDP ; Emit_LoadScalarBilinearUV
_TEXT	ENDS
PUBLIC	?Emit_LoadShortVectorAbsolute@@YAXPAVEmitterVariables@@AAVNuance@@@Z ; Emit_LoadShortVectorAbsolute
EXTRN	?X86Emit_ANDRR@NativeCodeCache@@QAEXW4x86Reg@@0@Z:PROC ; NativeCodeCache::X86Emit_ANDRR
; Function compile flags: /Odtp /RTCsu
_TEXT	SEGMENT
_destRegDisp$ = -16					; size = 4
_destRegWriteBaseReg$ = -12				; size = 4
_srcAddress$ = -8					; size = 4
_destRegIndex$ = -4					; size = 4
_vars$ = 8						; size = 4
_nuance$ = 12						; size = 4
?Emit_LoadShortVectorAbsolute@@YAXPAVEmitterVariables@@AAVNuance@@@Z PROC ; Emit_LoadShortVectorAbsolute

; 558  : {

	push	ebp
	mov	ebp, esp
	sub	esp, 16					; 00000010H
	mov	eax, -858993460				; ccccccccH
	mov	DWORD PTR [ebp-16], eax
	mov	DWORD PTR [ebp-12], eax
	mov	DWORD PTR [ebp-8], eax
	mov	DWORD PTR [ebp-4], eax

; 559  :   uint32 destRegIndex = nuance.fields[FIELD_MEM_TO];

	mov	eax, DWORD PTR _nuance$[ebp]
	mov	ecx, DWORD PTR [eax+8]
	mov	DWORD PTR _destRegIndex$[ebp], ecx

; 560  :   uint32 srcAddress = nuance.fields[FIELD_MEM_POINTER];

	mov	edx, DWORD PTR _nuance$[ebp]
	mov	eax, DWORD PTR [edx+16]
	mov	DWORD PTR _srcAddress$[ebp], eax

; 561  :   x86BaseReg destRegWriteBaseReg = GetScalarRegWriteBaseReg(vars,destRegIndex);

	mov	ecx, DWORD PTR _destRegIndex$[ebp]
	push	ecx
	mov	edx, DWORD PTR _vars$[ebp]
	push	edx
	call	?GetScalarRegWriteBaseReg@@YA?AW4x86BaseReg@@PAVEmitterVariables@@I@Z ; GetScalarRegWriteBaseReg
	add	esp, 8
	mov	DWORD PTR _destRegWriteBaseReg$[ebp], eax

; 562  :   int32 destRegDisp = GetScalarRegEmitDisp(vars,destRegIndex);

	mov	eax, DWORD PTR _destRegIndex$[ebp]
	push	eax
	mov	ecx, DWORD PTR _vars$[ebp]
	push	ecx
	call	?GetScalarRegEmitDisp@@YAHPAVEmitterVariables@@I@Z ; GetScalarRegEmitDisp
	add	esp, 8
	mov	DWORD PTR _destRegDisp$[ebp], eax

; 563  : 
; 564  :   vars->codeCache->X86Emit_MOVMR(x86Reg_eax, srcAddress);

	push	0
	push	0
	push	4
	mov	edx, DWORD PTR _srcAddress$[ebp]
	push	edx
	push	16					; 00000010H
	mov	eax, DWORD PTR _vars$[ebp]
	mov	ecx, DWORD PTR [eax+4]
	call	?X86Emit_MOVMR@NativeCodeCache@@QAEXW4x86Reg@@IW4x86IndexReg@@W4x86ScaleVal@@H@Z ; NativeCodeCache::X86Emit_MOVMR

; 565  :   vars->codeCache->X86Emit_MOVMR(x86Reg_ebx, srcAddress+2);

	push	0
	push	0
	push	4
	mov	ecx, DWORD PTR _srcAddress$[ebp]
	add	ecx, 2
	push	ecx
	push	19					; 00000013H
	mov	edx, DWORD PTR _vars$[ebp]
	mov	ecx, DWORD PTR [edx+4]
	call	?X86Emit_MOVMR@NativeCodeCache@@QAEXW4x86Reg@@IW4x86IndexReg@@W4x86ScaleVal@@H@Z ; NativeCodeCache::X86Emit_MOVMR

; 566  :   vars->codeCache->X86Emit_MOVMR(x86Reg_ecx, srcAddress+4);

	push	0
	push	0
	push	4
	mov	eax, DWORD PTR _srcAddress$[ebp]
	add	eax, 4
	push	eax
	push	17					; 00000011H
	mov	ecx, DWORD PTR _vars$[ebp]
	mov	ecx, DWORD PTR [ecx+4]
	call	?X86Emit_MOVMR@NativeCodeCache@@QAEXW4x86Reg@@IW4x86IndexReg@@W4x86ScaleVal@@H@Z ; NativeCodeCache::X86Emit_MOVMR

; 567  :   vars->codeCache->X86Emit_MOVMR(x86Reg_edx, srcAddress+6);

	push	0
	push	0
	push	4
	mov	edx, DWORD PTR _srcAddress$[ebp]
	add	edx, 6
	push	edx
	push	18					; 00000012H
	mov	eax, DWORD PTR _vars$[ebp]
	mov	ecx, DWORD PTR [eax+4]
	call	?X86Emit_MOVMR@NativeCodeCache@@QAEXW4x86Reg@@IW4x86IndexReg@@W4x86ScaleVal@@H@Z ; NativeCodeCache::X86Emit_MOVMR

; 568  :   vars->codeCache->X86Emit_MOVIR(0xFFFF0000, x86Reg_ebp);

	push	21					; 00000015H
	push	-65536					; ffff0000H
	mov	ecx, DWORD PTR _vars$[ebp]
	mov	ecx, DWORD PTR [ecx+4]
	call	?X86Emit_MOVIR@NativeCodeCache@@QAEXHW4x86Reg@@@Z ; NativeCodeCache::X86Emit_MOVIR

; 569  :   vars->codeCache->X86Emit_BSWAP(x86Reg_eax);

	push	16					; 00000010H
	mov	edx, DWORD PTR _vars$[ebp]
	mov	ecx, DWORD PTR [edx+4]
	call	?X86Emit_BSWAP@NativeCodeCache@@QAEXW4x86Reg@@@Z ; NativeCodeCache::X86Emit_BSWAP

; 570  :   vars->codeCache->X86Emit_BSWAP(x86Reg_ebx);

	push	19					; 00000013H
	mov	eax, DWORD PTR _vars$[ebp]
	mov	ecx, DWORD PTR [eax+4]
	call	?X86Emit_BSWAP@NativeCodeCache@@QAEXW4x86Reg@@@Z ; NativeCodeCache::X86Emit_BSWAP

; 571  :   vars->codeCache->X86Emit_BSWAP(x86Reg_ecx);

	push	17					; 00000011H
	mov	ecx, DWORD PTR _vars$[ebp]
	mov	ecx, DWORD PTR [ecx+4]
	call	?X86Emit_BSWAP@NativeCodeCache@@QAEXW4x86Reg@@@Z ; NativeCodeCache::X86Emit_BSWAP

; 572  :   vars->codeCache->X86Emit_BSWAP(x86Reg_edx);

	push	18					; 00000012H
	mov	edx, DWORD PTR _vars$[ebp]
	mov	ecx, DWORD PTR [edx+4]
	call	?X86Emit_BSWAP@NativeCodeCache@@QAEXW4x86Reg@@@Z ; NativeCodeCache::X86Emit_BSWAP

; 573  :   vars->codeCache->X86Emit_ANDRR(x86Reg_eax, x86Reg_ebp);

	push	21					; 00000015H
	push	16					; 00000010H
	mov	eax, DWORD PTR _vars$[ebp]
	mov	ecx, DWORD PTR [eax+4]
	call	?X86Emit_ANDRR@NativeCodeCache@@QAEXW4x86Reg@@0@Z ; NativeCodeCache::X86Emit_ANDRR

; 574  :   vars->codeCache->X86Emit_ANDRR(x86Reg_ebx, x86Reg_ebp);

	push	21					; 00000015H
	push	19					; 00000013H
	mov	ecx, DWORD PTR _vars$[ebp]
	mov	ecx, DWORD PTR [ecx+4]
	call	?X86Emit_ANDRR@NativeCodeCache@@QAEXW4x86Reg@@0@Z ; NativeCodeCache::X86Emit_ANDRR

; 575  :   vars->codeCache->X86Emit_ANDRR(x86Reg_ecx, x86Reg_ebp);

	push	21					; 00000015H
	push	17					; 00000011H
	mov	edx, DWORD PTR _vars$[ebp]
	mov	ecx, DWORD PTR [edx+4]
	call	?X86Emit_ANDRR@NativeCodeCache@@QAEXW4x86Reg@@0@Z ; NativeCodeCache::X86Emit_ANDRR

; 576  :   vars->codeCache->X86Emit_ANDRR(x86Reg_edx, x86Reg_ebp);

	push	21					; 00000015H
	push	18					; 00000012H
	mov	eax, DWORD PTR _vars$[ebp]
	mov	ecx, DWORD PTR [eax+4]
	call	?X86Emit_ANDRR@NativeCodeCache@@QAEXW4x86Reg@@0@Z ; NativeCodeCache::X86Emit_ANDRR

; 577  :   vars->codeCache->X86Emit_MOVRM(x86Reg_eax, destRegWriteBaseReg, x86IndexReg_none, x86Scale_1, destRegDisp);

	mov	ecx, DWORD PTR _destRegDisp$[ebp]
	push	ecx
	push	0
	push	4
	mov	edx, DWORD PTR _destRegWriteBaseReg$[ebp]
	push	edx
	push	16					; 00000010H
	mov	eax, DWORD PTR _vars$[ebp]
	mov	ecx, DWORD PTR [eax+4]
	call	?X86Emit_MOVRM@NativeCodeCache@@QAEXW4x86Reg@@IW4x86IndexReg@@W4x86ScaleVal@@H@Z ; NativeCodeCache::X86Emit_MOVRM

; 578  :   vars->codeCache->X86Emit_MOVRM(x86Reg_ebx, destRegWriteBaseReg, x86IndexReg_none, x86Scale_1, destRegDisp+4);

	mov	ecx, DWORD PTR _destRegDisp$[ebp]
	add	ecx, 4
	push	ecx
	push	0
	push	4
	mov	edx, DWORD PTR _destRegWriteBaseReg$[ebp]
	push	edx
	push	19					; 00000013H
	mov	eax, DWORD PTR _vars$[ebp]
	mov	ecx, DWORD PTR [eax+4]
	call	?X86Emit_MOVRM@NativeCodeCache@@QAEXW4x86Reg@@IW4x86IndexReg@@W4x86ScaleVal@@H@Z ; NativeCodeCache::X86Emit_MOVRM

; 579  :   vars->codeCache->X86Emit_MOVRM(x86Reg_ecx, destRegWriteBaseReg, x86IndexReg_none, x86Scale_1, destRegDisp+8);

	mov	ecx, DWORD PTR _destRegDisp$[ebp]
	add	ecx, 8
	push	ecx
	push	0
	push	4
	mov	edx, DWORD PTR _destRegWriteBaseReg$[ebp]
	push	edx
	push	17					; 00000011H
	mov	eax, DWORD PTR _vars$[ebp]
	mov	ecx, DWORD PTR [eax+4]
	call	?X86Emit_MOVRM@NativeCodeCache@@QAEXW4x86Reg@@IW4x86IndexReg@@W4x86ScaleVal@@H@Z ; NativeCodeCache::X86Emit_MOVRM

; 580  :   vars->codeCache->X86Emit_MOVRM(x86Reg_edx, destRegWriteBaseReg, x86IndexReg_none, x86Scale_1, destRegDisp+12);

	mov	ecx, DWORD PTR _destRegDisp$[ebp]
	add	ecx, 12					; 0000000cH
	push	ecx
	push	0
	push	4
	mov	edx, DWORD PTR _destRegWriteBaseReg$[ebp]
	push	edx
	push	18					; 00000012H
	mov	eax, DWORD PTR _vars$[ebp]
	mov	ecx, DWORD PTR [eax+4]
	call	?X86Emit_MOVRM@NativeCodeCache@@QAEXW4x86Reg@@IW4x86IndexReg@@W4x86ScaleVal@@H@Z ; NativeCodeCache::X86Emit_MOVRM

; 581  : }

	add	esp, 16					; 00000010H
	cmp	ebp, esp
	call	__RTC_CheckEsp
	mov	esp, ebp
	pop	ebp
	ret	0
?Emit_LoadShortVectorAbsolute@@YAXPAVEmitterVariables@@AAVNuance@@@Z ENDP ; Emit_LoadShortVectorAbsolute
_TEXT	ENDS
PUBLIC	?Emit_LoadShortVectorLinear@@YAXPAVEmitterVariables@@AAVNuance@@@Z ; Emit_LoadShortVectorLinear
EXTRN	?X86Emit_ADDRR@NativeCodeCache@@QAEXW4x86Reg@@0@Z:PROC ; NativeCodeCache::X86Emit_ADDRR
; Function compile flags: /Odtp /RTCsu
_TEXT	SEGMENT
_destRegDisp$ = -24					; size = 4
_srcRegDisp$ = -20					; size = 4
_destRegWriteBaseReg$ = -16				; size = 4
_srcRegReadBaseReg$ = -12				; size = 4
_srcRegIndex$ = -8					; size = 4
_destRegIndex$ = -4					; size = 4
_vars$ = 8						; size = 4
_nuance$ = 12						; size = 4
?Emit_LoadShortVectorLinear@@YAXPAVEmitterVariables@@AAVNuance@@@Z PROC ; Emit_LoadShortVectorLinear

; 584  : {

	push	ebp
	mov	ebp, esp
	sub	esp, 24					; 00000018H
	mov	eax, -858993460				; ccccccccH
	mov	DWORD PTR [ebp-24], eax
	mov	DWORD PTR [ebp-20], eax
	mov	DWORD PTR [ebp-16], eax
	mov	DWORD PTR [ebp-12], eax
	mov	DWORD PTR [ebp-8], eax
	mov	DWORD PTR [ebp-4], eax

; 585  :   uint32 destRegIndex = nuance.fields[FIELD_MEM_TO];

	mov	eax, DWORD PTR _nuance$[ebp]
	mov	ecx, DWORD PTR [eax+8]
	mov	DWORD PTR _destRegIndex$[ebp], ecx

; 586  :   uint32 srcRegIndex = nuance.fields[FIELD_MEM_FROM];

	mov	edx, DWORD PTR _nuance$[ebp]
	mov	eax, DWORD PTR [edx+12]
	mov	DWORD PTR _srcRegIndex$[ebp], eax

; 587  :   x86BaseReg srcRegReadBaseReg = GetScalarRegReadBaseReg(vars,srcRegIndex);

	mov	ecx, DWORD PTR _srcRegIndex$[ebp]
	push	ecx
	mov	edx, DWORD PTR _vars$[ebp]
	push	edx
	call	?GetScalarRegReadBaseReg@@YA?AW4x86BaseReg@@PAVEmitterVariables@@I@Z ; GetScalarRegReadBaseReg
	add	esp, 8
	mov	DWORD PTR _srcRegReadBaseReg$[ebp], eax

; 588  :   x86BaseReg destRegWriteBaseReg = GetScalarRegWriteBaseReg(vars,destRegIndex);

	mov	eax, DWORD PTR _destRegIndex$[ebp]
	push	eax
	mov	ecx, DWORD PTR _vars$[ebp]
	push	ecx
	call	?GetScalarRegWriteBaseReg@@YA?AW4x86BaseReg@@PAVEmitterVariables@@I@Z ; GetScalarRegWriteBaseReg
	add	esp, 8
	mov	DWORD PTR _destRegWriteBaseReg$[ebp], eax

; 589  :   int32 srcRegDisp = GetScalarRegEmitDisp(vars,srcRegIndex);

	mov	edx, DWORD PTR _srcRegIndex$[ebp]
	push	edx
	mov	eax, DWORD PTR _vars$[ebp]
	push	eax
	call	?GetScalarRegEmitDisp@@YAHPAVEmitterVariables@@I@Z ; GetScalarRegEmitDisp
	add	esp, 8
	mov	DWORD PTR _srcRegDisp$[ebp], eax

; 590  :   int32 destRegDisp = GetScalarRegEmitDisp(vars,destRegIndex);

	mov	ecx, DWORD PTR _destRegIndex$[ebp]
	push	ecx
	mov	edx, DWORD PTR _vars$[ebp]
	push	edx
	call	?GetScalarRegEmitDisp@@YAHPAVEmitterVariables@@I@Z ; GetScalarRegEmitDisp
	add	esp, 8
	mov	DWORD PTR _destRegDisp$[ebp], eax

; 591  : 
; 592  : 
; 593  :   vars->codeCache->X86Emit_MOVMR(x86Reg_eax, srcRegReadBaseReg, x86IndexReg_none, x86Scale_1, srcRegDisp);

	mov	eax, DWORD PTR _srcRegDisp$[ebp]
	push	eax
	push	0
	push	4
	mov	ecx, DWORD PTR _srcRegReadBaseReg$[ebp]
	push	ecx
	push	16					; 00000010H
	mov	edx, DWORD PTR _vars$[ebp]
	mov	ecx, DWORD PTR [edx+4]
	call	?X86Emit_MOVMR@NativeCodeCache@@QAEXW4x86Reg@@IW4x86IndexReg@@W4x86ScaleVal@@H@Z ; NativeCodeCache::X86Emit_MOVMR

; 594  :   //vars->codeCache->X86Emit_MOVIR((uint32)(vars->mpe->dtrom), x86Reg_ebx);
; 595  :   //vars->codeCache->X86Emit_MOVIR((uint32)(nuonEnv->mainBusDRAM), x86Reg_ecx);
; 596  :   //vars->codeCache->X86Emit_MOVIR((uint32)(nuonEnv->systemBusDRAM), x86Reg_edx);
; 597  :   //vars->codeCache->X86Emit_MOVIR((uint32)(nuonEnv->flashEEPROM->GetBasePointer()), x86Reg_ebp);
; 598  :   //vars->codeCache->X86Emit_CMPIR(0x40000000, x86Reg_eax);
; 599  :   //vars->codeCache->X86Emit_CMOVNBRR(x86Reg_ebx, x86Reg_ecx);
; 600  :   //vars->codeCache->X86Emit_CMPIR(0x80000000, x86Reg_eax);
; 601  :   //vars->codeCache->X86Emit_CMOVNBRR(x86Reg_ebx, x86Reg_edx);
; 602  :   //vars->codeCache->X86Emit_CMPIR(0xF0000000, x86Reg_eax);
; 603  :   //vars->codeCache->X86Emit_CMOVNBRR(x86Reg_ebx, x86Reg_ebp);
; 604  :   vars->codeCache->X86Emit_MOVRR(x86Reg_ebx, x86Reg_eax);

	push	16					; 00000010H
	push	19					; 00000013H
	mov	eax, DWORD PTR _vars$[ebp]
	mov	ecx, DWORD PTR [eax+4]
	call	?X86Emit_MOVRR@NativeCodeCache@@QAEXW4x86Reg@@0@Z ; NativeCodeCache::X86Emit_MOVRR

; 605  :   vars->codeCache->X86Emit_SHRIR(x86Reg_ebx,26);

	push	26					; 0000001aH
	push	19					; 00000013H
	mov	ecx, DWORD PTR _vars$[ebp]
	mov	ecx, DWORD PTR [ecx+4]
	call	?X86Emit_SHRIR@NativeCodeCache@@QAEXW4x86Reg@@E@Z ; NativeCodeCache::X86Emit_SHRIR

; 606  :   vars->codeCache->X86Emit_ANDIR(0x3C,x86Reg_ebx);

	push	19					; 00000013H
	push	60					; 0000003cH
	mov	edx, DWORD PTR _vars$[ebp]
	mov	ecx, DWORD PTR [edx+4]
	call	?X86Emit_ANDIR@NativeCodeCache@@QAEXHW4x86Reg@@@Z ; NativeCodeCache::X86Emit_ANDIR

; 607  :   vars->codeCache->X86Emit_MOVMR(x86Reg_ebx, x86BaseReg_ebx, x86IndexReg_none, x86Scale_1, (int32)vars->mpe->bankPtrTable);

	mov	eax, DWORD PTR _vars$[ebp]
	mov	ecx, DWORD PTR [eax]
	add	ecx, 688				; 000002b0H
	push	ecx
	push	0
	push	4
	push	3
	push	19					; 00000013H
	mov	edx, DWORD PTR _vars$[ebp]
	mov	ecx, DWORD PTR [edx+4]
	call	?X86Emit_MOVMR@NativeCodeCache@@QAEXW4x86Reg@@IW4x86IndexReg@@W4x86ScaleVal@@H@Z ; NativeCodeCache::X86Emit_MOVMR

; 608  : 
; 609  :   vars->codeCache->X86Emit_ANDIR(0x007FFFF8, x86Reg_eax);

	push	16					; 00000010H
	push	8388600					; 007ffff8H
	mov	eax, DWORD PTR _vars$[ebp]
	mov	ecx, DWORD PTR [eax+4]
	call	?X86Emit_ANDIR@NativeCodeCache@@QAEXHW4x86Reg@@@Z ; NativeCodeCache::X86Emit_ANDIR

; 610  :   vars->codeCache->X86Emit_ADDRR(x86Reg_eax, x86Reg_ebx);

	push	19					; 00000013H
	push	16					; 00000010H
	mov	ecx, DWORD PTR _vars$[ebp]
	mov	ecx, DWORD PTR [ecx+4]
	call	?X86Emit_ADDRR@NativeCodeCache@@QAEXW4x86Reg@@0@Z ; NativeCodeCache::X86Emit_ADDRR

; 611  :   vars->codeCache->X86Emit_MOVMR(x86Reg_ebx, x86BaseReg_eax, x86IndexReg_none, x86Scale_1, 0);

	push	0
	push	0
	push	4
	push	0
	push	19					; 00000013H
	mov	edx, DWORD PTR _vars$[ebp]
	mov	ecx, DWORD PTR [edx+4]
	call	?X86Emit_MOVMR@NativeCodeCache@@QAEXW4x86Reg@@IW4x86IndexReg@@W4x86ScaleVal@@H@Z ; NativeCodeCache::X86Emit_MOVMR

; 612  :   vars->codeCache->X86Emit_MOVMR(x86Reg_ecx, x86BaseReg_eax, x86IndexReg_none, x86Scale_1, 2);

	push	2
	push	0
	push	4
	push	0
	push	17					; 00000011H
	mov	eax, DWORD PTR _vars$[ebp]
	mov	ecx, DWORD PTR [eax+4]
	call	?X86Emit_MOVMR@NativeCodeCache@@QAEXW4x86Reg@@IW4x86IndexReg@@W4x86ScaleVal@@H@Z ; NativeCodeCache::X86Emit_MOVMR

; 613  :   vars->codeCache->X86Emit_MOVMR(x86Reg_edx, x86BaseReg_eax, x86IndexReg_none, x86Scale_1, 4);

	push	4
	push	0
	push	4
	push	0
	push	18					; 00000012H
	mov	ecx, DWORD PTR _vars$[ebp]
	mov	ecx, DWORD PTR [ecx+4]
	call	?X86Emit_MOVMR@NativeCodeCache@@QAEXW4x86Reg@@IW4x86IndexReg@@W4x86ScaleVal@@H@Z ; NativeCodeCache::X86Emit_MOVMR

; 614  :   vars->codeCache->X86Emit_MOVMR(x86Reg_ebp, x86BaseReg_eax, x86IndexReg_none, x86Scale_1, 6);

	push	6
	push	0
	push	4
	push	0
	push	21					; 00000015H
	mov	edx, DWORD PTR _vars$[ebp]
	mov	ecx, DWORD PTR [edx+4]
	call	?X86Emit_MOVMR@NativeCodeCache@@QAEXW4x86Reg@@IW4x86IndexReg@@W4x86ScaleVal@@H@Z ; NativeCodeCache::X86Emit_MOVMR

; 615  :   vars->codeCache->X86Emit_BSWAP(x86Reg_ebx);

	push	19					; 00000013H
	mov	eax, DWORD PTR _vars$[ebp]
	mov	ecx, DWORD PTR [eax+4]
	call	?X86Emit_BSWAP@NativeCodeCache@@QAEXW4x86Reg@@@Z ; NativeCodeCache::X86Emit_BSWAP

; 616  :   vars->codeCache->X86Emit_BSWAP(x86Reg_ecx);

	push	17					; 00000011H
	mov	ecx, DWORD PTR _vars$[ebp]
	mov	ecx, DWORD PTR [ecx+4]
	call	?X86Emit_BSWAP@NativeCodeCache@@QAEXW4x86Reg@@@Z ; NativeCodeCache::X86Emit_BSWAP

; 617  :   vars->codeCache->X86Emit_BSWAP(x86Reg_edx);

	push	18					; 00000012H
	mov	edx, DWORD PTR _vars$[ebp]
	mov	ecx, DWORD PTR [edx+4]
	call	?X86Emit_BSWAP@NativeCodeCache@@QAEXW4x86Reg@@@Z ; NativeCodeCache::X86Emit_BSWAP

; 618  :   vars->codeCache->X86Emit_BSWAP(x86Reg_ebp);

	push	21					; 00000015H
	mov	eax, DWORD PTR _vars$[ebp]
	mov	ecx, DWORD PTR [eax+4]
	call	?X86Emit_BSWAP@NativeCodeCache@@QAEXW4x86Reg@@@Z ; NativeCodeCache::X86Emit_BSWAP

; 619  :   vars->codeCache->X86Emit_ANDIR(0xFFFF0000, x86Reg_ebx);

	push	19					; 00000013H
	push	-65536					; ffff0000H
	mov	ecx, DWORD PTR _vars$[ebp]
	mov	ecx, DWORD PTR [ecx+4]
	call	?X86Emit_ANDIR@NativeCodeCache@@QAEXHW4x86Reg@@@Z ; NativeCodeCache::X86Emit_ANDIR

; 620  :   vars->codeCache->X86Emit_ANDIR(0xFFFF0000, x86Reg_ecx);

	push	17					; 00000011H
	push	-65536					; ffff0000H
	mov	edx, DWORD PTR _vars$[ebp]
	mov	ecx, DWORD PTR [edx+4]
	call	?X86Emit_ANDIR@NativeCodeCache@@QAEXHW4x86Reg@@@Z ; NativeCodeCache::X86Emit_ANDIR

; 621  :   vars->codeCache->X86Emit_ANDIR(0xFFFF0000, x86Reg_edx);

	push	18					; 00000012H
	push	-65536					; ffff0000H
	mov	eax, DWORD PTR _vars$[ebp]
	mov	ecx, DWORD PTR [eax+4]
	call	?X86Emit_ANDIR@NativeCodeCache@@QAEXHW4x86Reg@@@Z ; NativeCodeCache::X86Emit_ANDIR

; 622  :   vars->codeCache->X86Emit_ANDIR(0xFFFF0000, x86Reg_ebp);

	push	21					; 00000015H
	push	-65536					; ffff0000H
	mov	ecx, DWORD PTR _vars$[ebp]
	mov	ecx, DWORD PTR [ecx+4]
	call	?X86Emit_ANDIR@NativeCodeCache@@QAEXHW4x86Reg@@@Z ; NativeCodeCache::X86Emit_ANDIR

; 623  :   vars->codeCache->X86Emit_MOVRM(x86Reg_ebx, destRegWriteBaseReg, x86IndexReg_none, x86Scale_1, destRegDisp);

	mov	edx, DWORD PTR _destRegDisp$[ebp]
	push	edx
	push	0
	push	4
	mov	eax, DWORD PTR _destRegWriteBaseReg$[ebp]
	push	eax
	push	19					; 00000013H
	mov	ecx, DWORD PTR _vars$[ebp]
	mov	ecx, DWORD PTR [ecx+4]
	call	?X86Emit_MOVRM@NativeCodeCache@@QAEXW4x86Reg@@IW4x86IndexReg@@W4x86ScaleVal@@H@Z ; NativeCodeCache::X86Emit_MOVRM

; 624  :   vars->codeCache->X86Emit_MOVRM(x86Reg_ecx, destRegWriteBaseReg, x86IndexReg_none, x86Scale_1, destRegDisp+4);

	mov	edx, DWORD PTR _destRegDisp$[ebp]
	add	edx, 4
	push	edx
	push	0
	push	4
	mov	eax, DWORD PTR _destRegWriteBaseReg$[ebp]
	push	eax
	push	17					; 00000011H
	mov	ecx, DWORD PTR _vars$[ebp]
	mov	ecx, DWORD PTR [ecx+4]
	call	?X86Emit_MOVRM@NativeCodeCache@@QAEXW4x86Reg@@IW4x86IndexReg@@W4x86ScaleVal@@H@Z ; NativeCodeCache::X86Emit_MOVRM

; 625  :   vars->codeCache->X86Emit_MOVRM(x86Reg_edx, destRegWriteBaseReg, x86IndexReg_none, x86Scale_1, destRegDisp+8);

	mov	edx, DWORD PTR _destRegDisp$[ebp]
	add	edx, 8
	push	edx
	push	0
	push	4
	mov	eax, DWORD PTR _destRegWriteBaseReg$[ebp]
	push	eax
	push	18					; 00000012H
	mov	ecx, DWORD PTR _vars$[ebp]
	mov	ecx, DWORD PTR [ecx+4]
	call	?X86Emit_MOVRM@NativeCodeCache@@QAEXW4x86Reg@@IW4x86IndexReg@@W4x86ScaleVal@@H@Z ; NativeCodeCache::X86Emit_MOVRM

; 626  :   vars->codeCache->X86Emit_MOVRM(x86Reg_ebp, destRegWriteBaseReg, x86IndexReg_none, x86Scale_1, destRegDisp+12);

	mov	edx, DWORD PTR _destRegDisp$[ebp]
	add	edx, 12					; 0000000cH
	push	edx
	push	0
	push	4
	mov	eax, DWORD PTR _destRegWriteBaseReg$[ebp]
	push	eax
	push	21					; 00000015H
	mov	ecx, DWORD PTR _vars$[ebp]
	mov	ecx, DWORD PTR [ecx+4]
	call	?X86Emit_MOVRM@NativeCodeCache@@QAEXW4x86Reg@@IW4x86IndexReg@@W4x86ScaleVal@@H@Z ; NativeCodeCache::X86Emit_MOVRM

; 627  : }

	add	esp, 24					; 00000018H
	cmp	ebp, esp
	call	__RTC_CheckEsp
	mov	esp, ebp
	pop	ebp
	ret	0
?Emit_LoadShortVectorLinear@@YAXPAVEmitterVariables@@AAVNuance@@@Z ENDP ; Emit_LoadShortVectorLinear
_TEXT	ENDS
PUBLIC	?Emit_LoadShortVectorBilinearXY@@YAXPAVEmitterVariables@@AAVNuance@@@Z ; Emit_LoadShortVectorBilinearXY
; Function compile flags: /Odtp /RTCsu
_TEXT	SEGMENT
_xyctlRegDisp$ = -36					; size = 4
_ryRegDisp$ = -32					; size = 4
_rxRegDisp$ = -28					; size = 4
_destRegDisp$ = -24					; size = 4
_destRegWriteBaseReg$ = -20				; size = 4
_xyctlRegReadBaseReg$ = -16				; size = 4
_ryRegReadBaseReg$ = -12				; size = 4
_rxRegReadBaseReg$ = -8					; size = 4
_destRegIndex$ = -4					; size = 4
_vars$ = 8						; size = 4
_nuance$ = 12						; size = 4
?Emit_LoadShortVectorBilinearXY@@YAXPAVEmitterVariables@@AAVNuance@@@Z PROC ; Emit_LoadShortVectorBilinearXY

; 630  : {

	push	ebp
	mov	ebp, esp
	sub	esp, 36					; 00000024H
	mov	eax, -858993460				; ccccccccH
	mov	DWORD PTR [ebp-36], eax
	mov	DWORD PTR [ebp-32], eax
	mov	DWORD PTR [ebp-28], eax
	mov	DWORD PTR [ebp-24], eax
	mov	DWORD PTR [ebp-20], eax
	mov	DWORD PTR [ebp-16], eax
	mov	DWORD PTR [ebp-12], eax
	mov	DWORD PTR [ebp-8], eax
	mov	DWORD PTR [ebp-4], eax

; 631  :   uint32 destRegIndex = nuance.fields[FIELD_MEM_TO];

	mov	eax, DWORD PTR _nuance$[ebp]
	mov	ecx, DWORD PTR [eax+8]
	mov	DWORD PTR _destRegIndex$[ebp], ecx

; 632  :   x86BaseReg rxRegReadBaseReg = GetMiscRegReadBaseReg(vars,REGINDEX_RX);

	push	3
	mov	edx, DWORD PTR _vars$[ebp]
	push	edx
	call	?GetMiscRegReadBaseReg@@YA?AW4x86BaseReg@@PAVEmitterVariables@@I@Z ; GetMiscRegReadBaseReg
	add	esp, 8
	mov	DWORD PTR _rxRegReadBaseReg$[ebp], eax

; 633  :   x86BaseReg ryRegReadBaseReg = GetMiscRegReadBaseReg(vars,REGINDEX_RY);

	push	4
	mov	eax, DWORD PTR _vars$[ebp]
	push	eax
	call	?GetMiscRegReadBaseReg@@YA?AW4x86BaseReg@@PAVEmitterVariables@@I@Z ; GetMiscRegReadBaseReg
	add	esp, 8
	mov	DWORD PTR _ryRegReadBaseReg$[ebp], eax

; 634  :   x86BaseReg xyctlRegReadBaseReg = GetMiscRegReadBaseReg(vars,REGINDEX_XYCTL);

	push	10					; 0000000aH
	mov	ecx, DWORD PTR _vars$[ebp]
	push	ecx
	call	?GetMiscRegReadBaseReg@@YA?AW4x86BaseReg@@PAVEmitterVariables@@I@Z ; GetMiscRegReadBaseReg
	add	esp, 8
	mov	DWORD PTR _xyctlRegReadBaseReg$[ebp], eax

; 635  :   x86BaseReg destRegWriteBaseReg = GetScalarRegWriteBaseReg(vars,destRegIndex);

	mov	edx, DWORD PTR _destRegIndex$[ebp]
	push	edx
	mov	eax, DWORD PTR _vars$[ebp]
	push	eax
	call	?GetScalarRegWriteBaseReg@@YA?AW4x86BaseReg@@PAVEmitterVariables@@I@Z ; GetScalarRegWriteBaseReg
	add	esp, 8
	mov	DWORD PTR _destRegWriteBaseReg$[ebp], eax

; 636  :   int32 destRegDisp = GetScalarRegEmitDisp(vars,destRegIndex);

	mov	ecx, DWORD PTR _destRegIndex$[ebp]
	push	ecx
	mov	edx, DWORD PTR _vars$[ebp]
	push	edx
	call	?GetScalarRegEmitDisp@@YAHPAVEmitterVariables@@I@Z ; GetScalarRegEmitDisp
	add	esp, 8
	mov	DWORD PTR _destRegDisp$[ebp], eax

; 637  :   int32 rxRegDisp = GetMiscRegEmitDisp(vars,REGINDEX_RX);

	push	3
	mov	eax, DWORD PTR _vars$[ebp]
	push	eax
	call	?GetMiscRegEmitDisp@@YAHPAVEmitterVariables@@I@Z ; GetMiscRegEmitDisp
	add	esp, 8
	mov	DWORD PTR _rxRegDisp$[ebp], eax

; 638  :   int32 ryRegDisp = GetMiscRegEmitDisp(vars,REGINDEX_RY);

	push	4
	mov	ecx, DWORD PTR _vars$[ebp]
	push	ecx
	call	?GetMiscRegEmitDisp@@YAHPAVEmitterVariables@@I@Z ; GetMiscRegEmitDisp
	add	esp, 8
	mov	DWORD PTR _ryRegDisp$[ebp], eax

; 639  :   int32 xyctlRegDisp = GetMiscRegEmitDisp(vars,REGINDEX_XYCTL);

	push	10					; 0000000aH
	mov	edx, DWORD PTR _vars$[ebp]
	push	edx
	call	?GetMiscRegEmitDisp@@YAHPAVEmitterVariables@@I@Z ; GetMiscRegEmitDisp
	add	esp, 8
	mov	DWORD PTR _xyctlRegDisp$[ebp], eax

; 640  : 
; 641  :   vars->codeCache->X86Emit_MOVMR(x86Reg_eax, rxRegReadBaseReg, x86IndexReg_none, x86Scale_1, rxRegDisp);

	mov	eax, DWORD PTR _rxRegDisp$[ebp]
	push	eax
	push	0
	push	4
	mov	ecx, DWORD PTR _rxRegReadBaseReg$[ebp]
	push	ecx
	push	16					; 00000010H
	mov	edx, DWORD PTR _vars$[ebp]
	mov	ecx, DWORD PTR [edx+4]
	call	?X86Emit_MOVMR@NativeCodeCache@@QAEXW4x86Reg@@IW4x86IndexReg@@W4x86ScaleVal@@H@Z ; NativeCodeCache::X86Emit_MOVMR

; 642  :   vars->codeCache->X86Emit_MOVMR(x86Reg_ebx, ryRegReadBaseReg, x86IndexReg_none, x86Scale_1, ryRegDisp);

	mov	eax, DWORD PTR _ryRegDisp$[ebp]
	push	eax
	push	0
	push	4
	mov	ecx, DWORD PTR _ryRegReadBaseReg$[ebp]
	push	ecx
	push	19					; 00000013H
	mov	edx, DWORD PTR _vars$[ebp]
	mov	ecx, DWORD PTR [edx+4]
	call	?X86Emit_MOVMR@NativeCodeCache@@QAEXW4x86Reg@@IW4x86IndexReg@@W4x86ScaleVal@@H@Z ; NativeCodeCache::X86Emit_MOVMR

; 643  :   vars->codeCache->X86Emit_MOVMR(x86Reg_ecx, xyctlRegReadBaseReg, x86IndexReg_none, x86Scale_1, xyctlRegDisp);

	mov	eax, DWORD PTR _xyctlRegDisp$[ebp]
	push	eax
	push	0
	push	4
	mov	ecx, DWORD PTR _xyctlRegReadBaseReg$[ebp]
	push	ecx
	push	17					; 00000011H
	mov	edx, DWORD PTR _vars$[ebp]
	mov	ecx, DWORD PTR [edx+4]
	call	?X86Emit_MOVMR@NativeCodeCache@@QAEXW4x86Reg@@IW4x86IndexReg@@W4x86ScaleVal@@H@Z ; NativeCodeCache::X86Emit_MOVMR

; 644  :   vars->codeCache->X86Emit_MOVMR(x86Reg_ebp, (uint32)&vars->mpe->xybase);

	push	0
	push	0
	push	4
	mov	eax, DWORD PTR _vars$[ebp]
	mov	ecx, DWORD PTR [eax]
	add	ecx, 448				; 000001c0H
	push	ecx
	push	21					; 00000015H
	mov	edx, DWORD PTR _vars$[ebp]
	mov	ecx, DWORD PTR [edx+4]
	call	?X86Emit_MOVMR@NativeCodeCache@@QAEXW4x86Reg@@IW4x86IndexReg@@W4x86ScaleVal@@H@Z ; NativeCodeCache::X86Emit_MOVMR

; 645  :   vars->codeCache->X86Emit_MOVRM(x86Reg_eax, (uint32)&bilinearAddressInfo.x);

	push	0
	push	0
	push	4
	push	OFFSET ?bilinearAddressInfo@@3UstructBilinearAddressInfo@@A+28
	push	16					; 00000010H
	mov	eax, DWORD PTR _vars$[ebp]
	mov	ecx, DWORD PTR [eax+4]
	call	?X86Emit_MOVRM@NativeCodeCache@@QAEXW4x86Reg@@IW4x86IndexReg@@W4x86ScaleVal@@H@Z ; NativeCodeCache::X86Emit_MOVRM

; 646  :   vars->codeCache->X86Emit_MOVRM(x86Reg_ebx, (uint32)&bilinearAddressInfo.y);

	push	0
	push	0
	push	4
	push	OFFSET ?bilinearAddressInfo@@3UstructBilinearAddressInfo@@A+32
	push	19					; 00000013H
	mov	ecx, DWORD PTR _vars$[ebp]
	mov	ecx, DWORD PTR [ecx+4]
	call	?X86Emit_MOVRM@NativeCodeCache@@QAEXW4x86Reg@@IW4x86IndexReg@@W4x86ScaleVal@@H@Z ; NativeCodeCache::X86Emit_MOVRM

; 647  :   vars->codeCache->X86Emit_MOVRM(x86Reg_ecx, (uint32)&bilinearAddressInfo.control);

	push	0
	push	0
	push	4
	push	OFFSET ?bilinearAddressInfo@@3UstructBilinearAddressInfo@@A+24
	push	17					; 00000011H
	mov	edx, DWORD PTR _vars$[ebp]
	mov	ecx, DWORD PTR [edx+4]
	call	?X86Emit_MOVRM@NativeCodeCache@@QAEXW4x86Reg@@IW4x86IndexReg@@W4x86ScaleVal@@H@Z ; NativeCodeCache::X86Emit_MOVRM

; 648  :   vars->codeCache->X86Emit_MOVRM(x86Reg_ebp, (uint32)&bilinearAddressInfo.base);

	push	0
	push	0
	push	4
	push	OFFSET ?bilinearAddressInfo@@3UstructBilinearAddressInfo@@A+20
	push	21					; 00000015H
	mov	eax, DWORD PTR _vars$[ebp]
	mov	ecx, DWORD PTR [eax+4]
	call	?X86Emit_MOVRM@NativeCodeCache@@QAEXW4x86Reg@@IW4x86IndexReg@@W4x86ScaleVal@@H@Z ; NativeCodeCache::X86Emit_MOVRM

; 649  :   vars->codeCache->X86Emit_CALLI((uint32)GetBilinearAddress,0);

	push	0
	push	OFFSET ?GetBilinearAddress@@YAXXZ	; GetBilinearAddress
	mov	ecx, DWORD PTR _vars$[ebp]
	mov	ecx, DWORD PTR [ecx+4]
	call	?X86Emit_CALLI@NativeCodeCache@@QAEXIG@Z ; NativeCodeCache::X86Emit_CALLI

; 650  :   vars->codeCache->X86Emit_MOVMR(x86Reg_eax, (uint32)&bilinearAddressInfo.offset_address);

	push	0
	push	0
	push	4
	push	OFFSET ?bilinearAddressInfo@@3UstructBilinearAddressInfo@@A+40
	push	16					; 00000010H
	mov	edx, DWORD PTR _vars$[ebp]
	mov	ecx, DWORD PTR [edx+4]
	call	?X86Emit_MOVMR@NativeCodeCache@@QAEXW4x86Reg@@IW4x86IndexReg@@W4x86ScaleVal@@H@Z ; NativeCodeCache::X86Emit_MOVMR

; 651  : 
; 652  :   //vars->codeCache->X86Emit_MOVIR((uint32)(vars->mpe->dtrom), x86Reg_ebx);
; 653  :   //vars->codeCache->X86Emit_MOVIR((uint32)(nuonEnv->mainBusDRAM), x86Reg_ecx);
; 654  :   //vars->codeCache->X86Emit_MOVIR((uint32)(nuonEnv->systemBusDRAM), x86Reg_edx);
; 655  :   //vars->codeCache->X86Emit_MOVIR((uint32)(nuonEnv->flashEEPROM->GetBasePointer()), x86Reg_ebp);
; 656  :   //vars->codeCache->X86Emit_CMPIR(0x40000000, x86Reg_eax);
; 657  :   //vars->codeCache->X86Emit_CMOVNBRR(x86Reg_ebx, x86Reg_ecx);
; 658  :   //vars->codeCache->X86Emit_CMPIR(0x80000000, x86Reg_eax);
; 659  :   //vars->codeCache->X86Emit_CMOVNBRR(x86Reg_ebx, x86Reg_edx);
; 660  :   //vars->codeCache->X86Emit_CMPIR(0xF0000000, x86Reg_eax);
; 661  :   //vars->codeCache->X86Emit_CMOVNBRR(x86Reg_ebx, x86Reg_ebp);
; 662  :   vars->codeCache->X86Emit_MOVRR(x86Reg_ebx, x86Reg_eax);

	push	16					; 00000010H
	push	19					; 00000013H
	mov	eax, DWORD PTR _vars$[ebp]
	mov	ecx, DWORD PTR [eax+4]
	call	?X86Emit_MOVRR@NativeCodeCache@@QAEXW4x86Reg@@0@Z ; NativeCodeCache::X86Emit_MOVRR

; 663  :   vars->codeCache->X86Emit_SHRIR(x86Reg_ebx,26);

	push	26					; 0000001aH
	push	19					; 00000013H
	mov	ecx, DWORD PTR _vars$[ebp]
	mov	ecx, DWORD PTR [ecx+4]
	call	?X86Emit_SHRIR@NativeCodeCache@@QAEXW4x86Reg@@E@Z ; NativeCodeCache::X86Emit_SHRIR

; 664  :   vars->codeCache->X86Emit_ANDIR(0x3C,x86Reg_ebx);

	push	19					; 00000013H
	push	60					; 0000003cH
	mov	edx, DWORD PTR _vars$[ebp]
	mov	ecx, DWORD PTR [edx+4]
	call	?X86Emit_ANDIR@NativeCodeCache@@QAEXHW4x86Reg@@@Z ; NativeCodeCache::X86Emit_ANDIR

; 665  :   vars->codeCache->X86Emit_MOVMR(x86Reg_ebx, x86BaseReg_ebx, x86IndexReg_none, x86Scale_1, (int32)vars->mpe->bankPtrTable);

	mov	eax, DWORD PTR _vars$[ebp]
	mov	ecx, DWORD PTR [eax]
	add	ecx, 688				; 000002b0H
	push	ecx
	push	0
	push	4
	push	3
	push	19					; 00000013H
	mov	edx, DWORD PTR _vars$[ebp]
	mov	ecx, DWORD PTR [edx+4]
	call	?X86Emit_MOVMR@NativeCodeCache@@QAEXW4x86Reg@@IW4x86IndexReg@@W4x86ScaleVal@@H@Z ; NativeCodeCache::X86Emit_MOVMR

; 666  : 
; 667  :   vars->codeCache->X86Emit_ANDIR(0x007FFFFF, x86Reg_eax);

	push	16					; 00000010H
	push	8388607					; 007fffffH
	mov	eax, DWORD PTR _vars$[ebp]
	mov	ecx, DWORD PTR [eax+4]
	call	?X86Emit_ANDIR@NativeCodeCache@@QAEXHW4x86Reg@@@Z ; NativeCodeCache::X86Emit_ANDIR

; 668  :   vars->codeCache->X86Emit_ADDRR(x86Reg_eax, x86Reg_ebx);

	push	19					; 00000013H
	push	16					; 00000010H
	mov	ecx, DWORD PTR _vars$[ebp]
	mov	ecx, DWORD PTR [ecx+4]
	call	?X86Emit_ADDRR@NativeCodeCache@@QAEXW4x86Reg@@0@Z ; NativeCodeCache::X86Emit_ADDRR

; 669  :   vars->codeCache->X86Emit_MOVMR(x86Reg_ebx, x86BaseReg_eax, x86IndexReg_none, x86Scale_1, 0);

	push	0
	push	0
	push	4
	push	0
	push	19					; 00000013H
	mov	edx, DWORD PTR _vars$[ebp]
	mov	ecx, DWORD PTR [edx+4]
	call	?X86Emit_MOVMR@NativeCodeCache@@QAEXW4x86Reg@@IW4x86IndexReg@@W4x86ScaleVal@@H@Z ; NativeCodeCache::X86Emit_MOVMR

; 670  :   vars->codeCache->X86Emit_MOVMR(x86Reg_ecx, x86BaseReg_eax, x86IndexReg_none, x86Scale_1, 2);

	push	2
	push	0
	push	4
	push	0
	push	17					; 00000011H
	mov	eax, DWORD PTR _vars$[ebp]
	mov	ecx, DWORD PTR [eax+4]
	call	?X86Emit_MOVMR@NativeCodeCache@@QAEXW4x86Reg@@IW4x86IndexReg@@W4x86ScaleVal@@H@Z ; NativeCodeCache::X86Emit_MOVMR

; 671  :   vars->codeCache->X86Emit_MOVMR(x86Reg_edx, x86BaseReg_eax, x86IndexReg_none, x86Scale_1, 4);

	push	4
	push	0
	push	4
	push	0
	push	18					; 00000012H
	mov	ecx, DWORD PTR _vars$[ebp]
	mov	ecx, DWORD PTR [ecx+4]
	call	?X86Emit_MOVMR@NativeCodeCache@@QAEXW4x86Reg@@IW4x86IndexReg@@W4x86ScaleVal@@H@Z ; NativeCodeCache::X86Emit_MOVMR

; 672  :   vars->codeCache->X86Emit_MOVMR(x86Reg_ebp, x86BaseReg_eax, x86IndexReg_none, x86Scale_1, 6);

	push	6
	push	0
	push	4
	push	0
	push	21					; 00000015H
	mov	edx, DWORD PTR _vars$[ebp]
	mov	ecx, DWORD PTR [edx+4]
	call	?X86Emit_MOVMR@NativeCodeCache@@QAEXW4x86Reg@@IW4x86IndexReg@@W4x86ScaleVal@@H@Z ; NativeCodeCache::X86Emit_MOVMR

; 673  :   vars->codeCache->X86Emit_BSWAP(x86Reg_ebx);

	push	19					; 00000013H
	mov	eax, DWORD PTR _vars$[ebp]
	mov	ecx, DWORD PTR [eax+4]
	call	?X86Emit_BSWAP@NativeCodeCache@@QAEXW4x86Reg@@@Z ; NativeCodeCache::X86Emit_BSWAP

; 674  :   vars->codeCache->X86Emit_BSWAP(x86Reg_ecx);

	push	17					; 00000011H
	mov	ecx, DWORD PTR _vars$[ebp]
	mov	ecx, DWORD PTR [ecx+4]
	call	?X86Emit_BSWAP@NativeCodeCache@@QAEXW4x86Reg@@@Z ; NativeCodeCache::X86Emit_BSWAP

; 675  :   vars->codeCache->X86Emit_BSWAP(x86Reg_edx);

	push	18					; 00000012H
	mov	edx, DWORD PTR _vars$[ebp]
	mov	ecx, DWORD PTR [edx+4]
	call	?X86Emit_BSWAP@NativeCodeCache@@QAEXW4x86Reg@@@Z ; NativeCodeCache::X86Emit_BSWAP

; 676  :   vars->codeCache->X86Emit_BSWAP(x86Reg_ebp);

	push	21					; 00000015H
	mov	eax, DWORD PTR _vars$[ebp]
	mov	ecx, DWORD PTR [eax+4]
	call	?X86Emit_BSWAP@NativeCodeCache@@QAEXW4x86Reg@@@Z ; NativeCodeCache::X86Emit_BSWAP

; 677  :   vars->codeCache->X86Emit_ANDIR(0xFFFF0000, x86Reg_ebx);

	push	19					; 00000013H
	push	-65536					; ffff0000H
	mov	ecx, DWORD PTR _vars$[ebp]
	mov	ecx, DWORD PTR [ecx+4]
	call	?X86Emit_ANDIR@NativeCodeCache@@QAEXHW4x86Reg@@@Z ; NativeCodeCache::X86Emit_ANDIR

; 678  :   vars->codeCache->X86Emit_ANDIR(0xFFFF0000, x86Reg_ecx);

	push	17					; 00000011H
	push	-65536					; ffff0000H
	mov	edx, DWORD PTR _vars$[ebp]
	mov	ecx, DWORD PTR [edx+4]
	call	?X86Emit_ANDIR@NativeCodeCache@@QAEXHW4x86Reg@@@Z ; NativeCodeCache::X86Emit_ANDIR

; 679  :   vars->codeCache->X86Emit_ANDIR(0xFFFF0000, x86Reg_edx);

	push	18					; 00000012H
	push	-65536					; ffff0000H
	mov	eax, DWORD PTR _vars$[ebp]
	mov	ecx, DWORD PTR [eax+4]
	call	?X86Emit_ANDIR@NativeCodeCache@@QAEXHW4x86Reg@@@Z ; NativeCodeCache::X86Emit_ANDIR

; 680  :   vars->codeCache->X86Emit_ANDIR(0xFFFF0000, x86Reg_ebp);

	push	21					; 00000015H
	push	-65536					; ffff0000H
	mov	ecx, DWORD PTR _vars$[ebp]
	mov	ecx, DWORD PTR [ecx+4]
	call	?X86Emit_ANDIR@NativeCodeCache@@QAEXHW4x86Reg@@@Z ; NativeCodeCache::X86Emit_ANDIR

; 681  :   vars->codeCache->X86Emit_MOVRM(x86Reg_ebx, destRegWriteBaseReg, x86IndexReg_none, x86Scale_1, destRegDisp);

	mov	edx, DWORD PTR _destRegDisp$[ebp]
	push	edx
	push	0
	push	4
	mov	eax, DWORD PTR _destRegWriteBaseReg$[ebp]
	push	eax
	push	19					; 00000013H
	mov	ecx, DWORD PTR _vars$[ebp]
	mov	ecx, DWORD PTR [ecx+4]
	call	?X86Emit_MOVRM@NativeCodeCache@@QAEXW4x86Reg@@IW4x86IndexReg@@W4x86ScaleVal@@H@Z ; NativeCodeCache::X86Emit_MOVRM

; 682  :   vars->codeCache->X86Emit_MOVRM(x86Reg_ecx, destRegWriteBaseReg, x86IndexReg_none, x86Scale_1, destRegDisp+4);

	mov	edx, DWORD PTR _destRegDisp$[ebp]
	add	edx, 4
	push	edx
	push	0
	push	4
	mov	eax, DWORD PTR _destRegWriteBaseReg$[ebp]
	push	eax
	push	17					; 00000011H
	mov	ecx, DWORD PTR _vars$[ebp]
	mov	ecx, DWORD PTR [ecx+4]
	call	?X86Emit_MOVRM@NativeCodeCache@@QAEXW4x86Reg@@IW4x86IndexReg@@W4x86ScaleVal@@H@Z ; NativeCodeCache::X86Emit_MOVRM

; 683  :   vars->codeCache->X86Emit_MOVRM(x86Reg_edx, destRegWriteBaseReg, x86IndexReg_none, x86Scale_1, destRegDisp+8);

	mov	edx, DWORD PTR _destRegDisp$[ebp]
	add	edx, 8
	push	edx
	push	0
	push	4
	mov	eax, DWORD PTR _destRegWriteBaseReg$[ebp]
	push	eax
	push	18					; 00000012H
	mov	ecx, DWORD PTR _vars$[ebp]
	mov	ecx, DWORD PTR [ecx+4]
	call	?X86Emit_MOVRM@NativeCodeCache@@QAEXW4x86Reg@@IW4x86IndexReg@@W4x86ScaleVal@@H@Z ; NativeCodeCache::X86Emit_MOVRM

; 684  :   vars->codeCache->X86Emit_MOVRM(x86Reg_ebp, destRegWriteBaseReg, x86IndexReg_none, x86Scale_1, destRegDisp+12);

	mov	edx, DWORD PTR _destRegDisp$[ebp]
	add	edx, 12					; 0000000cH
	push	edx
	push	0
	push	4
	mov	eax, DWORD PTR _destRegWriteBaseReg$[ebp]
	push	eax
	push	21					; 00000015H
	mov	ecx, DWORD PTR _vars$[ebp]
	mov	ecx, DWORD PTR [ecx+4]
	call	?X86Emit_MOVRM@NativeCodeCache@@QAEXW4x86Reg@@IW4x86IndexReg@@W4x86ScaleVal@@H@Z ; NativeCodeCache::X86Emit_MOVRM

; 685  : }

	add	esp, 36					; 00000024H
	cmp	ebp, esp
	call	__RTC_CheckEsp
	mov	esp, ebp
	pop	ebp
	ret	0
?Emit_LoadShortVectorBilinearXY@@YAXPAVEmitterVariables@@AAVNuance@@@Z ENDP ; Emit_LoadShortVectorBilinearXY
_TEXT	ENDS
PUBLIC	?Emit_LoadShortVectorBilinearUV@@YAXPAVEmitterVariables@@AAVNuance@@@Z ; Emit_LoadShortVectorBilinearUV
; Function compile flags: /Odtp /RTCsu
_TEXT	SEGMENT
_uvctlRegDisp$ = -36					; size = 4
_rvRegDisp$ = -32					; size = 4
_ruRegDisp$ = -28					; size = 4
_destRegDisp$ = -24					; size = 4
_destRegWriteBaseReg$ = -20				; size = 4
_uvctlRegReadBaseReg$ = -16				; size = 4
_rvRegReadBaseReg$ = -12				; size = 4
_ruRegReadBaseReg$ = -8					; size = 4
_destRegIndex$ = -4					; size = 4
_vars$ = 8						; size = 4
_nuance$ = 12						; size = 4
?Emit_LoadShortVectorBilinearUV@@YAXPAVEmitterVariables@@AAVNuance@@@Z PROC ; Emit_LoadShortVectorBilinearUV

; 688  : {

	push	ebp
	mov	ebp, esp
	sub	esp, 36					; 00000024H
	mov	eax, -858993460				; ccccccccH
	mov	DWORD PTR [ebp-36], eax
	mov	DWORD PTR [ebp-32], eax
	mov	DWORD PTR [ebp-28], eax
	mov	DWORD PTR [ebp-24], eax
	mov	DWORD PTR [ebp-20], eax
	mov	DWORD PTR [ebp-16], eax
	mov	DWORD PTR [ebp-12], eax
	mov	DWORD PTR [ebp-8], eax
	mov	DWORD PTR [ebp-4], eax

; 689  :   uint32 destRegIndex = nuance.fields[FIELD_MEM_TO];

	mov	eax, DWORD PTR _nuance$[ebp]
	mov	ecx, DWORD PTR [eax+8]
	mov	DWORD PTR _destRegIndex$[ebp], ecx

; 690  :   x86BaseReg ruRegReadBaseReg = GetMiscRegReadBaseReg(vars,REGINDEX_RU);

	push	5
	mov	edx, DWORD PTR _vars$[ebp]
	push	edx
	call	?GetMiscRegReadBaseReg@@YA?AW4x86BaseReg@@PAVEmitterVariables@@I@Z ; GetMiscRegReadBaseReg
	add	esp, 8
	mov	DWORD PTR _ruRegReadBaseReg$[ebp], eax

; 691  :   x86BaseReg rvRegReadBaseReg = GetMiscRegReadBaseReg(vars,REGINDEX_RV);

	push	6
	mov	eax, DWORD PTR _vars$[ebp]
	push	eax
	call	?GetMiscRegReadBaseReg@@YA?AW4x86BaseReg@@PAVEmitterVariables@@I@Z ; GetMiscRegReadBaseReg
	add	esp, 8
	mov	DWORD PTR _rvRegReadBaseReg$[ebp], eax

; 692  :   x86BaseReg uvctlRegReadBaseReg = GetMiscRegReadBaseReg(vars,REGINDEX_UVCTL);

	push	11					; 0000000bH
	mov	ecx, DWORD PTR _vars$[ebp]
	push	ecx
	call	?GetMiscRegReadBaseReg@@YA?AW4x86BaseReg@@PAVEmitterVariables@@I@Z ; GetMiscRegReadBaseReg
	add	esp, 8
	mov	DWORD PTR _uvctlRegReadBaseReg$[ebp], eax

; 693  :   x86BaseReg destRegWriteBaseReg = GetScalarRegWriteBaseReg(vars,destRegIndex);

	mov	edx, DWORD PTR _destRegIndex$[ebp]
	push	edx
	mov	eax, DWORD PTR _vars$[ebp]
	push	eax
	call	?GetScalarRegWriteBaseReg@@YA?AW4x86BaseReg@@PAVEmitterVariables@@I@Z ; GetScalarRegWriteBaseReg
	add	esp, 8
	mov	DWORD PTR _destRegWriteBaseReg$[ebp], eax

; 694  :   int32 destRegDisp = GetScalarRegEmitDisp(vars,destRegIndex);

	mov	ecx, DWORD PTR _destRegIndex$[ebp]
	push	ecx
	mov	edx, DWORD PTR _vars$[ebp]
	push	edx
	call	?GetScalarRegEmitDisp@@YAHPAVEmitterVariables@@I@Z ; GetScalarRegEmitDisp
	add	esp, 8
	mov	DWORD PTR _destRegDisp$[ebp], eax

; 695  :   int32 ruRegDisp = GetMiscRegEmitDisp(vars,REGINDEX_RU);

	push	5
	mov	eax, DWORD PTR _vars$[ebp]
	push	eax
	call	?GetMiscRegEmitDisp@@YAHPAVEmitterVariables@@I@Z ; GetMiscRegEmitDisp
	add	esp, 8
	mov	DWORD PTR _ruRegDisp$[ebp], eax

; 696  :   int32 rvRegDisp = GetMiscRegEmitDisp(vars,REGINDEX_RV);

	push	6
	mov	ecx, DWORD PTR _vars$[ebp]
	push	ecx
	call	?GetMiscRegEmitDisp@@YAHPAVEmitterVariables@@I@Z ; GetMiscRegEmitDisp
	add	esp, 8
	mov	DWORD PTR _rvRegDisp$[ebp], eax

; 697  :   int32 uvctlRegDisp = GetMiscRegEmitDisp(vars,REGINDEX_UVCTL);

	push	11					; 0000000bH
	mov	edx, DWORD PTR _vars$[ebp]
	push	edx
	call	?GetMiscRegEmitDisp@@YAHPAVEmitterVariables@@I@Z ; GetMiscRegEmitDisp
	add	esp, 8
	mov	DWORD PTR _uvctlRegDisp$[ebp], eax

; 698  : 
; 699  :   vars->codeCache->X86Emit_MOVMR(x86Reg_eax, ruRegReadBaseReg, x86IndexReg_none, x86Scale_1, ruRegDisp);

	mov	eax, DWORD PTR _ruRegDisp$[ebp]
	push	eax
	push	0
	push	4
	mov	ecx, DWORD PTR _ruRegReadBaseReg$[ebp]
	push	ecx
	push	16					; 00000010H
	mov	edx, DWORD PTR _vars$[ebp]
	mov	ecx, DWORD PTR [edx+4]
	call	?X86Emit_MOVMR@NativeCodeCache@@QAEXW4x86Reg@@IW4x86IndexReg@@W4x86ScaleVal@@H@Z ; NativeCodeCache::X86Emit_MOVMR

; 700  :   vars->codeCache->X86Emit_MOVMR(x86Reg_ebx, rvRegReadBaseReg, x86IndexReg_none, x86Scale_1, rvRegDisp);

	mov	eax, DWORD PTR _rvRegDisp$[ebp]
	push	eax
	push	0
	push	4
	mov	ecx, DWORD PTR _rvRegReadBaseReg$[ebp]
	push	ecx
	push	19					; 00000013H
	mov	edx, DWORD PTR _vars$[ebp]
	mov	ecx, DWORD PTR [edx+4]
	call	?X86Emit_MOVMR@NativeCodeCache@@QAEXW4x86Reg@@IW4x86IndexReg@@W4x86ScaleVal@@H@Z ; NativeCodeCache::X86Emit_MOVMR

; 701  :   vars->codeCache->X86Emit_MOVMR(x86Reg_ecx, uvctlRegReadBaseReg, x86IndexReg_none, x86Scale_1, uvctlRegDisp);

	mov	eax, DWORD PTR _uvctlRegDisp$[ebp]
	push	eax
	push	0
	push	4
	mov	ecx, DWORD PTR _uvctlRegReadBaseReg$[ebp]
	push	ecx
	push	17					; 00000011H
	mov	edx, DWORD PTR _vars$[ebp]
	mov	ecx, DWORD PTR [edx+4]
	call	?X86Emit_MOVMR@NativeCodeCache@@QAEXW4x86Reg@@IW4x86IndexReg@@W4x86ScaleVal@@H@Z ; NativeCodeCache::X86Emit_MOVMR

; 702  :   vars->codeCache->X86Emit_MOVMR(x86Reg_ebp, (uint32)&vars->mpe->uvbase);

	push	0
	push	0
	push	4
	mov	eax, DWORD PTR _vars$[ebp]
	mov	ecx, DWORD PTR [eax]
	add	ecx, 452				; 000001c4H
	push	ecx
	push	21					; 00000015H
	mov	edx, DWORD PTR _vars$[ebp]
	mov	ecx, DWORD PTR [edx+4]
	call	?X86Emit_MOVMR@NativeCodeCache@@QAEXW4x86Reg@@IW4x86IndexReg@@W4x86ScaleVal@@H@Z ; NativeCodeCache::X86Emit_MOVMR

; 703  :   vars->codeCache->X86Emit_MOVRM(x86Reg_eax, (uint32)&bilinearAddressInfo.x);

	push	0
	push	0
	push	4
	push	OFFSET ?bilinearAddressInfo@@3UstructBilinearAddressInfo@@A+28
	push	16					; 00000010H
	mov	eax, DWORD PTR _vars$[ebp]
	mov	ecx, DWORD PTR [eax+4]
	call	?X86Emit_MOVRM@NativeCodeCache@@QAEXW4x86Reg@@IW4x86IndexReg@@W4x86ScaleVal@@H@Z ; NativeCodeCache::X86Emit_MOVRM

; 704  :   vars->codeCache->X86Emit_MOVRM(x86Reg_ebx, (uint32)&bilinearAddressInfo.y);

	push	0
	push	0
	push	4
	push	OFFSET ?bilinearAddressInfo@@3UstructBilinearAddressInfo@@A+32
	push	19					; 00000013H
	mov	ecx, DWORD PTR _vars$[ebp]
	mov	ecx, DWORD PTR [ecx+4]
	call	?X86Emit_MOVRM@NativeCodeCache@@QAEXW4x86Reg@@IW4x86IndexReg@@W4x86ScaleVal@@H@Z ; NativeCodeCache::X86Emit_MOVRM

; 705  :   vars->codeCache->X86Emit_MOVRM(x86Reg_ecx, (uint32)&bilinearAddressInfo.control);

	push	0
	push	0
	push	4
	push	OFFSET ?bilinearAddressInfo@@3UstructBilinearAddressInfo@@A+24
	push	17					; 00000011H
	mov	edx, DWORD PTR _vars$[ebp]
	mov	ecx, DWORD PTR [edx+4]
	call	?X86Emit_MOVRM@NativeCodeCache@@QAEXW4x86Reg@@IW4x86IndexReg@@W4x86ScaleVal@@H@Z ; NativeCodeCache::X86Emit_MOVRM

; 706  :   vars->codeCache->X86Emit_MOVRM(x86Reg_ebp, (uint32)&bilinearAddressInfo.base);

	push	0
	push	0
	push	4
	push	OFFSET ?bilinearAddressInfo@@3UstructBilinearAddressInfo@@A+20
	push	21					; 00000015H
	mov	eax, DWORD PTR _vars$[ebp]
	mov	ecx, DWORD PTR [eax+4]
	call	?X86Emit_MOVRM@NativeCodeCache@@QAEXW4x86Reg@@IW4x86IndexReg@@W4x86ScaleVal@@H@Z ; NativeCodeCache::X86Emit_MOVRM

; 707  :   vars->codeCache->X86Emit_CALLI((uint32)GetBilinearAddress,0);

	push	0
	push	OFFSET ?GetBilinearAddress@@YAXXZ	; GetBilinearAddress
	mov	ecx, DWORD PTR _vars$[ebp]
	mov	ecx, DWORD PTR [ecx+4]
	call	?X86Emit_CALLI@NativeCodeCache@@QAEXIG@Z ; NativeCodeCache::X86Emit_CALLI

; 708  :   vars->codeCache->X86Emit_MOVMR(x86Reg_eax, (uint32)&bilinearAddressInfo.offset_address);

	push	0
	push	0
	push	4
	push	OFFSET ?bilinearAddressInfo@@3UstructBilinearAddressInfo@@A+40
	push	16					; 00000010H
	mov	edx, DWORD PTR _vars$[ebp]
	mov	ecx, DWORD PTR [edx+4]
	call	?X86Emit_MOVMR@NativeCodeCache@@QAEXW4x86Reg@@IW4x86IndexReg@@W4x86ScaleVal@@H@Z ; NativeCodeCache::X86Emit_MOVMR

; 709  : 
; 710  :   //vars->codeCache->X86Emit_MOVIR((uint32)(vars->mpe->dtrom), x86Reg_ebx);
; 711  :   //vars->codeCache->X86Emit_MOVIR((uint32)(nuonEnv->mainBusDRAM), x86Reg_ecx);
; 712  :   //vars->codeCache->X86Emit_MOVIR((uint32)(nuonEnv->systemBusDRAM), x86Reg_edx);
; 713  :   //vars->codeCache->X86Emit_MOVIR((uint32)(nuonEnv->flashEEPROM->GetBasePointer()), x86Reg_ebp);
; 714  :   //vars->codeCache->X86Emit_CMPIR(0x40000000, x86Reg_eax);
; 715  :   //vars->codeCache->X86Emit_CMOVNBRR(x86Reg_ebx, x86Reg_ecx);
; 716  :   //vars->codeCache->X86Emit_CMPIR(0x80000000, x86Reg_eax);
; 717  :   //vars->codeCache->X86Emit_CMOVNBRR(x86Reg_ebx, x86Reg_edx);
; 718  :   //vars->codeCache->X86Emit_CMPIR(0xF0000000, x86Reg_eax);
; 719  :   //vars->codeCache->X86Emit_CMOVNBRR(x86Reg_ebx, x86Reg_ebp);
; 720  :   vars->codeCache->X86Emit_MOVRR(x86Reg_ebx, x86Reg_eax);

	push	16					; 00000010H
	push	19					; 00000013H
	mov	eax, DWORD PTR _vars$[ebp]
	mov	ecx, DWORD PTR [eax+4]
	call	?X86Emit_MOVRR@NativeCodeCache@@QAEXW4x86Reg@@0@Z ; NativeCodeCache::X86Emit_MOVRR

; 721  :   vars->codeCache->X86Emit_SHRIR(x86Reg_ebx,26);

	push	26					; 0000001aH
	push	19					; 00000013H
	mov	ecx, DWORD PTR _vars$[ebp]
	mov	ecx, DWORD PTR [ecx+4]
	call	?X86Emit_SHRIR@NativeCodeCache@@QAEXW4x86Reg@@E@Z ; NativeCodeCache::X86Emit_SHRIR

; 722  :   vars->codeCache->X86Emit_ANDIR(0x3C,x86Reg_ebx);

	push	19					; 00000013H
	push	60					; 0000003cH
	mov	edx, DWORD PTR _vars$[ebp]
	mov	ecx, DWORD PTR [edx+4]
	call	?X86Emit_ANDIR@NativeCodeCache@@QAEXHW4x86Reg@@@Z ; NativeCodeCache::X86Emit_ANDIR

; 723  :   vars->codeCache->X86Emit_MOVMR(x86Reg_ebx, x86BaseReg_ebx, x86IndexReg_none, x86Scale_1, (int32)vars->mpe->bankPtrTable);

	mov	eax, DWORD PTR _vars$[ebp]
	mov	ecx, DWORD PTR [eax]
	add	ecx, 688				; 000002b0H
	push	ecx
	push	0
	push	4
	push	3
	push	19					; 00000013H
	mov	edx, DWORD PTR _vars$[ebp]
	mov	ecx, DWORD PTR [edx+4]
	call	?X86Emit_MOVMR@NativeCodeCache@@QAEXW4x86Reg@@IW4x86IndexReg@@W4x86ScaleVal@@H@Z ; NativeCodeCache::X86Emit_MOVMR

; 724  : 
; 725  :   vars->codeCache->X86Emit_ANDIR(0x007FFFFF, x86Reg_eax);

	push	16					; 00000010H
	push	8388607					; 007fffffH
	mov	eax, DWORD PTR _vars$[ebp]
	mov	ecx, DWORD PTR [eax+4]
	call	?X86Emit_ANDIR@NativeCodeCache@@QAEXHW4x86Reg@@@Z ; NativeCodeCache::X86Emit_ANDIR

; 726  :   vars->codeCache->X86Emit_ADDRR(x86Reg_eax, x86Reg_ebx);

	push	19					; 00000013H
	push	16					; 00000010H
	mov	ecx, DWORD PTR _vars$[ebp]
	mov	ecx, DWORD PTR [ecx+4]
	call	?X86Emit_ADDRR@NativeCodeCache@@QAEXW4x86Reg@@0@Z ; NativeCodeCache::X86Emit_ADDRR

; 727  :   vars->codeCache->X86Emit_MOVMR(x86Reg_ebx, x86BaseReg_eax, x86IndexReg_none, x86Scale_1, 0);

	push	0
	push	0
	push	4
	push	0
	push	19					; 00000013H
	mov	edx, DWORD PTR _vars$[ebp]
	mov	ecx, DWORD PTR [edx+4]
	call	?X86Emit_MOVMR@NativeCodeCache@@QAEXW4x86Reg@@IW4x86IndexReg@@W4x86ScaleVal@@H@Z ; NativeCodeCache::X86Emit_MOVMR

; 728  :   vars->codeCache->X86Emit_MOVMR(x86Reg_ecx, x86BaseReg_eax, x86IndexReg_none, x86Scale_1, 2);

	push	2
	push	0
	push	4
	push	0
	push	17					; 00000011H
	mov	eax, DWORD PTR _vars$[ebp]
	mov	ecx, DWORD PTR [eax+4]
	call	?X86Emit_MOVMR@NativeCodeCache@@QAEXW4x86Reg@@IW4x86IndexReg@@W4x86ScaleVal@@H@Z ; NativeCodeCache::X86Emit_MOVMR

; 729  :   vars->codeCache->X86Emit_MOVMR(x86Reg_edx, x86BaseReg_eax, x86IndexReg_none, x86Scale_1, 4);

	push	4
	push	0
	push	4
	push	0
	push	18					; 00000012H
	mov	ecx, DWORD PTR _vars$[ebp]
	mov	ecx, DWORD PTR [ecx+4]
	call	?X86Emit_MOVMR@NativeCodeCache@@QAEXW4x86Reg@@IW4x86IndexReg@@W4x86ScaleVal@@H@Z ; NativeCodeCache::X86Emit_MOVMR

; 730  :   vars->codeCache->X86Emit_MOVMR(x86Reg_ebp, x86BaseReg_eax, x86IndexReg_none, x86Scale_1, 6);

	push	6
	push	0
	push	4
	push	0
	push	21					; 00000015H
	mov	edx, DWORD PTR _vars$[ebp]
	mov	ecx, DWORD PTR [edx+4]
	call	?X86Emit_MOVMR@NativeCodeCache@@QAEXW4x86Reg@@IW4x86IndexReg@@W4x86ScaleVal@@H@Z ; NativeCodeCache::X86Emit_MOVMR

; 731  :   vars->codeCache->X86Emit_BSWAP(x86Reg_ebx);

	push	19					; 00000013H
	mov	eax, DWORD PTR _vars$[ebp]
	mov	ecx, DWORD PTR [eax+4]
	call	?X86Emit_BSWAP@NativeCodeCache@@QAEXW4x86Reg@@@Z ; NativeCodeCache::X86Emit_BSWAP

; 732  :   vars->codeCache->X86Emit_BSWAP(x86Reg_ecx);

	push	17					; 00000011H
	mov	ecx, DWORD PTR _vars$[ebp]
	mov	ecx, DWORD PTR [ecx+4]
	call	?X86Emit_BSWAP@NativeCodeCache@@QAEXW4x86Reg@@@Z ; NativeCodeCache::X86Emit_BSWAP

; 733  :   vars->codeCache->X86Emit_BSWAP(x86Reg_edx);

	push	18					; 00000012H
	mov	edx, DWORD PTR _vars$[ebp]
	mov	ecx, DWORD PTR [edx+4]
	call	?X86Emit_BSWAP@NativeCodeCache@@QAEXW4x86Reg@@@Z ; NativeCodeCache::X86Emit_BSWAP

; 734  :   vars->codeCache->X86Emit_BSWAP(x86Reg_ebp);

	push	21					; 00000015H
	mov	eax, DWORD PTR _vars$[ebp]
	mov	ecx, DWORD PTR [eax+4]
	call	?X86Emit_BSWAP@NativeCodeCache@@QAEXW4x86Reg@@@Z ; NativeCodeCache::X86Emit_BSWAP

; 735  :   vars->codeCache->X86Emit_ANDIR(0xFFFF0000, x86Reg_ebx);

	push	19					; 00000013H
	push	-65536					; ffff0000H
	mov	ecx, DWORD PTR _vars$[ebp]
	mov	ecx, DWORD PTR [ecx+4]
	call	?X86Emit_ANDIR@NativeCodeCache@@QAEXHW4x86Reg@@@Z ; NativeCodeCache::X86Emit_ANDIR

; 736  :   vars->codeCache->X86Emit_ANDIR(0xFFFF0000, x86Reg_ecx);

	push	17					; 00000011H
	push	-65536					; ffff0000H
	mov	edx, DWORD PTR _vars$[ebp]
	mov	ecx, DWORD PTR [edx+4]
	call	?X86Emit_ANDIR@NativeCodeCache@@QAEXHW4x86Reg@@@Z ; NativeCodeCache::X86Emit_ANDIR

; 737  :   vars->codeCache->X86Emit_ANDIR(0xFFFF0000, x86Reg_edx);

	push	18					; 00000012H
	push	-65536					; ffff0000H
	mov	eax, DWORD PTR _vars$[ebp]
	mov	ecx, DWORD PTR [eax+4]
	call	?X86Emit_ANDIR@NativeCodeCache@@QAEXHW4x86Reg@@@Z ; NativeCodeCache::X86Emit_ANDIR

; 738  :   vars->codeCache->X86Emit_ANDIR(0xFFFF0000, x86Reg_ebp);

	push	21					; 00000015H
	push	-65536					; ffff0000H
	mov	ecx, DWORD PTR _vars$[ebp]
	mov	ecx, DWORD PTR [ecx+4]
	call	?X86Emit_ANDIR@NativeCodeCache@@QAEXHW4x86Reg@@@Z ; NativeCodeCache::X86Emit_ANDIR

; 739  :   vars->codeCache->X86Emit_MOVRM(x86Reg_ebx, destRegWriteBaseReg, x86IndexReg_none, x86Scale_1, destRegDisp);

	mov	edx, DWORD PTR _destRegDisp$[ebp]
	push	edx
	push	0
	push	4
	mov	eax, DWORD PTR _destRegWriteBaseReg$[ebp]
	push	eax
	push	19					; 00000013H
	mov	ecx, DWORD PTR _vars$[ebp]
	mov	ecx, DWORD PTR [ecx+4]
	call	?X86Emit_MOVRM@NativeCodeCache@@QAEXW4x86Reg@@IW4x86IndexReg@@W4x86ScaleVal@@H@Z ; NativeCodeCache::X86Emit_MOVRM

; 740  :   vars->codeCache->X86Emit_MOVRM(x86Reg_ecx, destRegWriteBaseReg, x86IndexReg_none, x86Scale_1, destRegDisp+4);

	mov	edx, DWORD PTR _destRegDisp$[ebp]
	add	edx, 4
	push	edx
	push	0
	push	4
	mov	eax, DWORD PTR _destRegWriteBaseReg$[ebp]
	push	eax
	push	17					; 00000011H
	mov	ecx, DWORD PTR _vars$[ebp]
	mov	ecx, DWORD PTR [ecx+4]
	call	?X86Emit_MOVRM@NativeCodeCache@@QAEXW4x86Reg@@IW4x86IndexReg@@W4x86ScaleVal@@H@Z ; NativeCodeCache::X86Emit_MOVRM

; 741  :   vars->codeCache->X86Emit_MOVRM(x86Reg_edx, destRegWriteBaseReg, x86IndexReg_none, x86Scale_1, destRegDisp+8);

	mov	edx, DWORD PTR _destRegDisp$[ebp]
	add	edx, 8
	push	edx
	push	0
	push	4
	mov	eax, DWORD PTR _destRegWriteBaseReg$[ebp]
	push	eax
	push	18					; 00000012H
	mov	ecx, DWORD PTR _vars$[ebp]
	mov	ecx, DWORD PTR [ecx+4]
	call	?X86Emit_MOVRM@NativeCodeCache@@QAEXW4x86Reg@@IW4x86IndexReg@@W4x86ScaleVal@@H@Z ; NativeCodeCache::X86Emit_MOVRM

; 742  :   vars->codeCache->X86Emit_MOVRM(x86Reg_ebp, destRegWriteBaseReg, x86IndexReg_none, x86Scale_1, destRegDisp+12);

	mov	edx, DWORD PTR _destRegDisp$[ebp]
	add	edx, 12					; 0000000cH
	push	edx
	push	0
	push	4
	mov	eax, DWORD PTR _destRegWriteBaseReg$[ebp]
	push	eax
	push	21					; 00000015H
	mov	ecx, DWORD PTR _vars$[ebp]
	mov	ecx, DWORD PTR [ecx+4]
	call	?X86Emit_MOVRM@NativeCodeCache@@QAEXW4x86Reg@@IW4x86IndexReg@@W4x86ScaleVal@@H@Z ; NativeCodeCache::X86Emit_MOVRM

; 743  : }

	add	esp, 36					; 00000024H
	cmp	ebp, esp
	call	__RTC_CheckEsp
	mov	esp, ebp
	pop	ebp
	ret	0
?Emit_LoadShortVectorBilinearUV@@YAXPAVEmitterVariables@@AAVNuance@@@Z ENDP ; Emit_LoadShortVectorBilinearUV
_TEXT	ENDS
PUBLIC	?Emit_LoadVectorAbsolute@@YAXPAVEmitterVariables@@AAVNuance@@@Z ; Emit_LoadVectorAbsolute
; Function compile flags: /Odtp /RTCsu
_TEXT	SEGMENT
_destRegDisp$ = -16					; size = 4
_destRegWriteBaseReg$ = -12				; size = 4
_srcAddress$ = -8					; size = 4
_destRegIndex$ = -4					; size = 4
_vars$ = 8						; size = 4
_nuance$ = 12						; size = 4
?Emit_LoadVectorAbsolute@@YAXPAVEmitterVariables@@AAVNuance@@@Z PROC ; Emit_LoadVectorAbsolute

; 746  : {

	push	ebp
	mov	ebp, esp
	sub	esp, 16					; 00000010H
	mov	eax, -858993460				; ccccccccH
	mov	DWORD PTR [ebp-16], eax
	mov	DWORD PTR [ebp-12], eax
	mov	DWORD PTR [ebp-8], eax
	mov	DWORD PTR [ebp-4], eax

; 747  :   uint32 destRegIndex = nuance.fields[FIELD_MEM_TO];

	mov	eax, DWORD PTR _nuance$[ebp]
	mov	ecx, DWORD PTR [eax+8]
	mov	DWORD PTR _destRegIndex$[ebp], ecx

; 748  :   uint32 srcAddress = nuance.fields[FIELD_MEM_POINTER];

	mov	edx, DWORD PTR _nuance$[ebp]
	mov	eax, DWORD PTR [edx+16]
	mov	DWORD PTR _srcAddress$[ebp], eax

; 749  :   x86BaseReg destRegWriteBaseReg = GetScalarRegWriteBaseReg(vars,destRegIndex);

	mov	ecx, DWORD PTR _destRegIndex$[ebp]
	push	ecx
	mov	edx, DWORD PTR _vars$[ebp]
	push	edx
	call	?GetScalarRegWriteBaseReg@@YA?AW4x86BaseReg@@PAVEmitterVariables@@I@Z ; GetScalarRegWriteBaseReg
	add	esp, 8
	mov	DWORD PTR _destRegWriteBaseReg$[ebp], eax

; 750  :   int32 destRegDisp = GetScalarRegEmitDisp(vars,destRegIndex);

	mov	eax, DWORD PTR _destRegIndex$[ebp]
	push	eax
	mov	ecx, DWORD PTR _vars$[ebp]
	push	ecx
	call	?GetScalarRegEmitDisp@@YAHPAVEmitterVariables@@I@Z ; GetScalarRegEmitDisp
	add	esp, 8
	mov	DWORD PTR _destRegDisp$[ebp], eax

; 751  : 
; 752  :   vars->codeCache->X86Emit_MOVMR(x86Reg_eax, srcAddress);

	push	0
	push	0
	push	4
	mov	edx, DWORD PTR _srcAddress$[ebp]
	push	edx
	push	16					; 00000010H
	mov	eax, DWORD PTR _vars$[ebp]
	mov	ecx, DWORD PTR [eax+4]
	call	?X86Emit_MOVMR@NativeCodeCache@@QAEXW4x86Reg@@IW4x86IndexReg@@W4x86ScaleVal@@H@Z ; NativeCodeCache::X86Emit_MOVMR

; 753  :   vars->codeCache->X86Emit_MOVMR(x86Reg_ebx, srcAddress+4);

	push	0
	push	0
	push	4
	mov	ecx, DWORD PTR _srcAddress$[ebp]
	add	ecx, 4
	push	ecx
	push	19					; 00000013H
	mov	edx, DWORD PTR _vars$[ebp]
	mov	ecx, DWORD PTR [edx+4]
	call	?X86Emit_MOVMR@NativeCodeCache@@QAEXW4x86Reg@@IW4x86IndexReg@@W4x86ScaleVal@@H@Z ; NativeCodeCache::X86Emit_MOVMR

; 754  :   vars->codeCache->X86Emit_MOVMR(x86Reg_ecx, srcAddress+8);

	push	0
	push	0
	push	4
	mov	eax, DWORD PTR _srcAddress$[ebp]
	add	eax, 8
	push	eax
	push	17					; 00000011H
	mov	ecx, DWORD PTR _vars$[ebp]
	mov	ecx, DWORD PTR [ecx+4]
	call	?X86Emit_MOVMR@NativeCodeCache@@QAEXW4x86Reg@@IW4x86IndexReg@@W4x86ScaleVal@@H@Z ; NativeCodeCache::X86Emit_MOVMR

; 755  :   vars->codeCache->X86Emit_MOVMR(x86Reg_edx, srcAddress+12);

	push	0
	push	0
	push	4
	mov	edx, DWORD PTR _srcAddress$[ebp]
	add	edx, 12					; 0000000cH
	push	edx
	push	18					; 00000012H
	mov	eax, DWORD PTR _vars$[ebp]
	mov	ecx, DWORD PTR [eax+4]
	call	?X86Emit_MOVMR@NativeCodeCache@@QAEXW4x86Reg@@IW4x86IndexReg@@W4x86ScaleVal@@H@Z ; NativeCodeCache::X86Emit_MOVMR

; 756  :   vars->codeCache->X86Emit_BSWAP(x86Reg_eax);

	push	16					; 00000010H
	mov	ecx, DWORD PTR _vars$[ebp]
	mov	ecx, DWORD PTR [ecx+4]
	call	?X86Emit_BSWAP@NativeCodeCache@@QAEXW4x86Reg@@@Z ; NativeCodeCache::X86Emit_BSWAP

; 757  :   vars->codeCache->X86Emit_BSWAP(x86Reg_ebx);

	push	19					; 00000013H
	mov	edx, DWORD PTR _vars$[ebp]
	mov	ecx, DWORD PTR [edx+4]
	call	?X86Emit_BSWAP@NativeCodeCache@@QAEXW4x86Reg@@@Z ; NativeCodeCache::X86Emit_BSWAP

; 758  :   vars->codeCache->X86Emit_BSWAP(x86Reg_ecx);

	push	17					; 00000011H
	mov	eax, DWORD PTR _vars$[ebp]
	mov	ecx, DWORD PTR [eax+4]
	call	?X86Emit_BSWAP@NativeCodeCache@@QAEXW4x86Reg@@@Z ; NativeCodeCache::X86Emit_BSWAP

; 759  :   vars->codeCache->X86Emit_BSWAP(x86Reg_edx);

	push	18					; 00000012H
	mov	ecx, DWORD PTR _vars$[ebp]
	mov	ecx, DWORD PTR [ecx+4]
	call	?X86Emit_BSWAP@NativeCodeCache@@QAEXW4x86Reg@@@Z ; NativeCodeCache::X86Emit_BSWAP

; 760  :   vars->codeCache->X86Emit_MOVRM(x86Reg_eax, destRegWriteBaseReg, x86IndexReg_none, x86Scale_1, destRegDisp);

	mov	edx, DWORD PTR _destRegDisp$[ebp]
	push	edx
	push	0
	push	4
	mov	eax, DWORD PTR _destRegWriteBaseReg$[ebp]
	push	eax
	push	16					; 00000010H
	mov	ecx, DWORD PTR _vars$[ebp]
	mov	ecx, DWORD PTR [ecx+4]
	call	?X86Emit_MOVRM@NativeCodeCache@@QAEXW4x86Reg@@IW4x86IndexReg@@W4x86ScaleVal@@H@Z ; NativeCodeCache::X86Emit_MOVRM

; 761  :   vars->codeCache->X86Emit_MOVRM(x86Reg_ebx, destRegWriteBaseReg, x86IndexReg_none, x86Scale_1, destRegDisp+4);

	mov	edx, DWORD PTR _destRegDisp$[ebp]
	add	edx, 4
	push	edx
	push	0
	push	4
	mov	eax, DWORD PTR _destRegWriteBaseReg$[ebp]
	push	eax
	push	19					; 00000013H
	mov	ecx, DWORD PTR _vars$[ebp]
	mov	ecx, DWORD PTR [ecx+4]
	call	?X86Emit_MOVRM@NativeCodeCache@@QAEXW4x86Reg@@IW4x86IndexReg@@W4x86ScaleVal@@H@Z ; NativeCodeCache::X86Emit_MOVRM

; 762  :   vars->codeCache->X86Emit_MOVRM(x86Reg_ecx, destRegWriteBaseReg, x86IndexReg_none, x86Scale_1, destRegDisp+8);

	mov	edx, DWORD PTR _destRegDisp$[ebp]
	add	edx, 8
	push	edx
	push	0
	push	4
	mov	eax, DWORD PTR _destRegWriteBaseReg$[ebp]
	push	eax
	push	17					; 00000011H
	mov	ecx, DWORD PTR _vars$[ebp]
	mov	ecx, DWORD PTR [ecx+4]
	call	?X86Emit_MOVRM@NativeCodeCache@@QAEXW4x86Reg@@IW4x86IndexReg@@W4x86ScaleVal@@H@Z ; NativeCodeCache::X86Emit_MOVRM

; 763  :   vars->codeCache->X86Emit_MOVRM(x86Reg_edx, destRegWriteBaseReg, x86IndexReg_none, x86Scale_1, destRegDisp+12);

	mov	edx, DWORD PTR _destRegDisp$[ebp]
	add	edx, 12					; 0000000cH
	push	edx
	push	0
	push	4
	mov	eax, DWORD PTR _destRegWriteBaseReg$[ebp]
	push	eax
	push	18					; 00000012H
	mov	ecx, DWORD PTR _vars$[ebp]
	mov	ecx, DWORD PTR [ecx+4]
	call	?X86Emit_MOVRM@NativeCodeCache@@QAEXW4x86Reg@@IW4x86IndexReg@@W4x86ScaleVal@@H@Z ; NativeCodeCache::X86Emit_MOVRM

; 764  : }

	add	esp, 16					; 00000010H
	cmp	ebp, esp
	call	__RTC_CheckEsp
	mov	esp, ebp
	pop	ebp
	ret	0
?Emit_LoadVectorAbsolute@@YAXPAVEmitterVariables@@AAVNuance@@@Z ENDP ; Emit_LoadVectorAbsolute
_TEXT	ENDS
PUBLIC	?Emit_LoadVectorLinear@@YAXPAVEmitterVariables@@AAVNuance@@@Z ; Emit_LoadVectorLinear
; Function compile flags: /Odtp /RTCsu
_TEXT	SEGMENT
_destRegDisp$ = -28					; size = 4
_srcRegDisp$ = -24					; size = 4
_destRegWriteBaseReg$ = -20				; size = 4
_srcRegReadBaseReg$ = -16				; size = 4
_srcRegIndex$ = -12					; size = 4
_destRegIndex$ = -8					; size = 4
_l_not_control_reg$ = -4				; size = 4
_vars$ = 8						; size = 4
_nuance$ = 12						; size = 4
?Emit_LoadVectorLinear@@YAXPAVEmitterVariables@@AAVNuance@@@Z PROC ; Emit_LoadVectorLinear

; 767  : {

	push	ebp
	mov	ebp, esp
	sub	esp, 28					; 0000001cH
	mov	eax, -858993460				; ccccccccH
	mov	DWORD PTR [ebp-28], eax
	mov	DWORD PTR [ebp-24], eax
	mov	DWORD PTR [ebp-20], eax
	mov	DWORD PTR [ebp-16], eax
	mov	DWORD PTR [ebp-12], eax
	mov	DWORD PTR [ebp-8], eax
	mov	DWORD PTR [ebp-4], eax

; 768  :   uint32 l_not_control_reg = 0;

	mov	DWORD PTR _l_not_control_reg$[ebp], 0

; 769  : 
; 770  :   uint32 destRegIndex = nuance.fields[FIELD_MEM_TO];

	mov	eax, DWORD PTR _nuance$[ebp]
	mov	ecx, DWORD PTR [eax+8]
	mov	DWORD PTR _destRegIndex$[ebp], ecx

; 771  :   uint32 srcRegIndex = nuance.fields[FIELD_MEM_FROM];

	mov	edx, DWORD PTR _nuance$[ebp]
	mov	eax, DWORD PTR [edx+12]
	mov	DWORD PTR _srcRegIndex$[ebp], eax

; 772  :   x86BaseReg srcRegReadBaseReg = GetScalarRegReadBaseReg(vars,srcRegIndex);

	mov	ecx, DWORD PTR _srcRegIndex$[ebp]
	push	ecx
	mov	edx, DWORD PTR _vars$[ebp]
	push	edx
	call	?GetScalarRegReadBaseReg@@YA?AW4x86BaseReg@@PAVEmitterVariables@@I@Z ; GetScalarRegReadBaseReg
	add	esp, 8
	mov	DWORD PTR _srcRegReadBaseReg$[ebp], eax

; 773  :   x86BaseReg destRegWriteBaseReg = GetScalarRegWriteBaseReg(vars,destRegIndex);

	mov	eax, DWORD PTR _destRegIndex$[ebp]
	push	eax
	mov	ecx, DWORD PTR _vars$[ebp]
	push	ecx
	call	?GetScalarRegWriteBaseReg@@YA?AW4x86BaseReg@@PAVEmitterVariables@@I@Z ; GetScalarRegWriteBaseReg
	add	esp, 8
	mov	DWORD PTR _destRegWriteBaseReg$[ebp], eax

; 774  :   int32 srcRegDisp = GetScalarRegEmitDisp(vars,srcRegIndex);

	mov	edx, DWORD PTR _srcRegIndex$[ebp]
	push	edx
	mov	eax, DWORD PTR _vars$[ebp]
	push	eax
	call	?GetScalarRegEmitDisp@@YAHPAVEmitterVariables@@I@Z ; GetScalarRegEmitDisp
	add	esp, 8
	mov	DWORD PTR _srcRegDisp$[ebp], eax

; 775  :   int32 destRegDisp = GetScalarRegEmitDisp(vars,destRegIndex);

	mov	ecx, DWORD PTR _destRegIndex$[ebp]
	push	ecx
	mov	edx, DWORD PTR _vars$[ebp]
	push	edx
	call	?GetScalarRegEmitDisp@@YAHPAVEmitterVariables@@I@Z ; GetScalarRegEmitDisp
	add	esp, 8
	mov	DWORD PTR _destRegDisp$[ebp], eax

; 776  : 
; 777  :   vars->patchMgr->Reset();

	mov	eax, DWORD PTR _vars$[ebp]
	mov	ecx, DWORD PTR [eax+8]
	call	?Reset@PatchManager@@QAEXXZ		; PatchManager::Reset

; 778  : 
; 779  :   vars->codeCache->X86Emit_MOVMR(x86Reg_eax, srcRegReadBaseReg, x86IndexReg_none, x86Scale_1, srcRegDisp);

	mov	ecx, DWORD PTR _srcRegDisp$[ebp]
	push	ecx
	push	0
	push	4
	mov	edx, DWORD PTR _srcRegReadBaseReg$[ebp]
	push	edx
	push	16					; 00000010H
	mov	eax, DWORD PTR _vars$[ebp]
	mov	ecx, DWORD PTR [eax+4]
	call	?X86Emit_MOVMR@NativeCodeCache@@QAEXW4x86Reg@@IW4x86IndexReg@@W4x86ScaleVal@@H@Z ; NativeCodeCache::X86Emit_MOVMR

; 780  :   vars->codeCache->X86Emit_MOVRR(x86Reg_ebx, x86Reg_eax);

	push	16					; 00000010H
	push	19					; 00000013H
	mov	ecx, DWORD PTR _vars$[ebp]
	mov	ecx, DWORD PTR [ecx+4]
	call	?X86Emit_MOVRR@NativeCodeCache@@QAEXW4x86Reg@@0@Z ; NativeCodeCache::X86Emit_MOVRR

; 781  :   vars->codeCache->X86Emit_ANDIR(0xFFF00000, x86Reg_ebx);

	push	19					; 00000013H
	push	-1048576				; fff00000H
	mov	edx, DWORD PTR _vars$[ebp]
	mov	ecx, DWORD PTR [edx+4]
	call	?X86Emit_ANDIR@NativeCodeCache@@QAEXHW4x86Reg@@@Z ; NativeCodeCache::X86Emit_ANDIR

; 782  :   vars->codeCache->X86Emit_CMPIR(0x20500000, x86Reg_ebx);

	push	19					; 00000013H
	push	542113792				; 20500000H
	mov	eax, DWORD PTR _vars$[ebp]
	mov	ecx, DWORD PTR [eax+4]
	call	?X86Emit_CMPIR@NativeCodeCache@@QAEXHW4x86Reg@@@Z ; NativeCodeCache::X86Emit_CMPIR

; 783  :   vars->codeCache->X86Emit_JCC_Label(vars->patchMgr, X86_CC_NZ, l_not_control_reg);

	mov	ecx, DWORD PTR _l_not_control_reg$[ebp]
	push	ecx
	push	5
	mov	edx, DWORD PTR _vars$[ebp]
	mov	eax, DWORD PTR [edx+8]
	push	eax
	mov	ecx, DWORD PTR _vars$[ebp]
	mov	ecx, DWORD PTR [ecx+4]
	call	?X86Emit_JCC_Label@NativeCodeCache@@QAEXPAVPatchManager@@CI@Z ; NativeCodeCache::X86Emit_JCC_Label

; 784  :   vars->codeCache->X86Emit_MOVIM(1, x86MemPtr_dword, (uint32)&(vars->mpe->interpretNextPacket));

	push	0
	push	0
	push	4
	mov	edx, DWORD PTR _vars$[ebp]
	mov	eax, DWORD PTR [edx]
	add	eax, 620				; 0000026cH
	push	eax
	push	2
	push	1
	mov	ecx, DWORD PTR _vars$[ebp]
	mov	ecx, DWORD PTR [ecx+4]
	call	?X86Emit_MOVIM@NativeCodeCache@@QAEXHW4x86MemPtr@@IW4x86IndexReg@@W4x86ScaleVal@@H@Z ; NativeCodeCache::X86Emit_MOVIM

; 785  :   vars->codeCache->X86Emit_MOVIM(vars->pInstructionEntry->packet->pcexec, x86MemPtr_dword, (uint32)&(vars->mpe->pcexec));

	push	0
	push	0
	push	4
	mov	edx, DWORD PTR _vars$[ebp]
	mov	eax, DWORD PTR [edx]
	add	eax, 408				; 00000198H
	push	eax
	push	2
	mov	ecx, DWORD PTR _vars$[ebp]
	mov	edx, DWORD PTR [ecx+12]
	mov	eax, DWORD PTR [edx]
	mov	ecx, DWORD PTR [eax]
	push	ecx
	mov	edx, DWORD PTR _vars$[ebp]
	mov	ecx, DWORD PTR [edx+4]
	call	?X86Emit_MOVIM@NativeCodeCache@@QAEXHW4x86MemPtr@@IW4x86IndexReg@@W4x86ScaleVal@@H@Z ; NativeCodeCache::X86Emit_MOVIM

; 786  :   Emit_ExitBlock(vars);

	mov	eax, DWORD PTR _vars$[ebp]
	push	eax
	call	?Emit_ExitBlock@@YAXPAVEmitterVariables@@@Z ; Emit_ExitBlock
	add	esp, 4

; 787  :   vars->codeCache->patchMgr->SetLabelPointer(l_not_control_reg,vars->codeCache->GetEmitPointer());

	mov	ecx, DWORD PTR _vars$[ebp]
	mov	ecx, DWORD PTR [ecx+4]
	call	?GetEmitPointer@NativeCodeCache@@QAEPAEXZ ; NativeCodeCache::GetEmitPointer
	push	eax
	mov	edx, DWORD PTR _l_not_control_reg$[ebp]
	push	edx
	mov	eax, DWORD PTR _vars$[ebp]
	mov	ecx, DWORD PTR [eax+4]
	mov	ecx, DWORD PTR [ecx]
	call	?SetLabelPointer@PatchManager@@QAEXIPAE@Z ; PatchManager::SetLabelPointer

; 788  :   //vars->codeCache->X86Emit_MOVIR((uint32)(vars->mpe->dtrom), x86Reg_ebx);
; 789  :   //vars->codeCache->X86Emit_MOVIR((uint32)(nuonEnv->mainBusDRAM), x86Reg_ecx);
; 790  :   //vars->codeCache->X86Emit_MOVIR((uint32)(nuonEnv->systemBusDRAM), x86Reg_edx);
; 791  :   //vars->codeCache->X86Emit_MOVIR((uint32)(nuonEnv->flashEEPROM->GetBasePointer()), x86Reg_ebp);
; 792  :   //vars->codeCache->X86Emit_CMPIR(0x40000000, x86Reg_eax);
; 793  :   //vars->codeCache->X86Emit_CMOVNBRR(x86Reg_ebx, x86Reg_ecx);
; 794  :   //vars->codeCache->X86Emit_CMPIR(0x80000000, x86Reg_eax);
; 795  :   //vars->codeCache->X86Emit_CMOVNBRR(x86Reg_ebx, x86Reg_edx);
; 796  :   //vars->codeCache->X86Emit_CMPIR(0xF0000000, x86Reg_eax);
; 797  :   //vars->codeCache->X86Emit_CMOVNBRR(x86Reg_ebx, x86Reg_ebp);
; 798  : 
; 799  :   vars->codeCache->X86Emit_MOVRR(x86Reg_ebx, x86Reg_eax);

	push	16					; 00000010H
	push	19					; 00000013H
	mov	edx, DWORD PTR _vars$[ebp]
	mov	ecx, DWORD PTR [edx+4]
	call	?X86Emit_MOVRR@NativeCodeCache@@QAEXW4x86Reg@@0@Z ; NativeCodeCache::X86Emit_MOVRR

; 800  :   vars->codeCache->X86Emit_SHRIR(x86Reg_ebx,26);

	push	26					; 0000001aH
	push	19					; 00000013H
	mov	eax, DWORD PTR _vars$[ebp]
	mov	ecx, DWORD PTR [eax+4]
	call	?X86Emit_SHRIR@NativeCodeCache@@QAEXW4x86Reg@@E@Z ; NativeCodeCache::X86Emit_SHRIR

; 801  :   vars->codeCache->X86Emit_ANDIR(0x3C,x86Reg_ebx);

	push	19					; 00000013H
	push	60					; 0000003cH
	mov	ecx, DWORD PTR _vars$[ebp]
	mov	ecx, DWORD PTR [ecx+4]
	call	?X86Emit_ANDIR@NativeCodeCache@@QAEXHW4x86Reg@@@Z ; NativeCodeCache::X86Emit_ANDIR

; 802  :   vars->codeCache->X86Emit_MOVMR(x86Reg_ebx, x86BaseReg_ebx, x86IndexReg_none, x86Scale_1, (int32)vars->mpe->bankPtrTable);

	mov	edx, DWORD PTR _vars$[ebp]
	mov	eax, DWORD PTR [edx]
	add	eax, 688				; 000002b0H
	push	eax
	push	0
	push	4
	push	3
	push	19					; 00000013H
	mov	ecx, DWORD PTR _vars$[ebp]
	mov	ecx, DWORD PTR [ecx+4]
	call	?X86Emit_MOVMR@NativeCodeCache@@QAEXW4x86Reg@@IW4x86IndexReg@@W4x86ScaleVal@@H@Z ; NativeCodeCache::X86Emit_MOVMR

; 803  :   vars->codeCache->X86Emit_ANDIR(0x007FFFF0, x86Reg_eax);

	push	16					; 00000010H
	push	8388592					; 007ffff0H
	mov	edx, DWORD PTR _vars$[ebp]
	mov	ecx, DWORD PTR [edx+4]
	call	?X86Emit_ANDIR@NativeCodeCache@@QAEXHW4x86Reg@@@Z ; NativeCodeCache::X86Emit_ANDIR

; 804  :   vars->codeCache->X86Emit_MOVMR(x86Reg_ecx, x86BaseReg_eax, x86IndexReg_ebx, x86Scale_1, 0);

	push	0
	push	0
	push	3
	push	0
	push	17					; 00000011H
	mov	eax, DWORD PTR _vars$[ebp]
	mov	ecx, DWORD PTR [eax+4]
	call	?X86Emit_MOVMR@NativeCodeCache@@QAEXW4x86Reg@@IW4x86IndexReg@@W4x86ScaleVal@@H@Z ; NativeCodeCache::X86Emit_MOVMR

; 805  :   vars->codeCache->X86Emit_MOVMR(x86Reg_edx, x86BaseReg_eax, x86IndexReg_ebx, x86Scale_1, 4);

	push	4
	push	0
	push	3
	push	0
	push	18					; 00000012H
	mov	ecx, DWORD PTR _vars$[ebp]
	mov	ecx, DWORD PTR [ecx+4]
	call	?X86Emit_MOVMR@NativeCodeCache@@QAEXW4x86Reg@@IW4x86IndexReg@@W4x86ScaleVal@@H@Z ; NativeCodeCache::X86Emit_MOVMR

; 806  :   vars->codeCache->X86Emit_MOVMR(x86Reg_ebp, x86BaseReg_eax, x86IndexReg_ebx, x86Scale_1, 8);

	push	8
	push	0
	push	3
	push	0
	push	21					; 00000015H
	mov	edx, DWORD PTR _vars$[ebp]
	mov	ecx, DWORD PTR [edx+4]
	call	?X86Emit_MOVMR@NativeCodeCache@@QAEXW4x86Reg@@IW4x86IndexReg@@W4x86ScaleVal@@H@Z ; NativeCodeCache::X86Emit_MOVMR

; 807  :   vars->codeCache->X86Emit_BSWAP(x86Reg_ecx);

	push	17					; 00000011H
	mov	eax, DWORD PTR _vars$[ebp]
	mov	ecx, DWORD PTR [eax+4]
	call	?X86Emit_BSWAP@NativeCodeCache@@QAEXW4x86Reg@@@Z ; NativeCodeCache::X86Emit_BSWAP

; 808  :   vars->codeCache->X86Emit_BSWAP(x86Reg_edx);

	push	18					; 00000012H
	mov	ecx, DWORD PTR _vars$[ebp]
	mov	ecx, DWORD PTR [ecx+4]
	call	?X86Emit_BSWAP@NativeCodeCache@@QAEXW4x86Reg@@@Z ; NativeCodeCache::X86Emit_BSWAP

; 809  :   vars->codeCache->X86Emit_BSWAP(x86Reg_ebp);

	push	21					; 00000015H
	mov	edx, DWORD PTR _vars$[ebp]
	mov	ecx, DWORD PTR [edx+4]
	call	?X86Emit_BSWAP@NativeCodeCache@@QAEXW4x86Reg@@@Z ; NativeCodeCache::X86Emit_BSWAP

; 810  :   vars->codeCache->X86Emit_MOVRM(x86Reg_ecx, destRegWriteBaseReg, x86IndexReg_none, x86Scale_1, destRegDisp);

	mov	eax, DWORD PTR _destRegDisp$[ebp]
	push	eax
	push	0
	push	4
	mov	ecx, DWORD PTR _destRegWriteBaseReg$[ebp]
	push	ecx
	push	17					; 00000011H
	mov	edx, DWORD PTR _vars$[ebp]
	mov	ecx, DWORD PTR [edx+4]
	call	?X86Emit_MOVRM@NativeCodeCache@@QAEXW4x86Reg@@IW4x86IndexReg@@W4x86ScaleVal@@H@Z ; NativeCodeCache::X86Emit_MOVRM

; 811  :   vars->codeCache->X86Emit_MOVMR(x86Reg_ecx, x86BaseReg_eax, x86IndexReg_ebx, x86Scale_1, 12);

	push	12					; 0000000cH
	push	0
	push	3
	push	0
	push	17					; 00000011H
	mov	eax, DWORD PTR _vars$[ebp]
	mov	ecx, DWORD PTR [eax+4]
	call	?X86Emit_MOVMR@NativeCodeCache@@QAEXW4x86Reg@@IW4x86IndexReg@@W4x86ScaleVal@@H@Z ; NativeCodeCache::X86Emit_MOVMR

; 812  :   vars->codeCache->X86Emit_MOVRM(x86Reg_edx, destRegWriteBaseReg, x86IndexReg_none, x86Scale_1, destRegDisp+4);

	mov	ecx, DWORD PTR _destRegDisp$[ebp]
	add	ecx, 4
	push	ecx
	push	0
	push	4
	mov	edx, DWORD PTR _destRegWriteBaseReg$[ebp]
	push	edx
	push	18					; 00000012H
	mov	eax, DWORD PTR _vars$[ebp]
	mov	ecx, DWORD PTR [eax+4]
	call	?X86Emit_MOVRM@NativeCodeCache@@QAEXW4x86Reg@@IW4x86IndexReg@@W4x86ScaleVal@@H@Z ; NativeCodeCache::X86Emit_MOVRM

; 813  :   vars->codeCache->X86Emit_MOVRM(x86Reg_ebp, destRegWriteBaseReg, x86IndexReg_none, x86Scale_1, destRegDisp+8);

	mov	ecx, DWORD PTR _destRegDisp$[ebp]
	add	ecx, 8
	push	ecx
	push	0
	push	4
	mov	edx, DWORD PTR _destRegWriteBaseReg$[ebp]
	push	edx
	push	21					; 00000015H
	mov	eax, DWORD PTR _vars$[ebp]
	mov	ecx, DWORD PTR [eax+4]
	call	?X86Emit_MOVRM@NativeCodeCache@@QAEXW4x86Reg@@IW4x86IndexReg@@W4x86ScaleVal@@H@Z ; NativeCodeCache::X86Emit_MOVRM

; 814  :   vars->codeCache->X86Emit_BSWAP(x86Reg_ecx);

	push	17					; 00000011H
	mov	ecx, DWORD PTR _vars$[ebp]
	mov	ecx, DWORD PTR [ecx+4]
	call	?X86Emit_BSWAP@NativeCodeCache@@QAEXW4x86Reg@@@Z ; NativeCodeCache::X86Emit_BSWAP

; 815  :   vars->codeCache->X86Emit_MOVRM(x86Reg_ecx, destRegWriteBaseReg, x86IndexReg_none, x86Scale_1, destRegDisp+12);

	mov	edx, DWORD PTR _destRegDisp$[ebp]
	add	edx, 12					; 0000000cH
	push	edx
	push	0
	push	4
	mov	eax, DWORD PTR _destRegWriteBaseReg$[ebp]
	push	eax
	push	17					; 00000011H
	mov	ecx, DWORD PTR _vars$[ebp]
	mov	ecx, DWORD PTR [ecx+4]
	call	?X86Emit_MOVRM@NativeCodeCache@@QAEXW4x86Reg@@IW4x86IndexReg@@W4x86ScaleVal@@H@Z ; NativeCodeCache::X86Emit_MOVRM

; 816  : 
; 817  :   vars->patchMgr->ApplyPatches();

	mov	edx, DWORD PTR _vars$[ebp]
	mov	ecx, DWORD PTR [edx+8]
	call	?ApplyPatches@PatchManager@@QAEXXZ	; PatchManager::ApplyPatches

; 818  : }

	add	esp, 28					; 0000001cH
	cmp	ebp, esp
	call	__RTC_CheckEsp
	mov	esp, ebp
	pop	ebp
	ret	0
?Emit_LoadVectorLinear@@YAXPAVEmitterVariables@@AAVNuance@@@Z ENDP ; Emit_LoadVectorLinear
_TEXT	ENDS
PUBLIC	?Emit_LoadVectorBilinearXY@@YAXPAVEmitterVariables@@AAVNuance@@@Z ; Emit_LoadVectorBilinearXY
; Function compile flags: /Odtp /RTCsu
_TEXT	SEGMENT
_xyctlRegDisp$ = -36					; size = 4
_ryRegDisp$ = -32					; size = 4
_rxRegDisp$ = -28					; size = 4
_destRegDisp$ = -24					; size = 4
_destRegWriteBaseReg$ = -20				; size = 4
_xyctlRegReadBaseReg$ = -16				; size = 4
_ryRegReadBaseReg$ = -12				; size = 4
_rxRegReadBaseReg$ = -8					; size = 4
_destRegIndex$ = -4					; size = 4
_vars$ = 8						; size = 4
_nuance$ = 12						; size = 4
?Emit_LoadVectorBilinearXY@@YAXPAVEmitterVariables@@AAVNuance@@@Z PROC ; Emit_LoadVectorBilinearXY

; 821  : {

	push	ebp
	mov	ebp, esp
	sub	esp, 36					; 00000024H
	mov	eax, -858993460				; ccccccccH
	mov	DWORD PTR [ebp-36], eax
	mov	DWORD PTR [ebp-32], eax
	mov	DWORD PTR [ebp-28], eax
	mov	DWORD PTR [ebp-24], eax
	mov	DWORD PTR [ebp-20], eax
	mov	DWORD PTR [ebp-16], eax
	mov	DWORD PTR [ebp-12], eax
	mov	DWORD PTR [ebp-8], eax
	mov	DWORD PTR [ebp-4], eax

; 822  :   uint32 destRegIndex = nuance.fields[FIELD_MEM_TO];

	mov	eax, DWORD PTR _nuance$[ebp]
	mov	ecx, DWORD PTR [eax+8]
	mov	DWORD PTR _destRegIndex$[ebp], ecx

; 823  :   x86BaseReg rxRegReadBaseReg = GetMiscRegReadBaseReg(vars,REGINDEX_RX);

	push	3
	mov	edx, DWORD PTR _vars$[ebp]
	push	edx
	call	?GetMiscRegReadBaseReg@@YA?AW4x86BaseReg@@PAVEmitterVariables@@I@Z ; GetMiscRegReadBaseReg
	add	esp, 8
	mov	DWORD PTR _rxRegReadBaseReg$[ebp], eax

; 824  :   x86BaseReg ryRegReadBaseReg = GetMiscRegReadBaseReg(vars,REGINDEX_RY);

	push	4
	mov	eax, DWORD PTR _vars$[ebp]
	push	eax
	call	?GetMiscRegReadBaseReg@@YA?AW4x86BaseReg@@PAVEmitterVariables@@I@Z ; GetMiscRegReadBaseReg
	add	esp, 8
	mov	DWORD PTR _ryRegReadBaseReg$[ebp], eax

; 825  :   x86BaseReg xyctlRegReadBaseReg = GetMiscRegReadBaseReg(vars,REGINDEX_XYCTL);

	push	10					; 0000000aH
	mov	ecx, DWORD PTR _vars$[ebp]
	push	ecx
	call	?GetMiscRegReadBaseReg@@YA?AW4x86BaseReg@@PAVEmitterVariables@@I@Z ; GetMiscRegReadBaseReg
	add	esp, 8
	mov	DWORD PTR _xyctlRegReadBaseReg$[ebp], eax

; 826  :   x86BaseReg destRegWriteBaseReg = GetScalarRegWriteBaseReg(vars,destRegIndex);

	mov	edx, DWORD PTR _destRegIndex$[ebp]
	push	edx
	mov	eax, DWORD PTR _vars$[ebp]
	push	eax
	call	?GetScalarRegWriteBaseReg@@YA?AW4x86BaseReg@@PAVEmitterVariables@@I@Z ; GetScalarRegWriteBaseReg
	add	esp, 8
	mov	DWORD PTR _destRegWriteBaseReg$[ebp], eax

; 827  :   int32 destRegDisp = GetScalarRegEmitDisp(vars,destRegIndex);

	mov	ecx, DWORD PTR _destRegIndex$[ebp]
	push	ecx
	mov	edx, DWORD PTR _vars$[ebp]
	push	edx
	call	?GetScalarRegEmitDisp@@YAHPAVEmitterVariables@@I@Z ; GetScalarRegEmitDisp
	add	esp, 8
	mov	DWORD PTR _destRegDisp$[ebp], eax

; 828  :   int32 rxRegDisp = GetMiscRegEmitDisp(vars,REGINDEX_RX);

	push	3
	mov	eax, DWORD PTR _vars$[ebp]
	push	eax
	call	?GetMiscRegEmitDisp@@YAHPAVEmitterVariables@@I@Z ; GetMiscRegEmitDisp
	add	esp, 8
	mov	DWORD PTR _rxRegDisp$[ebp], eax

; 829  :   int32 ryRegDisp = GetMiscRegEmitDisp(vars,REGINDEX_RY);

	push	4
	mov	ecx, DWORD PTR _vars$[ebp]
	push	ecx
	call	?GetMiscRegEmitDisp@@YAHPAVEmitterVariables@@I@Z ; GetMiscRegEmitDisp
	add	esp, 8
	mov	DWORD PTR _ryRegDisp$[ebp], eax

; 830  :   int32 xyctlRegDisp = GetMiscRegEmitDisp(vars,REGINDEX_XYCTL);

	push	10					; 0000000aH
	mov	edx, DWORD PTR _vars$[ebp]
	push	edx
	call	?GetMiscRegEmitDisp@@YAHPAVEmitterVariables@@I@Z ; GetMiscRegEmitDisp
	add	esp, 8
	mov	DWORD PTR _xyctlRegDisp$[ebp], eax

; 831  : 
; 832  :   vars->codeCache->X86Emit_MOVMR(x86Reg_eax, rxRegReadBaseReg, x86IndexReg_none, x86Scale_1, rxRegDisp);

	mov	eax, DWORD PTR _rxRegDisp$[ebp]
	push	eax
	push	0
	push	4
	mov	ecx, DWORD PTR _rxRegReadBaseReg$[ebp]
	push	ecx
	push	16					; 00000010H
	mov	edx, DWORD PTR _vars$[ebp]
	mov	ecx, DWORD PTR [edx+4]
	call	?X86Emit_MOVMR@NativeCodeCache@@QAEXW4x86Reg@@IW4x86IndexReg@@W4x86ScaleVal@@H@Z ; NativeCodeCache::X86Emit_MOVMR

; 833  :   vars->codeCache->X86Emit_MOVMR(x86Reg_ebx, ryRegReadBaseReg, x86IndexReg_none, x86Scale_1, ryRegDisp);

	mov	eax, DWORD PTR _ryRegDisp$[ebp]
	push	eax
	push	0
	push	4
	mov	ecx, DWORD PTR _ryRegReadBaseReg$[ebp]
	push	ecx
	push	19					; 00000013H
	mov	edx, DWORD PTR _vars$[ebp]
	mov	ecx, DWORD PTR [edx+4]
	call	?X86Emit_MOVMR@NativeCodeCache@@QAEXW4x86Reg@@IW4x86IndexReg@@W4x86ScaleVal@@H@Z ; NativeCodeCache::X86Emit_MOVMR

; 834  :   vars->codeCache->X86Emit_MOVMR(x86Reg_ecx, xyctlRegReadBaseReg, x86IndexReg_none, x86Scale_1, xyctlRegDisp);

	mov	eax, DWORD PTR _xyctlRegDisp$[ebp]
	push	eax
	push	0
	push	4
	mov	ecx, DWORD PTR _xyctlRegReadBaseReg$[ebp]
	push	ecx
	push	17					; 00000011H
	mov	edx, DWORD PTR _vars$[ebp]
	mov	ecx, DWORD PTR [edx+4]
	call	?X86Emit_MOVMR@NativeCodeCache@@QAEXW4x86Reg@@IW4x86IndexReg@@W4x86ScaleVal@@H@Z ; NativeCodeCache::X86Emit_MOVMR

; 835  :   vars->codeCache->X86Emit_MOVMR(x86Reg_ebp, (uint32)&vars->mpe->xybase);

	push	0
	push	0
	push	4
	mov	eax, DWORD PTR _vars$[ebp]
	mov	ecx, DWORD PTR [eax]
	add	ecx, 448				; 000001c0H
	push	ecx
	push	21					; 00000015H
	mov	edx, DWORD PTR _vars$[ebp]
	mov	ecx, DWORD PTR [edx+4]
	call	?X86Emit_MOVMR@NativeCodeCache@@QAEXW4x86Reg@@IW4x86IndexReg@@W4x86ScaleVal@@H@Z ; NativeCodeCache::X86Emit_MOVMR

; 836  :   vars->codeCache->X86Emit_MOVRM(x86Reg_eax, (uint32)&bilinearAddressInfo.x);

	push	0
	push	0
	push	4
	push	OFFSET ?bilinearAddressInfo@@3UstructBilinearAddressInfo@@A+28
	push	16					; 00000010H
	mov	eax, DWORD PTR _vars$[ebp]
	mov	ecx, DWORD PTR [eax+4]
	call	?X86Emit_MOVRM@NativeCodeCache@@QAEXW4x86Reg@@IW4x86IndexReg@@W4x86ScaleVal@@H@Z ; NativeCodeCache::X86Emit_MOVRM

; 837  :   vars->codeCache->X86Emit_MOVRM(x86Reg_ebx, (uint32)&bilinearAddressInfo.y);

	push	0
	push	0
	push	4
	push	OFFSET ?bilinearAddressInfo@@3UstructBilinearAddressInfo@@A+32
	push	19					; 00000013H
	mov	ecx, DWORD PTR _vars$[ebp]
	mov	ecx, DWORD PTR [ecx+4]
	call	?X86Emit_MOVRM@NativeCodeCache@@QAEXW4x86Reg@@IW4x86IndexReg@@W4x86ScaleVal@@H@Z ; NativeCodeCache::X86Emit_MOVRM

; 838  :   vars->codeCache->X86Emit_MOVRM(x86Reg_ecx, (uint32)&bilinearAddressInfo.control);

	push	0
	push	0
	push	4
	push	OFFSET ?bilinearAddressInfo@@3UstructBilinearAddressInfo@@A+24
	push	17					; 00000011H
	mov	edx, DWORD PTR _vars$[ebp]
	mov	ecx, DWORD PTR [edx+4]
	call	?X86Emit_MOVRM@NativeCodeCache@@QAEXW4x86Reg@@IW4x86IndexReg@@W4x86ScaleVal@@H@Z ; NativeCodeCache::X86Emit_MOVRM

; 839  :   vars->codeCache->X86Emit_MOVRM(x86Reg_ebp, (uint32)&bilinearAddressInfo.base);

	push	0
	push	0
	push	4
	push	OFFSET ?bilinearAddressInfo@@3UstructBilinearAddressInfo@@A+20
	push	21					; 00000015H
	mov	eax, DWORD PTR _vars$[ebp]
	mov	ecx, DWORD PTR [eax+4]
	call	?X86Emit_MOVRM@NativeCodeCache@@QAEXW4x86Reg@@IW4x86IndexReg@@W4x86ScaleVal@@H@Z ; NativeCodeCache::X86Emit_MOVRM

; 840  :   vars->codeCache->X86Emit_CALLI((uint32)GetBilinearAddress,0);

	push	0
	push	OFFSET ?GetBilinearAddress@@YAXXZ	; GetBilinearAddress
	mov	ecx, DWORD PTR _vars$[ebp]
	mov	ecx, DWORD PTR [ecx+4]
	call	?X86Emit_CALLI@NativeCodeCache@@QAEXIG@Z ; NativeCodeCache::X86Emit_CALLI

; 841  :   vars->codeCache->X86Emit_MOVMR(x86Reg_eax, (uint32)&bilinearAddressInfo.offset_address);

	push	0
	push	0
	push	4
	push	OFFSET ?bilinearAddressInfo@@3UstructBilinearAddressInfo@@A+40
	push	16					; 00000010H
	mov	edx, DWORD PTR _vars$[ebp]
	mov	ecx, DWORD PTR [edx+4]
	call	?X86Emit_MOVMR@NativeCodeCache@@QAEXW4x86Reg@@IW4x86IndexReg@@W4x86ScaleVal@@H@Z ; NativeCodeCache::X86Emit_MOVMR

; 842  : 
; 843  :   //vars->codeCache->X86Emit_MOVIR((uint32)(vars->mpe->dtrom), x86Reg_ebx);
; 844  :   //vars->codeCache->X86Emit_MOVIR((uint32)(nuonEnv->mainBusDRAM), x86Reg_ecx);
; 845  :   //vars->codeCache->X86Emit_MOVIR((uint32)(nuonEnv->systemBusDRAM), x86Reg_edx);
; 846  :   //vars->codeCache->X86Emit_MOVIR((uint32)(nuonEnv->flashEEPROM->GetBasePointer()), x86Reg_ebp);
; 847  :   //vars->codeCache->X86Emit_CMPIR(0x40000000, x86Reg_eax);
; 848  :   //vars->codeCache->X86Emit_CMOVNBRR(x86Reg_ebx, x86Reg_ecx);
; 849  :   //vars->codeCache->X86Emit_CMPIR(0x80000000, x86Reg_eax);
; 850  :   //vars->codeCache->X86Emit_CMOVNBRR(x86Reg_ebx, x86Reg_edx);
; 851  :   //vars->codeCache->X86Emit_CMPIR(0xF0000000, x86Reg_eax);
; 852  :   //vars->codeCache->X86Emit_CMOVNBRR(x86Reg_ebx, x86Reg_ebp);
; 853  :   vars->codeCache->X86Emit_MOVRR(x86Reg_ebx, x86Reg_eax);

	push	16					; 00000010H
	push	19					; 00000013H
	mov	eax, DWORD PTR _vars$[ebp]
	mov	ecx, DWORD PTR [eax+4]
	call	?X86Emit_MOVRR@NativeCodeCache@@QAEXW4x86Reg@@0@Z ; NativeCodeCache::X86Emit_MOVRR

; 854  :   vars->codeCache->X86Emit_SHRIR(x86Reg_ebx,26);

	push	26					; 0000001aH
	push	19					; 00000013H
	mov	ecx, DWORD PTR _vars$[ebp]
	mov	ecx, DWORD PTR [ecx+4]
	call	?X86Emit_SHRIR@NativeCodeCache@@QAEXW4x86Reg@@E@Z ; NativeCodeCache::X86Emit_SHRIR

; 855  :   vars->codeCache->X86Emit_ANDIR(0x3C,x86Reg_ebx);

	push	19					; 00000013H
	push	60					; 0000003cH
	mov	edx, DWORD PTR _vars$[ebp]
	mov	ecx, DWORD PTR [edx+4]
	call	?X86Emit_ANDIR@NativeCodeCache@@QAEXHW4x86Reg@@@Z ; NativeCodeCache::X86Emit_ANDIR

; 856  :   vars->codeCache->X86Emit_MOVMR(x86Reg_ebx, x86BaseReg_ebx, x86IndexReg_none, x86Scale_1, (int32)vars->mpe->bankPtrTable);

	mov	eax, DWORD PTR _vars$[ebp]
	mov	ecx, DWORD PTR [eax]
	add	ecx, 688				; 000002b0H
	push	ecx
	push	0
	push	4
	push	3
	push	19					; 00000013H
	mov	edx, DWORD PTR _vars$[ebp]
	mov	ecx, DWORD PTR [edx+4]
	call	?X86Emit_MOVMR@NativeCodeCache@@QAEXW4x86Reg@@IW4x86IndexReg@@W4x86ScaleVal@@H@Z ; NativeCodeCache::X86Emit_MOVMR

; 857  : 
; 858  :   vars->codeCache->X86Emit_ANDIR(0x007FFFFF, x86Reg_eax);

	push	16					; 00000010H
	push	8388607					; 007fffffH
	mov	eax, DWORD PTR _vars$[ebp]
	mov	ecx, DWORD PTR [eax+4]
	call	?X86Emit_ANDIR@NativeCodeCache@@QAEXHW4x86Reg@@@Z ; NativeCodeCache::X86Emit_ANDIR

; 859  :   vars->codeCache->X86Emit_MOVMR(x86Reg_ecx, x86BaseReg_eax, x86IndexReg_ebx, x86Scale_1, 0);

	push	0
	push	0
	push	3
	push	0
	push	17					; 00000011H
	mov	ecx, DWORD PTR _vars$[ebp]
	mov	ecx, DWORD PTR [ecx+4]
	call	?X86Emit_MOVMR@NativeCodeCache@@QAEXW4x86Reg@@IW4x86IndexReg@@W4x86ScaleVal@@H@Z ; NativeCodeCache::X86Emit_MOVMR

; 860  :   vars->codeCache->X86Emit_MOVMR(x86Reg_edx, x86BaseReg_eax, x86IndexReg_ebx, x86Scale_1, 4);

	push	4
	push	0
	push	3
	push	0
	push	18					; 00000012H
	mov	edx, DWORD PTR _vars$[ebp]
	mov	ecx, DWORD PTR [edx+4]
	call	?X86Emit_MOVMR@NativeCodeCache@@QAEXW4x86Reg@@IW4x86IndexReg@@W4x86ScaleVal@@H@Z ; NativeCodeCache::X86Emit_MOVMR

; 861  :   vars->codeCache->X86Emit_MOVMR(x86Reg_ebp, x86BaseReg_eax, x86IndexReg_ebx, x86Scale_1, 8);

	push	8
	push	0
	push	3
	push	0
	push	21					; 00000015H
	mov	eax, DWORD PTR _vars$[ebp]
	mov	ecx, DWORD PTR [eax+4]
	call	?X86Emit_MOVMR@NativeCodeCache@@QAEXW4x86Reg@@IW4x86IndexReg@@W4x86ScaleVal@@H@Z ; NativeCodeCache::X86Emit_MOVMR

; 862  :   vars->codeCache->X86Emit_BSWAP(x86Reg_ecx);

	push	17					; 00000011H
	mov	ecx, DWORD PTR _vars$[ebp]
	mov	ecx, DWORD PTR [ecx+4]
	call	?X86Emit_BSWAP@NativeCodeCache@@QAEXW4x86Reg@@@Z ; NativeCodeCache::X86Emit_BSWAP

; 863  :   vars->codeCache->X86Emit_BSWAP(x86Reg_edx);

	push	18					; 00000012H
	mov	edx, DWORD PTR _vars$[ebp]
	mov	ecx, DWORD PTR [edx+4]
	call	?X86Emit_BSWAP@NativeCodeCache@@QAEXW4x86Reg@@@Z ; NativeCodeCache::X86Emit_BSWAP

; 864  :   vars->codeCache->X86Emit_BSWAP(x86Reg_ebp);

	push	21					; 00000015H
	mov	eax, DWORD PTR _vars$[ebp]
	mov	ecx, DWORD PTR [eax+4]
	call	?X86Emit_BSWAP@NativeCodeCache@@QAEXW4x86Reg@@@Z ; NativeCodeCache::X86Emit_BSWAP

; 865  :   vars->codeCache->X86Emit_MOVRM(x86Reg_ecx, destRegWriteBaseReg, x86IndexReg_none, x86Scale_1, destRegDisp);

	mov	ecx, DWORD PTR _destRegDisp$[ebp]
	push	ecx
	push	0
	push	4
	mov	edx, DWORD PTR _destRegWriteBaseReg$[ebp]
	push	edx
	push	17					; 00000011H
	mov	eax, DWORD PTR _vars$[ebp]
	mov	ecx, DWORD PTR [eax+4]
	call	?X86Emit_MOVRM@NativeCodeCache@@QAEXW4x86Reg@@IW4x86IndexReg@@W4x86ScaleVal@@H@Z ; NativeCodeCache::X86Emit_MOVRM

; 866  :   vars->codeCache->X86Emit_MOVMR(x86Reg_ecx, x86BaseReg_eax, x86IndexReg_ebx, x86Scale_1, 12);

	push	12					; 0000000cH
	push	0
	push	3
	push	0
	push	17					; 00000011H
	mov	ecx, DWORD PTR _vars$[ebp]
	mov	ecx, DWORD PTR [ecx+4]
	call	?X86Emit_MOVMR@NativeCodeCache@@QAEXW4x86Reg@@IW4x86IndexReg@@W4x86ScaleVal@@H@Z ; NativeCodeCache::X86Emit_MOVMR

; 867  :   vars->codeCache->X86Emit_MOVRM(x86Reg_edx, destRegWriteBaseReg, x86IndexReg_none, x86Scale_1, destRegDisp+4);

	mov	edx, DWORD PTR _destRegDisp$[ebp]
	add	edx, 4
	push	edx
	push	0
	push	4
	mov	eax, DWORD PTR _destRegWriteBaseReg$[ebp]
	push	eax
	push	18					; 00000012H
	mov	ecx, DWORD PTR _vars$[ebp]
	mov	ecx, DWORD PTR [ecx+4]
	call	?X86Emit_MOVRM@NativeCodeCache@@QAEXW4x86Reg@@IW4x86IndexReg@@W4x86ScaleVal@@H@Z ; NativeCodeCache::X86Emit_MOVRM

; 868  :   vars->codeCache->X86Emit_MOVRM(x86Reg_ebp, destRegWriteBaseReg, x86IndexReg_none, x86Scale_1, destRegDisp+8);

	mov	edx, DWORD PTR _destRegDisp$[ebp]
	add	edx, 8
	push	edx
	push	0
	push	4
	mov	eax, DWORD PTR _destRegWriteBaseReg$[ebp]
	push	eax
	push	21					; 00000015H
	mov	ecx, DWORD PTR _vars$[ebp]
	mov	ecx, DWORD PTR [ecx+4]
	call	?X86Emit_MOVRM@NativeCodeCache@@QAEXW4x86Reg@@IW4x86IndexReg@@W4x86ScaleVal@@H@Z ; NativeCodeCache::X86Emit_MOVRM

; 869  :   vars->codeCache->X86Emit_BSWAP(x86Reg_ecx);

	push	17					; 00000011H
	mov	edx, DWORD PTR _vars$[ebp]
	mov	ecx, DWORD PTR [edx+4]
	call	?X86Emit_BSWAP@NativeCodeCache@@QAEXW4x86Reg@@@Z ; NativeCodeCache::X86Emit_BSWAP

; 870  :   vars->codeCache->X86Emit_MOVRM(x86Reg_ecx, destRegWriteBaseReg, x86IndexReg_none, x86Scale_1, destRegDisp+12);

	mov	eax, DWORD PTR _destRegDisp$[ebp]
	add	eax, 12					; 0000000cH
	push	eax
	push	0
	push	4
	mov	ecx, DWORD PTR _destRegWriteBaseReg$[ebp]
	push	ecx
	push	17					; 00000011H
	mov	edx, DWORD PTR _vars$[ebp]
	mov	ecx, DWORD PTR [edx+4]
	call	?X86Emit_MOVRM@NativeCodeCache@@QAEXW4x86Reg@@IW4x86IndexReg@@W4x86ScaleVal@@H@Z ; NativeCodeCache::X86Emit_MOVRM

; 871  : }

	add	esp, 36					; 00000024H
	cmp	ebp, esp
	call	__RTC_CheckEsp
	mov	esp, ebp
	pop	ebp
	ret	0
?Emit_LoadVectorBilinearXY@@YAXPAVEmitterVariables@@AAVNuance@@@Z ENDP ; Emit_LoadVectorBilinearXY
_TEXT	ENDS
PUBLIC	?Emit_LoadVectorBilinearUV@@YAXPAVEmitterVariables@@AAVNuance@@@Z ; Emit_LoadVectorBilinearUV
; Function compile flags: /Odtp /RTCsu
_TEXT	SEGMENT
_uvctlRegDisp$ = -36					; size = 4
_rvRegDisp$ = -32					; size = 4
_ruRegDisp$ = -28					; size = 4
_destRegDisp$ = -24					; size = 4
_destRegWriteBaseReg$ = -20				; size = 4
_uvctlRegReadBaseReg$ = -16				; size = 4
_rvRegReadBaseReg$ = -12				; size = 4
_ruRegReadBaseReg$ = -8					; size = 4
_destRegIndex$ = -4					; size = 4
_vars$ = 8						; size = 4
_nuance$ = 12						; size = 4
?Emit_LoadVectorBilinearUV@@YAXPAVEmitterVariables@@AAVNuance@@@Z PROC ; Emit_LoadVectorBilinearUV

; 874  : {

	push	ebp
	mov	ebp, esp
	sub	esp, 36					; 00000024H
	mov	eax, -858993460				; ccccccccH
	mov	DWORD PTR [ebp-36], eax
	mov	DWORD PTR [ebp-32], eax
	mov	DWORD PTR [ebp-28], eax
	mov	DWORD PTR [ebp-24], eax
	mov	DWORD PTR [ebp-20], eax
	mov	DWORD PTR [ebp-16], eax
	mov	DWORD PTR [ebp-12], eax
	mov	DWORD PTR [ebp-8], eax
	mov	DWORD PTR [ebp-4], eax

; 875  :   uint32 destRegIndex = nuance.fields[FIELD_MEM_TO];

	mov	eax, DWORD PTR _nuance$[ebp]
	mov	ecx, DWORD PTR [eax+8]
	mov	DWORD PTR _destRegIndex$[ebp], ecx

; 876  :   x86BaseReg ruRegReadBaseReg = GetMiscRegReadBaseReg(vars,REGINDEX_RU);

	push	5
	mov	edx, DWORD PTR _vars$[ebp]
	push	edx
	call	?GetMiscRegReadBaseReg@@YA?AW4x86BaseReg@@PAVEmitterVariables@@I@Z ; GetMiscRegReadBaseReg
	add	esp, 8
	mov	DWORD PTR _ruRegReadBaseReg$[ebp], eax

; 877  :   x86BaseReg rvRegReadBaseReg = GetMiscRegReadBaseReg(vars,REGINDEX_RV);

	push	6
	mov	eax, DWORD PTR _vars$[ebp]
	push	eax
	call	?GetMiscRegReadBaseReg@@YA?AW4x86BaseReg@@PAVEmitterVariables@@I@Z ; GetMiscRegReadBaseReg
	add	esp, 8
	mov	DWORD PTR _rvRegReadBaseReg$[ebp], eax

; 878  :   x86BaseReg uvctlRegReadBaseReg = GetMiscRegReadBaseReg(vars,REGINDEX_UVCTL);

	push	11					; 0000000bH
	mov	ecx, DWORD PTR _vars$[ebp]
	push	ecx
	call	?GetMiscRegReadBaseReg@@YA?AW4x86BaseReg@@PAVEmitterVariables@@I@Z ; GetMiscRegReadBaseReg
	add	esp, 8
	mov	DWORD PTR _uvctlRegReadBaseReg$[ebp], eax

; 879  :   x86BaseReg destRegWriteBaseReg = GetScalarRegWriteBaseReg(vars,destRegIndex);

	mov	edx, DWORD PTR _destRegIndex$[ebp]
	push	edx
	mov	eax, DWORD PTR _vars$[ebp]
	push	eax
	call	?GetScalarRegWriteBaseReg@@YA?AW4x86BaseReg@@PAVEmitterVariables@@I@Z ; GetScalarRegWriteBaseReg
	add	esp, 8
	mov	DWORD PTR _destRegWriteBaseReg$[ebp], eax

; 880  :   int32 destRegDisp = GetScalarRegEmitDisp(vars,destRegIndex);

	mov	ecx, DWORD PTR _destRegIndex$[ebp]
	push	ecx
	mov	edx, DWORD PTR _vars$[ebp]
	push	edx
	call	?GetScalarRegEmitDisp@@YAHPAVEmitterVariables@@I@Z ; GetScalarRegEmitDisp
	add	esp, 8
	mov	DWORD PTR _destRegDisp$[ebp], eax

; 881  :   int32 ruRegDisp = GetMiscRegEmitDisp(vars,REGINDEX_RU);

	push	5
	mov	eax, DWORD PTR _vars$[ebp]
	push	eax
	call	?GetMiscRegEmitDisp@@YAHPAVEmitterVariables@@I@Z ; GetMiscRegEmitDisp
	add	esp, 8
	mov	DWORD PTR _ruRegDisp$[ebp], eax

; 882  :   int32 rvRegDisp = GetMiscRegEmitDisp(vars,REGINDEX_RV);

	push	6
	mov	ecx, DWORD PTR _vars$[ebp]
	push	ecx
	call	?GetMiscRegEmitDisp@@YAHPAVEmitterVariables@@I@Z ; GetMiscRegEmitDisp
	add	esp, 8
	mov	DWORD PTR _rvRegDisp$[ebp], eax

; 883  :   int32 uvctlRegDisp = GetMiscRegEmitDisp(vars,REGINDEX_UVCTL);

	push	11					; 0000000bH
	mov	edx, DWORD PTR _vars$[ebp]
	push	edx
	call	?GetMiscRegEmitDisp@@YAHPAVEmitterVariables@@I@Z ; GetMiscRegEmitDisp
	add	esp, 8
	mov	DWORD PTR _uvctlRegDisp$[ebp], eax

; 884  : 
; 885  :   vars->codeCache->X86Emit_MOVMR(x86Reg_eax, ruRegReadBaseReg, x86IndexReg_none, x86Scale_1, ruRegDisp);

	mov	eax, DWORD PTR _ruRegDisp$[ebp]
	push	eax
	push	0
	push	4
	mov	ecx, DWORD PTR _ruRegReadBaseReg$[ebp]
	push	ecx
	push	16					; 00000010H
	mov	edx, DWORD PTR _vars$[ebp]
	mov	ecx, DWORD PTR [edx+4]
	call	?X86Emit_MOVMR@NativeCodeCache@@QAEXW4x86Reg@@IW4x86IndexReg@@W4x86ScaleVal@@H@Z ; NativeCodeCache::X86Emit_MOVMR

; 886  :   vars->codeCache->X86Emit_MOVMR(x86Reg_ebx, rvRegReadBaseReg, x86IndexReg_none, x86Scale_1, rvRegDisp);

	mov	eax, DWORD PTR _rvRegDisp$[ebp]
	push	eax
	push	0
	push	4
	mov	ecx, DWORD PTR _rvRegReadBaseReg$[ebp]
	push	ecx
	push	19					; 00000013H
	mov	edx, DWORD PTR _vars$[ebp]
	mov	ecx, DWORD PTR [edx+4]
	call	?X86Emit_MOVMR@NativeCodeCache@@QAEXW4x86Reg@@IW4x86IndexReg@@W4x86ScaleVal@@H@Z ; NativeCodeCache::X86Emit_MOVMR

; 887  :   vars->codeCache->X86Emit_MOVMR(x86Reg_ecx, uvctlRegReadBaseReg, x86IndexReg_none, x86Scale_1, uvctlRegDisp);

	mov	eax, DWORD PTR _uvctlRegDisp$[ebp]
	push	eax
	push	0
	push	4
	mov	ecx, DWORD PTR _uvctlRegReadBaseReg$[ebp]
	push	ecx
	push	17					; 00000011H
	mov	edx, DWORD PTR _vars$[ebp]
	mov	ecx, DWORD PTR [edx+4]
	call	?X86Emit_MOVMR@NativeCodeCache@@QAEXW4x86Reg@@IW4x86IndexReg@@W4x86ScaleVal@@H@Z ; NativeCodeCache::X86Emit_MOVMR

; 888  :   vars->codeCache->X86Emit_MOVMR(x86Reg_ebp, (uint32)&vars->mpe->uvbase);

	push	0
	push	0
	push	4
	mov	eax, DWORD PTR _vars$[ebp]
	mov	ecx, DWORD PTR [eax]
	add	ecx, 452				; 000001c4H
	push	ecx
	push	21					; 00000015H
	mov	edx, DWORD PTR _vars$[ebp]
	mov	ecx, DWORD PTR [edx+4]
	call	?X86Emit_MOVMR@NativeCodeCache@@QAEXW4x86Reg@@IW4x86IndexReg@@W4x86ScaleVal@@H@Z ; NativeCodeCache::X86Emit_MOVMR

; 889  :   vars->codeCache->X86Emit_MOVRM(x86Reg_eax, (uint32)&bilinearAddressInfo.x);

	push	0
	push	0
	push	4
	push	OFFSET ?bilinearAddressInfo@@3UstructBilinearAddressInfo@@A+28
	push	16					; 00000010H
	mov	eax, DWORD PTR _vars$[ebp]
	mov	ecx, DWORD PTR [eax+4]
	call	?X86Emit_MOVRM@NativeCodeCache@@QAEXW4x86Reg@@IW4x86IndexReg@@W4x86ScaleVal@@H@Z ; NativeCodeCache::X86Emit_MOVRM

; 890  :   vars->codeCache->X86Emit_MOVRM(x86Reg_ebx, (uint32)&bilinearAddressInfo.y);

	push	0
	push	0
	push	4
	push	OFFSET ?bilinearAddressInfo@@3UstructBilinearAddressInfo@@A+32
	push	19					; 00000013H
	mov	ecx, DWORD PTR _vars$[ebp]
	mov	ecx, DWORD PTR [ecx+4]
	call	?X86Emit_MOVRM@NativeCodeCache@@QAEXW4x86Reg@@IW4x86IndexReg@@W4x86ScaleVal@@H@Z ; NativeCodeCache::X86Emit_MOVRM

; 891  :   vars->codeCache->X86Emit_MOVRM(x86Reg_ecx, (uint32)&bilinearAddressInfo.control);

	push	0
	push	0
	push	4
	push	OFFSET ?bilinearAddressInfo@@3UstructBilinearAddressInfo@@A+24
	push	17					; 00000011H
	mov	edx, DWORD PTR _vars$[ebp]
	mov	ecx, DWORD PTR [edx+4]
	call	?X86Emit_MOVRM@NativeCodeCache@@QAEXW4x86Reg@@IW4x86IndexReg@@W4x86ScaleVal@@H@Z ; NativeCodeCache::X86Emit_MOVRM

; 892  :   vars->codeCache->X86Emit_MOVRM(x86Reg_ebp, (uint32)&bilinearAddressInfo.base);

	push	0
	push	0
	push	4
	push	OFFSET ?bilinearAddressInfo@@3UstructBilinearAddressInfo@@A+20
	push	21					; 00000015H
	mov	eax, DWORD PTR _vars$[ebp]
	mov	ecx, DWORD PTR [eax+4]
	call	?X86Emit_MOVRM@NativeCodeCache@@QAEXW4x86Reg@@IW4x86IndexReg@@W4x86ScaleVal@@H@Z ; NativeCodeCache::X86Emit_MOVRM

; 893  :   vars->codeCache->X86Emit_CALLI((uint32)GetBilinearAddress,0);

	push	0
	push	OFFSET ?GetBilinearAddress@@YAXXZ	; GetBilinearAddress
	mov	ecx, DWORD PTR _vars$[ebp]
	mov	ecx, DWORD PTR [ecx+4]
	call	?X86Emit_CALLI@NativeCodeCache@@QAEXIG@Z ; NativeCodeCache::X86Emit_CALLI

; 894  :   vars->codeCache->X86Emit_MOVMR(x86Reg_eax, (uint32)&bilinearAddressInfo.offset_address);

	push	0
	push	0
	push	4
