; Listing generated by Microsoft (R) Optimizing Compiler Version 14.00.50727.762 

	TITLE	c:\NuanceExperimental\MemoryManager.cpp
	.686P
	.XMM
	include listing.inc
	.model	flat

INCLUDELIB LIBCMTD
INCLUDELIB OLDNAMES

_DATA	SEGMENT
__bad_alloc_Message DD FLAT:$SG10083
_DATA	ENDS
CONST	SEGMENT
$SG10083 DB	'bad allocation', 00H
CONST	ENDS
PUBLIC	??1?$vector@VFreeMemoryBlock@@V?$allocator@VFreeMemoryBlock@@@std@@@std@@QAE@XZ ; std::vector<FreeMemoryBlock,std::allocator<FreeMemoryBlock> >::~vector<FreeMemoryBlock,std::allocator<FreeMemoryBlock> >
PUBLIC	??0?$vector@VAllocatedMemoryBlock@@V?$allocator@VAllocatedMemoryBlock@@@std@@@std@@QAE@XZ ; std::vector<AllocatedMemoryBlock,std::allocator<AllocatedMemoryBlock> >::vector<AllocatedMemoryBlock,std::allocator<AllocatedMemoryBlock> >
PUBLIC	??0?$vector@VFreeMemoryBlock@@V?$allocator@VFreeMemoryBlock@@@std@@@std@@QAE@XZ ; std::vector<FreeMemoryBlock,std::allocator<FreeMemoryBlock> >::vector<FreeMemoryBlock,std::allocator<FreeMemoryBlock> >
PUBLIC	??0MemoryManager@@QAE@II@Z			; MemoryManager::MemoryManager
EXTRN	___CxxFrameHandler3:PROC
EXTRN	__RTC_CheckEsp:PROC
EXTRN	__RTC_Shutdown:PROC
EXTRN	__RTC_InitBase:PROC
xdata$x	SEGMENT
__unwindtable$??0MemoryManager@@QAE@II@Z DD 0ffffffffH
	DD	FLAT:__unwindfunclet$??0MemoryManager@@QAE@II@Z$0
__ehfuncinfo$??0MemoryManager@@QAE@II@Z DD 019930522H
	DD	01H
	DD	FLAT:__unwindtable$??0MemoryManager@@QAE@II@Z
	DD	2 DUP(00H)
	DD	2 DUP(00H)
	DD	00H
	DD	01H
xdata$x	ENDS
;	COMDAT rtc$TMZ
; File c:\nuanceexperimental\memorymanager.cpp
rtc$TMZ	SEGMENT
__RTC_Shutdown.rtc$TMZ DD FLAT:__RTC_Shutdown
rtc$TMZ	ENDS
;	COMDAT rtc$IMZ
rtc$IMZ	SEGMENT
__RTC_InitBase.rtc$IMZ DD FLAT:__RTC_InitBase
; Function compile flags: /Odtp /RTCsu
rtc$IMZ	ENDS
_TEXT	SEGMENT
_this$ = -16						; size = 4
__$EHRec$ = -12						; size = 12
_maxBytes$ = 8						; size = 4
_defaultAlignment$ = 12					; size = 4
??0MemoryManager@@QAE@II@Z PROC				; MemoryManager::MemoryManager
; _this$ = ecx

; 6    : {

	push	ebp
	mov	ebp, esp
	push	-1
	push	__ehhandler$??0MemoryManager@@QAE@II@Z
	mov	eax, DWORD PTR fs:0
	push	eax
	mov	DWORD PTR fs:0, esp
	push	ecx
	mov	DWORD PTR [ebp-16], -858993460		; ccccccccH
	mov	DWORD PTR _this$[ebp], ecx
	mov	ecx, DWORD PTR _this$[ebp]
	add	ecx, 8
	call	??0?$vector@VFreeMemoryBlock@@V?$allocator@VFreeMemoryBlock@@@std@@@std@@QAE@XZ ; std::vector<FreeMemoryBlock,std::allocator<FreeMemoryBlock> >::vector<FreeMemoryBlock,std::allocator<FreeMemoryBlock> >
	mov	DWORD PTR __$EHRec$[ebp+8], 0
	mov	ecx, DWORD PTR _this$[ebp]
	add	ecx, 28					; 0000001cH
	call	??0?$vector@VAllocatedMemoryBlock@@V?$allocator@VAllocatedMemoryBlock@@@std@@@std@@QAE@XZ ; std::vector<AllocatedMemoryBlock,std::allocator<AllocatedMemoryBlock> >::vector<AllocatedMemoryBlock,std::allocator<AllocatedMemoryBlock> >

; 7    :   this->defaultAlignment = defaultAlignment;

	mov	eax, DWORD PTR _this$[ebp]
	mov	ecx, DWORD PTR _defaultAlignment$[ebp]
	mov	DWORD PTR [eax+4], ecx

; 8    :   this->maxBytes = maxBytes;

	mov	edx, DWORD PTR _this$[ebp]
	mov	eax, DWORD PTR _maxBytes$[ebp]
	mov	DWORD PTR [edx], eax

; 9    : }

	mov	DWORD PTR __$EHRec$[ebp+8], -1
	mov	eax, DWORD PTR _this$[ebp]
	mov	ecx, DWORD PTR __$EHRec$[ebp]
	mov	DWORD PTR fs:0, ecx
	add	esp, 16					; 00000010H
	cmp	ebp, esp
	call	__RTC_CheckEsp
	mov	esp, ebp
	pop	ebp
	ret	8
_TEXT	ENDS
text$x	SEGMENT
__unwindfunclet$??0MemoryManager@@QAE@II@Z$0:
	mov	ecx, DWORD PTR _this$[ebp]
	add	ecx, 8
	jmp	??1?$vector@VFreeMemoryBlock@@V?$allocator@VFreeMemoryBlock@@@std@@@std@@QAE@XZ ; std::vector<FreeMemoryBlock,std::allocator<FreeMemoryBlock> >::~vector<FreeMemoryBlock,std::allocator<FreeMemoryBlock> >
__ehhandler$??0MemoryManager@@QAE@II@Z:
	mov	eax, OFFSET __ehfuncinfo$??0MemoryManager@@QAE@II@Z
	jmp	___CxxFrameHandler3
text$x	ENDS
??0MemoryManager@@QAE@II@Z ENDP				; MemoryManager::MemoryManager
PUBLIC	?TestForInvalidPowerOfTwo@MemoryManager@@AAE_NI@Z ; MemoryManager::TestForInvalidPowerOfTwo
; Function compile flags: /Odtp /RTCsu
_TEXT	SEGMENT
_this$ = -4						; size = 4
_requestedAlignment$ = 8				; size = 4
?TestForInvalidPowerOfTwo@MemoryManager@@AAE_NI@Z PROC	; MemoryManager::TestForInvalidPowerOfTwo
; _this$ = ecx

; 12   : {

	push	ebp
	mov	ebp, esp
	push	ecx
	mov	DWORD PTR [ebp-4], -858993460		; ccccccccH
	mov	DWORD PTR _this$[ebp], ecx

; 13   :   return (requestedAlignment & (requestedAlignment - 1)) != 0;

	mov	eax, DWORD PTR _requestedAlignment$[ebp]
	sub	eax, 1
	and	eax, DWORD PTR _requestedAlignment$[ebp]
	neg	eax
	sbb	eax, eax
	neg	eax

; 14   : }

	mov	esp, ebp
	pop	ebp
	ret	4
?TestForInvalidPowerOfTwo@MemoryManager@@AAE_NI@Z ENDP	; MemoryManager::TestForInvalidPowerOfTwo
_TEXT	ENDS
PUBLIC	?erase@?$vector@VFreeMemoryBlock@@V?$allocator@VFreeMemoryBlock@@@std@@@std@@QAE?AV?$_Vector_iterator@VFreeMemoryBlock@@V?$allocator@VFreeMemoryBlock@@@std@@@2@V32@@Z ; std::vector<FreeMemoryBlock,std::allocator<FreeMemoryBlock> >::erase
PUBLIC	??H?$_Vector_iterator@VFreeMemoryBlock@@V?$allocator@VFreeMemoryBlock@@@std@@@std@@QBE?AV01@H@Z ; std::_Vector_iterator<FreeMemoryBlock,std::allocator<FreeMemoryBlock> >::operator+
PUBLIC	?push_back@?$vector@VFreeMemoryBlock@@V?$allocator@VFreeMemoryBlock@@@std@@@std@@QAEXABVFreeMemoryBlock@@@Z ; std::vector<FreeMemoryBlock,std::allocator<FreeMemoryBlock> >::push_back
PUBLIC	?back@?$vector@VFreeMemoryBlock@@V?$allocator@VFreeMemoryBlock@@@std@@@std@@QAEAAVFreeMemoryBlock@@XZ ; std::vector<FreeMemoryBlock,std::allocator<FreeMemoryBlock> >::back
PUBLIC	??A?$vector@VFreeMemoryBlock@@V?$allocator@VFreeMemoryBlock@@@std@@@std@@QAEAAVFreeMemoryBlock@@I@Z ; std::vector<FreeMemoryBlock,std::allocator<FreeMemoryBlock> >::operator[]
PUBLIC	??1?$_Vector_iterator@VFreeMemoryBlock@@V?$allocator@VFreeMemoryBlock@@@std@@@std@@QAE@XZ ; std::_Vector_iterator<FreeMemoryBlock,std::allocator<FreeMemoryBlock> >::~_Vector_iterator<FreeMemoryBlock,std::allocator<FreeMemoryBlock> >
PUBLIC	?insert@?$vector@VFreeMemoryBlock@@V?$allocator@VFreeMemoryBlock@@@std@@@std@@QAE?AV?$_Vector_iterator@VFreeMemoryBlock@@V?$allocator@VFreeMemoryBlock@@@std@@@2@V32@ABVFreeMemoryBlock@@@Z ; std::vector<FreeMemoryBlock,std::allocator<FreeMemoryBlock> >::insert
PUBLIC	?begin@?$vector@VFreeMemoryBlock@@V?$allocator@VFreeMemoryBlock@@@std@@@std@@QAE?AV?$_Vector_iterator@VFreeMemoryBlock@@V?$allocator@VFreeMemoryBlock@@@std@@@2@XZ ; std::vector<FreeMemoryBlock,std::allocator<FreeMemoryBlock> >::begin
PUBLIC	?size@?$vector@VFreeMemoryBlock@@V?$allocator@VFreeMemoryBlock@@@std@@@std@@QBEIXZ ; std::vector<FreeMemoryBlock,std::allocator<FreeMemoryBlock> >::size
PUBLIC	?Add@MemoryManager@@QAEXIII@Z			; MemoryManager::Add
EXTRN	@_RTC_CheckStackVars@8:PROC
xdata$x	SEGMENT
__unwindtable$?Add@MemoryManager@@QAEXIII@Z DD 0ffffffffH
	DD	FLAT:__unwindfunclet$?Add@MemoryManager@@QAEXIII@Z$2
	DD	0ffffffffH
	DD	FLAT:__unwindfunclet$?Add@MemoryManager@@QAEXIII@Z$5
__ehfuncinfo$?Add@MemoryManager@@QAEXIII@Z DD 019930522H
	DD	02H
	DD	FLAT:__unwindtable$?Add@MemoryManager@@QAEXIII@Z
	DD	2 DUP(00H)
	DD	2 DUP(00H)
	DD	00H
	DD	01H
; Function compile flags: /Odtp /RTCsu
xdata$x	ENDS
_TEXT	SEGMENT
tv277 = -168						; size = 4
tv276 = -164						; size = 4
tv274 = -160						; size = 4
tv280 = -156						; size = 4
tv233 = -152						; size = 4
tv196 = -148						; size = 4
tv271 = -144						; size = 4
tv270 = -140						; size = 4
tv267 = -136						; size = 4
tv279 = -132						; size = 4
tv152 = -128						; size = 4
tv146 = -124						; size = 4
tv264 = -120						; size = 4
tv263 = -116						; size = 4
$T16864 = -112						; size = 12
$T16863 = -100						; size = 12
$T16862 = -88						; size = 4
$T16861 = -84						; size = 12
$T16860 = -72						; size = 12
$T16859 = -60						; size = 4
$T16858 = -56						; size = 12
$T16857 = -44						; size = 4
_vectorSize$ = -40					; size = 4
_newFreeBlock$ = -32					; size = 12
_this$ = -16						; size = 4
__$EHRec$ = -12						; size = 12
_startAddress$ = 8					; size = 4
_endAddress$ = 12					; size = 4
_index$ = 16						; size = 4
?Add@MemoryManager@@QAEXIII@Z PROC			; MemoryManager::Add
; _this$ = ecx

; 17   : {

	push	ebp
	mov	ebp, esp
	push	-1
	push	__ehhandler$?Add@MemoryManager@@QAEXIII@Z
	mov	eax, DWORD PTR fs:0
	push	eax
	mov	DWORD PTR fs:0, esp
	sub	esp, 156				; 0000009cH
	push	esi
	push	edi
	push	ecx
	lea	edi, DWORD PTR [ebp-168]
	mov	ecx, 39					; 00000027H
	mov	eax, -858993460				; ccccccccH
	rep stosd
	pop	ecx
	mov	DWORD PTR _this$[ebp], ecx

; 18   :   FreeMemoryBlock newFreeBlock;
; 19   :   uint32 vectorSize;
; 20   : 
; 21   :   newFreeBlock.startAddress = startAddress;

	mov	eax, DWORD PTR _startAddress$[ebp]
	mov	DWORD PTR _newFreeBlock$[ebp], eax

; 22   :   newFreeBlock.endAddress = endAddress;

	mov	ecx, DWORD PTR _endAddress$[ebp]
	mov	DWORD PTR _newFreeBlock$[ebp+4], ecx

; 23   :   newFreeBlock.numBytes = endAddress - startAddress + 1;

	mov	edx, DWORD PTR _endAddress$[ebp]
	sub	edx, DWORD PTR _startAddress$[ebp]
	add	edx, 1
	mov	DWORD PTR _newFreeBlock$[ebp+8], edx

; 24   : 
; 25   :   vectorSize = (uint32)freeBlockVector.size();

	mov	ecx, DWORD PTR _this$[ebp]
	add	ecx, 8
	call	?size@?$vector@VFreeMemoryBlock@@V?$allocator@VFreeMemoryBlock@@@std@@@std@@QBEIXZ ; std::vector<FreeMemoryBlock,std::allocator<FreeMemoryBlock> >::size
	mov	DWORD PTR _vectorSize$[ebp], eax

; 26   : 
; 27   :   if(vectorSize == 0)

	cmp	DWORD PTR _vectorSize$[ebp], 0
	jne	SHORT $LN15@Add

; 28   :   {
; 29   :     //Only block in list so just add it
; 30   :     freeBlockVector.insert(freeBlockVector.begin(),newFreeBlock);

	lea	eax, DWORD PTR _newFreeBlock$[ebp]
	push	eax
	sub	esp, 12					; 0000000cH
	mov	ecx, esp
	mov	DWORD PTR $T16857[ebp], esp
	push	ecx
	mov	ecx, DWORD PTR _this$[ebp]
	add	ecx, 8
	call	?begin@?$vector@VFreeMemoryBlock@@V?$allocator@VFreeMemoryBlock@@@std@@@std@@QAE?AV?$_Vector_iterator@VFreeMemoryBlock@@V?$allocator@VFreeMemoryBlock@@@std@@@2@XZ ; std::vector<FreeMemoryBlock,std::allocator<FreeMemoryBlock> >::begin
	mov	DWORD PTR tv263[ebp], eax
	lea	edx, DWORD PTR $T16858[ebp]
	push	edx
	mov	ecx, DWORD PTR _this$[ebp]
	add	ecx, 8
	call	?insert@?$vector@VFreeMemoryBlock@@V?$allocator@VFreeMemoryBlock@@@std@@@std@@QAE?AV?$_Vector_iterator@VFreeMemoryBlock@@V?$allocator@VFreeMemoryBlock@@@std@@@2@V32@ABVFreeMemoryBlock@@@Z ; std::vector<FreeMemoryBlock,std::allocator<FreeMemoryBlock> >::insert
	mov	DWORD PTR tv264[ebp], eax
	lea	ecx, DWORD PTR $T16858[ebp]
	call	??1?$_Vector_iterator@VFreeMemoryBlock@@V?$allocator@VFreeMemoryBlock@@@std@@@std@@QAE@XZ

; 31   :     return;

	jmp	$LN16@Add
$LN15@Add:

; 32   :   }
; 33   : 
; 34   :   if((index == 0) || (index >= vectorSize))

	cmp	DWORD PTR _index$[ebp], 0
	je	SHORT $LN13@Add
	mov	eax, DWORD PTR _index$[ebp]
	cmp	eax, DWORD PTR _vectorSize$[ebp]
	jb	SHORT $LN14@Add
$LN13@Add:

; 35   :   {
; 36   :     //Dont know where to put it
; 37   :     for(index = 0; index < vectorSize; index++)

	mov	DWORD PTR _index$[ebp], 0
	jmp	SHORT $LN12@Add
$LN11@Add:
	mov	ecx, DWORD PTR _index$[ebp]
	add	ecx, 1
	mov	DWORD PTR _index$[ebp], ecx
$LN12@Add:
	mov	edx, DWORD PTR _index$[ebp]
	cmp	edx, DWORD PTR _vectorSize$[ebp]
	jae	SHORT $LN14@Add

; 38   :     {
; 39   :       if(freeBlockVector[index].startAddress > startAddress)

	mov	eax, DWORD PTR _index$[ebp]
	push	eax
	mov	ecx, DWORD PTR _this$[ebp]
	add	ecx, 8
	call	??A?$vector@VFreeMemoryBlock@@V?$allocator@VFreeMemoryBlock@@@std@@@std@@QAEAAVFreeMemoryBlock@@I@Z ; std::vector<FreeMemoryBlock,std::allocator<FreeMemoryBlock> >::operator[]
	mov	ecx, DWORD PTR [eax]
	cmp	ecx, DWORD PTR _startAddress$[ebp]
	jbe	SHORT $LN9@Add

; 40   :       {
; 41   :         break;

	jmp	SHORT $LN14@Add
$LN9@Add:

; 42   :       }
; 43   :     }

	jmp	SHORT $LN11@Add
$LN14@Add:

; 44   :   }
; 45   : 
; 46   :   if(index == vectorSize)

	mov	edx, DWORD PTR _index$[ebp]
	cmp	edx, DWORD PTR _vectorSize$[ebp]
	jne	SHORT $LN8@Add

; 47   :   {
; 48   :     //Add free block to end of list: check to see if new entry can
; 49   :     //be combined with entry at end of list
; 50   :     if(startAddress != (freeBlockVector.back().endAddress + 1))

	mov	ecx, DWORD PTR _this$[ebp]
	add	ecx, 8
	call	?back@?$vector@VFreeMemoryBlock@@V?$allocator@VFreeMemoryBlock@@@std@@@std@@QAEAAVFreeMemoryBlock@@XZ ; std::vector<FreeMemoryBlock,std::allocator<FreeMemoryBlock> >::back
	mov	eax, DWORD PTR [eax+4]
	add	eax, 1
	cmp	DWORD PTR _startAddress$[ebp], eax
	je	SHORT $LN7@Add

; 51   :     {
; 52   :       //New block cannot be combined with the block currently at the end of the list so 
; 53   :       //just add the new block to the end of the list
; 54   :       freeBlockVector.push_back(newFreeBlock);

	lea	ecx, DWORD PTR _newFreeBlock$[ebp]
	push	ecx
	mov	ecx, DWORD PTR _this$[ebp]
	add	ecx, 8
	call	?push_back@?$vector@VFreeMemoryBlock@@V?$allocator@VFreeMemoryBlock@@@std@@@std@@QAEXABVFreeMemoryBlock@@@Z ; std::vector<FreeMemoryBlock,std::allocator<FreeMemoryBlock> >::push_back

; 55   :     }
; 56   :     else

	jmp	SHORT $LN6@Add
$LN7@Add:

; 57   :     {
; 58   :       //Combine new block with existing block entry at end of list
; 59   :       freeBlockVector.back().numBytes += newFreeBlock.numBytes;

	mov	ecx, DWORD PTR _this$[ebp]
	add	ecx, 8
	call	?back@?$vector@VFreeMemoryBlock@@V?$allocator@VFreeMemoryBlock@@@std@@@std@@QAEAAVFreeMemoryBlock@@XZ ; std::vector<FreeMemoryBlock,std::allocator<FreeMemoryBlock> >::back
	add	eax, 8
	mov	DWORD PTR tv146[ebp], eax
	mov	edx, DWORD PTR tv146[ebp]
	mov	eax, DWORD PTR [edx]
	add	eax, DWORD PTR _newFreeBlock$[ebp+8]
	mov	ecx, DWORD PTR tv146[ebp]
	mov	DWORD PTR [ecx], eax

; 60   :       freeBlockVector.back().endAddress += newFreeBlock.numBytes;

	mov	ecx, DWORD PTR _this$[ebp]
	add	ecx, 8
	call	?back@?$vector@VFreeMemoryBlock@@V?$allocator@VFreeMemoryBlock@@@std@@@std@@QAEAAVFreeMemoryBlock@@XZ ; std::vector<FreeMemoryBlock,std::allocator<FreeMemoryBlock> >::back
	add	eax, 4
	mov	DWORD PTR tv152[ebp], eax
	mov	edx, DWORD PTR tv152[ebp]
	mov	eax, DWORD PTR [edx]
	add	eax, DWORD PTR _newFreeBlock$[ebp+8]
	mov	ecx, DWORD PTR tv152[ebp]
	mov	DWORD PTR [ecx], eax
$LN6@Add:

; 61   :     }
; 62   :   }
; 63   :   else

	jmp	$LN16@Add
$LN8@Add:

; 64   :   {
; 65   :     //An entry exists after insertion point so try to combine ([new][old])
; 66   :     if(endAddress != (freeBlockVector[index].startAddress - 1))

	mov	edx, DWORD PTR _index$[ebp]
	push	edx
	mov	ecx, DWORD PTR _this$[ebp]
	add	ecx, 8
	call	??A?$vector@VFreeMemoryBlock@@V?$allocator@VFreeMemoryBlock@@@std@@@std@@QAEAAVFreeMemoryBlock@@I@Z ; std::vector<FreeMemoryBlock,std::allocator<FreeMemoryBlock> >::operator[]
	mov	eax, DWORD PTR [eax]
	sub	eax, 1
	cmp	DWORD PTR _endAddress$[ebp], eax
	je	SHORT $LN4@Add

; 67   :     {
; 68   :       //The existing block is not contiguous with the new block so no
; 69   :       //combining can be done
; 70   :       freeBlockVector.insert(freeBlockVector.begin() + index, newFreeBlock);

	lea	ecx, DWORD PTR _newFreeBlock$[ebp]
	push	ecx
	sub	esp, 12					; 0000000cH
	mov	edx, esp
	mov	DWORD PTR $T16859[ebp], esp
	mov	eax, DWORD PTR _index$[ebp]
	push	eax
	push	edx
	lea	ecx, DWORD PTR $T16860[ebp]
	push	ecx
	mov	ecx, DWORD PTR _this$[ebp]
	add	ecx, 8
	call	?begin@?$vector@VFreeMemoryBlock@@V?$allocator@VFreeMemoryBlock@@@std@@@std@@QAE?AV?$_Vector_iterator@VFreeMemoryBlock@@V?$allocator@VFreeMemoryBlock@@@std@@@2@XZ ; std::vector<FreeMemoryBlock,std::allocator<FreeMemoryBlock> >::begin
	mov	DWORD PTR tv279[ebp], eax
	mov	edx, DWORD PTR tv279[ebp]
	mov	DWORD PTR tv267[ebp], edx
	mov	DWORD PTR __$EHRec$[ebp+8], 0
	mov	ecx, DWORD PTR tv267[ebp]
	call	??H?$_Vector_iterator@VFreeMemoryBlock@@V?$allocator@VFreeMemoryBlock@@@std@@@std@@QBE?AV01@H@Z ; std::_Vector_iterator<FreeMemoryBlock,std::allocator<FreeMemoryBlock> >::operator+
	mov	DWORD PTR tv270[ebp], eax
	lea	eax, DWORD PTR $T16861[ebp]
	push	eax
	mov	ecx, DWORD PTR _this$[ebp]
	add	ecx, 8
	call	?insert@?$vector@VFreeMemoryBlock@@V?$allocator@VFreeMemoryBlock@@@std@@@std@@QAE?AV?$_Vector_iterator@VFreeMemoryBlock@@V?$allocator@VFreeMemoryBlock@@@std@@@2@V32@ABVFreeMemoryBlock@@@Z ; std::vector<FreeMemoryBlock,std::allocator<FreeMemoryBlock> >::insert
	mov	DWORD PTR tv271[ebp], eax
	lea	ecx, DWORD PTR $T16861[ebp]
	call	??1?$_Vector_iterator@VFreeMemoryBlock@@V?$allocator@VFreeMemoryBlock@@@std@@@std@@QAE@XZ
	mov	DWORD PTR __$EHRec$[ebp+8], -1
	lea	ecx, DWORD PTR $T16860[ebp]
	call	??1?$_Vector_iterator@VFreeMemoryBlock@@V?$allocator@VFreeMemoryBlock@@@std@@@std@@QAE@XZ

; 71   :     }
; 72   :     else

	jmp	SHORT $LN3@Add
$LN4@Add:

; 73   :     {
; 74   :       //Another free block exists at the index at which we are inserting
; 75   :       //and the existing block starts at the memory address immediately
; 76   :       //following the end address of the new free block so they can be
; 77   :       //combined
; 78   : 
; 79   :       //Add free block after the provided index and combine with the free block
; 80   :       //that currently follows the block at the provided index
; 81   :       freeBlockVector[index].startAddress = newFreeBlock.startAddress;

	mov	ecx, DWORD PTR _index$[ebp]
	push	ecx
	mov	ecx, DWORD PTR _this$[ebp]
	add	ecx, 8
	call	??A?$vector@VFreeMemoryBlock@@V?$allocator@VFreeMemoryBlock@@@std@@@std@@QAEAAVFreeMemoryBlock@@I@Z ; std::vector<FreeMemoryBlock,std::allocator<FreeMemoryBlock> >::operator[]
	mov	edx, DWORD PTR _newFreeBlock$[ebp]
	mov	DWORD PTR [eax], edx

; 82   :       freeBlockVector[index].numBytes += newFreeBlock.numBytes;

	mov	eax, DWORD PTR _index$[ebp]
	push	eax
	mov	ecx, DWORD PTR _this$[ebp]
	add	ecx, 8
	call	??A?$vector@VFreeMemoryBlock@@V?$allocator@VFreeMemoryBlock@@@std@@@std@@QAEAAVFreeMemoryBlock@@I@Z ; std::vector<FreeMemoryBlock,std::allocator<FreeMemoryBlock> >::operator[]
	add	eax, 8
	mov	DWORD PTR tv196[ebp], eax
	mov	ecx, DWORD PTR tv196[ebp]
	mov	edx, DWORD PTR [ecx]
	add	edx, DWORD PTR _newFreeBlock$[ebp+8]
	mov	eax, DWORD PTR tv196[ebp]
	mov	DWORD PTR [eax], edx
$LN3@Add:

; 83   :     }
; 84   : 
; 85   :     //check to see if an entry exists to the left of the insertion point
; 86   :     if(index != 0)

	cmp	DWORD PTR _index$[ebp], 0
	je	$LN16@Add

; 87   :     {
; 88   :       //An entry exists so try to combine the entry just added with the
; 89   :       //entry immediately to the left of the insertion point: ([old][new_merged])
; 90   :       if(freeBlockVector[index - 1].endAddress == (freeBlockVector[index].startAddress - 1))

	mov	ecx, DWORD PTR _index$[ebp]
	sub	ecx, 1
	push	ecx
	mov	ecx, DWORD PTR _this$[ebp]
	add	ecx, 8
	call	??A?$vector@VFreeMemoryBlock@@V?$allocator@VFreeMemoryBlock@@@std@@@std@@QAEAAVFreeMemoryBlock@@I@Z ; std::vector<FreeMemoryBlock,std::allocator<FreeMemoryBlock> >::operator[]
	mov	esi, eax
	mov	edx, DWORD PTR _index$[ebp]
	push	edx
	mov	ecx, DWORD PTR _this$[ebp]
	add	ecx, 8
	call	??A?$vector@VFreeMemoryBlock@@V?$allocator@VFreeMemoryBlock@@@std@@@std@@QAEAAVFreeMemoryBlock@@I@Z ; std::vector<FreeMemoryBlock,std::allocator<FreeMemoryBlock> >::operator[]
	mov	eax, DWORD PTR [eax]
	sub	eax, 1
	cmp	DWORD PTR [esi+4], eax
	jne	$LN16@Add

; 91   :       {
; 92   :         //Combine previous entry (index-1) with newly inserted entry (index)
; 93   :         freeBlockVector[index - 1].endAddress = freeBlockVector[index].endAddress;

	mov	ecx, DWORD PTR _index$[ebp]
	push	ecx
	mov	ecx, DWORD PTR _this$[ebp]
	add	ecx, 8
	call	??A?$vector@VFreeMemoryBlock@@V?$allocator@VFreeMemoryBlock@@@std@@@std@@QAEAAVFreeMemoryBlock@@I@Z ; std::vector<FreeMemoryBlock,std::allocator<FreeMemoryBlock> >::operator[]
	mov	esi, eax
	mov	edx, DWORD PTR _index$[ebp]
	sub	edx, 1
	push	edx
	mov	ecx, DWORD PTR _this$[ebp]
	add	ecx, 8
	call	??A?$vector@VFreeMemoryBlock@@V?$allocator@VFreeMemoryBlock@@@std@@@std@@QAEAAVFreeMemoryBlock@@I@Z ; std::vector<FreeMemoryBlock,std::allocator<FreeMemoryBlock> >::operator[]
	mov	ecx, DWORD PTR [esi+4]
	mov	DWORD PTR [eax+4], ecx

; 94   :         freeBlockVector[index - 1].numBytes += freeBlockVector[index].numBytes;

	mov	edx, DWORD PTR _index$[ebp]
	sub	edx, 1
	push	edx
	mov	ecx, DWORD PTR _this$[ebp]
	add	ecx, 8
	call	??A?$vector@VFreeMemoryBlock@@V?$allocator@VFreeMemoryBlock@@@std@@@std@@QAEAAVFreeMemoryBlock@@I@Z ; std::vector<FreeMemoryBlock,std::allocator<FreeMemoryBlock> >::operator[]
	add	eax, 8
	mov	DWORD PTR tv233[ebp], eax
	mov	eax, DWORD PTR _index$[ebp]
	push	eax
	mov	ecx, DWORD PTR _this$[ebp]
	add	ecx, 8
	call	??A?$vector@VFreeMemoryBlock@@V?$allocator@VFreeMemoryBlock@@@std@@@std@@QAEAAVFreeMemoryBlock@@I@Z ; std::vector<FreeMemoryBlock,std::allocator<FreeMemoryBlock> >::operator[]
	mov	ecx, DWORD PTR tv233[ebp]
	mov	edx, DWORD PTR [ecx]
	add	edx, DWORD PTR [eax+8]
	mov	eax, DWORD PTR tv233[ebp]
	mov	DWORD PTR [eax], edx

; 95   :         freeBlockVector.erase(freeBlockVector.begin() + index);

	sub	esp, 12					; 0000000cH
	mov	ecx, esp
	mov	DWORD PTR $T16862[ebp], esp
	mov	edx, DWORD PTR _index$[ebp]
	push	edx
	push	ecx
	lea	eax, DWORD PTR $T16863[ebp]
	push	eax
	mov	ecx, DWORD PTR _this$[ebp]
	add	ecx, 8
	call	?begin@?$vector@VFreeMemoryBlock@@V?$allocator@VFreeMemoryBlock@@@std@@@std@@QAE?AV?$_Vector_iterator@VFreeMemoryBlock@@V?$allocator@VFreeMemoryBlock@@@std@@@2@XZ ; std::vector<FreeMemoryBlock,std::allocator<FreeMemoryBlock> >::begin
	mov	DWORD PTR tv280[ebp], eax
	mov	ecx, DWORD PTR tv280[ebp]
	mov	DWORD PTR tv274[ebp], ecx
	mov	DWORD PTR __$EHRec$[ebp+8], 1
	mov	ecx, DWORD PTR tv274[ebp]
	call	??H?$_Vector_iterator@VFreeMemoryBlock@@V?$allocator@VFreeMemoryBlock@@@std@@@std@@QBE?AV01@H@Z ; std::_Vector_iterator<FreeMemoryBlock,std::allocator<FreeMemoryBlock> >::operator+
	mov	DWORD PTR tv276[ebp], eax
	lea	edx, DWORD PTR $T16864[ebp]
	push	edx
	mov	ecx, DWORD PTR _this$[ebp]
	add	ecx, 8
	call	?erase@?$vector@VFreeMemoryBlock@@V?$allocator@VFreeMemoryBlock@@@std@@@std@@QAE?AV?$_Vector_iterator@VFreeMemoryBlock@@V?$allocator@VFreeMemoryBlock@@@std@@@2@V32@@Z ; std::vector<FreeMemoryBlock,std::allocator<FreeMemoryBlock> >::erase
	mov	DWORD PTR tv277[ebp], eax
	lea	ecx, DWORD PTR $T16864[ebp]
	call	??1?$_Vector_iterator@VFreeMemoryBlock@@V?$allocator@VFreeMemoryBlock@@@std@@@std@@QAE@XZ
	mov	DWORD PTR __$EHRec$[ebp+8], -1
	lea	ecx, DWORD PTR $T16863[ebp]
	call	??1?$_Vector_iterator@VFreeMemoryBlock@@V?$allocator@VFreeMemoryBlock@@@std@@@std@@QAE@XZ
$LN16@Add:

; 96   :       }
; 97   :     }
; 98   :   }
; 99   : }

	push	edx
	mov	ecx, ebp
	push	eax
	lea	edx, DWORD PTR $LN29@Add
	call	@_RTC_CheckStackVars@8
	pop	eax
	pop	edx
	mov	ecx, DWORD PTR __$EHRec$[ebp]
	mov	DWORD PTR fs:0, ecx
	pop	edi
	pop	esi
	add	esp, 168				; 000000a8H
	cmp	ebp, esp
	call	__RTC_CheckEsp
	mov	esp, ebp
	pop	ebp
	ret	12					; 0000000cH
	npad	2
$LN29@Add:
	DD	1
	DD	$LN28@Add
$LN28@Add:
	DD	-32					; ffffffe0H
	DD	12					; 0000000cH
	DD	$LN26@Add
$LN26@Add:
	DB	110					; 0000006eH
	DB	101					; 00000065H
	DB	119					; 00000077H
	DB	70					; 00000046H
	DB	114					; 00000072H
	DB	101					; 00000065H
	DB	101					; 00000065H
	DB	66					; 00000042H
	DB	108					; 0000006cH
	DB	111					; 0000006fH
	DB	99					; 00000063H
	DB	107					; 0000006bH
	DB	0
_TEXT	ENDS
text$x	SEGMENT
__unwindfunclet$?Add@MemoryManager@@QAEXIII@Z$2:
	lea	ecx, DWORD PTR $T16860[ebp]
	jmp	??1?$_Vector_iterator@VFreeMemoryBlock@@V?$allocator@VFreeMemoryBlock@@@std@@@std@@QAE@XZ
__unwindfunclet$?Add@MemoryManager@@QAEXIII@Z$5:
	lea	ecx, DWORD PTR $T16863[ebp]
	jmp	??1?$_Vector_iterator@VFreeMemoryBlock@@V?$allocator@VFreeMemoryBlock@@@std@@@std@@QAE@XZ
__ehhandler$?Add@MemoryManager@@QAEXIII@Z:
	mov	eax, OFFSET __ehfuncinfo$?Add@MemoryManager@@QAEXIII@Z
	jmp	___CxxFrameHandler3
text$x	ENDS
?Add@MemoryManager@@QAEXIII@Z ENDP			; MemoryManager::Add
PUBLIC	??1?$_Vector_const_iterator@VFreeMemoryBlock@@V?$allocator@VFreeMemoryBlock@@@std@@@std@@QAE@XZ ; std::_Vector_const_iterator<FreeMemoryBlock,std::allocator<FreeMemoryBlock> >::~_Vector_const_iterator<FreeMemoryBlock,std::allocator<FreeMemoryBlock> >
; Function compile flags: /Odtp /RTCsu
;	COMDAT ??1?$_Vector_iterator@VFreeMemoryBlock@@V?$allocator@VFreeMemoryBlock@@@std@@@std@@QAE@XZ
_TEXT	SEGMENT
_this$ = -4						; size = 4
??1?$_Vector_iterator@VFreeMemoryBlock@@V?$allocator@VFreeMemoryBlock@@@std@@@std@@QAE@XZ PROC ; std::_Vector_iterator<FreeMemoryBlock,std::allocator<FreeMemoryBlock> >::~_Vector_iterator<FreeMemoryBlock,std::allocator<FreeMemoryBlock> >, COMDAT
; _this$ = ecx
	push	ebp
	mov	ebp, esp
	push	ecx
	mov	DWORD PTR [ebp-4], -858993460		; ccccccccH
	mov	DWORD PTR _this$[ebp], ecx
	mov	ecx, DWORD PTR _this$[ebp]
	call	??1?$_Vector_const_iterator@VFreeMemoryBlock@@V?$allocator@VFreeMemoryBlock@@@std@@@std@@QAE@XZ
	add	esp, 4
	cmp	ebp, esp
	call	__RTC_CheckEsp
	mov	esp, ebp
	pop	ebp
	ret	0
??1?$_Vector_iterator@VFreeMemoryBlock@@V?$allocator@VFreeMemoryBlock@@@std@@@std@@QAE@XZ ENDP ; std::_Vector_iterator<FreeMemoryBlock,std::allocator<FreeMemoryBlock> >::~_Vector_iterator<FreeMemoryBlock,std::allocator<FreeMemoryBlock> >
_TEXT	ENDS
PUBLIC	??1?$_Ranit@VFreeMemoryBlock@@HPBV1@ABV1@@std@@QAE@XZ ; std::_Ranit<FreeMemoryBlock,int,FreeMemoryBlock const *,FreeMemoryBlock const &>::~_Ranit<FreeMemoryBlock,int,FreeMemoryBlock const *,FreeMemoryBlock const &>
; Function compile flags: /Odtp /RTCsu
;	COMDAT ??1?$_Vector_const_iterator@VFreeMemoryBlock@@V?$allocator@VFreeMemoryBlock@@@std@@@std@@QAE@XZ
_TEXT	SEGMENT
_this$ = -4						; size = 4
??1?$_Vector_const_iterator@VFreeMemoryBlock@@V?$allocator@VFreeMemoryBlock@@@std@@@std@@QAE@XZ PROC ; std::_Vector_const_iterator<FreeMemoryBlock,std::allocator<FreeMemoryBlock> >::~_Vector_const_iterator<FreeMemoryBlock,std::allocator<FreeMemoryBlock> >, COMDAT
; _this$ = ecx
	push	ebp
	mov	ebp, esp
	push	ecx
	mov	DWORD PTR [ebp-4], -858993460		; ccccccccH
	mov	DWORD PTR _this$[ebp], ecx
	mov	ecx, DWORD PTR _this$[ebp]
	call	??1?$_Ranit@VFreeMemoryBlock@@HPBV1@ABV1@@std@@QAE@XZ
	add	esp, 4
	cmp	ebp, esp
	call	__RTC_CheckEsp
	mov	esp, ebp
	pop	ebp
	ret	0
??1?$_Vector_const_iterator@VFreeMemoryBlock@@V?$allocator@VFreeMemoryBlock@@@std@@@std@@QAE@XZ ENDP ; std::_Vector_const_iterator<FreeMemoryBlock,std::allocator<FreeMemoryBlock> >::~_Vector_const_iterator<FreeMemoryBlock,std::allocator<FreeMemoryBlock> >
_TEXT	ENDS
PUBLIC	??1_Iterator_base@std@@QAE@XZ			; std::_Iterator_base::~_Iterator_base
; Function compile flags: /Odtp /RTCsu
;	COMDAT ??1?$_Ranit@VFreeMemoryBlock@@HPBV1@ABV1@@std@@QAE@XZ
_TEXT	SEGMENT
_this$ = -4						; size = 4
??1?$_Ranit@VFreeMemoryBlock@@HPBV1@ABV1@@std@@QAE@XZ PROC ; std::_Ranit<FreeMemoryBlock,int,FreeMemoryBlock const *,FreeMemoryBlock const &>::~_Ranit<FreeMemoryBlock,int,FreeMemoryBlock const *,FreeMemoryBlock const &>, COMDAT
; _this$ = ecx
	push	ebp
	mov	ebp, esp
	push	ecx
	mov	DWORD PTR [ebp-4], -858993460		; ccccccccH
	mov	DWORD PTR _this$[ebp], ecx
	mov	ecx, DWORD PTR _this$[ebp]
	call	??1_Iterator_base@std@@QAE@XZ		; std::_Iterator_base::~_Iterator_base
	add	esp, 4
	cmp	ebp, esp
	call	__RTC_CheckEsp
	mov	esp, ebp
	pop	ebp
	ret	0
??1?$_Ranit@VFreeMemoryBlock@@HPBV1@ABV1@@std@@QAE@XZ ENDP ; std::_Ranit<FreeMemoryBlock,int,FreeMemoryBlock const *,FreeMemoryBlock const &>::~_Ranit<FreeMemoryBlock,int,FreeMemoryBlock const *,FreeMemoryBlock const &>
_TEXT	ENDS
PUBLIC	?_Orphan_me@_Iterator_base@std@@QAEXXZ		; std::_Iterator_base::_Orphan_me
EXTRN	??1_Lockit@std@@QAE@XZ:PROC			; std::_Lockit::~_Lockit
EXTRN	??0_Lockit@std@@QAE@H@Z:PROC			; std::_Lockit::_Lockit
;	COMDAT xdata$x
; File c:\microsoft visual studio 8\vc\include\xutility
xdata$x	SEGMENT
__unwindtable$??1_Iterator_base@std@@QAE@XZ DD 0ffffffffH
	DD	FLAT:__unwindfunclet$??1_Iterator_base@std@@QAE@XZ$0
__ehfuncinfo$??1_Iterator_base@std@@QAE@XZ DD 019930522H
	DD	01H
	DD	FLAT:__unwindtable$??1_Iterator_base@std@@QAE@XZ
	DD	2 DUP(00H)
	DD	2 DUP(00H)
	DD	00H
	DD	01H
; Function compile flags: /Odtp /RTCsu
xdata$x	ENDS
;	COMDAT ??1_Iterator_base@std@@QAE@XZ
_TEXT	SEGMENT
__Lock$ = -24						; size = 4
_this$ = -16						; size = 4
__$EHRec$ = -12						; size = 12
??1_Iterator_base@std@@QAE@XZ PROC			; std::_Iterator_base::~_Iterator_base, COMDAT
; _this$ = ecx

; 148  : 		{	// destroy the iterator

	push	ebp
	mov	ebp, esp
	push	-1
	push	__ehhandler$??1_Iterator_base@std@@QAE@XZ
	mov	eax, DWORD PTR fs:0
	push	eax
	mov	DWORD PTR fs:0, esp
	sub	esp, 16					; 00000010H
	mov	eax, -858993460				; ccccccccH
	mov	DWORD PTR [ebp-28], eax
	mov	DWORD PTR [ebp-24], eax
	mov	DWORD PTR [ebp-20], eax
	mov	DWORD PTR [ebp-16], eax
	mov	DWORD PTR _this$[ebp], ecx

; 149  : 		_Lockit _Lock(_LOCK_DEBUG);

	push	3
	lea	ecx, DWORD PTR __Lock$[ebp]
	call	??0_Lockit@std@@QAE@H@Z			; std::_Lockit::_Lockit
	mov	DWORD PTR __$EHRec$[ebp+8], 0

; 150  : 		_Orphan_me();

	mov	ecx, DWORD PTR _this$[ebp]
	call	?_Orphan_me@_Iterator_base@std@@QAEXXZ	; std::_Iterator_base::_Orphan_me

; 151  : 		}

	mov	DWORD PTR __$EHRec$[ebp+8], -1
	lea	ecx, DWORD PTR __Lock$[ebp]
	call	??1_Lockit@std@@QAE@XZ			; std::_Lockit::~_Lockit
	push	edx
	mov	ecx, ebp
	push	eax
	lea	edx, DWORD PTR $LN7@Iterator_b
	call	@_RTC_CheckStackVars@8
	pop	eax
	pop	edx
	mov	ecx, DWORD PTR __$EHRec$[ebp]
	mov	DWORD PTR fs:0, ecx
	add	esp, 28					; 0000001cH
	cmp	ebp, esp
	call	__RTC_CheckEsp
	mov	esp, ebp
	pop	ebp
	ret	0
$LN7@Iterator_b:
	DD	1
	DD	$LN6@Iterator_b
$LN6@Iterator_b:
	DD	-24					; ffffffe8H
	DD	4
	DD	$LN4@Iterator_b
$LN4@Iterator_b:
	DB	95					; 0000005fH
	DB	76					; 0000004cH
	DB	111					; 0000006fH
	DB	99					; 00000063H
	DB	107					; 0000006bH
	DB	0
_TEXT	ENDS
;	COMDAT text$x
text$x	SEGMENT
__unwindfunclet$??1_Iterator_base@std@@QAE@XZ$0:
	lea	ecx, DWORD PTR __Lock$[ebp]
	jmp	??1_Lockit@std@@QAE@XZ			; std::_Lockit::~_Lockit
__ehhandler$??1_Iterator_base@std@@QAE@XZ:
	mov	eax, OFFSET __ehfuncinfo$??1_Iterator_base@std@@QAE@XZ
	jmp	___CxxFrameHandler3
text$x	ENDS
??1_Iterator_base@std@@QAE@XZ ENDP			; std::_Iterator_base::~_Iterator_base
PUBLIC	??_C@_1DC@POOIKBAO@?$AAI?$AAT?$AAE?$AAR?$AAA?$AAT?$AAO?$AAR?$AA?5?$AAL?$AAI?$AAS?$AAT?$AA?5?$AAC?$AAO?$AAR?$AAR?$AAU?$AAP?$AAT?$AAE?$AAD?$AA?$CB?$AA?$AA@ ; `string'
PUBLIC	??_C@_1GC@BOCMKMKF@?$AAC?$AA?3?$AA?2?$AAM?$AAi?$AAc?$AAr?$AAo?$AAs?$AAo?$AAf?$AAt?$AA?5?$AAV?$AAi?$AAs?$AAu?$AAa?$AAl?$AA?5?$AAS?$AAt?$AAu?$AAd?$AAi?$AAo?$AA?5?$AA8?$AA?2?$AAV?$AAC?$AA?2@ ; `string'
EXTRN	?_Debug_message@std@@YAXPB_W0I@Z:PROC		; std::_Debug_message
;	COMDAT ??_C@_1DC@POOIKBAO@?$AAI?$AAT?$AAE?$AAR?$AAA?$AAT?$AAO?$AAR?$AA?5?$AAL?$AAI?$AAS?$AAT?$AA?5?$AAC?$AAO?$AAR?$AAR?$AAU?$AAP?$AAT?$AAE?$AAD?$AA?$CB?$AA?$AA@
CONST	SEGMENT
??_C@_1DC@POOIKBAO@?$AAI?$AAT?$AAE?$AAR?$AAA?$AAT?$AAO?$AAR?$AA?5?$AAL?$AAI?$AAS?$AAT?$AA?5?$AAC?$AAO?$AAR?$AAR?$AAU?$AAP?$AAT?$AAE?$AAD?$AA?$CB?$AA?$AA@ DB 'I'
	DB	00H, 'T', 00H, 'E', 00H, 'R', 00H, 'A', 00H, 'T', 00H, 'O', 00H
	DB	'R', 00H, ' ', 00H, 'L', 00H, 'I', 00H, 'S', 00H, 'T', 00H, ' '
	DB	00H, 'C', 00H, 'O', 00H, 'R', 00H, 'R', 00H, 'U', 00H, 'P', 00H
	DB	'T', 00H, 'E', 00H, 'D', 00H, '!', 00H, 00H, 00H ; `string'
CONST	ENDS
;	COMDAT ??_C@_1GC@BOCMKMKF@?$AAC?$AA?3?$AA?2?$AAM?$AAi?$AAc?$AAr?$AAo?$AAs?$AAo?$AAf?$AAt?$AA?5?$AAV?$AAi?$AAs?$AAu?$AAa?$AAl?$AA?5?$AAS?$AAt?$AAu?$AAd?$AAi?$AAo?$AA?5?$AA8?$AA?2?$AAV?$AAC?$AA?2@
CONST	SEGMENT
??_C@_1GC@BOCMKMKF@?$AAC?$AA?3?$AA?2?$AAM?$AAi?$AAc?$AAr?$AAo?$AAs?$AAo?$AAf?$AAt?$AA?5?$AAV?$AAi?$AAs?$AAu?$AAa?$AAl?$AA?5?$AAS?$AAt?$AAu?$AAd?$AAi?$AAo?$AA?5?$AA8?$AA?2?$AAV?$AAC?$AA?2@ DB 'C'
	DB	00H, ':', 00H, '\', 00H, 'M', 00H, 'i', 00H, 'c', 00H, 'r', 00H
	DB	'o', 00H, 's', 00H, 'o', 00H, 'f', 00H, 't', 00H, ' ', 00H, 'V'
	DB	00H, 'i', 00H, 's', 00H, 'u', 00H, 'a', 00H, 'l', 00H, ' ', 00H
	DB	'S', 00H, 't', 00H, 'u', 00H, 'd', 00H, 'i', 00H, 'o', 00H, ' '
	DB	00H, '8', 00H, '\', 00H, 'V', 00H, 'C', 00H, '\', 00H, 'i', 00H
	DB	'n', 00H, 'c', 00H, 'l', 00H, 'u', 00H, 'd', 00H, 'e', 00H, '\'
	DB	00H, 'x', 00H, 'u', 00H, 't', 00H, 'i', 00H, 'l', 00H, 'i', 00H
	DB	't', 00H, 'y', 00H, 00H, 00H			; `string'
; Function compile flags: /Odtp /RTCsu
CONST	ENDS
;	COMDAT ?_Orphan_me@_Iterator_base@std@@QAEXXZ
_TEXT	SEGMENT
__Pnext$6444 = -8					; size = 4
_this$ = -4						; size = 4
?_Orphan_me@_Iterator_base@std@@QAEXXZ PROC		; std::_Iterator_base::_Orphan_me, COMDAT
; _this$ = ecx

; 169  : 		{	// cut ties with parent

	push	ebp
	mov	ebp, esp
	sub	esp, 8
	mov	DWORD PTR [ebp-8], -858993460		; ccccccccH
	mov	DWORD PTR [ebp-4], -858993460		; ccccccccH
	mov	DWORD PTR _this$[ebp], ecx

; 170  : 		if (_Mycont != 0 && _Mycont->_Myfirstiter != _IGNORE_MYITERLIST)

	mov	eax, DWORD PTR _this$[ebp]
	cmp	DWORD PTR [eax], 0
	je	SHORT $LN5@Orphan_me
	mov	ecx, DWORD PTR _this$[ebp]
	mov	edx, DWORD PTR [ecx]
	cmp	DWORD PTR [edx], -3			; fffffffdH
	je	SHORT $LN5@Orphan_me

; 171  : 			{	// adopted, remove self from list
; 172  : 			_Iterator_base **_Pnext =
; 173  : 				(_Iterator_base **)&_Mycont->_Myfirstiter;

	mov	eax, DWORD PTR _this$[ebp]
	mov	ecx, DWORD PTR [eax]
	mov	DWORD PTR __Pnext$6444[ebp], ecx
$LN3@Orphan_me:

; 174  : 			while (*_Pnext != 0 && *_Pnext != this)

	mov	edx, DWORD PTR __Pnext$6444[ebp]
	cmp	DWORD PTR [edx], 0
	je	SHORT $LN2@Orphan_me
	mov	eax, DWORD PTR __Pnext$6444[ebp]
	mov	ecx, DWORD PTR [eax]
	cmp	ecx, DWORD PTR _this$[ebp]
	je	SHORT $LN2@Orphan_me

; 175  : 				_Pnext = &(*_Pnext)->_Mynextiter;

	mov	edx, DWORD PTR __Pnext$6444[ebp]
	mov	eax, DWORD PTR [edx]
	add	eax, 4
	mov	DWORD PTR __Pnext$6444[ebp], eax
	jmp	SHORT $LN3@Orphan_me
$LN2@Orphan_me:

; 176  : 
; 177  : 			if (*_Pnext == 0)

	mov	ecx, DWORD PTR __Pnext$6444[ebp]
	cmp	DWORD PTR [ecx], 0
	jne	SHORT $LN1@Orphan_me

; 178  : 				_DEBUG_ERROR("ITERATOR LIST CORRUPTED!");

	push	178					; 000000b2H
	push	OFFSET ??_C@_1GC@BOCMKMKF@?$AAC?$AA?3?$AA?2?$AAM?$AAi?$AAc?$AAr?$AAo?$AAs?$AAo?$AAf?$AAt?$AA?5?$AAV?$AAi?$AAs?$AAu?$AAa?$AAl?$AA?5?$AAS?$AAt?$AAu?$AAd?$AAi?$AAo?$AA?5?$AA8?$AA?2?$AAV?$AAC?$AA?2@
	push	OFFSET ??_C@_1DC@POOIKBAO@?$AAI?$AAT?$AAE?$AAR?$AAA?$AAT?$AAO?$AAR?$AA?5?$AAL?$AAI?$AAS?$AAT?$AA?5?$AAC?$AAO?$AAR?$AAR?$AAU?$AAP?$AAT?$AAE?$AAD?$AA?$CB?$AA?$AA@
	call	?_Debug_message@std@@YAXPB_W0I@Z	; std::_Debug_message
	add	esp, 12					; 0000000cH
$LN1@Orphan_me:

; 179  : 			*_Pnext = _Mynextiter;

	mov	edx, DWORD PTR __Pnext$6444[ebp]
	mov	eax, DWORD PTR _this$[ebp]
	mov	ecx, DWORD PTR [eax+4]
	mov	DWORD PTR [edx], ecx

; 180  : 			_Mycont = 0;

	mov	edx, DWORD PTR _this$[ebp]
	mov	DWORD PTR [edx], 0
$LN5@Orphan_me:

; 181  : 			}
; 182  : 		}

	add	esp, 8
	cmp	ebp, esp
	call	__RTC_CheckEsp
	mov	esp, ebp
	pop	ebp
	ret	0
?_Orphan_me@_Iterator_base@std@@QAEXXZ ENDP		; std::_Iterator_base::_Orphan_me
_TEXT	ENDS
PUBLIC	??1?$_Vector_iterator@VAllocatedMemoryBlock@@V?$allocator@VAllocatedMemoryBlock@@@std@@@std@@QAE@XZ ; std::_Vector_iterator<AllocatedMemoryBlock,std::allocator<AllocatedMemoryBlock> >::~_Vector_iterator<AllocatedMemoryBlock,std::allocator<AllocatedMemoryBlock> >
PUBLIC	?insert@?$vector@VAllocatedMemoryBlock@@V?$allocator@VAllocatedMemoryBlock@@@std@@@std@@QAE?AV?$_Vector_iterator@VAllocatedMemoryBlock@@V?$allocator@VAllocatedMemoryBlock@@@std@@@2@V32@ABVAllocatedMemoryBlock@@@Z ; std::vector<AllocatedMemoryBlock,std::allocator<AllocatedMemoryBlock> >::insert
PUBLIC	??H?$_Vector_iterator@VAllocatedMemoryBlock@@V?$allocator@VAllocatedMemoryBlock@@@std@@@std@@QBE?AV01@H@Z ; std::_Vector_iterator<AllocatedMemoryBlock,std::allocator<AllocatedMemoryBlock> >::operator+
PUBLIC	?begin@?$vector@VAllocatedMemoryBlock@@V?$allocator@VAllocatedMemoryBlock@@@std@@@std@@QAE?AV?$_Vector_iterator@VAllocatedMemoryBlock@@V?$allocator@VAllocatedMemoryBlock@@@std@@@2@XZ ; std::vector<AllocatedMemoryBlock,std::allocator<AllocatedMemoryBlock> >::begin
PUBLIC	??A?$vector@VAllocatedMemoryBlock@@V?$allocator@VAllocatedMemoryBlock@@@std@@@std@@QAEAAVAllocatedMemoryBlock@@I@Z ; std::vector<AllocatedMemoryBlock,std::allocator<AllocatedMemoryBlock> >::operator[]
PUBLIC	?size@?$vector@VAllocatedMemoryBlock@@V?$allocator@VAllocatedMemoryBlock@@@std@@@std@@QBEIXZ ; std::vector<AllocatedMemoryBlock,std::allocator<AllocatedMemoryBlock> >::size
PUBLIC	?AddAllocatedBlock@MemoryManager@@QAEXII@Z	; MemoryManager::AddAllocatedBlock
xdata$x	SEGMENT
__unwindtable$?AddAllocatedBlock@MemoryManager@@QAEXII@Z DD 0ffffffffH
	DD	FLAT:__unwindfunclet$?AddAllocatedBlock@MemoryManager@@QAEXII@Z$0
__ehfuncinfo$?AddAllocatedBlock@MemoryManager@@QAEXII@Z DD 019930522H
	DD	01H
	DD	FLAT:__unwindtable$?AddAllocatedBlock@MemoryManager@@QAEXII@Z
	DD	2 DUP(00H)
	DD	2 DUP(00H)
	DD	00H
	DD	01H
; Function compile flags: /Odtp /RTCsu
; File c:\nuanceexperimental\memorymanager.cpp
xdata$x	ENDS
_TEXT	SEGMENT
tv138 = -84						; size = 4
tv137 = -80						; size = 4
tv134 = -76						; size = 4
tv140 = -72						; size = 4
$T16907 = -68						; size = 12
$T16906 = -56						; size = 12
$T16905 = -44						; size = 4
_index$ = -40						; size = 4
_vectorSize$ = -36					; size = 4
_newAllocatedBlock$ = -28				; size = 8
_this$ = -16						; size = 4
__$EHRec$ = -12						; size = 12
_startAddress$ = 8					; size = 4
_numBytes$ = 12						; size = 4
?AddAllocatedBlock@MemoryManager@@QAEXII@Z PROC		; MemoryManager::AddAllocatedBlock
; _this$ = ecx

; 102  : {

	push	ebp
	mov	ebp, esp
	push	-1
	push	__ehhandler$?AddAllocatedBlock@MemoryManager@@QAEXII@Z
	mov	eax, DWORD PTR fs:0
	push	eax
	mov	DWORD PTR fs:0, esp
	sub	esp, 72					; 00000048H
	push	edi
	push	ecx
	lea	edi, DWORD PTR [ebp-84]
	mov	ecx, 18					; 00000012H
	mov	eax, -858993460				; ccccccccH
	rep stosd
	pop	ecx
	mov	DWORD PTR _this$[ebp], ecx

; 103  :   AllocatedMemoryBlock newAllocatedBlock;
; 104  :   uint32 vectorSize;
; 105  :   uint32 index;
; 106  : 
; 107  :   newAllocatedBlock.startAddress = startAddress;

	mov	eax, DWORD PTR _startAddress$[ebp]
	mov	DWORD PTR _newAllocatedBlock$[ebp], eax

; 108  :   newAllocatedBlock.numBytes = numBytes;

	mov	ecx, DWORD PTR _numBytes$[ebp]
	mov	DWORD PTR _newAllocatedBlock$[ebp+4], ecx

; 109  : 
; 110  :   vectorSize = (uint32)allocatedBlockVector.size();

	mov	ecx, DWORD PTR _this$[ebp]
	add	ecx, 28					; 0000001cH
	call	?size@?$vector@VAllocatedMemoryBlock@@V?$allocator@VAllocatedMemoryBlock@@@std@@@std@@QBEIXZ ; std::vector<AllocatedMemoryBlock,std::allocator<AllocatedMemoryBlock> >::size
	mov	DWORD PTR _vectorSize$[ebp], eax

; 111  : 
; 112  :   for(index = 0; index < vectorSize; index++)

	mov	DWORD PTR _index$[ebp], 0
	jmp	SHORT $LN4@AddAllocat
$LN3@AddAllocat:
	mov	edx, DWORD PTR _index$[ebp]
	add	edx, 1
	mov	DWORD PTR _index$[ebp], edx
$LN4@AddAllocat:
	mov	eax, DWORD PTR _index$[ebp]
	cmp	eax, DWORD PTR _vectorSize$[ebp]
	jae	SHORT $LN2@AddAllocat

; 113  :   {
; 114  :     if(allocatedBlockVector[index].startAddress > startAddress)

	mov	ecx, DWORD PTR _index$[ebp]
	push	ecx
	mov	ecx, DWORD PTR _this$[ebp]
	add	ecx, 28					; 0000001cH
	call	??A?$vector@VAllocatedMemoryBlock@@V?$allocator@VAllocatedMemoryBlock@@@std@@@std@@QAEAAVAllocatedMemoryBlock@@I@Z ; std::vector<AllocatedMemoryBlock,std::allocator<AllocatedMemoryBlock> >::operator[]
	mov	edx, DWORD PTR [eax]
	cmp	edx, DWORD PTR _startAddress$[ebp]
	jbe	SHORT $LN1@AddAllocat

; 115  :     {
; 116  :       break;

	jmp	SHORT $LN2@AddAllocat
$LN1@AddAllocat:

; 117  :     }
; 118  :   }

	jmp	SHORT $LN3@AddAllocat
$LN2@AddAllocat:

; 119  : 
; 120  :   allocatedBlockVector.insert(allocatedBlockVector.begin() + index, newAllocatedBlock);

	lea	eax, DWORD PTR _newAllocatedBlock$[ebp]
	push	eax
	sub	esp, 12					; 0000000cH
	mov	ecx, esp
	mov	DWORD PTR $T16905[ebp], esp
	mov	edx, DWORD PTR _index$[ebp]
	push	edx
	push	ecx
	lea	eax, DWORD PTR $T16906[ebp]
	push	eax
	mov	ecx, DWORD PTR _this$[ebp]
	add	ecx, 28					; 0000001cH
	call	?begin@?$vector@VAllocatedMemoryBlock@@V?$allocator@VAllocatedMemoryBlock@@@std@@@std@@QAE?AV?$_Vector_iterator@VAllocatedMemoryBlock@@V?$allocator@VAllocatedMemoryBlock@@@std@@@2@XZ ; std::vector<AllocatedMemoryBlock,std::allocator<AllocatedMemoryBlock> >::begin
	mov	DWORD PTR tv140[ebp], eax
	mov	ecx, DWORD PTR tv140[ebp]
	mov	DWORD PTR tv134[ebp], ecx
	mov	DWORD PTR __$EHRec$[ebp+8], 0
	mov	ecx, DWORD PTR tv134[ebp]
	call	??H?$_Vector_iterator@VAllocatedMemoryBlock@@V?$allocator@VAllocatedMemoryBlock@@@std@@@std@@QBE?AV01@H@Z ; std::_Vector_iterator<AllocatedMemoryBlock,std::allocator<AllocatedMemoryBlock> >::operator+
	mov	DWORD PTR tv137[ebp], eax
	lea	edx, DWORD PTR $T16907[ebp]
	push	edx
	mov	ecx, DWORD PTR _this$[ebp]
	add	ecx, 28					; 0000001cH
	call	?insert@?$vector@VAllocatedMemoryBlock@@V?$allocator@VAllocatedMemoryBlock@@@std@@@std@@QAE?AV?$_Vector_iterator@VAllocatedMemoryBlock@@V?$allocator@VAllocatedMemoryBlock@@@std@@@2@V32@ABVAllocatedMemoryBlock@@@Z ; std::vector<AllocatedMemoryBlock,std::allocator<AllocatedMemoryBlock> >::insert
	mov	DWORD PTR tv138[ebp], eax
	lea	ecx, DWORD PTR $T16907[ebp]
	call	??1?$_Vector_iterator@VAllocatedMemoryBlock@@V?$allocator@VAllocatedMemoryBlock@@@std@@@std@@QAE@XZ
	mov	DWORD PTR __$EHRec$[ebp+8], -1
	lea	ecx, DWORD PTR $T16906[ebp]
	call	??1?$_Vector_iterator@VAllocatedMemoryBlock@@V?$allocator@VAllocatedMemoryBlock@@@std@@@std@@QAE@XZ

; 121  : }

	push	edx
	mov	ecx, ebp
	push	eax
	lea	edx, DWORD PTR $LN13@AddAllocat
	call	@_RTC_CheckStackVars@8
	pop	eax
	pop	edx
	mov	ecx, DWORD PTR __$EHRec$[ebp]
	mov	DWORD PTR fs:0, ecx
	pop	edi
	add	esp, 84					; 00000054H
	cmp	ebp, esp
	call	__RTC_CheckEsp
	mov	esp, ebp
	pop	ebp
	ret	8
	npad	2
$LN13@AddAllocat:
	DD	1
	DD	$LN12@AddAllocat
$LN12@AddAllocat:
	DD	-28					; ffffffe4H
	DD	8
	DD	$LN10@AddAllocat
$LN10@AddAllocat:
	DB	110					; 0000006eH
	DB	101					; 00000065H
	DB	119					; 00000077H
	DB	65					; 00000041H
	DB	108					; 0000006cH
	DB	108					; 0000006cH
	DB	111					; 0000006fH
	DB	99					; 00000063H
	DB	97					; 00000061H
	DB	116					; 00000074H
	DB	101					; 00000065H
	DB	100					; 00000064H
	DB	66					; 00000042H
	DB	108					; 0000006cH
	DB	111					; 0000006fH
	DB	99					; 00000063H
	DB	107					; 0000006bH
	DB	0
_TEXT	ENDS
text$x	SEGMENT
__unwindfunclet$?AddAllocatedBlock@MemoryManager@@QAEXII@Z$0:
	lea	ecx, DWORD PTR $T16906[ebp]
	jmp	??1?$_Vector_iterator@VAllocatedMemoryBlock@@V?$allocator@VAllocatedMemoryBlock@@@std@@@std@@QAE@XZ
__ehhandler$?AddAllocatedBlock@MemoryManager@@QAEXII@Z:
	mov	eax, OFFSET __ehfuncinfo$?AddAllocatedBlock@MemoryManager@@QAEXII@Z
	jmp	___CxxFrameHandler3
text$x	ENDS
?AddAllocatedBlock@MemoryManager@@QAEXII@Z ENDP		; MemoryManager::AddAllocatedBlock
PUBLIC	??1?$_Vector_const_iterator@VAllocatedMemoryBlock@@V?$allocator@VAllocatedMemoryBlock@@@std@@@std@@QAE@XZ ; std::_Vector_const_iterator<AllocatedMemoryBlock,std::allocator<AllocatedMemoryBlock> >::~_Vector_const_iterator<AllocatedMemoryBlock,std::allocator<AllocatedMemoryBlock> >
; Function compile flags: /Odtp /RTCsu
;	COMDAT ??1?$_Vector_iterator@VAllocatedMemoryBlock@@V?$allocator@VAllocatedMemoryBlock@@@std@@@std@@QAE@XZ
_TEXT	SEGMENT
_this$ = -4						; size = 4
??1?$_Vector_iterator@VAllocatedMemoryBlock@@V?$allocator@VAllocatedMemoryBlock@@@std@@@std@@QAE@XZ PROC ; std::_Vector_iterator<AllocatedMemoryBlock,std::allocator<AllocatedMemoryBlock> >::~_Vector_iterator<AllocatedMemoryBlock,std::allocator<AllocatedMemoryBlock> >, COMDAT
; _this$ = ecx
	push	ebp
	mov	ebp, esp
	push	ecx
	mov	DWORD PTR [ebp-4], -858993460		; ccccccccH
	mov	DWORD PTR _this$[ebp], ecx
	mov	ecx, DWORD PTR _this$[ebp]
	call	??1?$_Vector_const_iterator@VAllocatedMemoryBlock@@V?$allocator@VAllocatedMemoryBlock@@@std@@@std@@QAE@XZ
	add	esp, 4
	cmp	ebp, esp
	call	__RTC_CheckEsp
	mov	esp, ebp
	pop	ebp
	ret	0
??1?$_Vector_iterator@VAllocatedMemoryBlock@@V?$allocator@VAllocatedMemoryBlock@@@std@@@std@@QAE@XZ ENDP ; std::_Vector_iterator<AllocatedMemoryBlock,std::allocator<AllocatedMemoryBlock> >::~_Vector_iterator<AllocatedMemoryBlock,std::allocator<AllocatedMemoryBlock> >
_TEXT	ENDS
PUBLIC	??1?$_Ranit@VAllocatedMemoryBlock@@HPBV1@ABV1@@std@@QAE@XZ ; std::_Ranit<AllocatedMemoryBlock,int,AllocatedMemoryBlock const *,AllocatedMemoryBlock const &>::~_Ranit<AllocatedMemoryBlock,int,AllocatedMemoryBlock const *,AllocatedMemoryBlock const &>
; Function compile flags: /Odtp /RTCsu
;	COMDAT ??1?$_Vector_const_iterator@VAllocatedMemoryBlock@@V?$allocator@VAllocatedMemoryBlock@@@std@@@std@@QAE@XZ
_TEXT	SEGMENT
_this$ = -4						; size = 4
??1?$_Vector_const_iterator@VAllocatedMemoryBlock@@V?$allocator@VAllocatedMemoryBlock@@@std@@@std@@QAE@XZ PROC ; std::_Vector_const_iterator<AllocatedMemoryBlock,std::allocator<AllocatedMemoryBlock> >::~_Vector_const_iterator<AllocatedMemoryBlock,std::allocator<AllocatedMemoryBlock> >, COMDAT
; _this$ = ecx
	push	ebp
	mov	ebp, esp
	push	ecx
	mov	DWORD PTR [ebp-4], -858993460		; ccccccccH
	mov	DWORD PTR _this$[ebp], ecx
	mov	ecx, DWORD PTR _this$[ebp]
	call	??1?$_Ranit@VAllocatedMemoryBlock@@HPBV1@ABV1@@std@@QAE@XZ
	add	esp, 4
	cmp	ebp, esp
	call	__RTC_CheckEsp
	mov	esp, ebp
	pop	ebp
	ret	0
??1?$_Vector_const_iterator@VAllocatedMemoryBlock@@V?$allocator@VAllocatedMemoryBlock@@@std@@@std@@QAE@XZ ENDP ; std::_Vector_const_iterator<AllocatedMemoryBlock,std::allocator<AllocatedMemoryBlock> >::~_Vector_const_iterator<AllocatedMemoryBlock,std::allocator<AllocatedMemoryBlock> >
; Function compile flags: /Odtp /RTCsu
_TEXT	ENDS
;	COMDAT ??1?$_Ranit@VAllocatedMemoryBlock@@HPBV1@ABV1@@std@@QAE@XZ
_TEXT	SEGMENT
_this$ = -4						; size = 4
??1?$_Ranit@VAllocatedMemoryBlock@@HPBV1@ABV1@@std@@QAE@XZ PROC ; std::_Ranit<AllocatedMemoryBlock,int,AllocatedMemoryBlock const *,AllocatedMemoryBlock const &>::~_Ranit<AllocatedMemoryBlock,int,AllocatedMemoryBlock const *,AllocatedMemoryBlock const &>, COMDAT
; _this$ = ecx
	push	ebp
	mov	ebp, esp
	push	ecx
	mov	DWORD PTR [ebp-4], -858993460		; ccccccccH
	mov	DWORD PTR _this$[ebp], ecx
	mov	ecx, DWORD PTR _this$[ebp]
	call	??1_Iterator_base@std@@QAE@XZ		; std::_Iterator_base::~_Iterator_base
	add	esp, 4
	cmp	ebp, esp
	call	__RTC_CheckEsp
	mov	esp, ebp
	pop	ebp
	ret	0
??1?$_Ranit@VAllocatedMemoryBlock@@HPBV1@ABV1@@std@@QAE@XZ ENDP ; std::_Ranit<AllocatedMemoryBlock,int,AllocatedMemoryBlock const *,AllocatedMemoryBlock const &>::~_Ranit<AllocatedMemoryBlock,int,AllocatedMemoryBlock const *,AllocatedMemoryBlock const &>
_TEXT	ENDS
PUBLIC	?erase@?$vector@VAllocatedMemoryBlock@@V?$allocator@VAllocatedMemoryBlock@@@std@@@std@@QAE?AV?$_Vector_iterator@VAllocatedMemoryBlock@@V?$allocator@VAllocatedMemoryBlock@@@std@@@2@V32@@Z ; std::vector<AllocatedMemoryBlock,std::allocator<AllocatedMemoryBlock> >::erase
PUBLIC	?Free@MemoryManager@@QAEXI@Z			; MemoryManager::Free
xdata$x	SEGMENT
__unwindtable$?Free@MemoryManager@@QAEXI@Z DD 0ffffffffH
	DD	FLAT:__unwindfunclet$?Free@MemoryManager@@QAEXI@Z$0
__ehfuncinfo$?Free@MemoryManager@@QAEXI@Z DD 019930522H
	DD	01H
	DD	FLAT:__unwindtable$?Free@MemoryManager@@QAEXI@Z
	DD	2 DUP(00H)
	DD	2 DUP(00H)
	DD	00H
	DD	01H
; Function compile flags: /Odtp /RTCsu
xdata$x	ENDS
_TEXT	SEGMENT
tv154 = -88						; size = 4
tv153 = -84						; size = 4
tv151 = -80						; size = 4
tv156 = -76						; size = 4
$T16930 = -72						; size = 12
$T16929 = -60						; size = 12
$T16928 = -48						; size = 4
_index$ = -44						; size = 4
_vectorSize$ = -40					; size = 4
_newFreeBlock$ = -32					; size = 12
_this$ = -16						; size = 4
__$EHRec$ = -12						; size = 12
_startAddress$ = 8					; size = 4
?Free@MemoryManager@@QAEXI@Z PROC			; MemoryManager::Free
; _this$ = ecx

; 124  : {

	push	ebp
	mov	ebp, esp
	push	-1
	push	__ehhandler$?Free@MemoryManager@@QAEXI@Z
	mov	eax, DWORD PTR fs:0
	push	eax
	mov	DWORD PTR fs:0, esp
	sub	esp, 76					; 0000004cH
	push	edi
	push	ecx
	lea	edi, DWORD PTR [ebp-88]
	mov	ecx, 19					; 00000013H
	mov	eax, -858993460				; ccccccccH
	rep stosd
	pop	ecx
	mov	DWORD PTR _this$[ebp], ecx

; 125  :   FreeMemoryBlock newFreeBlock;
; 126  :   uint32 vectorSize, index;
; 127  : 
; 128  :   vectorSize = (uint32)allocatedBlockVector.size();

	mov	ecx, DWORD PTR _this$[ebp]
	add	ecx, 28					; 0000001cH
	call	?size@?$vector@VAllocatedMemoryBlock@@V?$allocator@VAllocatedMemoryBlock@@@std@@@std@@QBEIXZ ; std::vector<AllocatedMemoryBlock,std::allocator<AllocatedMemoryBlock> >::size
	mov	DWORD PTR _vectorSize$[ebp], eax

; 129  : 
; 130  :   for(index = 0; index < vectorSize; index++)

	mov	DWORD PTR _index$[ebp], 0
	jmp	SHORT $LN4@Free
$LN3@Free:
	mov	eax, DWORD PTR _index$[ebp]
	add	eax, 1
	mov	DWORD PTR _index$[ebp], eax
$LN4@Free:
	mov	ecx, DWORD PTR _index$[ebp]
	cmp	ecx, DWORD PTR _vectorSize$[ebp]
	jae	$LN5@Free

; 131  :   {
; 132  :     if(allocatedBlockVector[index].startAddress == startAddress)

	mov	edx, DWORD PTR _index$[ebp]
	push	edx
	mov	ecx, DWORD PTR _this$[ebp]
	add	ecx, 28					; 0000001cH
	call	??A?$vector@VAllocatedMemoryBlock@@V?$allocator@VAllocatedMemoryBlock@@@std@@@std@@QAEAAVAllocatedMemoryBlock@@I@Z ; std::vector<AllocatedMemoryBlock,std::allocator<AllocatedMemoryBlock> >::operator[]
	mov	eax, DWORD PTR [eax]
	cmp	eax, DWORD PTR _startAddress$[ebp]
	jne	$LN1@Free

; 133  :     {
; 134  :       newFreeBlock.startAddress = allocatedBlockVector[index].startAddress;

	mov	ecx, DWORD PTR _index$[ebp]
	push	ecx
	mov	ecx, DWORD PTR _this$[ebp]
	add	ecx, 28					; 0000001cH
	call	??A?$vector@VAllocatedMemoryBlock@@V?$allocator@VAllocatedMemoryBlock@@@std@@@std@@QAEAAVAllocatedMemoryBlock@@I@Z ; std::vector<AllocatedMemoryBlock,std::allocator<AllocatedMemoryBlock> >::operator[]
	mov	edx, DWORD PTR [eax]
	mov	DWORD PTR _newFreeBlock$[ebp], edx

; 135  :       newFreeBlock.numBytes = allocatedBlockVector[index].numBytes;

	mov	eax, DWORD PTR _index$[ebp]
	push	eax
	mov	ecx, DWORD PTR _this$[ebp]
	add	ecx, 28					; 0000001cH
	call	??A?$vector@VAllocatedMemoryBlock@@V?$allocator@VAllocatedMemoryBlock@@@std@@@std@@QAEAAVAllocatedMemoryBlock@@I@Z ; std::vector<AllocatedMemoryBlock,std::allocator<AllocatedMemoryBlock> >::operator[]
	mov	ecx, DWORD PTR [eax+4]
	mov	DWORD PTR _newFreeBlock$[ebp+8], ecx

; 136  :       newFreeBlock.endAddress = newFreeBlock.startAddress + newFreeBlock.numBytes - 1;

	mov	edx, DWORD PTR _newFreeBlock$[ebp+8]
	mov	eax, DWORD PTR _newFreeBlock$[ebp]
	lea	ecx, DWORD PTR [eax+edx-1]
	mov	DWORD PTR _newFreeBlock$[ebp+4], ecx

; 137  :       //Remove the allocated block structure from the allocated block list
; 138  :       allocatedBlockVector.erase(allocatedBlockVector.begin() + index);

	sub	esp, 12					; 0000000cH
	mov	edx, esp
	mov	DWORD PTR $T16928[ebp], esp
	mov	eax, DWORD PTR _index$[ebp]
	push	eax
	push	edx
	lea	ecx, DWORD PTR $T16929[ebp]
	push	ecx
	mov	ecx, DWORD PTR _this$[ebp]
	add	ecx, 28					; 0000001cH
	call	?begin@?$vector@VAllocatedMemoryBlock@@V?$allocator@VAllocatedMemoryBlock@@@std@@@std@@QAE?AV?$_Vector_iterator@VAllocatedMemoryBlock@@V?$allocator@VAllocatedMemoryBlock@@@std@@@2@XZ ; std::vector<AllocatedMemoryBlock,std::allocator<AllocatedMemoryBlock> >::begin
	mov	DWORD PTR tv156[ebp], eax
	mov	edx, DWORD PTR tv156[ebp]
	mov	DWORD PTR tv151[ebp], edx
	mov	DWORD PTR __$EHRec$[ebp+8], 0
	mov	ecx, DWORD PTR tv151[ebp]
	call	??H?$_Vector_iterator@VAllocatedMemoryBlock@@V?$allocator@VAllocatedMemoryBlock@@@std@@@std@@QBE?AV01@H@Z ; std::_Vector_iterator<AllocatedMemoryBlock,std::allocator<AllocatedMemoryBlock> >::operator+
	mov	DWORD PTR tv153[ebp], eax
	lea	eax, DWORD PTR $T16930[ebp]
	push	eax
	mov	ecx, DWORD PTR _this$[ebp]
	add	ecx, 28					; 0000001cH
	call	?erase@?$vector@VAllocatedMemoryBlock@@V?$allocator@VAllocatedMemoryBlock@@@std@@@std@@QAE?AV?$_Vector_iterator@VAllocatedMemoryBlock@@V?$allocator@VAllocatedMemoryBlock@@@std@@@2@V32@@Z ; std::vector<AllocatedMemoryBlock,std::allocator<AllocatedMemoryBlock> >::erase
	mov	DWORD PTR tv154[ebp], eax
	lea	ecx, DWORD PTR $T16930[ebp]
	call	??1?$_Vector_iterator@VAllocatedMemoryBlock@@V?$allocator@VAllocatedMemoryBlock@@@std@@@std@@QAE@XZ
	mov	DWORD PTR __$EHRec$[ebp+8], -1
	lea	ecx, DWORD PTR $T16929[ebp]
	call	??1?$_Vector_iterator@VAllocatedMemoryBlock@@V?$allocator@VAllocatedMemoryBlock@@@std@@@std@@QAE@XZ

; 139  :       //Add a new memory block item into the free block list (specify index equal to size
; 140  :       //to force search for proper insertion point)
; 141  :       Add(newFreeBlock.startAddress,newFreeBlock.endAddress,(uint32)freeBlockVector.size());

	mov	ecx, DWORD PTR _this$[ebp]
	add	ecx, 8
	call	?size@?$vector@VFreeMemoryBlock@@V?$allocator@VFreeMemoryBlock@@@std@@@std@@QBEIXZ ; std::vector<FreeMemoryBlock,std::allocator<FreeMemoryBlock> >::size
	push	eax
	mov	ecx, DWORD PTR _newFreeBlock$[ebp+4]
	push	ecx
	mov	edx, DWORD PTR _newFreeBlock$[ebp]
	push	edx
	mov	ecx, DWORD PTR _this$[ebp]
	call	?Add@MemoryManager@@QAEXIII@Z		; MemoryManager::Add

; 142  :       return;

	jmp	SHORT $LN5@Free
$LN1@Free:

; 143  :     }

	jmp	$LN3@Free
$LN5@Free:

; 144  :   }
; 145  : }

	push	edx
	mov	ecx, ebp
	push	eax
	lea	edx, DWORD PTR $LN13@Free
	call	@_RTC_CheckStackVars@8
	pop	eax
	pop	edx
	mov	ecx, DWORD PTR __$EHRec$[ebp]
	mov	DWORD PTR fs:0, ecx
	pop	edi
	add	esp, 88					; 00000058H
	cmp	ebp, esp
	call	__RTC_CheckEsp
	mov	esp, ebp
	pop	ebp
	ret	4
	npad	1
$LN13@Free:
	DD	1
	DD	$LN12@Free
$LN12@Free:
	DD	-32					; ffffffe0H
	DD	12					; 0000000cH
	DD	$LN10@Free
$LN10@Free:
	DB	110					; 0000006eH
	DB	101					; 00000065H
	DB	119					; 00000077H
	DB	70					; 00000046H
	DB	114					; 00000072H
	DB	101					; 00000065H
	DB	101					; 00000065H
	DB	66					; 00000042H
	DB	108					; 0000006cH
	DB	111					; 0000006fH
	DB	99					; 00000063H
	DB	107					; 0000006bH
	DB	0
_TEXT	ENDS
text$x	SEGMENT
__unwindfunclet$?Free@MemoryManager@@QAEXI@Z$0:
	lea	ecx, DWORD PTR $T16929[ebp]
	jmp	??1?$_Vector_iterator@VAllocatedMemoryBlock@@V?$allocator@VAllocatedMemoryBlock@@@std@@@std@@QAE@XZ
__ehhandler$?Free@MemoryManager@@QAEXI@Z:
	mov	eax, OFFSET __ehfuncinfo$?Free@MemoryManager@@QAEXI@Z
	jmp	___CxxFrameHandler3
text$x	ENDS
?Free@MemoryManager@@QAEXI@Z ENDP			; MemoryManager::Free
PUBLIC	?AlignAddress@MemoryManager@@AAEIII@Z		; MemoryManager::AlignAddress
PUBLIC	?Allocate@MemoryManager@@QAEPAXII@Z		; MemoryManager::Allocate
xdata$x	SEGMENT
__unwindtable$?Allocate@MemoryManager@@QAEPAXII@Z DD 0ffffffffH
	DD	FLAT:__unwindfunclet$?Allocate@MemoryManager@@QAEPAXII@Z$0
__ehfuncinfo$?Allocate@MemoryManager@@QAEPAXII@Z DD 019930522H
	DD	01H
	DD	FLAT:__unwindtable$?Allocate@MemoryManager@@QAEPAXII@Z
	DD	2 DUP(00H)
	DD	2 DUP(00H)
	DD	00H
	DD	01H
; Function compile flags: /Odtp /RTCsu
xdata$x	ENDS
_TEXT	SEGMENT
tv204 = -100						; size = 4
tv189 = -96						; size = 4
tv256 = -92						; size = 4
tv255 = -88						; size = 4
tv253 = -84						; size = 4
tv258 = -80						; size = 4
$T16944 = -76						; size = 12
$T16943 = -64						; size = 12
$T16942 = -52						; size = 4
_vectorSize$ = -48					; size = 4
_adjustedAddress$ = -44					; size = 4
_index$ = -40						; size = 4
_fmb2$ = -32						; size = 12
_this$ = -16						; size = 4
__$EHRec$ = -12						; size = 12
_requestedBytes$ = 8					; size = 4
_requestedAlignment$ = 12				; size = 4
?Allocate@MemoryManager@@QAEPAXII@Z PROC		; MemoryManager::Allocate
; _this$ = ecx

; 148  : {

	push	ebp
	mov	ebp, esp
	push	-1
	push	__ehhandler$?Allocate@MemoryManager@@QAEPAXII@Z
	mov	eax, DWORD PTR fs:0
	push	eax
	mov	DWORD PTR fs:0, esp
	sub	esp, 88					; 00000058H
	push	esi
	push	edi
	push	ecx
	lea	edi, DWORD PTR [ebp-100]
	mov	ecx, 22					; 00000016H
	mov	eax, -858993460				; ccccccccH
	rep stosd
	pop	ecx
	mov	DWORD PTR _this$[ebp], ecx

; 149  :   FreeMemoryBlock fmb2;
; 150  :   uint32 index, adjustedAddress;
; 151  :   uint32 vectorSize;
; 152  : 
; 153  :   if(requestedBytes == 0)

	cmp	DWORD PTR _requestedBytes$[ebp], 0
	jne	SHORT $LN18@Allocate

; 154  :   {
; 155  :     requestedBytes = 1;

	mov	DWORD PTR _requestedBytes$[ebp], 1
$LN18@Allocate:

; 156  :   }
; 157  : 
; 158  :   //force vector alignment minimum
; 159  :   if(requestedAlignment < 16)

	cmp	DWORD PTR _requestedAlignment$[ebp], 16	; 00000010H
	jae	SHORT $LN17@Allocate

; 160  :   {
; 161  :     requestedAlignment = 16;

	mov	DWORD PTR _requestedAlignment$[ebp], 16	; 00000010H
$LN17@Allocate:

; 162  :   }
; 163  : 
; 164  :   //stricter alignments must be powers of two
; 165  :   if(TestForInvalidPowerOfTwo(requestedAlignment))

	mov	eax, DWORD PTR _requestedAlignment$[ebp]
	push	eax
	mov	ecx, DWORD PTR _this$[ebp]
	call	?TestForInvalidPowerOfTwo@MemoryManager@@AAE_NI@Z ; MemoryManager::TestForInvalidPowerOfTwo
	movzx	ecx, al
	test	ecx, ecx
	je	SHORT $LN16@Allocate

; 166  :   {
; 167  :     return NULL;

	xor	eax, eax
	jmp	$LN19@Allocate
$LN16@Allocate:

; 168  :   }
; 169  : 
; 170  :   //pad requested byte count to the nearest vector
; 171  :   requestedBytes = (requestedBytes + 15) & 0xFFFFFFF0UL;

	mov	edx, DWORD PTR _requestedBytes$[ebp]
	add	edx, 15					; 0000000fH
	and	edx, -16				; fffffff0H
	mov	DWORD PTR _requestedBytes$[ebp], edx

; 172  : 
; 173  :   vectorSize = (uint32)freeBlockVector.size();

	mov	ecx, DWORD PTR _this$[ebp]
	add	ecx, 8
	call	?size@?$vector@VFreeMemoryBlock@@V?$allocator@VFreeMemoryBlock@@@std@@@std@@QBEIXZ ; std::vector<FreeMemoryBlock,std::allocator<FreeMemoryBlock> >::size
	mov	DWORD PTR _vectorSize$[ebp], eax

; 174  : 
; 175  :   if(vectorSize == 0)

	cmp	DWORD PTR _vectorSize$[ebp], 0
	jne	SHORT $LN15@Allocate

; 176  :   {
; 177  :     return NULL;

	xor	eax, eax
	jmp	$LN19@Allocate
$LN15@Allocate:

; 178  :   }
; 179  : 
; 180  :   for(index = 0; index < vectorSize; index++)

	mov	DWORD PTR _index$[ebp], 0
	jmp	SHORT $LN14@Allocate
$LN13@Allocate:
	mov	eax, DWORD PTR _index$[ebp]
	add	eax, 1
	mov	DWORD PTR _index$[ebp], eax
$LN14@Allocate:
	mov	ecx, DWORD PTR _index$[ebp]
	cmp	ecx, DWORD PTR _vectorSize$[ebp]
	jae	$LN12@Allocate

; 181  :   {
; 182  :     if(freeBlockVector[index].numBytes >= requestedBytes)

	mov	edx, DWORD PTR _index$[ebp]
	push	edx
	mov	ecx, DWORD PTR _this$[ebp]
	add	ecx, 8
	call	??A?$vector@VFreeMemoryBlock@@V?$allocator@VFreeMemoryBlock@@@std@@@std@@QAEAAVFreeMemoryBlock@@I@Z ; std::vector<FreeMemoryBlock,std::allocator<FreeMemoryBlock> >::operator[]
	mov	eax, DWORD PTR [eax+8]
	cmp	eax, DWORD PTR _requestedBytes$[ebp]
	jb	$LN11@Allocate

; 183  :     {
; 184  :       //Find the first address greater or equal to the block starting address
; 185  :       //that is aligned to the number of bytes specified by requestedAlignment
; 186  :       adjustedAddress = AlignAddress(freeBlockVector[index].startAddress, requestedAlignment);

	mov	ecx, DWORD PTR _requestedAlignment$[ebp]
	push	ecx
	mov	edx, DWORD PTR _index$[ebp]
	push	edx
	mov	ecx, DWORD PTR _this$[ebp]
	add	ecx, 8
	call	??A?$vector@VFreeMemoryBlock@@V?$allocator@VFreeMemoryBlock@@@std@@@std@@QAEAAVFreeMemoryBlock@@I@Z ; std::vector<FreeMemoryBlock,std::allocator<FreeMemoryBlock> >::operator[]
	mov	eax, DWORD PTR [eax]
	push	eax
	mov	ecx, DWORD PTR _this$[ebp]
	call	?AlignAddress@MemoryManager@@AAEIII@Z	; MemoryManager::AlignAddress
	mov	DWORD PTR _adjustedAddress$[ebp], eax

; 187  :       if(adjustedAddress <= freeBlockVector[index].endAddress)

	mov	ecx, DWORD PTR _index$[ebp]
	push	ecx
	mov	ecx, DWORD PTR _this$[ebp]
	add	ecx, 8
	call	??A?$vector@VFreeMemoryBlock@@V?$allocator@VFreeMemoryBlock@@@std@@@std@@QAEAAVFreeMemoryBlock@@I@Z ; std::vector<FreeMemoryBlock,std::allocator<FreeMemoryBlock> >::operator[]
	mov	edx, DWORD PTR _adjustedAddress$[ebp]
	cmp	edx, DWORD PTR [eax+4]
	ja	$LN11@Allocate

; 188  :       {
; 189  :         if((freeBlockVector[index].endAddress - adjustedAddress + 1) >= requestedBytes)

	mov	eax, DWORD PTR _index$[ebp]
	push	eax
	mov	ecx, DWORD PTR _this$[ebp]
	add	ecx, 8
	call	??A?$vector@VFreeMemoryBlock@@V?$allocator@VFreeMemoryBlock@@@std@@@std@@QAEAAVFreeMemoryBlock@@I@Z ; std::vector<FreeMemoryBlock,std::allocator<FreeMemoryBlock> >::operator[]
	mov	ecx, DWORD PTR [eax+4]
	sub	ecx, DWORD PTR _adjustedAddress$[ebp]
	add	ecx, 1
	cmp	ecx, DWORD PTR _requestedBytes$[ebp]
	jb	$LN11@Allocate

; 190  :         {
; 191  :           //Block candidate meets all requirements
; 192  :           AddAllocatedBlock(adjustedAddress, requestedBytes);

	mov	edx, DWORD PTR _requestedBytes$[ebp]
	push	edx
	mov	eax, DWORD PTR _adjustedAddress$[ebp]
	push	eax
	mov	ecx, DWORD PTR _this$[ebp]
	call	?AddAllocatedBlock@MemoryManager@@QAEXII@Z ; MemoryManager::AddAllocatedBlock

; 193  : 
; 194  :           if(requestedBytes == freeBlockVector[index].numBytes)

	mov	ecx, DWORD PTR _index$[ebp]
	push	ecx
	mov	ecx, DWORD PTR _this$[ebp]
	add	ecx, 8
	call	??A?$vector@VFreeMemoryBlock@@V?$allocator@VFreeMemoryBlock@@@std@@@std@@QAEAAVFreeMemoryBlock@@I@Z ; std::vector<FreeMemoryBlock,std::allocator<FreeMemoryBlock> >::operator[]
	mov	edx, DWORD PTR _requestedBytes$[ebp]
	cmp	edx, DWORD PTR [eax+8]
	jne	SHORT $LN8@Allocate

; 195  :           {
; 196  :             //Entire block is used so delete the block from the Free Block list
; 197  :             freeBlockVector.erase(freeBlockVector.begin() + index);

	sub	esp, 12					; 0000000cH
	mov	eax, esp
	mov	DWORD PTR $T16942[ebp], esp
	mov	ecx, DWORD PTR _index$[ebp]
	push	ecx
	push	eax
	lea	edx, DWORD PTR $T16943[ebp]
	push	edx
	mov	ecx, DWORD PTR _this$[ebp]
	add	ecx, 8
	call	?begin@?$vector@VFreeMemoryBlock@@V?$allocator@VFreeMemoryBlock@@@std@@@std@@QAE?AV?$_Vector_iterator@VFreeMemoryBlock@@V?$allocator@VFreeMemoryBlock@@@std@@@2@XZ ; std::vector<FreeMemoryBlock,std::allocator<FreeMemoryBlock> >::begin
	mov	DWORD PTR tv258[ebp], eax
	mov	eax, DWORD PTR tv258[ebp]
	mov	DWORD PTR tv253[ebp], eax
	mov	DWORD PTR __$EHRec$[ebp+8], 0
	mov	ecx, DWORD PTR tv253[ebp]
	call	??H?$_Vector_iterator@VFreeMemoryBlock@@V?$allocator@VFreeMemoryBlock@@@std@@@std@@QBE?AV01@H@Z ; std::_Vector_iterator<FreeMemoryBlock,std::allocator<FreeMemoryBlock> >::operator+
	mov	DWORD PTR tv255[ebp], eax
	lea	ecx, DWORD PTR $T16944[ebp]
	push	ecx
	mov	ecx, DWORD PTR _this$[ebp]
	add	ecx, 8
	call	?erase@?$vector@VFreeMemoryBlock@@V?$allocator@VFreeMemoryBlock@@@std@@@std@@QAE?AV?$_Vector_iterator@VFreeMemoryBlock@@V?$allocator@VFreeMemoryBlock@@@std@@@2@V32@@Z ; std::vector<FreeMemoryBlock,std::allocator<FreeMemoryBlock> >::erase
	mov	DWORD PTR tv256[ebp], eax
	lea	ecx, DWORD PTR $T16944[ebp]
	call	??1?$_Vector_iterator@VFreeMemoryBlock@@V?$allocator@VFreeMemoryBlock@@@std@@@std@@QAE@XZ
	mov	DWORD PTR __$EHRec$[ebp+8], -1
	lea	ecx, DWORD PTR $T16943[ebp]
	call	??1?$_Vector_iterator@VFreeMemoryBlock@@V?$allocator@VFreeMemoryBlock@@@std@@@std@@QAE@XZ

; 198  :           }
; 199  :           else

	jmp	$LN7@Allocate
$LN8@Allocate:

; 200  :           {
; 201  :             if(adjustedAddress == freeBlockVector[index].startAddress)

	mov	edx, DWORD PTR _index$[ebp]
	push	edx
	mov	ecx, DWORD PTR _this$[ebp]
	add	ecx, 8
	call	??A?$vector@VFreeMemoryBlock@@V?$allocator@VFreeMemoryBlock@@@std@@@std@@QAEAAVFreeMemoryBlock@@I@Z ; std::vector<FreeMemoryBlock,std::allocator<FreeMemoryBlock> >::operator[]
	mov	ecx, DWORD PTR _adjustedAddress$[ebp]
	cmp	ecx, DWORD PTR [eax]
	jne	SHORT $LN6@Allocate

; 202  :             {
; 203  :               //Allocated block begins right at start_address
; 204  :               freeBlockVector[index].startAddress = adjustedAddress + requestedBytes;

	mov	esi, DWORD PTR _adjustedAddress$[ebp]
	add	esi, DWORD PTR _requestedBytes$[ebp]
	mov	edx, DWORD PTR _index$[ebp]
	push	edx
	mov	ecx, DWORD PTR _this$[ebp]
	add	ecx, 8
	call	??A?$vector@VFreeMemoryBlock@@V?$allocator@VFreeMemoryBlock@@@std@@@std@@QAEAAVFreeMemoryBlock@@I@Z ; std::vector<FreeMemoryBlock,std::allocator<FreeMemoryBlock> >::operator[]
	mov	DWORD PTR [eax], esi

; 205  :               freeBlockVector[index].numBytes -= requestedBytes;

	mov	eax, DWORD PTR _index$[ebp]
	push	eax
	mov	ecx, DWORD PTR _this$[ebp]
	add	ecx, 8
	call	??A?$vector@VFreeMemoryBlock@@V?$allocator@VFreeMemoryBlock@@@std@@@std@@QAEAAVFreeMemoryBlock@@I@Z ; std::vector<FreeMemoryBlock,std::allocator<FreeMemoryBlock> >::operator[]
	add	eax, 8
	mov	DWORD PTR tv189[ebp], eax
	mov	ecx, DWORD PTR tv189[ebp]
	mov	edx, DWORD PTR [ecx]
	sub	edx, DWORD PTR _requestedBytes$[ebp]
	mov	eax, DWORD PTR tv189[ebp]
	mov	DWORD PTR [eax], edx
	jmp	$LN7@Allocate
$LN6@Allocate:

; 206  :               //End address of new free block stays the same
; 207  :             }
; 208  :             else if((adjustedAddress + requestedBytes - 1) == freeBlockVector[index].endAddress)

	mov	ecx, DWORD PTR _requestedBytes$[ebp]
	mov	edx, DWORD PTR _adjustedAddress$[ebp]
	lea	esi, DWORD PTR [edx+ecx-1]
	mov	eax, DWORD PTR _index$[ebp]
	push	eax
	mov	ecx, DWORD PTR _this$[ebp]
	add	ecx, 8
	call	??A?$vector@VFreeMemoryBlock@@V?$allocator@VFreeMemoryBlock@@@std@@@std@@QAEAAVFreeMemoryBlock@@I@Z ; std::vector<FreeMemoryBlock,std::allocator<FreeMemoryBlock> >::operator[]
	cmp	esi, DWORD PTR [eax+4]
	jne	SHORT $LN4@Allocate

; 209  :             {
; 210  :               //Allocated block ends right at end_address
; 211  :               //Start address of new free block stays the same
; 212  :               freeBlockVector[index].numBytes -= requestedBytes;

	mov	ecx, DWORD PTR _index$[ebp]
	push	ecx
	mov	ecx, DWORD PTR _this$[ebp]
	add	ecx, 8
	call	??A?$vector@VFreeMemoryBlock@@V?$allocator@VFreeMemoryBlock@@@std@@@std@@QAEAAVFreeMemoryBlock@@I@Z ; std::vector<FreeMemoryBlock,std::allocator<FreeMemoryBlock> >::operator[]
	add	eax, 8
	mov	DWORD PTR tv204[ebp], eax
	mov	edx, DWORD PTR tv204[ebp]
	mov	eax, DWORD PTR [edx]
	sub	eax, DWORD PTR _requestedBytes$[ebp]
	mov	ecx, DWORD PTR tv204[ebp]
	mov	DWORD PTR [ecx], eax

; 213  :               freeBlockVector[index].endAddress = adjustedAddress - 1;

	mov	esi, DWORD PTR _adjustedAddress$[ebp]
	sub	esi, 1
	mov	edx, DWORD PTR _index$[ebp]
	push	edx
	mov	ecx, DWORD PTR _this$[ebp]
	add	ecx, 8
	call	??A?$vector@VFreeMemoryBlock@@V?$allocator@VFreeMemoryBlock@@@std@@@std@@QAEAAVFreeMemoryBlock@@I@Z ; std::vector<FreeMemoryBlock,std::allocator<FreeMemoryBlock> >::operator[]
	mov	DWORD PTR [eax+4], esi

; 214  :             }
; 215  :             else

	jmp	$LN7@Allocate
$LN4@Allocate:

; 216  :             {
; 217  :               //Allocated block splits free block in two
; 218  :               fmb2.endAddress = freeBlockVector[index].endAddress;

	mov	eax, DWORD PTR _index$[ebp]
	push	eax
	mov	ecx, DWORD PTR _this$[ebp]
	add	ecx, 8
	call	??A?$vector@VFreeMemoryBlock@@V?$allocator@VFreeMemoryBlock@@@std@@@std@@QAEAAVFreeMemoryBlock@@I@Z ; std::vector<FreeMemoryBlock,std::allocator<FreeMemoryBlock> >::operator[]
	mov	ecx, DWORD PTR [eax+4]
	mov	DWORD PTR _fmb2$[ebp+4], ecx

; 219  :               //NewFreeBlock1: pFB1.start_address stays the same
; 220  :               freeBlockVector[index].endAddress = adjustedAddress - 1;

	mov	esi, DWORD PTR _adjustedAddress$[ebp]
	sub	esi, 1
	mov	edx, DWORD PTR _index$[ebp]
	push	edx
	mov	ecx, DWORD PTR _this$[ebp]
	add	ecx, 8
	call	??A?$vector@VFreeMemoryBlock@@V?$allocator@VFreeMemoryBlock@@@std@@@std@@QAEAAVFreeMemoryBlock@@I@Z ; std::vector<FreeMemoryBlock,std::allocator<FreeMemoryBlock> >::operator[]
	mov	DWORD PTR [eax+4], esi

; 221  :               freeBlockVector[index].numBytes = 
; 222  :                 freeBlockVector[index].endAddress - freeBlockVector[index].startAddress + 1;

	mov	eax, DWORD PTR _index$[ebp]
	push	eax
	mov	ecx, DWORD PTR _this$[ebp]
	add	ecx, 8
	call	??A?$vector@VFreeMemoryBlock@@V?$allocator@VFreeMemoryBlock@@@std@@@std@@QAEAAVFreeMemoryBlock@@I@Z ; std::vector<FreeMemoryBlock,std::allocator<FreeMemoryBlock> >::operator[]
	mov	esi, eax
	mov	ecx, DWORD PTR _index$[ebp]
	push	ecx
	mov	ecx, DWORD PTR _this$[ebp]
	add	ecx, 8
	call	??A?$vector@VFreeMemoryBlock@@V?$allocator@VFreeMemoryBlock@@@std@@@std@@QAEAAVFreeMemoryBlock@@I@Z ; std::vector<FreeMemoryBlock,std::allocator<FreeMemoryBlock> >::operator[]
	mov	esi, DWORD PTR [esi+4]
	sub	esi, DWORD PTR [eax]
	add	esi, 1
	mov	edx, DWORD PTR _index$[ebp]
	push	edx
	mov	ecx, DWORD PTR _this$[ebp]
	add	ecx, 8
	call	??A?$vector@VFreeMemoryBlock@@V?$allocator@VFreeMemoryBlock@@@std@@@std@@QAEAAVFreeMemoryBlock@@I@Z ; std::vector<FreeMemoryBlock,std::allocator<FreeMemoryBlock> >::operator[]
	mov	DWORD PTR [eax+8], esi

; 223  :               //NewFreeBlock2: pFB2.end_address stays the same
; 224  :               fmb2.startAddress = adjustedAddress + requestedBytes;

	mov	eax, DWORD PTR _adjustedAddress$[ebp]
	add	eax, DWORD PTR _requestedBytes$[ebp]
	mov	DWORD PTR _fmb2$[ebp], eax

; 225  :               fmb2.numBytes = fmb2.endAddress - fmb2.startAddress + 1;

	mov	ecx, DWORD PTR _fmb2$[ebp+4]
	sub	ecx, DWORD PTR _fmb2$[ebp]
	add	ecx, 1
	mov	DWORD PTR _fmb2$[ebp+8], ecx

; 226  :               //Insert pFB2 into ordered Free Blocks list
; 227  :               if((index + 1) != vectorSize)

	mov	edx, DWORD PTR _index$[ebp]
	add	edx, 1
	cmp	edx, DWORD PTR _vectorSize$[ebp]
	je	SHORT $LN2@Allocate

; 228  :               {
; 229  :                 Add(fmb2.startAddress,fmb2.endAddress,index+1);

	mov	eax, DWORD PTR _index$[ebp]
	add	eax, 1
	push	eax
	mov	ecx, DWORD PTR _fmb2$[ebp+4]
	push	ecx
	mov	edx, DWORD PTR _fmb2$[ebp]
	push	edx
	mov	ecx, DWORD PTR _this$[ebp]
	call	?Add@MemoryManager@@QAEXIII@Z		; MemoryManager::Add

; 230  :               }
; 231  :               else

	jmp	SHORT $LN7@Allocate
$LN2@Allocate:

; 232  :               {
; 233  :                 freeBlockVector.push_back(fmb2);

	lea	eax, DWORD PTR _fmb2$[ebp]
	push	eax
	mov	ecx, DWORD PTR _this$[ebp]
	add	ecx, 8
	call	?push_back@?$vector@VFreeMemoryBlock@@V?$allocator@VFreeMemoryBlock@@@std@@@std@@QAEXABVFreeMemoryBlock@@@Z ; std::vector<FreeMemoryBlock,std::allocator<FreeMemoryBlock> >::push_back
$LN7@Allocate:

; 234  :               }
; 235  :             }
; 236  :           }
; 237  : 
; 238  :           return (void *)adjustedAddress;

	mov	eax, DWORD PTR _adjustedAddress$[ebp]
	jmp	SHORT $LN19@Allocate
$LN11@Allocate:

; 239  :         }
; 240  :         //Not enough bytes in block after aligning the starting address
; 241  :       }
; 242  :       //Aligned starting address is outside of block candidate
; 243  :     }
; 244  :     //Trivial rejection of block candidates that do not have enough bytes
; 245  :     //to meet the request under any circumstance
; 246  :   }

	jmp	$LN13@Allocate
$LN12@Allocate:

; 247  :   //No block was able to meet the requirements
; 248  :   return NULL;

	xor	eax, eax
$LN19@Allocate:

; 249  : }

	push	edx
	mov	ecx, ebp
	push	eax
	lea	edx, DWORD PTR $LN27@Allocate
	call	@_RTC_CheckStackVars@8
	pop	eax
	pop	edx
	mov	ecx, DWORD PTR __$EHRec$[ebp]
	mov	DWORD PTR fs:0, ecx
	pop	edi
	pop	esi
	add	esp, 100				; 00000064H
	cmp	ebp, esp
	call	__RTC_CheckEsp
	mov	esp, ebp
	pop	ebp
	ret	8
	npad	1
$LN27@Allocate:
	DD	1
	DD	$LN26@Allocate
$LN26@Allocate:
	DD	-32					; ffffffe0H
	DD	12					; 0000000cH
	DD	$LN24@Allocate
$LN24@Allocate:
	DB	102					; 00000066H
	DB	109					; 0000006dH
	DB	98					; 00000062H
	DB	50					; 00000032H
	DB	0
_TEXT	ENDS
text$x	SEGMENT
__unwindfunclet$?Allocate@MemoryManager@@QAEPAXII@Z$0:
	lea	ecx, DWORD PTR $T16943[ebp]
	jmp	??1?$_Vector_iterator@VFreeMemoryBlock@@V?$allocator@VFreeMemoryBlock@@@std@@@std@@QAE@XZ
__ehhandler$?Allocate@MemoryManager@@QAEPAXII@Z:
	mov	eax, OFFSET __ehfuncinfo$?Allocate@MemoryManager@@QAEPAXII@Z
	jmp	___CxxFrameHandler3
text$x	ENDS
?Allocate@MemoryManager@@QAEPAXII@Z ENDP		; MemoryManager::Allocate
; Function compile flags: /Odtp /RTCsu
;	COMDAT ?AlignAddress@MemoryManager@@AAEIII@Z
_TEXT	SEGMENT
_this$ = -4						; size = 4
_address$ = 8						; size = 4
_alignment$ = 12					; size = 4
?AlignAddress@MemoryManager@@AAEIII@Z PROC		; MemoryManager::AlignAddress, COMDAT
; _this$ = ecx

; 252  : {

	push	ebp
	mov	ebp, esp
	push	ecx
	mov	DWORD PTR [ebp-4], -858993460		; ccccccccH
	mov	DWORD PTR _this$[ebp], ecx

; 253  :   return (address + alignment - 1) & (~(alignment - 1));

	mov	eax, DWORD PTR _alignment$[ebp]
	mov	ecx, DWORD PTR _address$[ebp]
	lea	eax, DWORD PTR [ecx+eax-1]
	mov	edx, DWORD PTR _alignment$[ebp]
	sub	edx, 1
	not	edx
	and	eax, edx

; 254  : }

	mov	esp, ebp
	pop	ebp
	ret	8
?AlignAddress@MemoryManager@@AAEIII@Z ENDP		; MemoryManager::AlignAddress
_TEXT	ENDS
PUBLIC	??1?$_Vector_val@VFreeMemoryBlock@@V?$allocator@VFreeMemoryBlock@@@std@@@std@@QAE@XZ ; std::_Vector_val<FreeMemoryBlock,std::allocator<FreeMemoryBlock> >::~_Vector_val<FreeMemoryBlock,std::allocator<FreeMemoryBlock> >
PUBLIC	?_Buy@?$vector@VFreeMemoryBlock@@V?$allocator@VFreeMemoryBlock@@@std@@@std@@IAE_NI@Z ; std::vector<FreeMemoryBlock,std::allocator<FreeMemoryBlock> >::_Buy
PUBLIC	??0?$_Vector_val@VFreeMemoryBlock@@V?$allocator@VFreeMemoryBlock@@@std@@@std@@IAE@V?$allocator@VFreeMemoryBlock@@@1@@Z ; std::_Vector_val<FreeMemoryBlock,std::allocator<FreeMemoryBlock> >::_Vector_val<FreeMemoryBlock,std::allocator<FreeMemoryBlock> >
PUBLIC	??0?$allocator@VFreeMemoryBlock@@@std@@QAE@XZ	; std::allocator<FreeMemoryBlock>::allocator<FreeMemoryBlock>
;	COMDAT xdata$x
; File c:\microsoft visual studio 8\vc\include\vector
xdata$x	SEGMENT
__unwindtable$??0?$vector@VFreeMemoryBlock@@V?$allocator@VFreeMemoryBlock@@@std@@@std@@QAE@XZ DD 0ffffffffH
	DD	FLAT:__unwindfunclet$??0?$vector@VFreeMemoryBlock@@V?$allocator@VFreeMemoryBlock@@@std@@@std@@QAE@XZ$0
__ehfuncinfo$??0?$vector@VFreeMemoryBlock@@V?$allocator@VFreeMemoryBlock@@@std@@@std@@QAE@XZ DD 019930522H
	DD	01H
	DD	FLAT:__unwindtable$??0?$vector@VFreeMemoryBlock@@V?$allocator@VFreeMemoryBlock@@@std@@@std@@QAE@XZ
	DD	2 DUP(00H)
	DD	2 DUP(00H)
	DD	00H
	DD	01H
; Function compile flags: /Odtp /RTCsu
xdata$x	ENDS
;	COMDAT ??0?$vector@VFreeMemoryBlock@@V?$allocator@VFreeMemoryBlock@@@std@@@std@@QAE@XZ
_TEXT	SEGMENT
$T16958 = -20						; size = 4
_this$ = -16						; size = 4
__$EHRec$ = -12						; size = 12
??0?$vector@VFreeMemoryBlock@@V?$allocator@VFreeMemoryBlock@@@std@@@std@@QAE@XZ PROC ; std::vector<FreeMemoryBlock,std::allocator<FreeMemoryBlock> >::vector<FreeMemoryBlock,std::allocator<FreeMemoryBlock> >, COMDAT
; _this$ = ecx

; 457  : 		{	// construct empty vector

	push	ebp
	mov	ebp, esp
	push	-1
	push	__ehhandler$??0?$vector@VFreeMemoryBlock@@V?$allocator@VFreeMemoryBlock@@@std@@@std@@QAE@XZ
	mov	eax, DWORD PTR fs:0
	push	eax
	mov	DWORD PTR fs:0, esp
	sub	esp, 8
	mov	DWORD PTR [ebp-20], -858993460		; ccccccccH
	mov	DWORD PTR [ebp-16], -858993460		; ccccccccH
	mov	DWORD PTR _this$[ebp], ecx
	push	ecx
	mov	ecx, esp
	mov	DWORD PTR $T16958[ebp], esp
	call	??0?$allocator@VFreeMemoryBlock@@@std@@QAE@XZ ; std::allocator<FreeMemoryBlock>::allocator<FreeMemoryBlock>
	mov	ecx, DWORD PTR _this$[ebp]
	call	??0?$_Vector_val@VFreeMemoryBlock@@V?$allocator@VFreeMemoryBlock@@@std@@@std@@IAE@V?$allocator@VFreeMemoryBlock@@@1@@Z ; std::_Vector_val<FreeMemoryBlock,std::allocator<FreeMemoryBlock> >::_Vector_val<FreeMemoryBlock,std::allocator<FreeMemoryBlock> >
	mov	DWORD PTR __$EHRec$[ebp+8], 0

; 458  : 		_Buy(0);

	push	0
	mov	ecx, DWORD PTR _this$[ebp]
	call	?_Buy@?$vector@VFreeMemoryBlock@@V?$allocator@VFreeMemoryBlock@@@std@@@std@@IAE_NI@Z ; std::vector<FreeMemoryBlock,std::allocator<FreeMemoryBlock> >::_Buy

; 459  : 		}

	mov	DWORD PTR __$EHRec$[ebp+8], -1
	mov	eax, DWORD PTR _this$[ebp]
	mov	ecx, DWORD PTR __$EHRec$[ebp]
	mov	DWORD PTR fs:0, ecx
	add	esp, 20					; 00000014H
	cmp	ebp, esp
	call	__RTC_CheckEsp
	mov	esp, ebp
	pop	ebp
	ret	0
_TEXT	ENDS
;	COMDAT text$x
text$x	SEGMENT
__unwindfunclet$??0?$vector@VFreeMemoryBlock@@V?$allocator@VFreeMemoryBlock@@@std@@@std@@QAE@XZ$0:
	mov	ecx, DWORD PTR _this$[ebp]
	jmp	??1?$_Vector_val@VFreeMemoryBlock@@V?$allocator@VFreeMemoryBlock@@@std@@@std@@QAE@XZ
__ehhandler$??0?$vector@VFreeMemoryBlock@@V?$allocator@VFreeMemoryBlock@@@std@@@std@@QAE@XZ:
	mov	eax, OFFSET __ehfuncinfo$??0?$vector@VFreeMemoryBlock@@V?$allocator@VFreeMemoryBlock@@@std@@@std@@QAE@XZ
	jmp	___CxxFrameHandler3
text$x	ENDS
??0?$vector@VFreeMemoryBlock@@V?$allocator@VFreeMemoryBlock@@@std@@@std@@QAE@XZ ENDP ; std::vector<FreeMemoryBlock,std::allocator<FreeMemoryBlock> >::vector<FreeMemoryBlock,std::allocator<FreeMemoryBlock> >
PUBLIC	?_Tidy@?$vector@VFreeMemoryBlock@@V?$allocator@VFreeMemoryBlock@@@std@@@std@@IAEXXZ ; std::vector<FreeMemoryBlock,std::allocator<FreeMemoryBlock> >::_Tidy
;	COMDAT xdata$x
xdata$x	SEGMENT
__unwindtable$??1?$vector@VFreeMemoryBlock@@V?$allocator@VFreeMemoryBlock@@@std@@@std@@QAE@XZ DD 0ffffffffH
	DD	FLAT:__unwindfunclet$??1?$vector@VFreeMemoryBlock@@V?$allocator@VFreeMemoryBlock@@@std@@@std@@QAE@XZ$0
__ehfuncinfo$??1?$vector@VFreeMemoryBlock@@V?$allocator@VFreeMemoryBlock@@@std@@@std@@QAE@XZ DD 019930522H
	DD	01H
	DD	FLAT:__unwindtable$??1?$vector@VFreeMemoryBlock@@V?$allocator@VFreeMemoryBlock@@@std@@@std@@QAE@XZ
	DD	2 DUP(00H)
	DD	2 DUP(00H)
	DD	00H
	DD	01H
; Function compile flags: /Odtp /RTCsu
xdata$x	ENDS
;	COMDAT ??1?$vector@VFreeMemoryBlock@@V?$allocator@VFreeMemoryBlock@@@std@@@std@@QAE@XZ
_TEXT	SEGMENT
_this$ = -16						; size = 4
__$EHRec$ = -12						; size = 12
??1?$vector@VFreeMemoryBlock@@V?$allocator@VFreeMemoryBlock@@@std@@@std@@QAE@XZ PROC ; std::vector<FreeMemoryBlock,std::allocator<FreeMemoryBlock> >::~vector<FreeMemoryBlock,std::allocator<FreeMemoryBlock> >, COMDAT
; _this$ = ecx

; 545  : 		{	// destroy the object

	push	ebp
	mov	ebp, esp
	push	-1
	push	__ehhandler$??1?$vector@VFreeMemoryBlock@@V?$allocator@VFreeMemoryBlock@@@std@@@std@@QAE@XZ
	mov	eax, DWORD PTR fs:0
	push	eax
	mov	DWORD PTR fs:0, esp
	push	ecx
	mov	DWORD PTR [ebp-16], -858993460		; ccccccccH
	mov	DWORD PTR _this$[ebp], ecx
	mov	DWORD PTR __$EHRec$[ebp+8], 0

; 546  : 		_Tidy();

	mov	ecx, DWORD PTR _this$[ebp]
	call	?_Tidy@?$vector@VFreeMemoryBlock@@V?$allocator@VFreeMemoryBlock@@@std@@@std@@IAEXXZ ; std::vector<FreeMemoryBlock,std::allocator<FreeMemoryBlock> >::_Tidy

; 547  : 		}

	mov	DWORD PTR __$EHRec$[ebp+8], -1
	mov	ecx, DWORD PTR _this$[ebp]
	call	??1?$_Vector_val@VFreeMemoryBlock@@V?$allocator@VFreeMemoryBlock@@@std@@@std@@QAE@XZ
	mov	ecx, DWORD PTR __$EHRec$[ebp]
	mov	DWORD PTR fs:0, ecx
	add	esp, 16					; 00000010H
	cmp	ebp, esp
	call	__RTC_CheckEsp
	mov	esp, ebp
	pop	ebp
	ret	0
_TEXT	ENDS
;	COMDAT text$x
text$x	SEGMENT
__unwindfunclet$??1?$vector@VFreeMemoryBlock@@V?$allocator@VFreeMemoryBlock@@@std@@@std@@QAE@XZ$0:
	mov	ecx, DWORD PTR _this$[ebp]
	jmp	??1?$_Vector_val@VFreeMemoryBlock@@V?$allocator@VFreeMemoryBlock@@@std@@@std@@QAE@XZ
__ehhandler$??1?$vector@VFreeMemoryBlock@@V?$allocator@VFreeMemoryBlock@@@std@@@std@@QAE@XZ:
	mov	eax, OFFSET __ehfuncinfo$??1?$vector@VFreeMemoryBlock@@V?$allocator@VFreeMemoryBlock@@@std@@@std@@QAE@XZ
	jmp	___CxxFrameHandler3
text$x	ENDS
??1?$vector@VFreeMemoryBlock@@V?$allocator@VFreeMemoryBlock@@@std@@@std@@QAE@XZ ENDP ; std::vector<FreeMemoryBlock,std::allocator<FreeMemoryBlock> >::~vector<FreeMemoryBlock,std::allocator<FreeMemoryBlock> >
PUBLIC	??0?$_Vector_iterator@VFreeMemoryBlock@@V?$allocator@VFreeMemoryBlock@@@std@@@std@@QAE@PAVFreeMemoryBlock@@PBV_Container_base@1@@Z ; std::_Vector_iterator<FreeMemoryBlock,std::allocator<FreeMemoryBlock> >::_Vector_iterator<FreeMemoryBlock,std::allocator<FreeMemoryBlock> >
; Function compile flags: /Odtp /RTCsu
;	COMDAT ?begin@?$vector@VFreeMemoryBlock@@V?$allocator@VFreeMemoryBlock@@@std@@@std@@QAE?AV?$_Vector_iterator@VFreeMemoryBlock@@V?$allocator@VFreeMemoryBlock@@@std@@@2@XZ
_TEXT	SEGMENT
$T16978 = -8						; size = 4
_this$ = -4						; size = 4
___$ReturnUdt$ = 8					; size = 4
?begin@?$vector@VFreeMemoryBlock@@V?$allocator@VFreeMemoryBlock@@@std@@@std@@QAE?AV?$_Vector_iterator@VFreeMemoryBlock@@V?$allocator@VFreeMemoryBlock@@@std@@@2@XZ PROC ; std::vector<FreeMemoryBlock,std::allocator<FreeMemoryBlock> >::begin, COMDAT
; _this$ = ecx

; 627  : 		{	// return iterator for beginning of mutable sequence

	push	ebp
	mov	ebp, esp
	sub	esp, 8
	mov	DWORD PTR [ebp-8], -858993460		; ccccccccH
	mov	DWORD PTR [ebp-4], -858993460		; ccccccccH
	mov	DWORD PTR _this$[ebp], ecx
	mov	DWORD PTR $T16978[ebp], 0

; 628  : 		return (iterator(_Myfirst, this));

	mov	eax, DWORD PTR _this$[ebp]
	push	eax
	mov	ecx, DWORD PTR _this$[ebp]
	mov	edx, DWORD PTR [ecx+8]
	push	edx
	mov	ecx, DWORD PTR ___$ReturnUdt$[ebp]
	call	??0?$_Vector_iterator@VFreeMemoryBlock@@V?$allocator@VFreeMemoryBlock@@@std@@@std@@QAE@PAVFreeMemoryBlock@@PBV_Container_base@1@@Z ; std::_Vector_iterator<FreeMemoryBlock,std::allocator<FreeMemoryBlock> >::_Vector_iterator<FreeMemoryBlock,std::allocator<FreeMemoryBlock> >
	mov	eax, DWORD PTR $T16978[ebp]
	or	eax, 1
	mov	DWORD PTR $T16978[ebp], eax
	mov	eax, DWORD PTR ___$ReturnUdt$[ebp]

; 629  : 		}

	add	esp, 8
	cmp	ebp, esp
	call	__RTC_CheckEsp
	mov	esp, ebp
	pop	ebp
	ret	4
?begin@?$vector@VFreeMemoryBlock@@V?$allocator@VFreeMemoryBlock@@@std@@@std@@QAE?AV?$_Vector_iterator@VFreeMemoryBlock@@V?$allocator@VFreeMemoryBlock@@@std@@@2@XZ ENDP ; std::vector<FreeMemoryBlock,std::allocator<FreeMemoryBlock> >::begin
; Function compile flags: /Odtp /RTCsu
_TEXT	ENDS
;	COMDAT ?size@?$vector@VFreeMemoryBlock@@V?$allocator@VFreeMemoryBlock@@@std@@@std@@QBEIXZ
_TEXT	SEGMENT
tv70 = -8						; size = 4
_this$ = -4						; size = 4
?size@?$vector@VFreeMemoryBlock@@V?$allocator@VFreeMemoryBlock@@@std@@@std@@QBEIXZ PROC ; std::vector<FreeMemoryBlock,std::allocator<FreeMemoryBlock> >::size, COMDAT
; _this$ = ecx

; 702  : 		{	// return length of sequence

	push	ebp
	mov	ebp, esp
	sub	esp, 8
	mov	DWORD PTR [ebp-8], -858993460		; ccccccccH
	mov	DWORD PTR [ebp-4], -858993460		; ccccccccH
	mov	DWORD PTR _this$[ebp], ecx

; 703  : 		return (_Myfirst == 0 ? 0 : _Mylast - _Myfirst);

	mov	eax, DWORD PTR _this$[ebp]
	cmp	DWORD PTR [eax+8], 0
	jne	SHORT $LN3@size
	mov	DWORD PTR tv70[ebp], 0
	jmp	SHORT $LN4@size
$LN3@size:
	mov	ecx, DWORD PTR _this$[ebp]
	mov	edx, DWORD PTR _this$[ebp]
	mov	eax, DWORD PTR [ecx+12]
	sub	eax, DWORD PTR [edx+8]
	cdq
	mov	ecx, 12					; 0000000cH
	idiv	ecx
	mov	DWORD PTR tv70[ebp], eax
$LN4@size:
	mov	eax, DWORD PTR tv70[ebp]

; 704  : 		}

	mov	esp, ebp
	pop	ebp
	ret	0
?size@?$vector@VFreeMemoryBlock@@V?$allocator@VFreeMemoryBlock@@@std@@@std@@QBEIXZ ENDP ; std::vector<FreeMemoryBlock,std::allocator<FreeMemoryBlock> >::size
_TEXT	ENDS
PUBLIC	??_C@_1CK@POGJDOKA@?$AA?$CI?$AA?$CC?$AA_?$AAP?$AAo?$AAs?$AA?5?$AA?$DM?$AA?5?$AAs?$AAi?$AAz?$AAe?$AA?$CI?$AA?$CJ?$AA?$CC?$AA?0?$AA?5?$AA0?$AA?$CJ?$AA?$AA@ ; `string'
PUBLIC	??_C@_1BO@MEPPHOO@?$AA?$CC?$AAo?$AAu?$AAt?$AA?5?$AAo?$AAf?$AA?5?$AAr?$AAa?$AAn?$AAg?$AAe?$AA?$CC?$AA?$AA@ ; `string'
PUBLIC	??_C@_1LK@KPOHDDAF@?$AAs?$AAt?$AAd?$AA?3?$AA?3?$AAv?$AAe?$AAc?$AAt?$AAo?$AAr?$AA?$DM?$AAc?$AAl?$AAa?$AAs?$AAs?$AA?5?$AAF?$AAr?$AAe?$AAe?$AAM?$AAe?$AAm?$AAo?$AAr?$AAy?$AAB?$AAl?$AAo?$AAc@ ; `string'
PUBLIC	??_C@_1FG@CMLDHNON@?$AA?$CI?$AA?$CC?$AAS?$AAt?$AAa?$AAn?$AAd?$AAa?$AAr?$AAd?$AA?5?$AAC?$AA?$CL?$AA?$CL?$AA?5?$AAL?$AAi?$AAb?$AAr?$AAa?$AAr?$AAi?$AAe?$AAs?$AA?5?$AAO?$AAu?$AAt?$AA?5?$AAo?$AAf?$AA?5@ ; `string'
PUBLIC	??_C@_1DM@LHGCHCBA@?$AAv?$AAe?$AAc?$AAt?$AAo?$AAr?$AA?5?$AAs?$AAu?$AAb?$AAs?$AAc?$AAr?$AAi?$AAp?$AAt?$AA?5?$AAo?$AAu?$AAt?$AA?5?$AAo?$AAf?$AA?5?$AAr?$AAa?$AAn?$AAg?$AAe?$AA?$AA@ ; `string'
PUBLIC	??_C@_1FO@LOAHDEOC@?$AAC?$AA?3?$AA?2?$AAM?$AAi?$AAc?$AAr?$AAo?$AAs?$AAo?$AAf?$AAt?$AA?5?$AAV?$AAi?$AAs?$AAu?$AAa?$AAl?$AA?5?$AAS?$AAt?$AAu?$AAd?$AAi?$AAo?$AA?5?$AA8?$AA?2?$AAV?$AAC?$AA?2@ ; `string'
EXTRN	__invalid_parameter:PROC
EXTRN	__CrtDbgReportW:PROC
;	COMDAT ??_C@_1CK@POGJDOKA@?$AA?$CI?$AA?$CC?$AA_?$AAP?$AAo?$AAs?$AA?5?$AA?$DM?$AA?5?$AAs?$AAi?$AAz?$AAe?$AA?$CI?$AA?$CJ?$AA?$CC?$AA?0?$AA?5?$AA0?$AA?$CJ?$AA?$AA@
CONST	SEGMENT
??_C@_1CK@POGJDOKA@?$AA?$CI?$AA?$CC?$AA_?$AAP?$AAo?$AAs?$AA?5?$AA?$DM?$AA?5?$AAs?$AAi?$AAz?$AAe?$AA?$CI?$AA?$CJ?$AA?$CC?$AA?0?$AA?5?$AA0?$AA?$CJ?$AA?$AA@ DB '('
	DB	00H, '"', 00H, '_', 00H, 'P', 00H, 'o', 00H, 's', 00H, ' ', 00H
	DB	'<', 00H, ' ', 00H, 's', 00H, 'i', 00H, 'z', 00H, 'e', 00H, '('
	DB	00H, ')', 00H, '"', 00H, ',', 00H, ' ', 00H, '0', 00H, ')', 00H
	DB	00H, 00H					; `string'
CONST	ENDS
;	COMDAT ??_C@_1BO@MEPPHOO@?$AA?$CC?$AAo?$AAu?$AAt?$AA?5?$AAo?$AAf?$AA?5?$AAr?$AAa?$AAn?$AAg?$AAe?$AA?$CC?$AA?$AA@
CONST	SEGMENT
??_C@_1BO@MEPPHOO@?$AA?$CC?$AAo?$AAu?$AAt?$AA?5?$AAo?$AAf?$AA?5?$AAr?$AAa?$AAn?$AAg?$AAe?$AA?$CC?$AA?$AA@ DB '"'
	DB	00H, 'o', 00H, 'u', 00H, 't', 00H, ' ', 00H, 'o', 00H, 'f', 00H
	DB	' ', 00H, 'r', 00H, 'a', 00H, 'n', 00H, 'g', 00H, 'e', 00H, '"'
	DB	00H, 00H, 00H				; `string'
CONST	ENDS
;	COMDAT ??_C@_1LK@KPOHDDAF@?$AAs?$AAt?$AAd?$AA?3?$AA?3?$AAv?$AAe?$AAc?$AAt?$AAo?$AAr?$AA?$DM?$AAc?$AAl?$AAa?$AAs?$AAs?$AA?5?$AAF?$AAr?$AAe?$AAe?$AAM?$AAe?$AAm?$AAo?$AAr?$AAy?$AAB?$AAl?$AAo?$AAc@
CONST	SEGMENT
??_C@_1LK@KPOHDDAF@?$AAs?$AAt?$AAd?$AA?3?$AA?3?$AAv?$AAe?$AAc?$AAt?$AAo?$AAr?$AA?$DM?$AAc?$AAl?$AAa?$AAs?$AAs?$AA?5?$AAF?$AAr?$AAe?$AAe?$AAM?$AAe?$AAm?$AAo?$AAr?$AAy?$AAB?$AAl?$AAo?$AAc@ DB 's'
	DB	00H, 't', 00H, 'd', 00H, ':', 00H, ':', 00H, 'v', 00H, 'e', 00H
	DB	'c', 00H, 't', 00H, 'o', 00H, 'r', 00H, '<', 00H, 'c', 00H, 'l'
	DB	00H, 'a', 00H, 's', 00H, 's', 00H, ' ', 00H, 'F', 00H, 'r', 00H
	DB	'e', 00H, 'e', 00H, 'M', 00H, 'e', 00H, 'm', 00H, 'o', 00H, 'r'
	DB	00H, 'y', 00H, 'B', 00H, 'l', 00H, 'o', 00H, 'c', 00H, 'k', 00H
	DB	',', 00H, 'c', 00H, 'l', 00H, 'a', 00H, 's', 00H, 's', 00H, ' '
	DB	00H, 's', 00H, 't', 00H, 'd', 00H, ':', 00H, ':', 00H, 'a', 00H
	DB	'l', 00H, 'l', 00H, 'o', 00H, 'c', 00H, 'a', 00H, 't', 00H, 'o'
	DB	00H, 'r', 00H, '<', 00H, 'c', 00H, 'l', 00H, 'a', 00H, 's', 00H
	DB	's', 00H, ' ', 00H, 'F', 00H, 'r', 00H, 'e', 00H, 'e', 00H, 'M'
	DB	00H, 'e', 00H, 'm', 00H, 'o', 00H, 'r', 00H, 'y', 00H, 'B', 00H
	DB	'l', 00H, 'o', 00H, 'c', 00H, 'k', 00H, '>', 00H, ' ', 00H, '>'
	DB	00H, ':', 00H, ':', 00H, 'o', 00H, 'p', 00H, 'e', 00H, 'r', 00H
	DB	'a', 00H, 't', 00H, 'o', 00H, 'r', 00H, ' ', 00H, '[', 00H, ']'
	DB	00H, 00H, 00H				; `string'
CONST	ENDS
;	COMDAT ??_C@_1FG@CMLDHNON@?$AA?$CI?$AA?$CC?$AAS?$AAt?$AAa?$AAn?$AAd?$AAa?$AAr?$AAd?$AA?5?$AAC?$AA?$CL?$AA?$CL?$AA?5?$AAL?$AAi?$AAb?$AAr?$AAa?$AAr?$AAi?$AAe?$AAs?$AA?5?$AAO?$AAu?$AAt?$AA?5?$AAo?$AAf?$AA?5@
CONST	SEGMENT
??_C@_1FG@CMLDHNON@?$AA?$CI?$AA?$CC?$AAS?$AAt?$AAa?$AAn?$AAd?$AAa?$AAr?$AAd?$AA?5?$AAC?$AA?$CL?$AA?$CL?$AA?5?$AAL?$AAi?$AAb?$AAr?$AAa?$AAr?$AAi?$AAe?$AAs?$AA?5?$AAO?$AAu?$AAt?$AA?5?$AAo?$AAf?$AA?5@ DB '('
	DB	00H, '"', 00H, 'S', 00H, 't', 00H, 'a', 00H, 'n', 00H, 'd', 00H
	DB	'a', 00H, 'r', 00H, 'd', 00H, ' ', 00H, 'C', 00H, '+', 00H, '+'
	DB	00H, ' ', 00H, 'L', 00H, 'i', 00H, 'b', 00H, 'r', 00H, 'a', 00H
	DB	'r', 00H, 'i', 00H, 'e', 00H, 's', 00H, ' ', 00H, 'O', 00H, 'u'
	DB	00H, 't', 00H, ' ', 00H, 'o', 00H, 'f', 00H, ' ', 00H, 'R', 00H
	DB	'a', 00H, 'n', 00H, 'g', 00H, 'e', 00H, '"', 00H, ',', 00H, ' '
	DB	00H, '0', 00H, ')', 00H, 00H, 00H		; `string'
CONST	ENDS
;	COMDAT ??_C@_1DM@LHGCHCBA@?$AAv?$AAe?$AAc?$AAt?$AAo?$AAr?$AA?5?$AAs?$AAu?$AAb?$AAs?$AAc?$AAr?$AAi?$AAp?$AAt?$AA?5?$AAo?$AAu?$AAt?$AA?5?$AAo?$AAf?$AA?5?$AAr?$AAa?$AAn?$AAg?$AAe?$AA?$AA@
CONST	SEGMENT
??_C@_1DM@LHGCHCBA@?$AAv?$AAe?$AAc?$AAt?$AAo?$AAr?$AA?5?$AAs?$AAu?$AAb?$AAs?$AAc?$AAr?$AAi?$AAp?$AAt?$AA?5?$AAo?$AAu?$AAt?$AA?5?$AAo?$AAf?$AA?5?$AAr?$AAa?$AAn?$AAg?$AAe?$AA?$AA@ DB 'v'
	DB	00H, 'e', 00H, 'c', 00H, 't', 00H, 'o', 00H, 'r', 00H, ' ', 00H
	DB	's', 00H, 'u', 00H, 'b', 00H, 's', 00H, 'c', 00H, 'r', 00H, 'i'
	DB	00H, 'p', 00H, 't', 00H, ' ', 00H, 'o', 00H, 'u', 00H, 't', 00H
	DB	' ', 00H, 'o', 00H, 'f', 00H, ' ', 00H, 'r', 00H, 'a', 00H, 'n'
	DB	00H, 'g', 00H, 'e', 00H, 00H, 00H		; `string'
CONST	ENDS
;	COMDAT ??_C@_1FO@LOAHDEOC@?$AAC?$AA?3?$AA?2?$AAM?$AAi?$AAc?$AAr?$AAo?$AAs?$AAo?$AAf?$AAt?$AA?5?$AAV?$AAi?$AAs?$AAu?$AAa?$AAl?$AA?5?$AAS?$AAt?$AAu?$AAd?$AAi?$AAo?$AA?5?$AA8?$AA?2?$AAV?$AAC?$AA?2@
CONST	SEGMENT
??_C@_1FO@LOAHDEOC@?$AAC?$AA?3?$AA?2?$AAM?$AAi?$AAc?$AAr?$AAo?$AAs?$AAo?$AAf?$AAt?$AA?5?$AAV?$AAi?$AAs?$AAu?$AAa?$AAl?$AA?5?$AAS?$AAt?$AAu?$AAd?$AAi?$AAo?$AA?5?$AA8?$AA?2?$AAV?$AAC?$AA?2@ DB 'C'
	DB	00H, ':', 00H, '\', 00H, 'M', 00H, 'i', 00H, 'c', 00H, 'r', 00H
	DB	'o', 00H, 's', 00H, 'o', 00H, 'f', 00H, 't', 00H, ' ', 00H, 'V'
	DB	00H, 'i', 00H, 's', 00H, 'u', 00H, 'a', 00H, 'l', 00H, ' ', 00H
	DB	'S', 00H, 't', 00H, 'u', 00H, 'd', 00H, 'i', 00H, 'o', 00H, ' '
	DB	00H, '8', 00H, '\', 00H, 'V', 00H, 'C', 00H, '\', 00H, 'i', 00H
	DB	'n', 00H, 'c', 00H, 'l', 00H, 'u', 00H, 'd', 00H, 'e', 00H, '\'
	DB	00H, 'v', 00H, 'e', 00H, 'c', 00H, 't', 00H, 'o', 00H, 'r', 00H
	DB	00H, 00H					; `string'
; Function compile flags: /Odtp /RTCsu
CONST	ENDS
;	COMDAT ??A?$vector@VFreeMemoryBlock@@V?$allocator@VFreeMemoryBlock@@@std@@@std@@QAEAAVFreeMemoryBlock@@I@Z
_TEXT	SEGMENT
_this$ = -4						; size = 4
__Pos$ = 8						; size = 4
??A?$vector@VFreeMemoryBlock@@V?$allocator@VFreeMemoryBlock@@@std@@@std@@QAEAAVFreeMemoryBlock@@I@Z PROC ; std::vector<FreeMemoryBlock,std::allocator<FreeMemoryBlock> >::operator[], COMDAT
; _this$ = ecx

; 751  : 		{	// subscript mutable sequence

	push	ebp
	mov	ebp, esp
	push	ecx
	mov	DWORD PTR [ebp-4], -858993460		; ccccccccH
	mov	DWORD PTR _this$[ebp], ecx

; 752  : 
; 753  :  #if _HAS_ITERATOR_DEBUGGING
; 754  : 		if (size() <= _Pos)

	mov	ecx, DWORD PTR _this$[ebp]
	call	?size@?$vector@VFreeMemoryBlock@@V?$allocator@VFreeMemoryBlock@@@std@@@std@@QBEIXZ ; std::vector<FreeMemoryBlock,std::allocator<FreeMemoryBlock> >::size
	cmp	eax, DWORD PTR __Pos$[ebp]
	ja	SHORT $LN2@operator

; 755  : 			{
; 756  : 			_DEBUG_ERROR("vector subscript out of range");

	push	756					; 000002f4H
	push	OFFSET ??_C@_1FO@LOAHDEOC@?$AAC?$AA?3?$AA?2?$AAM?$AAi?$AAc?$AAr?$AAo?$AAs?$AAo?$AAf?$AAt?$AA?5?$AAV?$AAi?$AAs?$AAu?$AAa?$AAl?$AA?5?$AAS?$AAt?$AAu?$AAd?$AAi?$AAo?$AA?5?$AA8?$AA?2?$AAV?$AAC?$AA?2@
	push	OFFSET ??_C@_1DM@LHGCHCBA@?$AAv?$AAe?$AAc?$AAt?$AAo?$AAr?$AA?5?$AAs?$AAu?$AAb?$AAs?$AAc?$AAr?$AAi?$AAp?$AAt?$AA?5?$AAo?$AAu?$AAt?$AA?5?$AAo?$AAf?$AA?5?$AAr?$AAa?$AAn?$AAg?$AAe?$AA?$AA@
	call	?_Debug_message@std@@YAXPB_W0I@Z	; std::_Debug_message
	add	esp, 12					; 0000000cH

; 757  : 			_SCL_SECURE_OUT_OF_RANGE;

	xor	eax, eax
	jne	SHORT $LN5@operator
	push	OFFSET ??_C@_1FG@CMLDHNON@?$AA?$CI?$AA?$CC?$AAS?$AAt?$AAa?$AAn?$AAd?$AAa?$AAr?$AAd?$AA?5?$AAC?$AA?$CL?$AA?$CL?$AA?5?$AAL?$AAi?$AAb?$AAr?$AAa?$AAr?$AAi?$AAe?$AAs?$AA?5?$AAO?$AAu?$AAt?$AA?5?$AAo?$AAf?$AA?5@
	push	0
	push	757					; 000002f5H
	push	OFFSET ??_C@_1FO@LOAHDEOC@?$AAC?$AA?3?$AA?2?$AAM?$AAi?$AAc?$AAr?$AAo?$AAs?$AAo?$AAf?$AAt?$AA?5?$AAV?$AAi?$AAs?$AAu?$AAa?$AAl?$AA?5?$AAS?$AAt?$AAu?$AAd?$AAi?$AAo?$AA?5?$AA8?$AA?2?$AAV?$AAC?$AA?2@
	push	2
	call	__CrtDbgReportW
	add	esp, 20					; 00000014H
	cmp	eax, 1
	jne	SHORT $LN5@operator
	int	3
$LN5@operator:
	push	0
	push	757					; 000002f5H
	push	OFFSET ??_C@_1FO@LOAHDEOC@?$AAC?$AA?3?$AA?2?$AAM?$AAi?$AAc?$AAr?$AAo?$AAs?$AAo?$AAf?$AAt?$AA?5?$AAV?$AAi?$AAs?$AAu?$AAa?$AAl?$AA?5?$AAS?$AAt?$AAu?$AAd?$AAi?$AAo?$AA?5?$AA8?$AA?2?$AAV?$AAC?$AA?2@
	push	OFFSET ??_C@_1LK@KPOHDDAF@?$AAs?$AAt?$AAd?$AA?3?$AA?3?$AAv?$AAe?$AAc?$AAt?$AAo?$AAr?$AA?$DM?$AAc?$AAl?$AAa?$AAs?$AAs?$AA?5?$AAF?$AAr?$AAe?$AAe?$AAM?$AAe?$AAm?$AAo?$AAr?$AAy?$AAB?$AAl?$AAo?$AAc@
	push	OFFSET ??_C@_1BO@MEPPHOO@?$AA?$CC?$AAo?$AAu?$AAt?$AA?5?$AAo?$AAf?$AA?5?$AAr?$AAa?$AAn?$AAg?$AAe?$AA?$CC?$AA?$AA@
	call	__invalid_parameter
	add	esp, 20					; 00000014H
$LN2@operator:

; 758  : 			}
; 759  :  #endif /* _HAS_ITERATOR_DEBUGGING */
; 760  : 		_SCL_SECURE_VALIDATE_RANGE(_Pos < size());

	mov	ecx, DWORD PTR _this$[ebp]
	call	?size@?$vector@VFreeMemoryBlock@@V?$allocator@VFreeMemoryBlock@@@std@@@std@@QBEIXZ ; std::vector<FreeMemoryBlock,std::allocator<FreeMemoryBlock> >::size
	cmp	DWORD PTR __Pos$[ebp], eax
	jb	SHORT $LN1@operator
	xor	edx, edx
	jne	SHORT $LN6@operator
	push	OFFSET ??_C@_1CK@POGJDOKA@?$AA?$CI?$AA?$CC?$AA_?$AAP?$AAo?$AAs?$AA?5?$AA?$DM?$AA?5?$AAs?$AAi?$AAz?$AAe?$AA?$CI?$AA?$CJ?$AA?$CC?$AA?0?$AA?5?$AA0?$AA?$CJ?$AA?$AA@
	push	0
	push	760					; 000002f8H
	push	OFFSET ??_C@_1FO@LOAHDEOC@?$AAC?$AA?3?$AA?2?$AAM?$AAi?$AAc?$AAr?$AAo?$AAs?$AAo?$AAf?$AAt?$AA?5?$AAV?$AAi?$AAs?$AAu?$AAa?$AAl?$AA?5?$AAS?$AAt?$AAu?$AAd?$AAi?$AAo?$AA?5?$AA8?$AA?2?$AAV?$AAC?$AA?2@
	push	2
	call	__CrtDbgReportW
	add	esp, 20					; 00000014H
	cmp	eax, 1
	jne	SHORT $LN6@operator
	int	3
$LN6@operator:
	push	0
	push	760					; 000002f8H
	push	OFFSET ??_C@_1FO@LOAHDEOC@?$AAC?$AA?3?$AA?2?$AAM?$AAi?$AAc?$AAr?$AAo?$AAs?$AAo?$AAf?$AAt?$AA?5?$AAV?$AAi?$AAs?$AAu?$AAa?$AAl?$AA?5?$AAS?$AAt?$AAu?$AAd?$AAi?$AAo?$AA?5?$AA8?$AA?2?$AAV?$AAC?$AA?2@
	push	OFFSET ??_C@_1LK@KPOHDDAF@?$AAs?$AAt?$AAd?$AA?3?$AA?3?$AAv?$AAe?$AAc?$AAt?$AAo?$AAr?$AA?$DM?$AAc?$AAl?$AAa?$AAs?$AAs?$AA?5?$AAF?$AAr?$AAe?$AAe?$AAM?$AAe?$AAm?$AAo?$AAr?$AAy?$AAB?$AAl?$AAo?$AAc@
	push	OFFSET ??_C@_1BO@MEPPHOO@?$AA?$CC?$AAo?$AAu?$AAt?$AA?5?$AAo?$AAf?$AA?5?$AAr?$AAa?$AAn?$AAg?$AAe?$AA?$CC?$AA?$AA@
	call	__invalid_parameter
	add	esp, 20					; 00000014H
$LN1@operator:

; 761  : 
; 762  : 		return (*(_Myfirst + _Pos));

	mov	eax, DWORD PTR __Pos$[ebp]
	imul	eax, 12					; 0000000cH
	mov	ecx, DWORD PTR _this$[ebp]
	add	eax, DWORD PTR [ecx+8]

; 763  : 		}

	add	esp, 4
	cmp	ebp, esp
	call	__RTC_CheckEsp
	mov	esp, ebp
	pop	ebp
	ret	4
??A?$vector@VFreeMemoryBlock@@V?$allocator@VFreeMemoryBlock@@@std@@@std@@QAEAAVFreeMemoryBlock@@I@Z ENDP ; std::vector<FreeMemoryBlock,std::allocator<FreeMemoryBlock> >::operator[]
_TEXT	ENDS
PUBLIC	??D?$_Vector_iterator@VFreeMemoryBlock@@V?$allocator@VFreeMemoryBlock@@@std@@@std@@QBEAAVFreeMemoryBlock@@XZ ; std::_Vector_iterator<FreeMemoryBlock,std::allocator<FreeMemoryBlock> >::operator*
PUBLIC	??G?$_Vector_iterator@VFreeMemoryBlock@@V?$allocator@VFreeMemoryBlock@@@std@@@std@@QBE?AV01@H@Z ; std::_Vector_iterator<FreeMemoryBlock,std::allocator<FreeMemoryBlock> >::operator-
PUBLIC	?end@?$vector@VFreeMemoryBlock@@V?$allocator@VFreeMemoryBlock@@@std@@@std@@QAE?AV?$_Vector_iterator@VFreeMemoryBlock@@V?$allocator@VFreeMemoryBlock@@@std@@@2@XZ ; std::vector<FreeMemoryBlock,std::allocator<FreeMemoryBlock> >::end
;	COMDAT xdata$x
xdata$x	SEGMENT
__unwindtable$?back@?$vector@VFreeMemoryBlock@@V?$allocator@VFreeMemoryBlock@@@std@@@std@@QAEAAVFreeMemoryBlock@@XZ DD 0ffffffffH
	DD	FLAT:__unwindfunclet$?back@?$vector@VFreeMemoryBlock@@V?$allocator@VFreeMemoryBlock@@@std@@@std@@QAEAAVFreeMemoryBlock@@XZ$0
	DD	00H
	DD	FLAT:__unwindfunclet$?back@?$vector@VFreeMemoryBlock@@V?$allocator@VFreeMemoryBlock@@@std@@@std@@QAEAAVFreeMemoryBlock@@XZ$1
__ehfuncinfo$?back@?$vector@VFreeMemoryBlock@@V?$allocator@VFreeMemoryBlock@@@std@@@std@@QAEAAVFreeMemoryBlock@@XZ DD 019930522H
	DD	02H
	DD	FLAT:__unwindtable$?back@?$vector@VFreeMemoryBlock@@V?$allocator@VFreeMemoryBlock@@@std@@@std@@QAEAAVFreeMemoryBlock@@XZ
	DD	2 DUP(00H)
	DD	2 DUP(00H)
	DD	00H
	DD	01H
; Function compile flags: /Odtp /RTCsu
xdata$x	ENDS
;	COMDAT ?back@?$vector@VFreeMemoryBlock@@V?$allocator@VFreeMemoryBlock@@@std@@@std@@QAEAAVFreeMemoryBlock@@XZ
_TEXT	SEGMENT
tv80 = -60						; size = 4
tv82 = -56						; size = 4
tv78 = -52						; size = 4
tv81 = -48						; size = 4
$T16992 = -44						; size = 12
$T16991 = -32						; size = 12
$T16990 = -20						; size = 4
_this$ = -16						; size = 4
__$EHRec$ = -12						; size = 12
?back@?$vector@VFreeMemoryBlock@@V?$allocator@VFreeMemoryBlock@@@std@@@std@@QAEAAVFreeMemoryBlock@@XZ PROC ; std::vector<FreeMemoryBlock,std::allocator<FreeMemoryBlock> >::back, COMDAT
; _this$ = ecx

; 776  : 		{	// return last element of mutable sequence

	push	ebp
	mov	ebp, esp
	push	-1
	push	__ehhandler$?back@?$vector@VFreeMemoryBlock@@V?$allocator@VFreeMemoryBlock@@@std@@@std@@QAEAAVFreeMemoryBlock@@XZ
	mov	eax, DWORD PTR fs:0
	push	eax
	mov	DWORD PTR fs:0, esp
	sub	esp, 48					; 00000030H
	push	edi
	push	ecx
	lea	edi, DWORD PTR [ebp-60]
	mov	ecx, 12					; 0000000cH
	mov	eax, -858993460				; ccccccccH
	rep stosd
	pop	ecx
	mov	DWORD PTR _this$[ebp], ecx

; 777  : 		return (*(end() - 1));

	push	1
	lea	eax, DWORD PTR $T16992[ebp]
	push	eax
	lea	ecx, DWORD PTR $T16991[ebp]
	push	ecx
	mov	ecx, DWORD PTR _this$[ebp]
	call	?end@?$vector@VFreeMemoryBlock@@V?$allocator@VFreeMemoryBlock@@@std@@@std@@QAE?AV?$_Vector_iterator@VFreeMemoryBlock@@V?$allocator@VFreeMemoryBlock@@@std@@@2@XZ ; std::vector<FreeMemoryBlock,std::allocator<FreeMemoryBlock> >::end
	mov	DWORD PTR tv81[ebp], eax
	mov	edx, DWORD PTR tv81[ebp]
	mov	DWORD PTR tv78[ebp], edx
	mov	DWORD PTR __$EHRec$[ebp+8], 0
	mov	ecx, DWORD PTR tv78[ebp]
	call	??G?$_Vector_iterator@VFreeMemoryBlock@@V?$allocator@VFreeMemoryBlock@@@std@@@std@@QBE?AV01@H@Z ; std::_Vector_iterator<FreeMemoryBlock,std::allocator<FreeMemoryBlock> >::operator-
	mov	DWORD PTR tv82[ebp], eax
	mov	eax, DWORD PTR tv82[ebp]
	mov	DWORD PTR tv80[ebp], eax
	mov	BYTE PTR __$EHRec$[ebp+8], 1
	mov	ecx, DWORD PTR tv80[ebp]
	call	??D?$_Vector_iterator@VFreeMemoryBlock@@V?$allocator@VFreeMemoryBlock@@@std@@@std@@QBEAAVFreeMemoryBlock@@XZ ; std::_Vector_iterator<FreeMemoryBlock,std::allocator<FreeMemoryBlock> >::operator*
	mov	DWORD PTR $T16990[ebp], eax
	mov	BYTE PTR __$EHRec$[ebp+8], 0
	lea	ecx, DWORD PTR $T16992[ebp]
	call	??1?$_Vector_iterator@VFreeMemoryBlock@@V?$allocator@VFreeMemoryBlock@@@std@@@std@@QAE@XZ
	mov	DWORD PTR __$EHRec$[ebp+8], -1
	lea	ecx, DWORD PTR $T16991[ebp]
	call	??1?$_Vector_iterator@VFreeMemoryBlock@@V?$allocator@VFreeMemoryBlock@@@std@@@std@@QAE@XZ
	mov	eax, DWORD PTR $T16990[ebp]

; 778  : 		}

	mov	ecx, DWORD PTR __$EHRec$[ebp]
	mov	DWORD PTR fs:0, ecx
	pop	edi
	add	esp, 60					; 0000003cH
	cmp	ebp, esp
	call	__RTC_CheckEsp
	mov	esp, ebp
	pop	ebp
	ret	0
_TEXT	ENDS
;	COMDAT text$x
text$x	SEGMENT
__unwindfunclet$?back@?$vector@VFreeMemoryBlock@@V?$allocator@VFreeMemoryBlock@@@std@@@std@@QAEAAVFreeMemoryBlock@@XZ$0:
	lea	ecx, DWORD PTR $T16991[ebp]
	jmp	??1?$_Vector_iterator@VFreeMemoryBlock@@V?$allocator@VFreeMemoryBlock@@@std@@@std@@QAE@XZ
__unwindfunclet$?back@?$vector@VFreeMemoryBlock@@V?$allocator@VFreeMemoryBlock@@@std@@@std@@QAEAAVFreeMemoryBlock@@XZ$1:
	lea	ecx, DWORD PTR $T16992[ebp]
	jmp	??1?$_Vector_iterator@VFreeMemoryBlock@@V?$allocator@VFreeMemoryBlock@@@std@@@std@@QAE@XZ
__ehhandler$?back@?$vector@VFreeMemoryBlock@@V?$allocator@VFreeMemoryBlock@@@std@@@std@@QAEAAVFreeMemoryBlock@@XZ:
	mov	eax, OFFSET __ehfuncinfo$?back@?$vector@VFreeMemoryBlock@@V?$allocator@VFreeMemoryBlock@@@std@@@std@@QAEAAVFreeMemoryBlock@@XZ
	jmp	___CxxFrameHandler3
text$x	ENDS
?back@?$vector@VFreeMemoryBlock@@V?$allocator@VFreeMemoryBlock@@@std@@@std@@QAEAAVFreeMemoryBlock@@XZ ENDP ; std::vector<FreeMemoryBlock,std::allocator<FreeMemoryBlock> >::back
PUBLIC	?_Ufill@?$vector@VFreeMemoryBlock@@V?$allocator@VFreeMemoryBlock@@@std@@@std@@IAEPAVFreeMemoryBlock@@PAV3@IABV3@@Z ; std::vector<FreeMemoryBlock,std::allocator<FreeMemoryBlock> >::_Ufill
PUBLIC	?_Orphan_range@?$vector@VFreeMemoryBlock@@V?$allocator@VFreeMemoryBlock@@@std@@@std@@IBEXPAVFreeMemoryBlock@@0@Z ; std::vector<FreeMemoryBlock,std::allocator<FreeMemoryBlock> >::_Orphan_range
PUBLIC	?capacity@?$vector@VFreeMemoryBlock@@V?$allocator@VFreeMemoryBlock@@@std@@@std@@QBEIXZ ; std::vector<FreeMemoryBlock,std::allocator<FreeMemoryBlock> >::capacity
; Function compile flags: /Odtp /RTCsu
;	COMDAT ?push_back@?$vector@VFreeMemoryBlock@@V?$allocator@VFreeMemoryBlock@@@std@@@std@@QAEXABVFreeMemoryBlock@@@Z
_TEXT	SEGMENT
tv135 = -28						; size = 4
tv134 = -24						; size = 4
$T17004 = -20						; size = 12
$T17003 = -8						; size = 4
_this$ = -4						; size = 4
__Val$ = 8						; size = 4
?push_back@?$vector@VFreeMemoryBlock@@V?$allocator@VFreeMemoryBlock@@@std@@@std@@QAEXABVFreeMemoryBlock@@@Z PROC ; std::vector<FreeMemoryBlock,std::allocator<FreeMemoryBlock> >::push_back, COMDAT
; _this$ = ecx

; 786  : 		{	// insert element at end

	push	ebp
	mov	ebp, esp
	sub	esp, 28					; 0000001cH
	push	esi
	mov	eax, -858993460				; ccccccccH
	mov	DWORD PTR [ebp-28], eax
	mov	DWORD PTR [ebp-24], eax
	mov	DWORD PTR [ebp-20], eax
	mov	DWORD PTR [ebp-16], eax
	mov	DWORD PTR [ebp-12], eax
	mov	DWORD PTR [ebp-8], eax
	mov	DWORD PTR [ebp-4], eax
	mov	DWORD PTR _this$[ebp], ecx

; 787  : 		if (size() < capacity())

	mov	ecx, DWORD PTR _this$[ebp]
	call	?size@?$vector@VFreeMemoryBlock@@V?$allocator@VFreeMemoryBlock@@@std@@@std@@QBEIXZ ; std::vector<FreeMemoryBlock,std::allocator<FreeMemoryBlock> >::size
	mov	esi, eax
	mov	ecx, DWORD PTR _this$[ebp]
	call	?capacity@?$vector@VFreeMemoryBlock@@V?$allocator@VFreeMemoryBlock@@@std@@@std@@QBEIXZ ; std::vector<FreeMemoryBlock,std::allocator<FreeMemoryBlock> >::capacity
	cmp	esi, eax
	jae	SHORT $LN2@push_back

; 788  : 
; 789  :  #if _HAS_ITERATOR_DEBUGGING
; 790  : 			{ // room at end, construct it there
; 791  : 			_Orphan_range(_Mylast, _Mylast);

	mov	eax, DWORD PTR _this$[ebp]
	mov	ecx, DWORD PTR [eax+12]
	push	ecx
	mov	edx, DWORD PTR _this$[ebp]
	mov	eax, DWORD PTR [edx+12]
	push	eax
	mov	ecx, DWORD PTR _this$[ebp]
	call	?_Orphan_range@?$vector@VFreeMemoryBlock@@V?$allocator@VFreeMemoryBlock@@@std@@@std@@IBEXPAVFreeMemoryBlock@@0@Z ; std::vector<FreeMemoryBlock,std::allocator<FreeMemoryBlock> >::_Orphan_range

; 792  : 			_Mylast = _Ufill(_Mylast, 1, _Val);

	mov	ecx, DWORD PTR __Val$[ebp]
	push	ecx
	push	1
	mov	edx, DWORD PTR _this$[ebp]
	mov	eax, DWORD PTR [edx+12]
	push	eax
	mov	ecx, DWORD PTR _this$[ebp]
	call	?_Ufill@?$vector@VFreeMemoryBlock@@V?$allocator@VFreeMemoryBlock@@@std@@@std@@IAEPAVFreeMemoryBlock@@PAV3@IABV3@@Z ; std::vector<FreeMemoryBlock,std::allocator<FreeMemoryBlock> >::_Ufill
	mov	ecx, DWORD PTR _this$[ebp]
	mov	DWORD PTR [ecx+12], eax

; 793  : 			}
; 794  : 
; 795  :  #else /* _HAS_ITERATOR_DEBUGGING */
; 796  : 			_Mylast = _Ufill(_Mylast, 1, _Val);
; 797  :  #endif /* _HAS_ITERATOR_DEBUGGING */
; 798  : 
; 799  : 		else

	jmp	SHORT $LN3@push_back
$LN2@push_back:

; 800  : 			insert(end(), _Val);

	mov	edx, DWORD PTR __Val$[ebp]
	push	edx
	sub	esp, 12					; 0000000cH
	mov	eax, esp
	mov	DWORD PTR $T17003[ebp], esp
	push	eax
	mov	ecx, DWORD PTR _this$[ebp]
	call	?end@?$vector@VFreeMemoryBlock@@V?$allocator@VFreeMemoryBlock@@@std@@@std@@QAE?AV?$_Vector_iterator@VFreeMemoryBlock@@V?$allocator@VFreeMemoryBlock@@@std@@@2@XZ ; std::vector<FreeMemoryBlock,std::allocator<FreeMemoryBlock> >::end
	mov	DWORD PTR tv134[ebp], eax
	lea	ecx, DWORD PTR $T17004[ebp]
	push	ecx
	mov	ecx, DWORD PTR _this$[ebp]
	call	?insert@?$vector@VFreeMemoryBlock@@V?$allocator@VFreeMemoryBlock@@@std@@@std@@QAE?AV?$_Vector_iterator@VFreeMemoryBlock@@V?$allocator@VFreeMemoryBlock@@@std@@@2@V32@ABVFreeMemoryBlock@@@Z ; std::vector<FreeMemoryBlock,std::allocator<FreeMemoryBlock> >::insert
	mov	DWORD PTR tv135[ebp], eax
	lea	ecx, DWORD PTR $T17004[ebp]
	call	??1?$_Vector_iterator@VFreeMemoryBlock@@V?$allocator@VFreeMemoryBlock@@@std@@@std@@QAE@XZ
$LN3@push_back:

; 801  : 		}

	pop	esi
	add	esp, 28					; 0000001cH
	cmp	ebp, esp
	call	__RTC_CheckEsp
	mov	esp, ebp
	pop	ebp
	ret	4
?push_back@?$vector@VFreeMemoryBlock@@V?$allocator@VFreeMemoryBlock@@@std@@@std@@QAEXABVFreeMemoryBlock@@@Z ENDP ; std::vector<FreeMemoryBlock,std::allocator<FreeMemoryBlock> >::push_back
_TEXT	ENDS
PUBLIC	?_Insert_n@?$vector@VFreeMemoryBlock@@V?$allocator@VFreeMemoryBlock@@@std@@@std@@IAEXV?$_Vector_iterator@VFreeMemoryBlock@@V?$allocator@VFreeMemoryBlock@@@std@@@2@IABVFreeMemoryBlock@@@Z ; std::vector<FreeMemoryBlock,std::allocator<FreeMemoryBlock> >::_Insert_n
PUBLIC	??0?$_Vector_iterator@VFreeMemoryBlock@@V?$allocator@VFreeMemoryBlock@@@std@@@std@@QAE@ABV01@@Z ; std::_Vector_iterator<FreeMemoryBlock,std::allocator<FreeMemoryBlock> >::_Vector_iterator<FreeMemoryBlock,std::allocator<FreeMemoryBlock> >
PUBLIC	??G?$_Vector_iterator@VFreeMemoryBlock@@V?$allocator@VFreeMemoryBlock@@@std@@@std@@QBEHABV?$_Vector_const_iterator@VFreeMemoryBlock@@V?$allocator@VFreeMemoryBlock@@@std@@@1@@Z ; std::_Vector_iterator<FreeMemoryBlock,std::allocator<FreeMemoryBlock> >::operator-
;	COMDAT xdata$x
xdata$x	SEGMENT
__unwindtable$?insert@?$vector@VFreeMemoryBlock@@V?$allocator@VFreeMemoryBlock@@@std@@@std@@QAE?AV?$_Vector_iterator@VFreeMemoryBlock@@V?$allocator@VFreeMemoryBlock@@@std@@@2@V32@ABVFreeMemoryBlock@@@Z DD 0ffffffffH
	DD	FLAT:__unwindfunclet$?insert@?$vector@VFreeMemoryBlock@@V?$allocator@VFreeMemoryBlock@@@std@@@std@@QAE?AV?$_Vector_iterator@VFreeMemoryBlock@@V?$allocator@VFreeMemoryBlock@@@std@@@2@V32@ABVFreeMemoryBlock@@@Z$4
	DD	00H
	DD	FLAT:__unwindfunclet$?insert@?$vector@VFreeMemoryBlock@@V?$allocator@VFreeMemoryBlock@@@std@@@std@@QAE?AV?$_Vector_iterator@VFreeMemoryBlock@@V?$allocator@VFreeMemoryBlock@@@std@@@2@V32@ABVFreeMemoryBlock@@@Z$0
	DD	01H
	DD	FLAT:__unwindfunclet$?insert@?$vector@VFreeMemoryBlock@@V?$allocator@VFreeMemoryBlock@@@std@@@std@@QAE?AV?$_Vector_iterator@VFreeMemoryBlock@@V?$allocator@VFreeMemoryBlock@@@std@@@2@V32@ABVFreeMemoryBlock@@@Z$1
	DD	01H
	DD	FLAT:__unwindfunclet$?insert@?$vector@VFreeMemoryBlock@@V?$allocator@VFreeMemoryBlock@@@std@@@std@@QAE?AV?$_Vector_iterator@VFreeMemoryBlock@@V?$allocator@VFreeMemoryBlock@@@std@@@2@V32@ABVFreeMemoryBlock@@@Z$3
__ehfuncinfo$?insert@?$vector@VFreeMemoryBlock@@V?$allocator@VFreeMemoryBlock@@@std@@@std@@QAE?AV?$_Vector_iterator@VFreeMemoryBlock@@V?$allocator@VFreeMemoryBlock@@@std@@@2@V32@ABVFreeMemoryBlock@@@Z DD 019930522H
	DD	04H
	DD	FLAT:__unwindtable$?insert@?$vector@VFreeMemoryBlock@@V?$allocator@VFreeMemoryBlock@@@std@@@std@@QAE?AV?$_Vector_iterator@VFreeMemoryBlock@@V?$allocator@VFreeMemoryBlock@@@std@@@2@V32@ABVFreeMemoryBlock@@@Z
	DD	2 DUP(00H)
	DD	2 DUP(00H)
	DD	00H
	DD	01H
; Function compile flags: /Odtp /RTCsu
xdata$x	ENDS
;	COMDAT ?insert@?$vector@VFreeMemoryBlock@@V?$allocator@VFreeMemoryBlock@@@std@@@std@@QAE?AV?$_Vector_iterator@VFreeMemoryBlock@@V?$allocator@VFreeMemoryBlock@@@std@@@2@V32@ABVFreeMemoryBlock@@@Z
_TEXT	SEGMENT
tv149 = -76						; size = 4
tv157 = -72						; size = 4
tv147 = -68						; size = 4
tv141 = -64						; size = 4
tv155 = -60						; size = 4
tv76 = -56						; size = 4
$T17015 = -52						; size = 4
$T17013 = -48						; size = 12
$T17012 = -36						; size = 4
$T17009 = -32						; size = 12
__Off$ = -20						; size = 4
_this$ = -16						; size = 4
__$EHRec$ = -12						; size = 12
___$ReturnUdt$ = 8					; size = 4
__Where$ = 12						; size = 12
__Val$ = 24						; size = 4
?insert@?$vector@VFreeMemoryBlock@@V?$allocator@VFreeMemoryBlock@@@std@@@std@@QAE?AV?$_Vector_iterator@VFreeMemoryBlock@@V?$allocator@VFreeMemoryBlock@@@std@@@2@V32@ABVFreeMemoryBlock@@@Z PROC ; std::vector<FreeMemoryBlock,std::allocator<FreeMemoryBlock> >::insert, COMDAT
; _this$ = ecx

; 852  : 		{	// insert _Val at _Where

	push	ebp
	mov	ebp, esp
	push	-1
	push	__ehhandler$?insert@?$vector@VFreeMemoryBlock@@V?$allocator@VFreeMemoryBlock@@@std@@@std@@QAE?AV?$_Vector_iterator@VFreeMemoryBlock@@V?$allocator@VFreeMemoryBlock@@@std@@@2@V32@ABVFreeMemoryBlock@@@Z
	mov	eax, DWORD PTR fs:0
	push	eax
	mov	DWORD PTR fs:0, esp
	sub	esp, 64					; 00000040H
	push	edi
	push	ecx
	lea	edi, DWORD PTR [ebp-76]
	mov	ecx, 16					; 00000010H
	mov	eax, -858993460				; ccccccccH
	rep stosd
	pop	ecx
	mov	DWORD PTR _this$[ebp], ecx
	mov	DWORD PTR $T17015[ebp], 0
	mov	DWORD PTR __$EHRec$[ebp+8], 1

; 853  : 		size_type _Off = size() == 0 ? 0 : _Where - begin();

	mov	ecx, DWORD PTR _this$[ebp]
	call	?size@?$vector@VFreeMemoryBlock@@V?$allocator@VFreeMemoryBlock@@@std@@@std@@QBEIXZ ; std::vector<FreeMemoryBlock,std::allocator<FreeMemoryBlock> >::size
	test	eax, eax
	jne	SHORT $LN3@insert
	mov	DWORD PTR tv76[ebp], 0
	jmp	SHORT $LN4@insert
$LN3@insert:
	lea	eax, DWORD PTR $T17009[ebp]
	push	eax
	mov	ecx, DWORD PTR _this$[ebp]
	call	?begin@?$vector@VFreeMemoryBlock@@V?$allocator@VFreeMemoryBlock@@@std@@@std@@QAE?AV?$_Vector_iterator@VFreeMemoryBlock@@V?$allocator@VFreeMemoryBlock@@@std@@@2@XZ ; std::vector<FreeMemoryBlock,std::allocator<FreeMemoryBlock> >::begin
	mov	DWORD PTR tv155[ebp], eax
	mov	ecx, DWORD PTR tv155[ebp]
	mov	DWORD PTR tv141[ebp], ecx
	mov	BYTE PTR __$EHRec$[ebp+8], 2
	mov	edx, DWORD PTR $T17015[ebp]
	or	edx, 1
	mov	DWORD PTR $T17015[ebp], edx
	mov	eax, DWORD PTR tv141[ebp]
	push	eax
	lea	ecx, DWORD PTR __Where$[ebp]
	call	??G?$_Vector_iterator@VFreeMemoryBlock@@V?$allocator@VFreeMemoryBlock@@@std@@@std@@QBEHABV?$_Vector_const_iterator@VFreeMemoryBlock@@V?$allocator@VFreeMemoryBlock@@@std@@@1@@Z ; std::_Vector_iterator<FreeMemoryBlock,std::allocator<FreeMemoryBlock> >::operator-
	mov	DWORD PTR tv76[ebp], eax
$LN4@insert:
	mov	ecx, DWORD PTR tv76[ebp]
	mov	DWORD PTR __Off$[ebp], ecx
	mov	DWORD PTR __$EHRec$[ebp+8], 1
	mov	edx, DWORD PTR $T17015[ebp]
	and	edx, 1
	je	SHORT $LN8@insert
	and	DWORD PTR $T17015[ebp], -2		; fffffffeH
	lea	ecx, DWORD PTR $T17009[ebp]
	call	??1?$_Vector_iterator@VFreeMemoryBlock@@V?$allocator@VFreeMemoryBlock@@@std@@@std@@QAE@XZ
$LN8@insert:

; 854  : 		_Insert_n(_Where, (size_type)1, _Val);

	mov	eax, DWORD PTR __Val$[ebp]
	push	eax
	push	1
	sub	esp, 12					; 0000000cH
	mov	ecx, esp
	mov	DWORD PTR $T17012[ebp], esp
	lea	edx, DWORD PTR __Where$[ebp]
	push	edx
	call	??0?$_Vector_iterator@VFreeMemoryBlock@@V?$allocator@VFreeMemoryBlock@@@std@@@std@@QAE@ABV01@@Z
	mov	DWORD PTR tv147[ebp], eax
	mov	ecx, DWORD PTR _this$[ebp]
	call	?_Insert_n@?$vector@VFreeMemoryBlock@@V?$allocator@VFreeMemoryBlock@@@std@@@std@@IAEXV?$_Vector_iterator@VFreeMemoryBlock@@V?$allocator@VFreeMemoryBlock@@@std@@@2@IABVFreeMemoryBlock@@@Z ; std::vector<FreeMemoryBlock,std::allocator<FreeMemoryBlock> >::_Insert_n

; 855  : 		return (begin() + _Off);

	mov	eax, DWORD PTR __Off$[ebp]
	push	eax
	mov	ecx, DWORD PTR ___$ReturnUdt$[ebp]
	push	ecx
	lea	edx, DWORD PTR $T17013[ebp]
	push	edx
	mov	ecx, DWORD PTR _this$[ebp]
	call	?begin@?$vector@VFreeMemoryBlock@@V?$allocator@VFreeMemoryBlock@@@std@@@std@@QAE?AV?$_Vector_iterator@VFreeMemoryBlock@@V?$allocator@VFreeMemoryBlock@@@std@@@2@XZ ; std::vector<FreeMemoryBlock,std::allocator<FreeMemoryBlock> >::begin
	mov	DWORD PTR tv157[ebp], eax
	mov	eax, DWORD PTR tv157[ebp]
	mov	DWORD PTR tv149[ebp], eax
	mov	BYTE PTR __$EHRec$[ebp+8], 3
	mov	ecx, DWORD PTR tv149[ebp]
	call	??H?$_Vector_iterator@VFreeMemoryBlock@@V?$allocator@VFreeMemoryBlock@@@std@@@std@@QBE?AV01@H@Z ; std::_Vector_iterator<FreeMemoryBlock,std::allocator<FreeMemoryBlock> >::operator+
	mov	ecx, DWORD PTR $T17015[ebp]
	or	ecx, 2
	mov	DWORD PTR $T17015[ebp], ecx
	mov	BYTE PTR __$EHRec$[ebp+8], 1
	lea	ecx, DWORD PTR $T17013[ebp]
	call	??1?$_Vector_iterator@VFreeMemoryBlock@@V?$allocator@VFreeMemoryBlock@@@std@@@std@@QAE@XZ
	mov	BYTE PTR __$EHRec$[ebp+8], 0
	lea	ecx, DWORD PTR __Where$[ebp]
	call	??1?$_Vector_iterator@VFreeMemoryBlock@@V?$allocator@VFreeMemoryBlock@@@std@@@std@@QAE@XZ
	mov	eax, DWORD PTR ___$ReturnUdt$[ebp]

; 856  : 		}

	mov	ecx, DWORD PTR __$EHRec$[ebp]
	mov	DWORD PTR fs:0, ecx
	pop	edi
	add	esp, 76					; 0000004cH
	cmp	ebp, esp
	call	__RTC_CheckEsp
	mov	esp, ebp
	pop	ebp
	ret	20					; 00000014H
_TEXT	ENDS
;	COMDAT text$x
text$x	SEGMENT
__unwindfunclet$?insert@?$vector@VFreeMemoryBlock@@V?$allocator@VFreeMemoryBlock@@@std@@@std@@QAE?AV?$_Vector_iterator@VFreeMemoryBlock@@V?$allocator@VFreeMemoryBlock@@@std@@@2@V32@ABVFreeMemoryBlock@@@Z$0:
	lea	ecx, DWORD PTR __Where$[ebp]
	jmp	??1?$_Vector_iterator@VFreeMemoryBlock@@V?$allocator@VFreeMemoryBlock@@@std@@@std@@QAE@XZ
__unwindfunclet$?insert@?$vector@VFreeMemoryBlock@@V?$allocator@VFreeMemoryBlock@@@std@@@std@@QAE?AV?$_Vector_iterator@VFreeMemoryBlock@@V?$allocator@VFreeMemoryBlock@@@std@@@2@V32@ABVFreeMemoryBlock@@@Z$1:
	mov	eax, DWORD PTR $T17015[ebp]
	and	eax, 1
	je	$LN7@insert
	and	DWORD PTR $T17015[ebp], -2		; fffffffeH
	lea	ecx, DWORD PTR $T17009[ebp]
	jmp	??1?$_Vector_iterator@VFreeMemoryBlock@@V?$allocator@VFreeMemoryBlock@@@std@@@std@@QAE@XZ
$LN7@insert:
	ret	0
__unwindfunclet$?insert@?$vector@VFreeMemoryBlock@@V?$allocator@VFreeMemoryBlock@@@std@@@std@@QAE?AV?$_Vector_iterator@VFreeMemoryBlock@@V?$allocator@VFreeMemoryBlock@@@std@@@2@V32@ABVFreeMemoryBlock@@@Z$3:
	lea	ecx, DWORD PTR $T17013[ebp]
	jmp	??1?$_Vector_iterator@VFreeMemoryBlock@@V?$allocator@VFreeMemoryBlock@@@std@@@std@@QAE@XZ
__unwindfunclet$?insert@?$vector@VFreeMemoryBlock@@V?$allocator@VFreeMemoryBlock@@@std@@@std@@QAE?AV?$_Vector_iterator@VFreeMemoryBlock@@V?$allocator@VFreeMemoryBlock@@@std@@@2@V32@ABVFreeMemoryBlock@@@Z$4:
	mov	eax, DWORD PTR $T17015[ebp]
	and	eax, 2
	je	$LN12@insert
	and	DWORD PTR $T17015[ebp], -3		; fffffffdH
	mov	ecx, DWORD PTR ___$ReturnUdt$[ebp]
	jmp	??1?$_Vector_iterator@VFreeMemoryBlock@@V?$allocator@VFreeMemoryBlock@@@std@@@std@@QAE@XZ
$LN12@insert:
	ret	0
__ehhandler$?insert@?$vector@VFreeMemoryBlock@@V?$allocator@VFreeMemoryBlock@@@std@@@std@@QAE?AV?$_Vector_iterator@VFreeMemoryBlock@@V?$allocator@VFreeMemoryBlock@@@std@@@2@V32@ABVFreeMemoryBlock@@@Z:
	mov	eax, OFFSET __ehfuncinfo$?insert@?$vector@VFreeMemoryBlock@@V?$allocator@VFreeMemoryBlock@@@std@@@std@@QAE?AV?$_Vector_iterator@VFreeMemoryBlock@@V?$allocator@VFreeMemoryBlock@@@std@@@2@V32@ABVFreeMemoryBlock@@@Z
	jmp	___CxxFrameHandler3
text$x	ENDS
?insert@?$vector@VFreeMemoryBlock@@V?$allocator@VFreeMemoryBlock@@@std@@@std@@QAE?AV?$_Vector_iterator@VFreeMemoryBlock@@V?$allocator@VFreeMemoryBlock@@@std@@@2@V32@ABVFreeMemoryBlock@@@Z ENDP ; std::vector<FreeMemoryBlock,std::allocator<FreeMemoryBlock> >::insert
PUBLIC	?_Destroy@?$vector@VFreeMemoryBlock@@V?$allocator@VFreeMemoryBlock@@@std@@@std@@IAEXPAVFreeMemoryBlock@@0@Z ; std::vector<FreeMemoryBlock,std::allocator<FreeMemoryBlock> >::_Destroy
PUBLIC	??$unchecked_copy@PAVFreeMemoryBlock@@PAV1@@stdext@@YAPAVFreeMemoryBlock@@PAV1@00@Z ; stdext::unchecked_copy<FreeMemoryBlock *,FreeMemoryBlock *>
PUBLIC	??_C@_1EI@HGIDLLCM@?$AAv?$AAe?$AAc?$AAt?$AAo?$AAr?$AA?5?$AAe?$AAr?$AAa?$AAs?$AAe?$AA?5?$AAi?$AAt?$AAe?$AAr?$AAa?$AAt?$AAo?$AAr?$AA?5?$AAo?$AAu?$AAt?$AAs?$AAi?$AAd?$AAe?$AA?5?$AAr?$AAa@ ; `string'
;	COMDAT ??_C@_1EI@HGIDLLCM@?$AAv?$AAe?$AAc?$AAt?$AAo?$AAr?$AA?5?$AAe?$AAr?$AAa?$AAs?$AAe?$AA?5?$AAi?$AAt?$AAe?$AAr?$AAa?$AAt?$AAo?$AAr?$AA?5?$AAo?$AAu?$AAt?$AAs?$AAi?$AAd?$AAe?$AA?5?$AAr?$AAa@
CONST	SEGMENT
??_C@_1EI@HGIDLLCM@?$AAv?$AAe?$AAc?$AAt?$AAo?$AAr?$AA?5?$AAe?$AAr?$AAa?$AAs?$AAe?$AA?5?$AAi?$AAt?$AAe?$AAr?$AAa?$AAt?$AAo?$AAr?$AA?5?$AAo?$AAu?$AAt?$AAs?$AAi?$AAd?$AAe?$AA?5?$AAr?$AAa@ DB 'v'
	DB	00H, 'e', 00H, 'c', 00H, 't', 00H, 'o', 00H, 'r', 00H, ' ', 00H
	DB	'e', 00H, 'r', 00H, 'a', 00H, 's', 00H, 'e', 00H, ' ', 00H, 'i'
	DB	00H, 't', 00H, 'e', 00H, 'r', 00H, 'a', 00H, 't', 00H, 'o', 00H
	DB	'r', 00H, ' ', 00H, 'o', 00H, 'u', 00H, 't', 00H, 's', 00H, 'i'
	DB	00H, 'd', 00H, 'e', 00H, ' ', 00H, 'r', 00H, 'a', 00H, 'n', 00H
	DB	'g', 00H, 'e', 00H, 00H, 00H			; `string'
CONST	ENDS
;	COMDAT xdata$x
xdata$x	SEGMENT
__unwindtable$?erase@?$vector@VFreeMemoryBlock@@V?$allocator@VFreeMemoryBlock@@@std@@@std@@QAE?AV?$_Vector_iterator@VFreeMemoryBlock@@V?$allocator@VFreeMemoryBlock@@@std@@@2@V32@@Z DD 0ffffffffH
	DD	FLAT:__unwindfunclet$?erase@?$vector@VFreeMemoryBlock@@V?$allocator@VFreeMemoryBlock@@@std@@@std@@QAE?AV?$_Vector_iterator@VFreeMemoryBlock@@V?$allocator@VFreeMemoryBlock@@@std@@@2@V32@@Z$1
	DD	00H
	DD	FLAT:__unwindfunclet$?erase@?$vector@VFreeMemoryBlock@@V?$allocator@VFreeMemoryBlock@@@std@@@std@@QAE?AV?$_Vector_iterator@VFreeMemoryBlock@@V?$allocator@VFreeMemoryBlock@@@std@@@2@V32@@Z$0
__ehfuncinfo$?erase@?$vector@VFreeMemoryBlock@@V?$allocator@VFreeMemoryBlock@@@std@@@std@@QAE?AV?$_Vector_iterator@VFreeMemoryBlock@@V?$allocator@VFreeMemoryBlock@@@std@@@2@V32@@Z DD 019930522H
	DD	02H
	DD	FLAT:__unwindtable$?erase@?$vector@VFreeMemoryBlock@@V?$allocator@VFreeMemoryBlock@@@std@@@std@@QAE?AV?$_Vector_iterator@VFreeMemoryBlock@@V?$allocator@VFreeMemoryBlock@@@std@@@2@V32@@Z
	DD	2 DUP(00H)
	DD	2 DUP(00H)
	DD	00H
	DD	01H
; Function compile flags: /Odtp /RTCsu
xdata$x	ENDS
;	COMDAT ?erase@?$vector@VFreeMemoryBlock@@V?$allocator@VFreeMemoryBlock@@@std@@@std@@QAE?AV?$_Vector_iterator@VFreeMemoryBlock@@V?$allocator@VFreeMemoryBlock@@@std@@@2@V32@@Z
_TEXT	SEGMENT
$T17033 = -20						; size = 4
_this$ = -16						; size = 4
__$EHRec$ = -12						; size = 12
___$ReturnUdt$ = 8					; size = 4
__Where$ = 12						; size = 12
?erase@?$vector@VFreeMemoryBlock@@V?$allocator@VFreeMemoryBlock@@@std@@@std@@QAE?AV?$_Vector_iterator@VFreeMemoryBlock@@V?$allocator@VFreeMemoryBlock@@@std@@@2@V32@@Z PROC ; std::vector<FreeMemoryBlock,std::allocator<FreeMemoryBlock> >::erase, COMDAT
; _this$ = ecx

; 983  : 		{	// erase element at where

	push	ebp
	mov	ebp, esp
	push	-1
	push	__ehhandler$?erase@?$vector@VFreeMemoryBlock@@V?$allocator@VFreeMemoryBlock@@@std@@@std@@QAE?AV?$_Vector_iterator@VFreeMemoryBlock@@V?$allocator@VFreeMemoryBlock@@@std@@@2@V32@@Z
	mov	eax, DWORD PTR fs:0
	push	eax
	mov	DWORD PTR fs:0, esp
	sub	esp, 8
	mov	DWORD PTR [ebp-20], -858993460		; ccccccccH
	mov	DWORD PTR [ebp-16], -858993460		; ccccccccH
	mov	DWORD PTR _this$[ebp], ecx
	mov	DWORD PTR $T17033[ebp], 0
	mov	DWORD PTR __$EHRec$[ebp+8], 1

; 984  : 		if (_Where._Mycont != this
; 985  : 			|| _Where._Myptr < _Myfirst || _Mylast <= _Where._Myptr)

	mov	eax, DWORD PTR __Where$[ebp]
	cmp	eax, DWORD PTR _this$[ebp]
	jne	SHORT $LN1@erase
	mov	ecx, DWORD PTR _this$[ebp]
	mov	edx, DWORD PTR __Where$[ebp+8]
	cmp	edx, DWORD PTR [ecx+8]
	jb	SHORT $LN1@erase
	mov	eax, DWORD PTR _this$[ebp]
	mov	ecx, DWORD PTR [eax+12]
	cmp	ecx, DWORD PTR __Where$[ebp+8]
	ja	SHORT $LN2@erase
$LN1@erase:

; 986  : 			_DEBUG_ERROR("vector erase iterator outside range");

	push	986					; 000003daH
	push	OFFSET ??_C@_1FO@LOAHDEOC@?$AAC?$AA?3?$AA?2?$AAM?$AAi?$AAc?$AAr?$AAo?$AAs?$AAo?$AAf?$AAt?$AA?5?$AAV?$AAi?$AAs?$AAu?$AAa?$AAl?$AA?5?$AAS?$AAt?$AAu?$AAd?$AAi?$AAo?$AA?5?$AA8?$AA?2?$AAV?$AAC?$AA?2@
	push	OFFSET ??_C@_1EI@HGIDLLCM@?$AAv?$AAe?$AAc?$AAt?$AAo?$AAr?$AA?5?$AAe?$AAr?$AAa?$AAs?$AAe?$AA?5?$AAi?$AAt?$AAe?$AAr?$AAa?$AAt?$AAo?$AAr?$AA?5?$AAo?$AAu?$AAt?$AAs?$AAi?$AAd?$AAe?$AA?5?$AAr?$AAa@
	call	?_Debug_message@std@@YAXPB_W0I@Z	; std::_Debug_message
	add	esp, 12					; 0000000cH
$LN2@erase:

; 987  : 		_STDEXT unchecked_copy(_Where._Myptr + 1, _Mylast, _Where._Myptr);

	mov	edx, DWORD PTR __Where$[ebp+8]
	push	edx
	mov	eax, DWORD PTR _this$[ebp]
	mov	ecx, DWORD PTR [eax+12]
	push	ecx
	mov	edx, DWORD PTR __Where$[ebp+8]
	add	edx, 12					; 0000000cH
	push	edx
	call	??$unchecked_copy@PAVFreeMemoryBlock@@PAV1@@stdext@@YAPAVFreeMemoryBlock@@PAV1@00@Z ; stdext::unchecked_copy<FreeMemoryBlock *,FreeMemoryBlock *>
	add	esp, 12					; 0000000cH

; 988  : 		_Destroy(_Mylast - 1, _Mylast);

	mov	eax, DWORD PTR _this$[ebp]
	mov	ecx, DWORD PTR [eax+12]
	push	ecx
	mov	edx, DWORD PTR _this$[ebp]
	mov	eax, DWORD PTR [edx+12]
	sub	eax, 12					; 0000000cH
	push	eax
	mov	ecx, DWORD PTR _this$[ebp]
	call	?_Destroy@?$vector@VFreeMemoryBlock@@V?$allocator@VFreeMemoryBlock@@@std@@@std@@IAEXPAVFreeMemoryBlock@@0@Z ; std::vector<FreeMemoryBlock,std::allocator<FreeMemoryBlock> >::_Destroy

; 989  : 		_Orphan_range(_Where._Myptr, _Mylast);

	mov	ecx, DWORD PTR _this$[ebp]
	mov	edx, DWORD PTR [ecx+12]
	push	edx
	mov	eax, DWORD PTR __Where$[ebp+8]
	push	eax
	mov	ecx, DWORD PTR _this$[ebp]
	call	?_Orphan_range@?$vector@VFreeMemoryBlock@@V?$allocator@VFreeMemoryBlock@@@std@@@std@@IBEXPAVFreeMemoryBlock@@0@Z ; std::vector<FreeMemoryBlock,std::allocator<FreeMemoryBlock> >::_Orphan_range

; 990  : 		--_Mylast;

	mov	ecx, DWORD PTR _this$[ebp]
	mov	edx, DWORD PTR [ecx+12]
	sub	edx, 12					; 0000000cH
	mov	eax, DWORD PTR _this$[ebp]
	mov	DWORD PTR [eax+12], edx

; 991  : 		return (iterator(_Where._Myptr, this));

	mov	ecx, DWORD PTR _this$[ebp]
	push	ecx
	mov	edx, DWORD PTR __Where$[ebp+8]
	push	edx
	mov	ecx, DWORD PTR ___$ReturnUdt$[ebp]
	call	??0?$_Vector_iterator@VFreeMemoryBlock@@V?$allocator@VFreeMemoryBlock@@@std@@@std@@QAE@PAVFreeMemoryBlock@@PBV_Container_base@1@@Z ; std::_Vector_iterator<FreeMemoryBlock,std::allocator<FreeMemoryBlock> >::_Vector_iterator<FreeMemoryBlock,std::allocator<FreeMemoryBlock> >
	mov	eax, DWORD PTR $T17033[ebp]
	or	eax, 1
	mov	DWORD PTR $T17033[ebp], eax
	mov	BYTE PTR __$EHRec$[ebp+8], 0
	lea	ecx, DWORD PTR __Where$[ebp]
	call	??1?$_Vector_iterator@VFreeMemoryBlock@@V?$allocator@VFreeMemoryBlock@@@std@@@std@@QAE@XZ
	mov	eax, DWORD PTR ___$ReturnUdt$[ebp]

; 992  : 		}

	mov	ecx, DWORD PTR __$EHRec$[ebp]
	mov	DWORD PTR fs:0, ecx
	add	esp, 20					; 00000014H
	cmp	ebp, esp
	call	__RTC_CheckEsp
	mov	esp, ebp
	pop	ebp
	ret	16					; 00000010H
_TEXT	ENDS
;	COMDAT text$x
text$x	SEGMENT
__unwindfunclet$?erase@?$vector@VFreeMemoryBlock@@V?$allocator@VFreeMemoryBlock@@@std@@@std@@QAE?AV?$_Vector_iterator@VFreeMemoryBlock@@V?$allocator@VFreeMemoryBlock@@@std@@@2@V32@@Z$0:
	lea	ecx, DWORD PTR __Where$[ebp]
	jmp	??1?$_Vector_iterator@VFreeMemoryBlock@@V?$allocator@VFreeMemoryBlock@@@std@@@std@@QAE@XZ
__unwindfunclet$?erase@?$vector@VFreeMemoryBlock@@V?$allocator@VFreeMemoryBlock@@@std@@@std@@QAE?AV?$_Vector_iterator@VFreeMemoryBlock@@V?$allocator@VFreeMemoryBlock@@@std@@@2@V32@@Z$1:
	mov	eax, DWORD PTR $T17033[ebp]
	and	eax, 1
	je	$LN7@erase
	and	DWORD PTR $T17033[ebp], -2		; fffffffeH
	mov	ecx, DWORD PTR ___$ReturnUdt$[ebp]
	jmp	??1?$_Vector_iterator@VFreeMemoryBlock@@V?$allocator@VFreeMemoryBlock@@@std@@@std@@QAE@XZ
$LN7@erase:
	ret	0
__ehhandler$?erase@?$vector@VFreeMemoryBlock@@V?$allocator@VFreeMemoryBlock@@@std@@@std@@QAE?AV?$_Vector_iterator@VFreeMemoryBlock@@V?$allocator@VFreeMemoryBlock@@@std@@@2@V32@@Z:
	mov	eax, OFFSET __ehfuncinfo$?erase@?$vector@VFreeMemoryBlock@@V?$allocator@VFreeMemoryBlock@@@std@@@std@@QAE?AV?$_Vector_iterator@VFreeMemoryBlock@@V?$allocator@VFreeMemoryBlock@@@std@@@2@V32@@Z
	jmp	___CxxFrameHandler3
text$x	ENDS
?erase@?$vector@VFreeMemoryBlock@@V?$allocator@VFreeMemoryBlock@@@std@@@std@@QAE?AV?$_Vector_iterator@VFreeMemoryBlock@@V?$allocator@VFreeMemoryBlock@@@std@@@2@V32@@Z ENDP ; std::vector<FreeMemoryBlock,std::allocator<FreeMemoryBlock> >::erase
PUBLIC	??1?$_Vector_val@VAllocatedMemoryBlock@@V?$allocator@VAllocatedMemoryBlock@@@std@@@std@@QAE@XZ ; std::_Vector_val<AllocatedMemoryBlock,std::allocator<AllocatedMemoryBlock> >::~_Vector_val<AllocatedMemoryBlock,std::allocator<AllocatedMemoryBlock> >
PUBLIC	?_Buy@?$vector@VAllocatedMemoryBlock@@V?$allocator@VAllocatedMemoryBlock@@@std@@@std@@IAE_NI@Z ; std::vector<AllocatedMemoryBlock,std::allocator<AllocatedMemoryBlock> >::_Buy
PUBLIC	??0?$_Vector_val@VAllocatedMemoryBlock@@V?$allocator@VAllocatedMemoryBlock@@@std@@@std@@IAE@V?$allocator@VAllocatedMemoryBlock@@@1@@Z ; std::_Vector_val<AllocatedMemoryBlock,std::allocator<AllocatedMemoryBlock> >::_Vector_val<AllocatedMemoryBlock,std::allocator<AllocatedMemoryBlock> >
PUBLIC	??0?$allocator@VAllocatedMemoryBlock@@@std@@QAE@XZ ; std::allocator<AllocatedMemoryBlock>::allocator<AllocatedMemoryBlock>
;	COMDAT xdata$x
xdata$x	SEGMENT
__unwindtable$??0?$vector@VAllocatedMemoryBlock@@V?$allocator@VAllocatedMemoryBlock@@@std@@@std@@QAE@XZ DD 0ffffffffH
	DD	FLAT:__unwindfunclet$??0?$vector@VAllocatedMemoryBlock@@V?$allocator@VAllocatedMemoryBlock@@@std@@@std@@QAE@XZ$0
__ehfuncinfo$??0?$vector@VAllocatedMemoryBlock@@V?$allocator@VAllocatedMemoryBlock@@@std@@@std@@QAE@XZ DD 019930522H
	DD	01H
	DD	FLAT:__unwindtable$??0?$vector@VAllocatedMemoryBlock@@V?$allocator@VAllocatedMemoryBlock@@@std@@@std@@QAE@XZ
	DD	2 DUP(00H)
	DD	2 DUP(00H)
	DD	00H
	DD	01H
; Function compile flags: /Odtp /RTCsu
xdata$x	ENDS
;	COMDAT ??0?$vector@VAllocatedMemoryBlock@@V?$allocator@VAllocatedMemoryBlock@@@std@@@std@@QAE@XZ
_TEXT	SEGMENT
$T17043 = -20						; size = 4
_this$ = -16						; size = 4
__$EHRec$ = -12						; size = 12
??0?$vector@VAllocatedMemoryBlock@@V?$allocator@VAllocatedMemoryBlock@@@std@@@std@@QAE@XZ PROC ; std::vector<AllocatedMemoryBlock,std::allocator<AllocatedMemoryBlock> >::vector<AllocatedMemoryBlock,std::allocator<AllocatedMemoryBlock> >, COMDAT
; _this$ = ecx

; 457  : 		{	// construct empty vector

	push	ebp
	mov	ebp, esp
	push	-1
	push	__ehhandler$??0?$vector@VAllocatedMemoryBlock@@V?$allocator@VAllocatedMemoryBlock@@@std@@@std@@QAE@XZ
	mov	eax, DWORD PTR fs:0
	push	eax
	mov	DWORD PTR fs:0, esp
	sub	esp, 8
	mov	DWORD PTR [ebp-20], -858993460		; ccccccccH
	mov	DWORD PTR [ebp-16], -858993460		; ccccccccH
	mov	DWORD PTR _this$[ebp], ecx
	push	ecx
	mov	ecx, esp
	mov	DWORD PTR $T17043[ebp], esp
	call	??0?$allocator@VAllocatedMemoryBlock@@@std@@QAE@XZ ; std::allocator<AllocatedMemoryBlock>::allocator<AllocatedMemoryBlock>
	mov	ecx, DWORD PTR _this$[ebp]
	call	??0?$_Vector_val@VAllocatedMemoryBlock@@V?$allocator@VAllocatedMemoryBlock@@@std@@@std@@IAE@V?$allocator@VAllocatedMemoryBlock@@@1@@Z ; std::_Vector_val<AllocatedMemoryBlock,std::allocator<AllocatedMemoryBlock> >::_Vector_val<AllocatedMemoryBlock,std::allocator<AllocatedMemoryBlock> >
	mov	DWORD PTR __$EHRec$[ebp+8], 0

; 458  : 		_Buy(0);

	push	0
	mov	ecx, DWORD PTR _this$[ebp]
	call	?_Buy@?$vector@VAllocatedMemoryBlock@@V?$allocator@VAllocatedMemoryBlock@@@std@@@std@@IAE_NI@Z ; std::vector<AllocatedMemoryBlock,std::allocator<AllocatedMemoryBlock> >::_Buy

; 459  : 		}

	mov	DWORD PTR __$EHRec$[ebp+8], -1
	mov	eax, DWORD PTR _this$[ebp]
	mov	ecx, DWORD PTR __$EHRec$[ebp]
	mov	DWORD PTR fs:0, ecx
	add	esp, 20					; 00000014H
	cmp	ebp, esp
	call	__RTC_CheckEsp
	mov	esp, ebp
	pop	ebp
	ret	0
_TEXT	ENDS
;	COMDAT text$x
text$x	SEGMENT
__unwindfunclet$??0?$vector@VAllocatedMemoryBlock@@V?$allocator@VAllocatedMemoryBlock@@@std@@@std@@QAE@XZ$0:
	mov	ecx, DWORD PTR _this$[ebp]
	jmp	??1?$_Vector_val@VAllocatedMemoryBlock@@V?$allocator@VAllocatedMemoryBlock@@@std@@@std@@QAE@XZ
__ehhandler$??0?$vector@VAllocatedMemoryBlock@@V?$allocator@VAllocatedMemoryBlock@@@std@@@std@@QAE@XZ:
	mov	eax, OFFSET __ehfuncinfo$??0?$vector@VAllocatedMemoryBlock@@V?$allocator@VAllocatedMemoryBlock@@@std@@@std@@QAE@XZ
	jmp	___CxxFrameHandler3
text$x	ENDS
??0?$vector@VAllocatedMemoryBlock@@V?$allocator@VAllocatedMemoryBlock@@@std@@@std@@QAE@XZ ENDP ; std::vector<AllocatedMemoryBlock,std::allocator<AllocatedMemoryBlock> >::vector<AllocatedMemoryBlock,std::allocator<AllocatedMemoryBlock> >
PUBLIC	??0?$_Vector_iterator@VAllocatedMemoryBlock@@V?$allocator@VAllocatedMemoryBlock@@@std@@@std@@QAE@PAVAllocatedMemoryBlock@@PBV_Container_base@1@@Z ; std::_Vector_iterator<AllocatedMemoryBlock,std::allocator<AllocatedMemoryBlock> >::_Vector_iterator<AllocatedMemoryBlock,std::allocator<AllocatedMemoryBlock> >
; Function compile flags: /Odtp /RTCsu
;	COMDAT ?begin@?$vector@VAllocatedMemoryBlock@@V?$allocator@VAllocatedMemoryBlock@@@std@@@std@@QAE?AV?$_Vector_iterator@VAllocatedMemoryBlock@@V?$allocator@VAllocatedMemoryBlock@@@std@@@2@XZ
_TEXT	SEGMENT
$T17054 = -8						; size = 4
_this$ = -4						; size = 4
___$ReturnUdt$ = 8					; size = 4
?begin@?$vector@VAllocatedMemoryBlock@@V?$allocator@VAllocatedMemoryBlock@@@std@@@std@@QAE?AV?$_Vector_iterator@VAllocatedMemoryBlock@@V?$allocator@VAllocatedMemoryBlock@@@std@@@2@XZ PROC ; std::vector<AllocatedMemoryBlock,std::allocator<AllocatedMemoryBlock> >::begin, COMDAT
; _this$ = ecx

; 627  : 		{	// return iterator for beginning of mutable sequence

	push	ebp
	mov	ebp, esp
	sub	esp, 8
	mov	DWORD PTR [ebp-8], -858993460		; ccccccccH
	mov	DWORD PTR [ebp-4], -858993460		; ccccccccH
	mov	DWORD PTR _this$[ebp], ecx
	mov	DWORD PTR $T17054[ebp], 0

; 628  : 		return (iterator(_Myfirst, this));

	mov	eax, DWORD PTR _this$[ebp]
	push	eax
	mov	ecx, DWORD PTR _this$[ebp]
	mov	edx, DWORD PTR [ecx+8]
	push	edx
	mov	ecx, DWORD PTR ___$ReturnUdt$[ebp]
	call	??0?$_Vector_iterator@VAllocatedMemoryBlock@@V?$allocator@VAllocatedMemoryBlock@@@std@@@std@@QAE@PAVAllocatedMemoryBlock@@PBV_Container_base@1@@Z ; std::_Vector_iterator<AllocatedMemoryBlock,std::allocator<AllocatedMemoryBlock> >::_Vector_iterator<AllocatedMemoryBlock,std::allocator<AllocatedMemoryBlock> >
	mov	eax, DWORD PTR $T17054[ebp]
	or	eax, 1
	mov	DWORD PTR $T17054[ebp], eax
	mov	eax, DWORD PTR ___$ReturnUdt$[ebp]

; 629  : 		}

	add	esp, 8
	cmp	ebp, esp
	call	__RTC_CheckEsp
	mov	esp, ebp
	pop	ebp
	ret	4
?begin@?$vector@VAllocatedMemoryBlock@@V?$allocator@VAllocatedMemoryBlock@@@std@@@std@@QAE?AV?$_Vector_iterator@VAllocatedMemoryBlock@@V?$allocator@VAllocatedMemoryBlock@@@std@@@2@XZ ENDP ; std::vector<AllocatedMemoryBlock,std::allocator<AllocatedMemoryBlock> >::begin
; Function compile flags: /Odtp /RTCsu
_TEXT	ENDS
;	COMDAT ?size@?$vector@VAllocatedMemoryBlock@@V?$allocator@VAllocatedMemoryBlock@@@std@@@std@@QBEIXZ
_TEXT	SEGMENT
tv70 = -8						; size = 4
_this$ = -4						; size = 4
?size@?$vector@VAllocatedMemoryBlock@@V?$allocator@VAllocatedMemoryBlock@@@std@@@std@@QBEIXZ PROC ; std::vector<AllocatedMemoryBlock,std::allocator<AllocatedMemoryBlock> >::size, COMDAT
; _this$ = ecx

; 702  : 		{	// return length of sequence

	push	ebp
	mov	ebp, esp
	sub	esp, 8
	mov	DWORD PTR [ebp-8], -858993460		; ccccccccH
	mov	DWORD PTR [ebp-4], -858993460		; ccccccccH
	mov	DWORD PTR _this$[ebp], ecx

; 703  : 		return (_Myfirst == 0 ? 0 : _Mylast - _Myfirst);

	mov	eax, DWORD PTR _this$[ebp]
	cmp	DWORD PTR [eax+8], 0
	jne	SHORT $LN3@size@2
	mov	DWORD PTR tv70[ebp], 0
	jmp	SHORT $LN4@size@2
$LN3@size@2:
	mov	ecx, DWORD PTR _this$[ebp]
	mov	edx, DWORD PTR _this$[ebp]
	mov	eax, DWORD PTR [ecx+12]
	sub	eax, DWORD PTR [edx+8]
	sar	eax, 3
	mov	DWORD PTR tv70[ebp], eax
$LN4@size@2:
	mov	eax, DWORD PTR tv70[ebp]

; 704  : 		}

	mov	esp, ebp
	pop	ebp
	ret	0
?size@?$vector@VAllocatedMemoryBlock@@V?$allocator@VAllocatedMemoryBlock@@@std@@@std@@QBEIXZ ENDP ; std::vector<AllocatedMemoryBlock,std::allocator<AllocatedMemoryBlock> >::size
_TEXT	ENDS
PUBLIC	??_C@_1MO@CMLBFBLG@?$AAs?$AAt?$AAd?$AA?3?$AA?3?$AAv?$AAe?$AAc?$AAt?$AAo?$AAr?$AA?$DM?$AAc?$AAl?$AAa?$AAs?$AAs?$AA?5?$AAA?$AAl?$AAl?$AAo?$AAc?$AAa?$AAt?$AAe?$AAd?$AAM?$AAe?$AAm?$AAo?$AAr@ ; `string'
;	COMDAT ??_C@_1MO@CMLBFBLG@?$AAs?$AAt?$AAd?$AA?3?$AA?3?$AAv?$AAe?$AAc?$AAt?$AAo?$AAr?$AA?$DM?$AAc?$AAl?$AAa?$AAs?$AAs?$AA?5?$AAA?$AAl?$AAl?$AAo?$AAc?$AAa?$AAt?$AAe?$AAd?$AAM?$AAe?$AAm?$AAo?$AAr@
CONST	SEGMENT
??_C@_1MO@CMLBFBLG@?$AAs?$AAt?$AAd?$AA?3?$AA?3?$AAv?$AAe?$AAc?$AAt?$AAo?$AAr?$AA?$DM?$AAc?$AAl?$AAa?$AAs?$AAs?$AA?5?$AAA?$AAl?$AAl?$AAo?$AAc?$AAa?$AAt?$AAe?$AAd?$AAM?$AAe?$AAm?$AAo?$AAr@ DB 's'
	DB	00H, 't', 00H, 'd', 00H, ':', 00H, ':', 00H, 'v', 00H, 'e', 00H
	DB	'c', 00H, 't', 00H, 'o', 00H, 'r', 00H, '<', 00H, 'c', 00H, 'l'
	DB	00H, 'a', 00H, 's', 00H, 's', 00H, ' ', 00H, 'A', 00H, 'l', 00H
	DB	'l', 00H, 'o', 00H, 'c', 00H, 'a', 00H, 't', 00H, 'e', 00H, 'd'
	DB	00H, 'M', 00H, 'e', 00H, 'm', 00H, 'o', 00H, 'r', 00H, 'y', 00H
	DB	'B', 00H, 'l', 00H, 'o', 00H, 'c', 00H, 'k', 00H, ',', 00H, 'c'
	DB	00H, 'l', 00H, 'a', 00H, 's', 00H, 's', 00H, ' ', 00H, 's', 00H
	DB	't', 00H, 'd', 00H, ':', 00H, ':', 00H, 'a', 00H, 'l', 00H, 'l'
	DB	00H, 'o', 00H, 'c', 00H, 'a', 00H, 't', 00H, 'o', 00H, 'r', 00H
	DB	'<', 00H, 'c', 00H, 'l', 00H, 'a', 00H, 's', 00H, 's', 00H, ' '
	DB	00H, 'A', 00H, 'l', 00H, 'l', 00H, 'o', 00H, 'c', 00H, 'a', 00H
	DB	't', 00H, 'e', 00H, 'd', 00H, 'M', 00H, 'e', 00H, 'm', 00H, 'o'
	DB	00H, 'r', 00H, 'y', 00H, 'B', 00H, 'l', 00H, 'o', 00H, 'c', 00H
	DB	'k', 00H, '>', 00H, ' ', 00H, '>', 00H, ':', 00H, ':', 00H, 'o'
	DB	00H, 'p', 00H, 'e', 00H, 'r', 00H, 'a', 00H, 't', 00H, 'o', 00H
	DB	'r', 00H, ' ', 00H, '[', 00H, ']', 00H, 00H, 00H ; `string'
; Function compile flags: /Odtp /RTCsu
CONST	ENDS
;	COMDAT ??A?$vector@VAllocatedMemoryBlock@@V?$allocator@VAllocatedMemoryBlock@@@std@@@std@@QAEAAVAllocatedMemoryBlock@@I@Z
_TEXT	SEGMENT
_this$ = -4						; size = 4
__Pos$ = 8						; size = 4
??A?$vector@VAllocatedMemoryBlock@@V?$allocator@VAllocatedMemoryBlock@@@std@@@std@@QAEAAVAllocatedMemoryBlock@@I@Z PROC ; std::vector<AllocatedMemoryBlock,std::allocator<AllocatedMemoryBlock> >::operator[], COMDAT
; _this$ = ecx

; 751  : 		{	// subscript mutable sequence

	push	ebp
	mov	ebp, esp
	push	ecx
	mov	DWORD PTR [ebp-4], -858993460		; ccccccccH
	mov	DWORD PTR _this$[ebp], ecx

; 752  : 
; 753  :  #if _HAS_ITERATOR_DEBUGGING
; 754  : 		if (size() <= _Pos)

	mov	ecx, DWORD PTR _this$[ebp]
	call	?size@?$vector@VAllocatedMemoryBlock@@V?$allocator@VAllocatedMemoryBlock@@@std@@@std@@QBEIXZ ; std::vector<AllocatedMemoryBlock,std::allocator<AllocatedMemoryBlock> >::size
	cmp	eax, DWORD PTR __Pos$[ebp]
	ja	SHORT $LN2@operator@2

; 755  : 			{
; 756  : 			_DEBUG_ERROR("vector subscript out of range");

	push	756					; 000002f4H
	push	OFFSET ??_C@_1FO@LOAHDEOC@?$AAC?$AA?3?$AA?2?$AAM?$AAi?$AAc?$AAr?$AAo?$AAs?$AAo?$AAf?$AAt?$AA?5?$AAV?$AAi?$AAs?$AAu?$AAa?$AAl?$AA?5?$AAS?$AAt?$AAu?$AAd?$AAi?$AAo?$AA?5?$AA8?$AA?2?$AAV?$AAC?$AA?2@
	push	OFFSET ??_C@_1DM@LHGCHCBA@?$AAv?$AAe?$AAc?$AAt?$AAo?$AAr?$AA?5?$AAs?$AAu?$AAb?$AAs?$AAc?$AAr?$AAi?$AAp?$AAt?$AA?5?$AAo?$AAu?$AAt?$AA?5?$AAo?$AAf?$AA?5?$AAr?$AAa?$AAn?$AAg?$AAe?$AA?$AA@
	call	?_Debug_message@std@@YAXPB_W0I@Z	; std::_Debug_message
	add	esp, 12					; 0000000cH

; 757  : 			_SCL_SECURE_OUT_OF_RANGE;

	xor	eax, eax
	jne	SHORT $LN5@operator@2
	push	OFFSET ??_C@_1FG@CMLDHNON@?$AA?$CI?$AA?$CC?$AAS?$AAt?$AAa?$AAn?$AAd?$AAa?$AAr?$AAd?$AA?5?$AAC?$AA?$CL?$AA?$CL?$AA?5?$AAL?$AAi?$AAb?$AAr?$AAa?$AAr?$AAi?$AAe?$AAs?$AA?5?$AAO?$AAu?$AAt?$AA?5?$AAo?$AAf?$AA?5@
	push	0
	push	757					; 000002f5H
	push	OFFSET ??_C@_1FO@LOAHDEOC@?$AAC?$AA?3?$AA?2?$AAM?$AAi?$AAc?$AAr?$AAo?$AAs?$AAo?$AAf?$AAt?$AA?5?$AAV?$AAi?$AAs?$AAu?$AAa?$AAl?$AA?5?$AAS?$AAt?$AAu?$AAd?$AAi?$AAo?$AA?5?$AA8?$AA?2?$AAV?$AAC?$AA?2@
	push	2
	call	__CrtDbgReportW
	add	esp, 20					; 00000014H
	cmp	eax, 1
	jne	SHORT $LN5@operator@2
	int	3
$LN5@operator@2:
	push	0
	push	757					; 000002f5H
	push	OFFSET ??_C@_1FO@LOAHDEOC@?$AAC?$AA?3?$AA?2?$AAM?$AAi?$AAc?$AAr?$AAo?$AAs?$AAo?$AAf?$AAt?$AA?5?$AAV?$AAi?$AAs?$AAu?$AAa?$AAl?$AA?5?$AAS?$AAt?$AAu?$AAd?$AAi?$AAo?$AA?5?$AA8?$AA?2?$AAV?$AAC?$AA?2@
	push	OFFSET ??_C@_1MO@CMLBFBLG@?$AAs?$AAt?$AAd?$AA?3?$AA?3?$AAv?$AAe?$AAc?$AAt?$AAo?$AAr?$AA?$DM?$AAc?$AAl?$AAa?$AAs?$AAs?$AA?5?$AAA?$AAl?$AAl?$AAo?$AAc?$AAa?$AAt?$AAe?$AAd?$AAM?$AAe?$AAm?$AAo?$AAr@
	push	OFFSET ??_C@_1BO@MEPPHOO@?$AA?$CC?$AAo?$AAu?$AAt?$AA?5?$AAo?$AAf?$AA?5?$AAr?$AAa?$AAn?$AAg?$AAe?$AA?$CC?$AA?$AA@
	call	__invalid_parameter
	add	esp, 20					; 00000014H
$LN2@operator@2:

; 758  : 			}
; 759  :  #endif /* _HAS_ITERATOR_DEBUGGING */
; 760  : 		_SCL_SECURE_VALIDATE_RANGE(_Pos < size());

	mov	ecx, DWORD PTR _this$[ebp]
	call	?size@?$vector@VAllocatedMemoryBlock@@V?$allocator@VAllocatedMemoryBlock@@@std@@@std@@QBEIXZ ; std::vector<AllocatedMemoryBlock,std::allocator<AllocatedMemoryBlock> >::size
	cmp	DWORD PTR __Pos$[ebp], eax
	jb	SHORT $LN1@operator@2
	xor	edx, edx
	jne	SHORT $LN6@operator@2
	push	OFFSET ??_C@_1CK@POGJDOKA@?$AA?$CI?$AA?$CC?$AA_?$AAP?$AAo?$AAs?$AA?5?$AA?$DM?$AA?5?$AAs?$AAi?$AAz?$AAe?$AA?$CI?$AA?$CJ?$AA?$CC?$AA?0?$AA?5?$AA0?$AA?$CJ?$AA?$AA@
	push	0
	push	760					; 000002f8H
	push	OFFSET ??_C@_1FO@LOAHDEOC@?$AAC?$AA?3?$AA?2?$AAM?$AAi?$AAc?$AAr?$AAo?$AAs?$AAo?$AAf?$AAt?$AA?5?$AAV?$AAi?$AAs?$AAu?$AAa?$AAl?$AA?5?$AAS?$AAt?$AAu?$AAd?$AAi?$AAo?$AA?5?$AA8?$AA?2?$AAV?$AAC?$AA?2@
	push	2
	call	__CrtDbgReportW
	add	esp, 20					; 00000014H
	cmp	eax, 1
	jne	SHORT $LN6@operator@2
	int	3
$LN6@operator@2:
	push	0
	push	760					; 000002f8H
	push	OFFSET ??_C@_1FO@LOAHDEOC@?$AAC?$AA?3?$AA?2?$AAM?$AAi?$AAc?$AAr?$AAo?$AAs?$AAo?$AAf?$AAt?$AA?5?$AAV?$AAi?$AAs?$AAu?$AAa?$AAl?$AA?5?$AAS?$AAt?$AAu?$AAd?$AAi?$AAo?$AA?5?$AA8?$AA?2?$AAV?$AAC?$AA?2@
	push	OFFSET ??_C@_1MO@CMLBFBLG@?$AAs?$AAt?$AAd?$AA?3?$AA?3?$AAv?$AAe?$AAc?$AAt?$AAo?$AAr?$AA?$DM?$AAc?$AAl?$AAa?$AAs?$AAs?$AA?5?$AAA?$AAl?$AAl?$AAo?$AAc?$AAa?$AAt?$AAe?$AAd?$AAM?$AAe?$AAm?$AAo?$AAr@
	push	OFFSET ??_C@_1BO@MEPPHOO@?$AA?$CC?$AAo?$AAu?$AAt?$AA?5?$AAo?$AAf?$AA?5?$AAr?$AAa?$AAn?$AAg?$AAe?$AA?$CC?$AA?$AA@
	call	__invalid_parameter
	add	esp, 20					; 00000014H
$LN1@operator@2:

; 761  : 
; 762  : 		return (*(_Myfirst + _Pos));

	mov	ecx, DWORD PTR _this$[ebp]
	mov	edx, DWORD PTR [ecx+8]
	mov	eax, DWORD PTR __Pos$[ebp]
	lea	eax, DWORD PTR [edx+eax*8]

; 763  : 		}

	add	esp, 4
	cmp	ebp, esp
	call	__RTC_CheckEsp
	mov	esp, ebp
	pop	ebp
	ret	4
??A?$vector@VAllocatedMemoryBlock@@V?$allocator@VAllocatedMemoryBlock@@@std@@@std@@QAEAAVAllocatedMemoryBlock@@I@Z ENDP ; std::vector<AllocatedMemoryBlock,std::allocator<AllocatedMemoryBlock> >::operator[]
_TEXT	ENDS
PUBLIC	?_Insert_n@?$vector@VAllocatedMemoryBlock@@V?$allocator@VAllocatedMemoryBlock@@@std@@@std@@IAEXV?$_Vector_iterator@VAllocatedMemoryBlock@@V?$allocator@VAllocatedMemoryBlock@@@std@@@2@IABVAllocatedMemoryBlock@@@Z ; std::vector<AllocatedMemoryBlock,std::allocator<AllocatedMemoryBlock> >::_Insert_n
PUBLIC	??0?$_Vector_iterator@VAllocatedMemoryBlock@@V?$allocator@VAllocatedMemoryBlock@@@std@@@std@@QAE@ABV01@@Z ; std::_Vector_iterator<AllocatedMemoryBlock,std::allocator<AllocatedMemoryBlock> >::_Vector_iterator<AllocatedMemoryBlock,std::allocator<AllocatedMemoryBlock> >
PUBLIC	??G?$_Vector_iterator@VAllocatedMemoryBlock@@V?$allocator@VAllocatedMemoryBlock@@@std@@@std@@QBEHABV?$_Vector_const_iterator@VAllocatedMemoryBlock@@V?$allocator@VAllocatedMemoryBlock@@@std@@@1@@Z ; std::_Vector_iterator<AllocatedMemoryBlock,std::allocator<AllocatedMemoryBlock> >::operator-
;	COMDAT xdata$x
xdata$x	SEGMENT
__unwindtable$?insert@?$vector@VAllocatedMemoryBlock@@V?$allocator@VAllocatedMemoryBlock@@@std@@@std@@QAE?AV?$_Vector_iterator@VAllocatedMemoryBlock@@V?$allocator@VAllocatedMemoryBlock@@@std@@@2@V32@ABVAllocatedMemoryBlock@@@Z DD 0ffffffffH
	DD	FLAT:__unwindfunclet$?insert@?$vector@VAllocatedMemoryBlock@@V?$allocator@VAllocatedMemoryBlock@@@std@@@std@@QAE?AV?$_Vector_iterator@VAllocatedMemoryBlock@@V?$allocator@VAllocatedMemoryBlock@@@std@@@2@V32@ABVAllocatedMemoryBlock@@@Z$4
	DD	00H
	DD	FLAT:__unwindfunclet$?insert@?$vector@VAllocatedMemoryBlock@@V?$allocator@VAllocatedMemoryBlock@@@std@@@std@@QAE?AV?$_Vector_iterator@VAllocatedMemoryBlock@@V?$allocator@VAllocatedMemoryBlock@@@std@@@2@V32@ABVAllocatedMemoryBlock@@@Z$0
	DD	01H
	DD	FLAT:__unwindfunclet$?insert@?$vector@VAllocatedMemoryBlock@@V?$allocator@VAllocatedMemoryBlock@@@std@@@std@@QAE?AV?$_Vector_iterator@VAllocatedMemoryBlock@@V?$allocator@VAllocatedMemoryBlock@@@std@@@2@V32@ABVAllocatedMemoryBlock@@@Z$1
	DD	01H
	DD	FLAT:__unwindfunclet$?insert@?$vector@VAllocatedMemoryBlock@@V?$allocator@VAllocatedMemoryBlock@@@std@@@std@@QAE?AV?$_Vector_iterator@VAllocatedMemoryBlock@@V?$allocator@VAllocatedMemoryBlock@@@std@@@2@V32@ABVAllocatedMemoryBlock@@@Z$3
__ehfuncinfo$?insert@?$vector@VAllocatedMemoryBlock@@V?$allocator@VAllocatedMemoryBlock@@@std@@@std@@QAE?AV?$_Vector_iterator@VAllocatedMemoryBlock@@V?$allocator@VAllocatedMemoryBlock@@@std@@@2@V32@ABVAllocatedMemoryBlock@@@Z DD 019930522H
	DD	04H
	DD	FLAT:__unwindtable$?insert@?$vector@VAllocatedMemoryBlock@@V?$allocator@VAllocatedMemoryBlock@@@std@@@std@@QAE?AV?$_Vector_iterator@VAllocatedMemoryBlock@@V?$allocator@VAllocatedMemoryBlock@@@std@@@2@V32@ABVAllocatedMemoryBlock@@@Z
	DD	2 DUP(00H)
	DD	2 DUP(00H)
	DD	00H
	DD	01H
; Function compile flags: /Odtp /RTCsu
xdata$x	ENDS
;	COMDAT ?insert@?$vector@VAllocatedMemoryBlock@@V?$allocator@VAllocatedMemoryBlock@@@std@@@std@@QAE?AV?$_Vector_iterator@VAllocatedMemoryBlock@@V?$allocator@VAllocatedMemoryBlock@@@std@@@2@V32@ABVAllocatedMemoryBlock@@@Z
_TEXT	SEGMENT
tv149 = -76						; size = 4
tv157 = -72						; size = 4
tv147 = -68						; size = 4
tv141 = -64						; size = 4
tv155 = -60						; size = 4
tv76 = -56						; size = 4
$T17072 = -52						; size = 4
$T17070 = -48						; size = 12
$T17069 = -36						; size = 4
$T17066 = -32						; size = 12
__Off$ = -20						; size = 4
_this$ = -16						; size = 4
__$EHRec$ = -12						; size = 12
___$ReturnUdt$ = 8					; size = 4
__Where$ = 12						; size = 12
__Val$ = 24						; size = 4
?insert@?$vector@VAllocatedMemoryBlock@@V?$allocator@VAllocatedMemoryBlock@@@std@@@std@@QAE?AV?$_Vector_iterator@VAllocatedMemoryBlock@@V?$allocator@VAllocatedMemoryBlock@@@std@@@2@V32@ABVAllocatedMemoryBlock@@@Z PROC ; std::vector<AllocatedMemoryBlock,std::allocator<AllocatedMemoryBlock> >::insert, COMDAT
; _this$ = ecx

; 852  : 		{	// insert _Val at _Where

	push	ebp
	mov	ebp, esp
	push	-1
	push	__ehhandler$?insert@?$vector@VAllocatedMemoryBlock@@V?$allocator@VAllocatedMemoryBlock@@@std@@@std@@QAE?AV?$_Vector_iterator@VAllocatedMemoryBlock@@V?$allocator@VAllocatedMemoryBlock@@@std@@@2@V32@ABVAllocatedMemoryBlock@@@Z
	mov	eax, DWORD PTR fs:0
	push	eax
	mov	DWORD PTR fs:0, esp
	sub	esp, 64					; 00000040H
	push	edi
	push	ecx
	lea	edi, DWORD PTR [ebp-76]
	mov	ecx, 16					; 00000010H
	mov	eax, -858993460				; ccccccccH
	rep stosd
	pop	ecx
	mov	DWORD PTR _this$[ebp], ecx
	mov	DWORD PTR $T17072[ebp], 0
	mov	DWORD PTR __$EHRec$[ebp+8], 1

; 853  : 		size_type _Off = size() == 0 ? 0 : _Where - begin();

	mov	ecx, DWORD PTR _this$[ebp]
	call	?size@?$vector@VAllocatedMemoryBlock@@V?$allocator@VAllocatedMemoryBlock@@@std@@@std@@QBEIXZ ; std::vector<AllocatedMemoryBlock,std::allocator<AllocatedMemoryBlock> >::size
	test	eax, eax
	jne	SHORT $LN3@insert@2
	mov	DWORD PTR tv76[ebp], 0
	jmp	SHORT $LN4@insert@2
$LN3@insert@2:
	lea	eax, DWORD PTR $T17066[ebp]
	push	eax
	mov	ecx, DWORD PTR _this$[ebp]
	call	?begin@?$vector@VAllocatedMemoryBlock@@V?$allocator@VAllocatedMemoryBlock@@@std@@@std@@QAE?AV?$_Vector_iterator@VAllocatedMemoryBlock@@V?$allocator@VAllocatedMemoryBlock@@@std@@@2@XZ ; std::vector<AllocatedMemoryBlock,std::allocator<AllocatedMemoryBlock> >::begin
	mov	DWORD PTR tv155[ebp], eax
	mov	ecx, DWORD PTR tv155[ebp]
	mov	DWORD PTR tv141[ebp], ecx
	mov	BYTE PTR __$EHRec$[ebp+8], 2
	mov	edx, DWORD PTR $T17072[ebp]
	or	edx, 1
	mov	DWORD PTR $T17072[ebp], edx
	mov	eax, DWORD PTR tv141[ebp]
	push	eax
	lea	ecx, DWORD PTR __Where$[ebp]
	call	??G?$_Vector_iterator@VAllocatedMemoryBlock@@V?$allocator@VAllocatedMemoryBlock@@@std@@@std@@QBEHABV?$_Vector_const_iterator@VAllocatedMemoryBlock@@V?$allocator@VAllocatedMemoryBlock@@@std@@@1@@Z ; std::_Vector_iterator<AllocatedMemoryBlock,std::allocator<AllocatedMemoryBlock> >::operator-
	mov	DWORD PTR tv76[ebp], eax
$LN4@insert@2:
	mov	ecx, DWORD PTR tv76[ebp]
	mov	DWORD PTR __Off$[ebp], ecx
	mov	DWORD PTR __$EHRec$[ebp+8], 1
	mov	edx, DWORD PTR $T17072[ebp]
	and	edx, 1
	je	SHORT $LN8@insert@2
	and	DWORD PTR $T17072[ebp], -2		; fffffffeH
	lea	ecx, DWORD PTR $T17066[ebp]
	call	??1?$_Vector_iterator@VAllocatedMemoryBlock@@V?$allocator@VAllocatedMemoryBlock@@@std@@@std@@QAE@XZ
$LN8@insert@2:

; 854  : 		_Insert_n(_Where, (size_type)1, _Val);

	mov	eax, DWORD PTR __Val$[ebp]
	push	eax
	push	1
	sub	esp, 12					; 0000000cH
	mov	ecx, esp
	mov	DWORD PTR $T17069[ebp], esp
	lea	edx, DWORD PTR __Where$[ebp]
	push	edx
	call	??0?$_Vector_iterator@VAllocatedMemoryBlock@@V?$allocator@VAllocatedMemoryBlock@@@std@@@std@@QAE@ABV01@@Z
	mov	DWORD PTR tv147[ebp], eax
	mov	ecx, DWORD PTR _this$[ebp]
	call	?_Insert_n@?$vector@VAllocatedMemoryBlock@@V?$allocator@VAllocatedMemoryBlock@@@std@@@std@@IAEXV?$_Vector_iterator@VAllocatedMemoryBlock@@V?$allocator@VAllocatedMemoryBlock@@@std@@@2@IABVAllocatedMemoryBlock@@@Z ; std::vector<AllocatedMemoryBlock,std::allocator<AllocatedMemoryBlock> >::_Insert_n

; 855  : 		return (begin() + _Off);

	mov	eax, DWORD PTR __Off$[ebp]
	push	eax
	mov	ecx, DWORD PTR ___$ReturnUdt$[ebp]
	push	ecx
	lea	edx, DWORD PTR $T17070[ebp]
	push	edx
	mov	ecx, DWORD PTR _this$[ebp]
	call	?begin@?$vector@VAllocatedMemoryBlock@@V?$allocator@VAllocatedMemoryBlock@@@std@@@std@@QAE?AV?$_Vector_iterator@VAllocatedMemoryBlock@@V?$allocator@VAllocatedMemoryBlock@@@std@@@2@XZ ; std::vector<AllocatedMemoryBlock,std::allocator<AllocatedMemoryBlock> >::begin
	mov	DWORD PTR tv157[ebp], eax
	mov	eax, DWORD PTR tv157[ebp]
	mov	DWORD PTR tv149[ebp], eax
	mov	BYTE PTR __$EHRec$[ebp+8], 3
	mov	ecx, DWORD PTR tv149[ebp]
	call	??H?$_Vector_iterator@VAllocatedMemoryBlock@@V?$allocator@VAllocatedMemoryBlock@@@std@@@std@@QBE?AV01@H@Z ; std::_Vector_iterator<AllocatedMemoryBlock,std::allocator<AllocatedMemoryBlock> >::operator+
	mov	ecx, DWORD PTR $T17072[ebp]
	or	ecx, 2
	mov	DWORD PTR $T17072[ebp], ecx
	mov	BYTE PTR __$EHRec$[ebp+8], 1
	lea	ecx, DWORD PTR $T17070[ebp]
	call	??1?$_Vector_iterator@VAllocatedMemoryBlock@@V?$allocator@VAllocatedMemoryBlock@@@std@@@std@@QAE@XZ
	mov	BYTE PTR __$EHRec$[ebp+8], 0
	lea	ecx, DWORD PTR __Where$[ebp]
	call	??1?$_Vector_iterator@VAllocatedMemoryBlock@@V?$allocator@VAllocatedMemoryBlock@@@std@@@std@@QAE@XZ
	mov	eax, DWORD PTR ___$ReturnUdt$[ebp]

; 856  : 		}

	mov	ecx, DWORD PTR __$EHRec$[ebp]
	mov	DWORD PTR fs:0, ecx
	pop	edi
	add	esp, 76					; 0000004cH
	cmp	ebp, esp
	call	__RTC_CheckEsp
	mov	esp, ebp
	pop	ebp
	ret	20					; 00000014H
_TEXT	ENDS
;	COMDAT text$x
text$x	SEGMENT
__unwindfunclet$?insert@?$vector@VAllocatedMemoryBlock@@V?$allocator@VAllocatedMemoryBlock@@@std@@@std@@QAE?AV?$_Vector_iterator@VAllocatedMemoryBlock@@V?$allocator@VAllocatedMemoryBlock@@@std@@@2@V32@ABVAllocatedMemoryBlock@@@Z$0:
	lea	ecx, DWORD PTR __Where$[ebp]
	jmp	??1?$_Vector_iterator@VAllocatedMemoryBlock@@V?$allocator@VAllocatedMemoryBlock@@@std@@@std@@QAE@XZ
__unwindfunclet$?insert@?$vector@VAllocatedMemoryBlock@@V?$allocator@VAllocatedMemoryBlock@@@std@@@std@@QAE?AV?$_Vector_iterator@VAllocatedMemoryBlock@@V?$allocator@VAllocatedMemoryBlock@@@std@@@2@V32@ABVAllocatedMemoryBlock@@@Z$1:
	mov	eax, DWORD PTR $T17072[ebp]
	and	eax, 1
	je	$LN7@insert@2
	and	DWORD PTR $T17072[ebp], -2		; fffffffeH
	lea	ecx, DWORD PTR $T17066[ebp]
	jmp	??1?$_Vector_iterator@VAllocatedMemoryBlock@@V?$allocator@VAllocatedMemoryBlock@@@std@@@std@@QAE@XZ
$LN7@insert@2:
	ret	0
__unwindfunclet$?insert@?$vector@VAllocatedMemoryBlock@@V?$allocator@VAllocatedMemoryBlock@@@std@@@std@@QAE?AV?$_Vector_iterator@VAllocatedMemoryBlock@@V?$allocator@VAllocatedMemoryBlock@@@std@@@2@V32@ABVAllocatedMemoryBlock@@@Z$3:
	lea	ecx, DWORD PTR $T17070[ebp]
	jmp	??1?$_Vector_iterator@VAllocatedMemoryBlock@@V?$allocator@VAllocatedMemoryBlock@@@std@@@std@@QAE@XZ
__unwindfunclet$?insert@?$vector@VAllocatedMemoryBlock@@V?$allocator@VAllocatedMemoryBlock@@@std@@@std@@QAE?AV?$_Vector_iterator@VAllocatedMemoryBlock@@V?$allocator@VAllocatedMemoryBlock@@@std@@@2@V32@ABVAllocatedMemoryBlock@@@Z$4:
	mov	eax, DWORD PTR $T17072[ebp]
	and	eax, 2
	je	$LN12@insert@2
	and	DWORD PTR $T17072[ebp], -3		; fffffffdH
	mov	ecx, DWORD PTR ___$ReturnUdt$[ebp]
	jmp	??1?$_Vector_iterator@VAllocatedMemoryBlock@@V?$allocator@VAllocatedMemoryBlock@@@std@@@std@@QAE@XZ
$LN12@insert@2:
	ret	0
__ehhandler$?insert@?$vector@VAllocatedMemoryBlock@@V?$allocator@VAllocatedMemoryBlock@@@std@@@std@@QAE?AV?$_Vector_iterator@VAllocatedMemoryBlock@@V?$allocator@VAllocatedMemoryBlock@@@std@@@2@V32@ABVAllocatedMemoryBlock@@@Z:
	mov	eax, OFFSET __ehfuncinfo$?insert@?$vector@VAllocatedMemoryBlock@@V?$allocator@VAllocatedMemoryBlock@@@std@@@std@@QAE?AV?$_Vector_iterator@VAllocatedMemoryBlock@@V?$allocator@VAllocatedMemoryBlock@@@std@@@2@V32@ABVAllocatedMemoryBlock@@@Z
	jmp	___CxxFrameHandler3
text$x	ENDS
?insert@?$vector@VAllocatedMemoryBlock@@V?$allocator@VAllocatedMemoryBlock@@@std@@@std@@QAE?AV?$_Vector_iterator@VAllocatedMemoryBlock@@V?$allocator@VAllocatedMemoryBlock@@@std@@@2@V32@ABVAllocatedMemoryBlock@@@Z ENDP ; std::vector<AllocatedMemoryBlock,std::allocator<AllocatedMemoryBlock> >::insert
PUBLIC	?_Orphan_range@?$vector@VAllocatedMemoryBlock@@V?$allocator@VAllocatedMemoryBlock@@@std@@@std@@IBEXPAVAllocatedMemoryBlock@@0@Z ; std::vector<AllocatedMemoryBlock,std::allocator<AllocatedMemoryBlock> >::_Orphan_range
PUBLIC	?_Destroy@?$vector@VAllocatedMemoryBlock@@V?$allocator@VAllocatedMemoryBlock@@@std@@@std@@IAEXPAVAllocatedMemoryBlock@@0@Z ; std::vector<AllocatedMemoryBlock,std::allocator<AllocatedMemoryBlock> >::_Destroy
PUBLIC	??$unchecked_copy@PAVAllocatedMemoryBlock@@PAV1@@stdext@@YAPAVAllocatedMemoryBlock@@PAV1@00@Z ; stdext::unchecked_copy<AllocatedMemoryBlock *,AllocatedMemoryBlock *>
;	COMDAT xdata$x
xdata$x	SEGMENT
__unwindtable$?erase@?$vector@VAllocatedMemoryBlock@@V?$allocator@VAllocatedMemoryBlock@@@std@@@std@@QAE?AV?$_Vector_iterator@VAllocatedMemoryBlock@@V?$allocator@VAllocatedMemoryBlock@@@std@@@2@V32@@Z DD 0ffffffffH
	DD	FLAT:__unwindfunclet$?erase@?$vector@VAllocatedMemoryBlock@@V?$allocator@VAllocatedMemoryBlock@@@std@@@std@@QAE?AV?$_Vector_iterator@VAllocatedMemoryBlock@@V?$allocator@VAllocatedMemoryBlock@@@std@@@2@V32@@Z$1
	DD	00H
	DD	FLAT:__unwindfunclet$?erase@?$vector@VAllocatedMemoryBlock@@V?$allocator@VAllocatedMemoryBlock@@@std@@@std@@QAE?AV?$_Vector_iterator@VAllocatedMemoryBlock@@V?$allocator@VAllocatedMemoryBlock@@@std@@@2@V32@@Z$0
__ehfuncinfo$?erase@?$vector@VAllocatedMemoryBlock@@V?$allocator@VAllocatedMemoryBlock@@@std@@@std@@QAE?AV?$_Vector_iterator@VAllocatedMemoryBlock@@V?$allocator@VAllocatedMemoryBlock@@@std@@@2@V32@@Z DD 019930522H
	DD	02H
	DD	FLAT:__unwindtable$?erase@?$vector@VAllocatedMemoryBlock@@V?$allocator@VAllocatedMemoryBlock@@@std@@@std@@QAE?AV?$_Vector_iterator@VAllocatedMemoryBlock@@V?$allocator@VAllocatedMemoryBlock@@@std@@@2@V32@@Z
	DD	2 DUP(00H)
	DD	2 DUP(00H)
	DD	00H
	DD	01H
; Function compile flags: /Odtp /RTCsu
xdata$x	ENDS
;	COMDAT ?erase@?$vector@VAllocatedMemoryBlock@@V?$allocator@VAllocatedMemoryBlock@@@std@@@std@@QAE?AV?$_Vector_iterator@VAllocatedMemoryBlock@@V?$allocator@VAllocatedMemoryBlock@@@std@@@2@V32@@Z
_TEXT	SEGMENT
$T17090 = -20						; size = 4
_this$ = -16						; size = 4
__$EHRec$ = -12						; size = 12
___$ReturnUdt$ = 8					; size = 4
__Where$ = 12						; size = 12
?erase@?$vector@VAllocatedMemoryBlock@@V?$allocator@VAllocatedMemoryBlock@@@std@@@std@@QAE?AV?$_Vector_iterator@VAllocatedMemoryBlock@@V?$allocator@VAllocatedMemoryBlock@@@std@@@2@V32@@Z PROC ; std::vector<AllocatedMemoryBlock,std::allocator<AllocatedMemoryBlock> >::erase, COMDAT
; _this$ = ecx

; 983  : 		{	// erase element at where

	push	ebp
	mov	ebp, esp
	push	-1
	push	__ehhandler$?erase@?$vector@VAllocatedMemoryBlock@@V?$allocator@VAllocatedMemoryBlock@@@std@@@std@@QAE?AV?$_Vector_iterator@VAllocatedMemoryBlock@@V?$allocator@VAllocatedMemoryBlock@@@std@@@2@V32@@Z
	mov	eax, DWORD PTR fs:0
	push	eax
	mov	DWORD PTR fs:0, esp
	sub	esp, 8
	mov	DWORD PTR [ebp-20], -858993460		; ccccccccH
	mov	DWORD PTR [ebp-16], -858993460		; ccccccccH
	mov	DWORD PTR _this$[ebp], ecx
	mov	DWORD PTR $T17090[ebp], 0
	mov	DWORD PTR __$EHRec$[ebp+8], 1

; 984  : 		if (_Where._Mycont != this
; 985  : 			|| _Where._Myptr < _Myfirst || _Mylast <= _Where._Myptr)

	mov	eax, DWORD PTR __Where$[ebp]
	cmp	eax, DWORD PTR _this$[ebp]
	jne	SHORT $LN1@erase@2
	mov	ecx, DWORD PTR _this$[ebp]
	mov	edx, DWORD PTR __Where$[ebp+8]
	cmp	edx, DWORD PTR [ecx+8]
	jb	SHORT $LN1@erase@2
	mov	eax, DWORD PTR _this$[ebp]
	mov	ecx, DWORD PTR [eax+12]
	cmp	ecx, DWORD PTR __Where$[ebp+8]
	ja	SHORT $LN2@erase@2
$LN1@erase@2:

; 986  : 			_DEBUG_ERROR("vector erase iterator outside range");

	push	986					; 000003daH
	push	OFFSET ??_C@_1FO@LOAHDEOC@?$AAC?$AA?3?$AA?2?$AAM?$AAi?$AAc?$AAr?$AAo?$AAs?$AAo?$AAf?$AAt?$AA?5?$AAV?$AAi?$AAs?$AAu?$AAa?$AAl?$AA?5?$AAS?$AAt?$AAu?$AAd?$AAi?$AAo?$AA?5?$AA8?$AA?2?$AAV?$AAC?$AA?2@
	push	OFFSET ??_C@_1EI@HGIDLLCM@?$AAv?$AAe?$AAc?$AAt?$AAo?$AAr?$AA?5?$AAe?$AAr?$AAa?$AAs?$AAe?$AA?5?$AAi?$AAt?$AAe?$AAr?$AAa?$AAt?$AAo?$AAr?$AA?5?$AAo?$AAu?$AAt?$AAs?$AAi?$AAd?$AAe?$AA?5?$AAr?$AAa@
	call	?_Debug_message@std@@YAXPB_W0I@Z	; std::_Debug_message
	add	esp, 12					; 0000000cH
$LN2@erase@2:

; 987  : 		_STDEXT unchecked_copy(_Where._Myptr + 1, _Mylast, _Where._Myptr);

	mov	edx, DWORD PTR __Where$[ebp+8]
	push	edx
	mov	eax, DWORD PTR _this$[ebp]
	mov	ecx, DWORD PTR [eax+12]
	push	ecx
	mov	edx, DWORD PTR __Where$[ebp+8]
	add	edx, 8
	push	edx
	call	??$unchecked_copy@PAVAllocatedMemoryBlock@@PAV1@@stdext@@YAPAVAllocatedMemoryBlock@@PAV1@00@Z ; stdext::unchecked_copy<AllocatedMemoryBlock *,AllocatedMemoryBlock *>
	add	esp, 12					; 0000000cH

; 988  : 		_Destroy(_Mylast - 1, _Mylast);

	mov	eax, DWORD PTR _this$[ebp]
	mov	ecx, DWORD PTR [eax+12]
	push	ecx
	mov	edx, DWORD PTR _this$[ebp]
	mov	eax, DWORD PTR [edx+12]
	sub	eax, 8
	push	eax
	mov	ecx, DWORD PTR _this$[ebp]
	call	?_Destroy@?$vector@VAllocatedMemoryBlock@@V?$allocator@VAllocatedMemoryBlock@@@std@@@std@@IAEXPAVAllocatedMemoryBlock@@0@Z ; std::vector<AllocatedMemoryBlock,std::allocator<AllocatedMemoryBlock> >::_Destroy

; 989  : 		_Orphan_range(_Where._Myptr, _Mylast);

	mov	ecx, DWORD PTR _this$[ebp]
	mov	edx, DWORD PTR [ecx+12]
	push	edx
	mov	eax, DWORD PTR __Where$[ebp+8]
	push	eax
	mov	ecx, DWORD PTR _this$[ebp]
	call	?_Orphan_range@?$vector@VAllocatedMemoryBlock@@V?$allocator@VAllocatedMemoryBlock@@@std@@@std@@IBEXPAVAllocatedMemoryBlock@@0@Z ; std::vector<AllocatedMemoryBlock,std::allocator<AllocatedMemoryBlock> >::_Orphan_range

; 990  : 		--_Mylast;

	mov	ecx, DWORD PTR _this$[ebp]
	mov	edx, DWORD PTR [ecx+12]
	sub	edx, 8
	mov	eax, DWORD PTR _this$[ebp]
	mov	DWORD PTR [eax+12], edx

; 991  : 		return (iterator(_Where._Myptr, this));

	mov	ecx, DWORD PTR _this$[ebp]
	push	ecx
	mov	edx, DWORD PTR __Where$[ebp+8]
	push	edx
	mov	ecx, DWORD PTR ___$ReturnUdt$[ebp]
	call	??0?$_Vector_iterator@VAllocatedMemoryBlock@@V?$allocator@VAllocatedMemoryBlock@@@std@@@std@@QAE@PAVAllocatedMemoryBlock@@PBV_Container_base@1@@Z ; std::_Vector_iterator<AllocatedMemoryBlock,std::allocator<AllocatedMemoryBlock> >::_Vector_iterator<AllocatedMemoryBlock,std::allocator<AllocatedMemoryBlock> >
	mov	eax, DWORD PTR $T17090[ebp]
	or	eax, 1
	mov	DWORD PTR $T17090[ebp], eax
	mov	BYTE PTR __$EHRec$[ebp+8], 0
	lea	ecx, DWORD PTR __Where$[ebp]
	call	??1?$_Vector_iterator@VAllocatedMemoryBlock@@V?$allocator@VAllocatedMemoryBlock@@@std@@@std@@QAE@XZ
	mov	eax, DWORD PTR ___$ReturnUdt$[ebp]

; 992  : 		}

	mov	ecx, DWORD PTR __$EHRec$[ebp]
	mov	DWORD PTR fs:0, ecx
	add	esp, 20					; 00000014H
	cmp	ebp, esp
	call	__RTC_CheckEsp
	mov	esp, ebp
	pop	ebp
	ret	16					; 00000010H
_TEXT	ENDS
;	COMDAT text$x
text$x	SEGMENT
__unwindfunclet$?erase@?$vector@VAllocatedMemoryBlock@@V?$allocator@VAllocatedMemoryBlock@@@std@@@std@@QAE?AV?$_Vector_iterator@VAllocatedMemoryBlock@@V?$allocator@VAllocatedMemoryBlock@@@std@@@2@V32@@Z$0:
	lea	ecx, DWORD PTR __Where$[ebp]
	jmp	??1?$_Vector_iterator@VAllocatedMemoryBlock@@V?$allocator@VAllocatedMemoryBlock@@@std@@@std@@QAE@XZ
__unwindfunclet$?erase@?$vector@VAllocatedMemoryBlock@@V?$allocator@VAllocatedMemoryBlock@@@std@@@std@@QAE?AV?$_Vector_iterator@VAllocatedMemoryBlock@@V?$allocator@VAllocatedMemoryBlock@@@std@@@2@V32@@Z$1:
	mov	eax, DWORD PTR $T17090[ebp]
	and	eax, 1
	je	$LN7@erase@2
	and	DWORD PTR $T17090[ebp], -2		; fffffffeH
	mov	ecx, DWORD PTR ___$ReturnUdt$[ebp]
	jmp	??1?$_Vector_iterator@VAllocatedMemoryBlock@@V?$allocator@VAllocatedMemoryBlock@@@std@@@std@@QAE@XZ
$LN7@erase@2:
	ret	0
__ehhandler$?erase@?$vector@VAllocatedMemoryBlock@@V?$allocator@VAllocatedMemoryBlock@@@std@@@std@@QAE?AV?$_Vector_iterator@VAllocatedMemoryBlock@@V?$allocator@VAllocatedMemoryBlock@@@std@@@2@V32@@Z:
	mov	eax, OFFSET __ehfuncinfo$?erase@?$vector@VAllocatedMemoryBlock@@V?$allocator@VAllocatedMemoryBlock@@@std@@@std@@QAE?AV?$_Vector_iterator@VAllocatedMemoryBlock@@V?$allocator@VAllocatedMemoryBlock@@@std@@@2@V32@@Z
	jmp	___CxxFrameHandler3
text$x	ENDS
?erase@?$vector@VAllocatedMemoryBlock@@V?$allocator@VAllocatedMemoryBlock@@@std@@@std@@QAE?AV?$_Vector_iterator@VAllocatedMemoryBlock@@V?$allocator@VAllocatedMemoryBlock@@@std@@@2@V32@@Z ENDP ; std::vector<AllocatedMemoryBlock,std::allocator<AllocatedMemoryBlock> >::erase
PUBLIC	??Y?$_Vector_iterator@VFreeMemoryBlock@@V?$allocator@VFreeMemoryBlock@@@std@@@std@@QAEAAV01@H@Z ; std::_Vector_iterator<FreeMemoryBlock,std::allocator<FreeMemoryBlock> >::operator+=
;	COMDAT xdata$x
xdata$x	SEGMENT
__unwindtable$??H?$_Vector_iterator@VFreeMemoryBlock@@V?$allocator@VFreeMemoryBlock@@@std@@@std@@QBE?AV01@H@Z DD 0ffffffffH
	DD	FLAT:__unwindfunclet$??H?$_Vector_iterator@VFreeMemoryBlock@@V?$allocator@VFreeMemoryBlock@@@std@@@std@@QBE?AV01@H@Z$1
	DD	00H
	DD	FLAT:__unwindfunclet$??H?$_Vector_iterator@VFreeMemoryBlock@@V?$allocator@VFreeMemoryBlock@@@std@@@std@@QBE?AV01@H@Z$0
__ehfuncinfo$??H?$_Vector_iterator@VFreeMemoryBlock@@V?$allocator@VFreeMemoryBlock@@@std@@@std@@QBE?AV01@H@Z DD 019930522H
	DD	02H
	DD	FLAT:__unwindtable$??H?$_Vector_iterator@VFreeMemoryBlock@@V?$allocator@VFreeMemoryBlock@@@std@@@std@@QBE?AV01@H@Z
	DD	2 DUP(00H)
	DD	2 DUP(00H)
	DD	00H
	DD	01H
; Function compile flags: /Odtp /RTCsu
xdata$x	ENDS
;	COMDAT ??H?$_Vector_iterator@VFreeMemoryBlock@@V?$allocator@VFreeMemoryBlock@@@std@@@std@@QBE?AV01@H@Z
_TEXT	SEGMENT
$T17102 = -40						; size = 4
__Tmp$ = -32						; size = 12
_this$ = -16						; size = 4
__$EHRec$ = -12						; size = 12
___$ReturnUdt$ = 8					; size = 4
__Off$ = 12						; size = 4
??H?$_Vector_iterator@VFreeMemoryBlock@@V?$allocator@VFreeMemoryBlock@@@std@@@std@@QBE?AV01@H@Z PROC ; std::_Vector_iterator<FreeMemoryBlock,std::allocator<FreeMemoryBlock> >::operator+, COMDAT
; _this$ = ecx

; 367  : 		{	// return this + integer

	push	ebp
	mov	ebp, esp
	push	-1
	push	__ehhandler$??H?$_Vector_iterator@VFreeMemoryBlock@@V?$allocator@VFreeMemoryBlock@@@std@@@std@@QBE?AV01@H@Z
	mov	eax, DWORD PTR fs:0
	push	eax
	mov	DWORD PTR fs:0, esp
	sub	esp, 28					; 0000001cH
	mov	eax, -858993460				; ccccccccH
	mov	DWORD PTR [ebp-40], eax
	mov	DWORD PTR [ebp-36], eax
	mov	DWORD PTR [ebp-32], eax
	mov	DWORD PTR [ebp-28], eax
	mov	DWORD PTR [ebp-24], eax
	mov	DWORD PTR [ebp-20], eax
	mov	DWORD PTR [ebp-16], eax
	mov	DWORD PTR _this$[ebp], ecx
	mov	DWORD PTR $T17102[ebp], 0

; 368  : 		_Myt _Tmp = *this;

	mov	eax, DWORD PTR _this$[ebp]
	push	eax
	lea	ecx, DWORD PTR __Tmp$[ebp]
	call	??0?$_Vector_iterator@VFreeMemoryBlock@@V?$allocator@VFreeMemoryBlock@@@std@@@std@@QAE@ABV01@@Z
	mov	DWORD PTR __$EHRec$[ebp+8], 1

; 369  : 		return (_Tmp += _Off);

	mov	ecx, DWORD PTR __Off$[ebp]
	push	ecx
	lea	ecx, DWORD PTR __Tmp$[ebp]
	call	??Y?$_Vector_iterator@VFreeMemoryBlock@@V?$allocator@VFreeMemoryBlock@@@std@@@std@@QAEAAV01@H@Z ; std::_Vector_iterator<FreeMemoryBlock,std::allocator<FreeMemoryBlock> >::operator+=
	push	eax
	mov	ecx, DWORD PTR ___$ReturnUdt$[ebp]
	call	??0?$_Vector_iterator@VFreeMemoryBlock@@V?$allocator@VFreeMemoryBlock@@@std@@@std@@QAE@ABV01@@Z
	mov	edx, DWORD PTR $T17102[ebp]
	or	edx, 1
	mov	DWORD PTR $T17102[ebp], edx
	mov	BYTE PTR __$EHRec$[ebp+8], 0
	lea	ecx, DWORD PTR __Tmp$[ebp]
	call	??1?$_Vector_iterator@VFreeMemoryBlock@@V?$allocator@VFreeMemoryBlock@@@std@@@std@@QAE@XZ
	mov	eax, DWORD PTR ___$ReturnUdt$[ebp]

; 370  : 		}

	push	edx
	mov	ecx, ebp
	push	eax
	lea	edx, DWORD PTR $LN9@operator@3
	call	@_RTC_CheckStackVars@8
	pop	eax
	pop	edx
	mov	ecx, DWORD PTR __$EHRec$[ebp]
	mov	DWORD PTR fs:0, ecx
	add	esp, 40					; 00000028H
	cmp	ebp, esp
	call	__RTC_CheckEsp
	mov	esp, ebp
	pop	ebp
	ret	8
	npad	2
$LN9@operator@3:
	DD	1
	DD	$LN8@operator@3
$LN8@operator@3:
	DD	-32					; ffffffe0H
	DD	12					; 0000000cH
	DD	$LN6@operator@3
$LN6@operator@3:
	DB	95					; 0000005fH
	DB	84					; 00000054H
	DB	109					; 0000006dH
	DB	112					; 00000070H
	DB	0
_TEXT	ENDS
;	COMDAT text$x
text$x	SEGMENT
__unwindfunclet$??H?$_Vector_iterator@VFreeMemoryBlock@@V?$allocator@VFreeMemoryBlock@@@std@@@std@@QBE?AV01@H@Z$0:
	lea	ecx, DWORD PTR __Tmp$[ebp]
	jmp	??1?$_Vector_iterator@VFreeMemoryBlock@@V?$allocator@VFreeMemoryBlock@@@std@@@std@@QAE@XZ
__unwindfunclet$??H?$_Vector_iterator@VFreeMemoryBlock@@V?$allocator@VFreeMemoryBlock@@@std@@@std@@QBE?AV01@H@Z$1:
	mov	eax, DWORD PTR $T17102[ebp]
	and	eax, 1
	je	$LN5@operator@3
	and	DWORD PTR $T17102[ebp], -2		; fffffffeH
	mov	ecx, DWORD PTR ___$ReturnUdt$[ebp]
	jmp	??1?$_Vector_iterator@VFreeMemoryBlock@@V?$allocator@VFreeMemoryBlock@@@std@@@std@@QAE@XZ
$LN5@operator@3:
	ret	0
__ehhandler$??H?$_Vector_iterator@VFreeMemoryBlock@@V?$allocator@VFreeMemoryBlock@@@std@@@std@@QBE?AV01@H@Z:
	mov	eax, OFFSET __ehfuncinfo$??H?$_Vector_iterator@VFreeMemoryBlock@@V?$allocator@VFreeMemoryBlock@@@std@@@std@@QBE?AV01@H@Z
	jmp	___CxxFrameHandler3
text$x	ENDS
??H?$_Vector_iterator@VFreeMemoryBlock@@V?$allocator@VFreeMemoryBlock@@@std@@@std@@QBE?AV01@H@Z ENDP ; std::_Vector_iterator<FreeMemoryBlock,std::allocator<FreeMemoryBlock> >::operator+
PUBLIC	??Y?$_Vector_iterator@VAllocatedMemoryBlock@@V?$allocator@VAllocatedMemoryBlock@@@std@@@std@@QAEAAV01@H@Z ; std::_Vector_iterator<AllocatedMemoryBlock,std::allocator<AllocatedMemoryBlock> >::operator+=
;	COMDAT xdata$x
xdata$x	SEGMENT
__unwindtable$??H?$_Vector_iterator@VAllocatedMemoryBlock@@V?$allocator@VAllocatedMemoryBlock@@@std@@@std@@QBE?AV01@H@Z DD 0ffffffffH
	DD	FLAT:__unwindfunclet$??H?$_Vector_iterator@VAllocatedMemoryBlock@@V?$allocator@VAllocatedMemoryBlock@@@std@@@std@@QBE?AV01@H@Z$1
	DD	00H
	DD	FLAT:__unwindfunclet$??H?$_Vector_iterator@VAllocatedMemoryBlock@@V?$allocator@VAllocatedMemoryBlock@@@std@@@std@@QBE?AV01@H@Z$0
__ehfuncinfo$??H?$_Vector_iterator@VAllocatedMemoryBlock@@V?$allocator@VAllocatedMemoryBlock@@@std@@@std@@QBE?AV01@H@Z DD 019930522H
	DD	02H
	DD	FLAT:__unwindtable$??H?$_Vector_iterator@VAllocatedMemoryBlock@@V?$allocator@VAllocatedMemoryBlock@@@std@@@std@@QBE?AV01@H@Z
	DD	2 DUP(00H)
	DD	2 DUP(00H)
	DD	00H
	DD	01H
; Function compile flags: /Odtp /RTCsu
xdata$x	ENDS
;	COMDAT ??H?$_Vector_iterator@VAllocatedMemoryBlock@@V?$allocator@VAllocatedMemoryBlock@@@std@@@std@@QBE?AV01@H@Z
_TEXT	SEGMENT
$T17117 = -40						; size = 4
__Tmp$ = -32						; size = 12
_this$ = -16						; size = 4
__$EHRec$ = -12						; size = 12
___$ReturnUdt$ = 8					; size = 4
__Off$ = 12						; size = 4
??H?$_Vector_iterator@VAllocatedMemoryBlock@@V?$allocator@VAllocatedMemoryBlock@@@std@@@std@@QBE?AV01@H@Z PROC ; std::_Vector_iterator<AllocatedMemoryBlock,std::allocator<AllocatedMemoryBlock> >::operator+, COMDAT
; _this$ = ecx

; 367  : 		{	// return this + integer

	push	ebp
	mov	ebp, esp
	push	-1
	push	__ehhandler$??H?$_Vector_iterator@VAllocatedMemoryBlock@@V?$allocator@VAllocatedMemoryBlock@@@std@@@std@@QBE?AV01@H@Z
	mov	eax, DWORD PTR fs:0
	push	eax
	mov	DWORD PTR fs:0, esp
	sub	esp, 28					; 0000001cH
	mov	eax, -858993460				; ccccccccH
	mov	DWORD PTR [ebp-40], eax
	mov	DWORD PTR [ebp-36], eax
	mov	DWORD PTR [ebp-32], eax
	mov	DWORD PTR [ebp-28], eax
	mov	DWORD PTR [ebp-24], eax
	mov	DWORD PTR [ebp-20], eax
	mov	DWORD PTR [ebp-16], eax
	mov	DWORD PTR _this$[ebp], ecx
	mov	DWORD PTR $T17117[ebp], 0

; 368  : 		_Myt _Tmp = *this;

	mov	eax, DWORD PTR _this$[ebp]
	push	eax
	lea	ecx, DWORD PTR __Tmp$[ebp]
	call	??0?$_Vector_iterator@VAllocatedMemoryBlock@@V?$allocator@VAllocatedMemoryBlock@@@std@@@std@@QAE@ABV01@@Z
	mov	DWORD PTR __$EHRec$[ebp+8], 1

; 369  : 		return (_Tmp += _Off);

	mov	ecx, DWORD PTR __Off$[ebp]
	push	ecx
	lea	ecx, DWORD PTR __Tmp$[ebp]
	call	??Y?$_Vector_iterator@VAllocatedMemoryBlock@@V?$allocator@VAllocatedMemoryBlock@@@std@@@std@@QAEAAV01@H@Z ; std::_Vector_iterator<AllocatedMemoryBlock,std::allocator<AllocatedMemoryBlock> >::operator+=
	push	eax
	mov	ecx, DWORD PTR ___$ReturnUdt$[ebp]
	call	??0?$_Vector_iterator@VAllocatedMemoryBlock@@V?$allocator@VAllocatedMemoryBlock@@@std@@@std@@QAE@ABV01@@Z
	mov	edx, DWORD PTR $T17117[ebp]
	or	edx, 1
	mov	DWORD PTR $T17117[ebp], edx
	mov	BYTE PTR __$EHRec$[ebp+8], 0
	lea	ecx, DWORD PTR __Tmp$[ebp]
	call	??1?$_Vector_iterator@VAllocatedMemoryBlock@@V?$allocator@VAllocatedMemoryBlock@@@std@@@std@@QAE@XZ
	mov	eax, DWORD PTR ___$ReturnUdt$[ebp]

; 370  : 		}

	push	edx
	mov	ecx, ebp
	push	eax
	lea	edx, DWORD PTR $LN9@operator@4
	call	@_RTC_CheckStackVars@8
	pop	eax
	pop	edx
	mov	ecx, DWORD PTR __$EHRec$[ebp]
	mov	DWORD PTR fs:0, ecx
	add	esp, 40					; 00000028H
	cmp	ebp, esp
	call	__RTC_CheckEsp
	mov	esp, ebp
	pop	ebp
	ret	8
	npad	2
$LN9@operator@4:
	DD	1
	DD	$LN8@operator@4
$LN8@operator@4:
	DD	-32					; ffffffe0H
	DD	12					; 0000000cH
	DD	$LN6@operator@4
$LN6@operator@4:
	DB	95					; 0000005fH
	DB	84					; 00000054H
	DB	109					; 0000006dH
	DB	112					; 00000070H
	DB	0
_TEXT	ENDS
;	COMDAT text$x
text$x	SEGMENT
__unwindfunclet$??H?$_Vector_iterator@VAllocatedMemoryBlock@@V?$allocator@VAllocatedMemoryBlock@@@std@@@std@@QBE?AV01@H@Z$0:
	lea	ecx, DWORD PTR __Tmp$[ebp]
	jmp	??1?$_Vector_iterator@VAllocatedMemoryBlock@@V?$allocator@VAllocatedMemoryBlock@@@std@@@std@@QAE@XZ
__unwindfunclet$??H?$_Vector_iterator@VAllocatedMemoryBlock@@V?$allocator@VAllocatedMemoryBlock@@@std@@@std@@QBE?AV01@H@Z$1:
	mov	eax, DWORD PTR $T17117[ebp]
	and	eax, 1
	je	$LN5@operator@4
	and	DWORD PTR $T17117[ebp], -2		; fffffffeH
	mov	ecx, DWORD PTR ___$ReturnUdt$[ebp]
	jmp	??1?$_Vector_iterator@VAllocatedMemoryBlock@@V?$allocator@VAllocatedMemoryBlock@@@std@@@std@@QAE@XZ
$LN5@operator@4:
	ret	0
__ehhandler$??H?$_Vector_iterator@VAllocatedMemoryBlock@@V?$allocator@VAllocatedMemoryBlock@@@std@@@std@@QBE?AV01@H@Z:
	mov	eax, OFFSET __ehfuncinfo$??H?$_Vector_iterator@VAllocatedMemoryBlock@@V?$allocator@VAllocatedMemoryBlock@@@std@@@std@@QBE?AV01@H@Z
	jmp	___CxxFrameHandler3
text$x	ENDS
??H?$_Vector_iterator@VAllocatedMemoryBlock@@V?$allocator@VAllocatedMemoryBlock@@@std@@@std@@QBE?AV01@H@Z ENDP ; std::_Vector_iterator<AllocatedMemoryBlock,std::allocator<AllocatedMemoryBlock> >::operator+
PUBLIC	??1_Container_base@std@@QAE@XZ			; std::_Container_base::~_Container_base
; Function compile flags: /Odtp /RTCsu
;	COMDAT ??1?$_Vector_val@VFreeMemoryBlock@@V?$allocator@VFreeMemoryBlock@@@std@@@std@@QAE@XZ
_TEXT	SEGMENT
_this$ = -4						; size = 4
??1?$_Vector_val@VFreeMemoryBlock@@V?$allocator@VFreeMemoryBlock@@@std@@@std@@QAE@XZ PROC ; std::_Vector_val<FreeMemoryBlock,std::allocator<FreeMemoryBlock> >::~_Vector_val<FreeMemoryBlock,std::allocator<FreeMemoryBlock> >, COMDAT
; _this$ = ecx
	push	ebp
	mov	ebp, esp
	push	ecx
	mov	DWORD PTR [ebp-4], -858993460		; ccccccccH
	mov	DWORD PTR _this$[ebp], ecx
	mov	ecx, DWORD PTR _this$[ebp]
	call	??1_Container_base@std@@QAE@XZ		; std::_Container_base::~_Container_base
	add	esp, 4
	cmp	ebp, esp
	call	__RTC_CheckEsp
	mov	esp, ebp
	pop	ebp
	ret	0
??1?$_Vector_val@VFreeMemoryBlock@@V?$allocator@VFreeMemoryBlock@@@std@@@std@@QAE@XZ ENDP ; std::_Vector_val<FreeMemoryBlock,std::allocator<FreeMemoryBlock> >::~_Vector_val<FreeMemoryBlock,std::allocator<FreeMemoryBlock> >
_TEXT	ENDS
PUBLIC	?_Orphan_all@_Container_base@std@@QBEXXZ	; std::_Container_base::_Orphan_all
; Function compile flags: /Odtp /RTCsu
; File c:\microsoft visual studio 8\vc\include\xutility
;	COMDAT ??1_Container_base@std@@QAE@XZ
_TEXT	SEGMENT
_this$ = -4						; size = 4
??1_Container_base@std@@QAE@XZ PROC			; std::_Container_base::~_Container_base, COMDAT
; _this$ = ecx

; 105  : 		{	// destroy the container

	push	ebp
	mov	ebp, esp
	push	ecx
	mov	DWORD PTR [ebp-4], -858993460		; ccccccccH
	mov	DWORD PTR _this$[ebp], ecx

; 106  : 		_Orphan_all();

	mov	ecx, DWORD PTR _this$[ebp]
	call	?_Orphan_all@_Container_base@std@@QBEXXZ ; std::_Container_base::_Orphan_all

; 107  : 		}

	add	esp, 4
	cmp	ebp, esp
	call	__RTC_CheckEsp
	mov	esp, ebp
	pop	ebp
	ret	0
??1_Container_base@std@@QAE@XZ ENDP			; std::_Container_base::~_Container_base
; Function compile flags: /Odtp /RTCsu
_TEXT	ENDS
;	COMDAT ?_Orphan_all@_Container_base@std@@QBEXXZ
_TEXT	SEGMENT
__Pnext$6459 = -20					; size = 4
__Lock$ = -12						; size = 4
_this$ = -4						; size = 4
?_Orphan_all@_Container_base@std@@QBEXXZ PROC		; std::_Container_base::_Orphan_all, COMDAT
; _this$ = ecx

; 191  : 	{	// orphan all iterators

	push	ebp
	mov	ebp, esp
	sub	esp, 20					; 00000014H
	mov	eax, -858993460				; ccccccccH
	mov	DWORD PTR [ebp-20], eax
	mov	DWORD PTR [ebp-16], eax
	mov	DWORD PTR [ebp-12], eax
	mov	DWORD PTR [ebp-8], eax
	mov	DWORD PTR [ebp-4], eax
	mov	DWORD PTR _this$[ebp], ecx

; 192  : 	_Lockit _Lock(_LOCK_DEBUG);

	push	3
	lea	ecx, DWORD PTR __Lock$[ebp]
	call	??0_Lockit@std@@QAE@H@Z			; std::_Lockit::_Lockit

; 193  : 	if (_Myfirstiter != _IGNORE_MYITERLIST)

	mov	eax, DWORD PTR _this$[ebp]
	cmp	DWORD PTR [eax], -3			; fffffffdH
	je	SHORT $LN4@Orphan_all

; 194  : 		{
; 195  : 		for (_Iterator_base **_Pnext = (_Iterator_base **)&_Myfirstiter;

	mov	ecx, DWORD PTR _this$[ebp]
	mov	DWORD PTR __Pnext$6459[ebp], ecx
	jmp	SHORT $LN3@Orphan_all
$LN2@Orphan_all:

; 196  : 			*_Pnext != 0; *_Pnext = (*_Pnext)->_Mynextiter)

	mov	edx, DWORD PTR __Pnext$6459[ebp]
	mov	eax, DWORD PTR [edx]
	mov	ecx, DWORD PTR __Pnext$6459[ebp]
	mov	edx, DWORD PTR [eax+4]
	mov	DWORD PTR [ecx], edx
$LN3@Orphan_all:
	mov	eax, DWORD PTR __Pnext$6459[ebp]
	cmp	DWORD PTR [eax], 0
	je	SHORT $LN1@Orphan_all

; 197  : 			(*_Pnext)->_Mycont = 0;

	mov	ecx, DWORD PTR __Pnext$6459[ebp]
	mov	edx, DWORD PTR [ecx]
	mov	DWORD PTR [edx], 0
	jmp	SHORT $LN2@Orphan_all
$LN1@Orphan_all:

; 198  : 		*(_Iterator_base **)&_Myfirstiter = 0;

	mov	eax, DWORD PTR _this$[ebp]
	mov	DWORD PTR [eax], 0
$LN4@Orphan_all:

; 199  : 		}
; 200  : 	}

	lea	ecx, DWORD PTR __Lock$[ebp]
	call	??1_Lockit@std@@QAE@XZ			; std::_Lockit::~_Lockit
	push	edx
	mov	ecx, ebp
	push	eax
	lea	edx, DWORD PTR $LN10@Orphan_all
	call	@_RTC_CheckStackVars@8
	pop	eax
	pop	edx
	add	esp, 20					; 00000014H
	cmp	ebp, esp
	call	__RTC_CheckEsp
	mov	esp, ebp
	pop	ebp
	ret	0
	npad	3
$LN10@Orphan_all:
	DD	1
	DD	$LN9@Orphan_all
$LN9@Orphan_all:
	DD	-12					; fffffff4H
	DD	4
	DD	$LN8@Orphan_all
$LN8@Orphan_all:
	DB	95					; 0000005fH
	DB	76					; 0000004cH
	DB	111					; 0000006fH
	DB	99					; 00000063H
	DB	107					; 0000006bH
	DB	0
?_Orphan_all@_Container_base@std@@QBEXXZ ENDP		; std::_Container_base::_Orphan_all
_TEXT	ENDS
PUBLIC	??0?$_Vector_const_iterator@VFreeMemoryBlock@@V?$allocator@VFreeMemoryBlock@@@std@@@std@@QAE@ABV01@@Z ; std::_Vector_const_iterator<FreeMemoryBlock,std::allocator<FreeMemoryBlock> >::_Vector_const_iterator<FreeMemoryBlock,std::allocator<FreeMemoryBlock> >
; Function compile flags: /Odtp /RTCsu
;	COMDAT ??0?$_Vector_iterator@VFreeMemoryBlock@@V?$allocator@VFreeMemoryBlock@@@std@@@std@@QAE@ABV01@@Z
_TEXT	SEGMENT
_this$ = -4						; size = 4
___that$ = 8						; size = 4
??0?$_Vector_iterator@VFreeMemoryBlock@@V?$allocator@VFreeMemoryBlock@@@std@@@std@@QAE@ABV01@@Z PROC ; std::_Vector_iterator<FreeMemoryBlock,std::allocator<FreeMemoryBlock> >::_Vector_iterator<FreeMemoryBlock,std::allocator<FreeMemoryBlock> >, COMDAT
; _this$ = ecx
	push	ebp
	mov	ebp, esp
	push	ecx
	mov	DWORD PTR [ebp-4], -858993460		; ccccccccH
	mov	DWORD PTR _this$[ebp], ecx
	mov	eax, DWORD PTR ___that$[ebp]
	push	eax
	mov	ecx, DWORD PTR _this$[ebp]
	call	??0?$_Vector_const_iterator@VFreeMemoryBlock@@V?$allocator@VFreeMemoryBlock@@@std@@@std@@QAE@ABV01@@Z
	mov	eax, DWORD PTR _this$[ebp]
	add	esp, 4
	cmp	ebp, esp
	call	__RTC_CheckEsp
	mov	esp, ebp
	pop	ebp
	ret	4
??0?$_Vector_iterator@VFreeMemoryBlock@@V?$allocator@VFreeMemoryBlock@@@std@@@std@@QAE@ABV01@@Z ENDP ; std::_Vector_iterator<FreeMemoryBlock,std::allocator<FreeMemoryBlock> >::_Vector_iterator<FreeMemoryBlock,std::allocator<FreeMemoryBlock> >
; Function compile flags: /Odtp /RTCsu
_TEXT	ENDS
;	COMDAT ??1?$_Vector_val@VAllocatedMemoryBlock@@V?$allocator@VAllocatedMemoryBlock@@@std@@@std@@QAE@XZ
_TEXT	SEGMENT
_this$ = -4						; size = 4
??1?$_Vector_val@VAllocatedMemoryBlock@@V?$allocator@VAllocatedMemoryBlock@@@std@@@std@@QAE@XZ PROC ; std::_Vector_val<AllocatedMemoryBlock,std::allocator<AllocatedMemoryBlock> >::~_Vector_val<AllocatedMemoryBlock,std::allocator<AllocatedMemoryBlock> >, COMDAT
; _this$ = ecx
	push	ebp
	mov	ebp, esp
	push	ecx
	mov	DWORD PTR [ebp-4], -858993460		; ccccccccH
	mov	DWORD PTR _this$[ebp], ecx
	mov	ecx, DWORD PTR _this$[ebp]
	call	??1_Container_base@std@@QAE@XZ		; std::_Container_base::~_Container_base
	add	esp, 4
	cmp	ebp, esp
	call	__RTC_CheckEsp
	mov	esp, ebp
	pop	ebp
	ret	0
??1?$_Vector_val@VAllocatedMemoryBlock@@V?$allocator@VAllocatedMemoryBlock@@@std@@@std@@QAE@XZ ENDP ; std::_Vector_val<AllocatedMemoryBlock,std::allocator<AllocatedMemoryBlock> >::~_Vector_val<AllocatedMemoryBlock,std::allocator<AllocatedMemoryBlock> >
_TEXT	ENDS
PUBLIC	??0?$_Vector_const_iterator@VAllocatedMemoryBlock@@V?$allocator@VAllocatedMemoryBlock@@@std@@@std@@QAE@ABV01@@Z ; std::_Vector_const_iterator<AllocatedMemoryBlock,std::allocator<AllocatedMemoryBlock> >::_Vector_const_iterator<AllocatedMemoryBlock,std::allocator<AllocatedMemoryBlock> >
; Function compile flags: /Odtp /RTCsu
;	COMDAT ??0?$_Vector_iterator@VAllocatedMemoryBlock@@V?$allocator@VAllocatedMemoryBlock@@@std@@@std@@QAE@ABV01@@Z
_TEXT	SEGMENT
_this$ = -4						; size = 4
___that$ = 8						; size = 4
??0?$_Vector_iterator@VAllocatedMemoryBlock@@V?$allocator@VAllocatedMemoryBlock@@@std@@@std@@QAE@ABV01@@Z PROC ; std::_Vector_iterator<AllocatedMemoryBlock,std::allocator<AllocatedMemoryBlock> >::_Vector_iterator<AllocatedMemoryBlock,std::allocator<AllocatedMemoryBlock> >, COMDAT
; _this$ = ecx
	push	ebp
	mov	ebp, esp
	push	ecx
	mov	DWORD PTR [ebp-4], -858993460		; ccccccccH
	mov	DWORD PTR _this$[ebp], ecx
	mov	eax, DWORD PTR ___that$[ebp]
	push	eax
	mov	ecx, DWORD PTR _this$[ebp]
	call	??0?$_Vector_const_iterator@VAllocatedMemoryBlock@@V?$allocator@VAllocatedMemoryBlock@@@std@@@std@@QAE@ABV01@@Z
	mov	eax, DWORD PTR _this$[ebp]
	add	esp, 4
	cmp	ebp, esp
	call	__RTC_CheckEsp
	mov	esp, ebp
	pop	ebp
	ret	4
??0?$_Vector_iterator@VAllocatedMemoryBlock@@V?$allocator@VAllocatedMemoryBlock@@@std@@@std@@QAE@ABV01@@Z ENDP ; std::_Vector_iterator<AllocatedMemoryBlock,std::allocator<AllocatedMemoryBlock> >::_Vector_iterator<AllocatedMemoryBlock,std::allocator<AllocatedMemoryBlock> >
_TEXT	ENDS
PUBLIC	??0?$_Ranit@VFreeMemoryBlock@@HPBV1@ABV1@@std@@QAE@ABU01@@Z ; std::_Ranit<FreeMemoryBlock,int,FreeMemoryBlock const *,FreeMemoryBlock const &>::_Ranit<FreeMemoryBlock,int,FreeMemoryBlock const *,FreeMemoryBlock const &>
; Function compile flags: /Odtp /RTCsu
;	COMDAT ??0?$_Vector_const_iterator@VFreeMemoryBlock@@V?$allocator@VFreeMemoryBlock@@@std@@@std@@QAE@ABV01@@Z
_TEXT	SEGMENT
_this$ = -4						; size = 4
___that$ = 8						; size = 4
??0?$_Vector_const_iterator@VFreeMemoryBlock@@V?$allocator@VFreeMemoryBlock@@@std@@@std@@QAE@ABV01@@Z PROC ; std::_Vector_const_iterator<FreeMemoryBlock,std::allocator<FreeMemoryBlock> >::_Vector_const_iterator<FreeMemoryBlock,std::allocator<FreeMemoryBlock> >, COMDAT
; _this$ = ecx
	push	ebp
	mov	ebp, esp
	push	ecx
	mov	DWORD PTR [ebp-4], -858993460		; ccccccccH
	mov	DWORD PTR _this$[ebp], ecx
	mov	eax, DWORD PTR ___that$[ebp]
	push	eax
	mov	ecx, DWORD PTR _this$[ebp]
	call	??0?$_Ranit@VFreeMemoryBlock@@HPBV1@ABV1@@std@@QAE@ABU01@@Z
	mov	ecx, DWORD PTR _this$[ebp]
	mov	edx, DWORD PTR ___that$[ebp]
	mov	eax, DWORD PTR [edx+8]
	mov	DWORD PTR [ecx+8], eax
	mov	eax, DWORD PTR _this$[ebp]
	add	esp, 4
	cmp	ebp, esp
	call	__RTC_CheckEsp
	mov	esp, ebp
	pop	ebp
	ret	4
??0?$_Vector_const_iterator@VFreeMemoryBlock@@V?$allocator@VFreeMemoryBlock@@@std@@@std@@QAE@ABV01@@Z ENDP ; std::_Vector_const_iterator<FreeMemoryBlock,std::allocator<FreeMemoryBlock> >::_Vector_const_iterator<FreeMemoryBlock,std::allocator<FreeMemoryBlock> >
_TEXT	ENDS
PUBLIC	??0?$_Ranit@VAllocatedMemoryBlock@@HPBV1@ABV1@@std@@QAE@ABU01@@Z ; std::_Ranit<AllocatedMemoryBlock,int,AllocatedMemoryBlock const *,AllocatedMemoryBlock const &>::_Ranit<AllocatedMemoryBlock,int,AllocatedMemoryBlock const *,AllocatedMemoryBlock const &>
; Function compile flags: /Odtp /RTCsu
;	COMDAT ??0?$_Vector_const_iterator@VAllocatedMemoryBlock@@V?$allocator@VAllocatedMemoryBlock@@@std@@@std@@QAE@ABV01@@Z
_TEXT	SEGMENT
_this$ = -4						; size = 4
___that$ = 8						; size = 4
??0?$_Vector_const_iterator@VAllocatedMemoryBlock@@V?$allocator@VAllocatedMemoryBlock@@@std@@@std@@QAE@ABV01@@Z PROC ; std::_Vector_const_iterator<AllocatedMemoryBlock,std::allocator<AllocatedMemoryBlock> >::_Vector_const_iterator<AllocatedMemoryBlock,std::allocator<AllocatedMemoryBlock> >, COMDAT
; _this$ = ecx
	push	ebp
	mov	ebp, esp
	push	ecx
	mov	DWORD PTR [ebp-4], -858993460		; ccccccccH
	mov	DWORD PTR _this$[ebp], ecx
	mov	eax, DWORD PTR ___that$[ebp]
	push	eax
	mov	ecx, DWORD PTR _this$[ebp]
	call	??0?$_Ranit@VAllocatedMemoryBlock@@HPBV1@ABV1@@std@@QAE@ABU01@@Z
	mov	ecx, DWORD PTR _this$[ebp]
	mov	edx, DWORD PTR ___that$[ebp]
	mov	eax, DWORD PTR [edx+8]
	mov	DWORD PTR [ecx+8], eax
	mov	eax, DWORD PTR _this$[ebp]
	add	esp, 4
	cmp	ebp, esp
	call	__RTC_CheckEsp
	mov	esp, ebp
	pop	ebp
	ret	4
??0?$_Vector_const_iterator@VAllocatedMemoryBlock@@V?$allocator@VAllocatedMemoryBlock@@@std@@@std@@QAE@ABV01@@Z ENDP ; std::_Vector_const_iterator<AllocatedMemoryBlock,std::allocator<AllocatedMemoryBlock> >::_Vector_const_iterator<AllocatedMemoryBlock,std::allocator<AllocatedMemoryBlock> >
_TEXT	ENDS
PUBLIC	??0_Iterator_base@std@@QAE@ABV01@@Z		; std::_Iterator_base::_Iterator_base
; Function compile flags: /Odtp /RTCsu
;	COMDAT ??0?$_Ranit@VFreeMemoryBlock@@HPBV1@ABV1@@std@@QAE@ABU01@@Z
_TEXT	SEGMENT
_this$ = -4						; size = 4
___that$ = 8						; size = 4
??0?$_Ranit@VFreeMemoryBlock@@HPBV1@ABV1@@std@@QAE@ABU01@@Z PROC ; std::_Ranit<FreeMemoryBlock,int,FreeMemoryBlock const *,FreeMemoryBlock const &>::_Ranit<FreeMemoryBlock,int,FreeMemoryBlock const *,FreeMemoryBlock const &>, COMDAT
; _this$ = ecx
	push	ebp
	mov	ebp, esp
	push	ecx
	mov	DWORD PTR [ebp-4], -858993460		; ccccccccH
	mov	DWORD PTR _this$[ebp], ecx
	mov	eax, DWORD PTR ___that$[ebp]
	push	eax
	mov	ecx, DWORD PTR _this$[ebp]
	call	??0_Iterator_base@std@@QAE@ABV01@@Z	; std::_Iterator_base::_Iterator_base
	mov	eax, DWORD PTR _this$[ebp]
	add	esp, 4
	cmp	ebp, esp
	call	__RTC_CheckEsp
	mov	esp, ebp
	pop	ebp
	ret	4
??0?$_Ranit@VFreeMemoryBlock@@HPBV1@ABV1@@std@@QAE@ABU01@@Z ENDP ; std::_Ranit<FreeMemoryBlock,int,FreeMemoryBlock const *,FreeMemoryBlock const &>::_Ranit<FreeMemoryBlock,int,FreeMemoryBlock const *,FreeMemoryBlock const &>
_TEXT	ENDS
PUBLIC	??4_Iterator_base@std@@QAEAAV01@ABV01@@Z	; std::_Iterator_base::operator=
; Function compile flags: /Odtp /RTCsu
;	COMDAT ??0_Iterator_base@std@@QAE@ABV01@@Z
_TEXT	SEGMENT
_this$ = -4						; size = 4
__Right$ = 8						; size = 4
??0_Iterator_base@std@@QAE@ABV01@@Z PROC		; std::_Iterator_base::_Iterator_base, COMDAT
; _this$ = ecx

; 132  : 		{	// copy an iterator

	push	ebp
	mov	ebp, esp
	push	ecx
	mov	DWORD PTR [ebp-4], -858993460		; ccccccccH
	mov	DWORD PTR _this$[ebp], ecx
	mov	eax, DWORD PTR _this$[ebp]
	mov	DWORD PTR [eax], 0
	mov	ecx, DWORD PTR _this$[ebp]
	mov	DWORD PTR [ecx+4], 0

; 133  : 		*this = _Right;

	mov	edx, DWORD PTR __Right$[ebp]
	push	edx
	mov	ecx, DWORD PTR _this$[ebp]
	call	??4_Iterator_base@std@@QAEAAV01@ABV01@@Z ; std::_Iterator_base::operator=

; 134  : 		}

	mov	eax, DWORD PTR _this$[ebp]
	add	esp, 4
	cmp	ebp, esp
	call	__RTC_CheckEsp
	mov	esp, ebp
	pop	ebp
	ret	4
??0_Iterator_base@std@@QAE@ABV01@@Z ENDP		; std::_Iterator_base::_Iterator_base
_TEXT	ENDS
PUBLIC	?_Adopt@_Iterator_base@std@@QAEXPBV_Container_base@2@@Z ; std::_Iterator_base::_Adopt
;	COMDAT xdata$x
xdata$x	SEGMENT
__unwindtable$??4_Iterator_base@std@@QAEAAV01@ABV01@@Z DD 0ffffffffH
	DD	FLAT:__unwindfunclet$??4_Iterator_base@std@@QAEAAV01@ABV01@@Z$0
__ehfuncinfo$??4_Iterator_base@std@@QAEAAV01@ABV01@@Z DD 019930522H
	DD	01H
	DD	FLAT:__unwindtable$??4_Iterator_base@std@@QAEAAV01@ABV01@@Z
	DD	2 DUP(00H)
	DD	2 DUP(00H)
	DD	00H
	DD	01H
; Function compile flags: /Odtp /RTCsu
xdata$x	ENDS
;	COMDAT ??4_Iterator_base@std@@QAEAAV01@ABV01@@Z
_TEXT	SEGMENT
__Lock$6429 = -24					; size = 4
_this$ = -16						; size = 4
__$EHRec$ = -12						; size = 12
__Right$ = 8						; size = 4
??4_Iterator_base@std@@QAEAAV01@ABV01@@Z PROC		; std::_Iterator_base::operator=, COMDAT
; _this$ = ecx

; 137  : 		{	// assign an iterator

	push	ebp
	mov	ebp, esp
	push	-1
	push	__ehhandler$??4_Iterator_base@std@@QAEAAV01@ABV01@@Z
	mov	eax, DWORD PTR fs:0
	push	eax
	mov	DWORD PTR fs:0, esp
	sub	esp, 16					; 00000010H
	mov	eax, -858993460				; ccccccccH
	mov	DWORD PTR [ebp-28], eax
	mov	DWORD PTR [ebp-24], eax
	mov	DWORD PTR [ebp-20], eax
	mov	DWORD PTR [ebp-16], eax
	mov	DWORD PTR _this$[ebp], ecx

; 138  : 		if (_Mycont != _Right._Mycont)

	mov	eax, DWORD PTR _this$[ebp]
	mov	ecx, DWORD PTR __Right$[ebp]
	mov	edx, DWORD PTR [eax]
	cmp	edx, DWORD PTR [ecx]
	je	SHORT $LN1@operator@5

; 139  : 			{	// change parentage
; 140  : 			_Lockit _Lock(_LOCK_DEBUG);

	push	3
	lea	ecx, DWORD PTR __Lock$6429[ebp]
	call	??0_Lockit@std@@QAE@H@Z			; std::_Lockit::_Lockit
	mov	DWORD PTR __$EHRec$[ebp+8], 0

; 141  : 			_Orphan_me();

	mov	ecx, DWORD PTR _this$[ebp]
	call	?_Orphan_me@_Iterator_base@std@@QAEXXZ	; std::_Iterator_base::_Orphan_me

; 142  : 			_Adopt(_Right._Mycont);

	mov	eax, DWORD PTR __Right$[ebp]
	mov	ecx, DWORD PTR [eax]
	push	ecx
	mov	ecx, DWORD PTR _this$[ebp]
	call	?_Adopt@_Iterator_base@std@@QAEXPBV_Container_base@2@@Z ; std::_Iterator_base::_Adopt

; 143  : 			}

	mov	DWORD PTR __$EHRec$[ebp+8], -1
	lea	ecx, DWORD PTR __Lock$6429[ebp]
	call	??1_Lockit@std@@QAE@XZ			; std::_Lockit::~_Lockit
$LN1@operator@5:

; 144  : 		return (*this);

	mov	eax, DWORD PTR _this$[ebp]

; 145  : 		}

	push	edx
	mov	ecx, ebp
	push	eax
	lea	edx, DWORD PTR $LN8@operator@5
	call	@_RTC_CheckStackVars@8
	pop	eax
	pop	edx
	mov	ecx, DWORD PTR __$EHRec$[ebp]
	mov	DWORD PTR fs:0, ecx
	add	esp, 28					; 0000001cH
	cmp	ebp, esp
	call	__RTC_CheckEsp
	mov	esp, ebp
	pop	ebp
	ret	4
	npad	1
$LN8@operator@5:
	DD	1
	DD	$LN7@operator@5
$LN7@operator@5:
	DD	-24					; ffffffe8H
	DD	4
	DD	$LN5@operator@5
$LN5@operator@5:
	DB	95					; 0000005fH
	DB	76					; 0000004cH
	DB	111					; 0000006fH
	DB	99					; 00000063H
	DB	107					; 0000006bH
	DB	0
_TEXT	ENDS
;	COMDAT text$x
text$x	SEGMENT
__unwindfunclet$??4_Iterator_base@std@@QAEAAV01@ABV01@@Z$0:
	lea	ecx, DWORD PTR __Lock$6429[ebp]
	jmp	??1_Lockit@std@@QAE@XZ			; std::_Lockit::~_Lockit
__ehhandler$??4_Iterator_base@std@@QAEAAV01@ABV01@@Z:
	mov	eax, OFFSET __ehfuncinfo$??4_Iterator_base@std@@QAEAAV01@ABV01@@Z
	jmp	___CxxFrameHandler3
text$x	ENDS
??4_Iterator_base@std@@QAEAAV01@ABV01@@Z ENDP		; std::_Iterator_base::operator=
;	COMDAT xdata$x
xdata$x	SEGMENT
__unwindtable$?_Adopt@_Iterator_base@std@@QAEXPBV_Container_base@2@@Z DD 0ffffffffH
	DD	FLAT:__unwindfunclet$?_Adopt@_Iterator_base@std@@QAEXPBV_Container_base@2@@Z$0
__ehfuncinfo$?_Adopt@_Iterator_base@std@@QAEXPBV_Container_base@2@@Z DD 019930522H
	DD	01H
	DD	FLAT:__unwindtable$?_Adopt@_Iterator_base@std@@QAEXPBV_Container_base@2@@Z
	DD	2 DUP(00H)
	DD	2 DUP(00H)
	DD	00H
	DD	01H
; Function compile flags: /Odtp /RTCsu
xdata$x	ENDS
;	COMDAT ?_Adopt@_Iterator_base@std@@QAEXPBV_Container_base@2@@Z
_TEXT	SEGMENT
__Lock$6436 = -24					; size = 4
_this$ = -16						; size = 4
__$EHRec$ = -12						; size = 12
__Parent$ = 8						; size = 4
?_Adopt@_Iterator_base@std@@QAEXPBV_Container_base@2@@Z PROC ; std::_Iterator_base::_Adopt, COMDAT
; _this$ = ecx

; 154  : 		{	// adopt this iterator by parent

	push	ebp
	mov	ebp, esp
	push	-1
	push	__ehhandler$?_Adopt@_Iterator_base@std@@QAEXPBV_Container_base@2@@Z
	mov	eax, DWORD PTR fs:0
	push	eax
	mov	DWORD PTR fs:0, esp
	sub	esp, 16					; 00000010H
	mov	eax, -858993460				; ccccccccH
	mov	DWORD PTR [ebp-28], eax
	mov	DWORD PTR [ebp-24], eax
	mov	DWORD PTR [ebp-20], eax
	mov	DWORD PTR [ebp-16], eax
	mov	DWORD PTR _this$[ebp], ecx

; 155  : 		if (_Mycont != _Parent)

	mov	eax, DWORD PTR _this$[ebp]
	mov	ecx, DWORD PTR [eax]
	cmp	ecx, DWORD PTR __Parent$[ebp]
	je	SHORT $LN3@Adopt

; 156  : 			{	// change parentage
; 157  : 			_Lockit _Lock(_LOCK_DEBUG);

	push	3
	lea	ecx, DWORD PTR __Lock$6436[ebp]
	call	??0_Lockit@std@@QAE@H@Z			; std::_Lockit::_Lockit
	mov	DWORD PTR __$EHRec$[ebp+8], 0

; 158  : 			_Orphan_me();

	mov	ecx, DWORD PTR _this$[ebp]
	call	?_Orphan_me@_Iterator_base@std@@QAEXXZ	; std::_Iterator_base::_Orphan_me

; 159  : 			if (_Parent != 0 && _Parent->_Myfirstiter != _IGNORE_MYITERLIST)

	cmp	DWORD PTR __Parent$[ebp], 0
	je	SHORT $LN1@Adopt
	mov	edx, DWORD PTR __Parent$[ebp]
	cmp	DWORD PTR [edx], -3			; fffffffdH
	je	SHORT $LN1@Adopt

; 160  : 				{	// switch to new parent
; 161  : 				_Mynextiter = _Parent->_Myfirstiter;

	mov	eax, DWORD PTR _this$[ebp]
	mov	ecx, DWORD PTR __Parent$[ebp]
	mov	edx, DWORD PTR [ecx]
	mov	DWORD PTR [eax+4], edx

; 162  : 				((_Container_base *)_Parent)->_Myfirstiter = this;

	mov	eax, DWORD PTR __Parent$[ebp]
	mov	ecx, DWORD PTR _this$[ebp]
	mov	DWORD PTR [eax], ecx
$LN1@Adopt:

; 163  : 				}
; 164  : 			_Mycont = _Parent;

	mov	edx, DWORD PTR _this$[ebp]
	mov	eax, DWORD PTR __Parent$[ebp]
	mov	DWORD PTR [edx], eax

; 165  : 			}

	mov	DWORD PTR __$EHRec$[ebp+8], -1
	lea	ecx, DWORD PTR __Lock$6436[ebp]
	call	??1_Lockit@std@@QAE@XZ			; std::_Lockit::~_Lockit
$LN3@Adopt:

; 166  : 		}

	push	edx
	mov	ecx, ebp
	push	eax
	lea	edx, DWORD PTR $LN9@Adopt
	call	@_RTC_CheckStackVars@8
	pop	eax
	pop	edx
	mov	ecx, DWORD PTR __$EHRec$[ebp]
	mov	DWORD PTR fs:0, ecx
	add	esp, 28					; 0000001cH
	cmp	ebp, esp
	call	__RTC_CheckEsp
	mov	esp, ebp
	pop	ebp
	ret	4
	npad	3
$LN9@Adopt:
	DD	1
	DD	$LN8@Adopt
$LN8@Adopt:
	DD	-24					; ffffffe8H
	DD	4
	DD	$LN6@Adopt
$LN6@Adopt:
	DB	95					; 0000005fH
	DB	76					; 0000004cH
	DB	111					; 0000006fH
	DB	99					; 00000063H
	DB	107					; 0000006bH
	DB	0
_TEXT	ENDS
;	COMDAT text$x
text$x	SEGMENT
__unwindfunclet$?_Adopt@_Iterator_base@std@@QAEXPBV_Container_base@2@@Z$0:
	lea	ecx, DWORD PTR __Lock$6436[ebp]
	jmp	??1_Lockit@std@@QAE@XZ			; std::_Lockit::~_Lockit
__ehhandler$?_Adopt@_Iterator_base@std@@QAEXPBV_Container_base@2@@Z:
	mov	eax, OFFSET __ehfuncinfo$?_Adopt@_Iterator_base@std@@QAEXPBV_Container_base@2@@Z
	jmp	___CxxFrameHandler3
text$x	ENDS
?_Adopt@_Iterator_base@std@@QAEXPBV_Container_base@2@@Z ENDP ; std::_Iterator_base::_Adopt
; Function compile flags: /Odtp /RTCsu
;	COMDAT ??0?$_Ranit@VAllocatedMemoryBlock@@HPBV1@ABV1@@std@@QAE@ABU01@@Z
_TEXT	SEGMENT
_this$ = -4						; size = 4
___that$ = 8						; size = 4
??0?$_Ranit@VAllocatedMemoryBlock@@HPBV1@ABV1@@std@@QAE@ABU01@@Z PROC ; std::_Ranit<AllocatedMemoryBlock,int,AllocatedMemoryBlock const *,AllocatedMemoryBlock const &>::_Ranit<AllocatedMemoryBlock,int,AllocatedMemoryBlock const *,AllocatedMemoryBlock const &>, COMDAT
; _this$ = ecx
	push	ebp
	mov	ebp, esp
	push	ecx
	mov	DWORD PTR [ebp-4], -858993460		; ccccccccH
	mov	DWORD PTR _this$[ebp], ecx
	mov	eax, DWORD PTR ___that$[ebp]
	push	eax
	mov	ecx, DWORD PTR _this$[ebp]
	call	??0_Iterator_base@std@@QAE@ABV01@@Z	; std::_Iterator_base::_Iterator_base
	mov	eax, DWORD PTR _this$[ebp]
	add	esp, 4
	cmp	ebp, esp
	call	__RTC_CheckEsp
	mov	esp, ebp
	pop	ebp
	ret	4
??0?$_Ranit@VAllocatedMemoryBlock@@HPBV1@ABV1@@std@@QAE@ABU01@@Z ENDP ; std::_Ranit<AllocatedMemoryBlock,int,AllocatedMemoryBlock const *,AllocatedMemoryBlock const &>::_Ranit<AllocatedMemoryBlock,int,AllocatedMemoryBlock const *,AllocatedMemoryBlock const &>
; Function compile flags: /Odtp /RTCsu
; File c:\microsoft visual studio 8\vc\include\vector
_TEXT	ENDS
;	COMDAT ?capacity@?$vector@VFreeMemoryBlock@@V?$allocator@VFreeMemoryBlock@@@std@@@std@@QBEIXZ
_TEXT	SEGMENT
tv70 = -8						; size = 4
_this$ = -4						; size = 4
?capacity@?$vector@VFreeMemoryBlock@@V?$allocator@VFreeMemoryBlock@@@std@@@std@@QBEIXZ PROC ; std::vector<FreeMemoryBlock,std::allocator<FreeMemoryBlock> >::capacity, COMDAT
; _this$ = ecx

; 621  : 		{	// return current length of allocated storage

	push	ebp
	mov	ebp, esp
	sub	esp, 8
	mov	DWORD PTR [ebp-8], -858993460		; ccccccccH
	mov	DWORD PTR [ebp-4], -858993460		; ccccccccH
	mov	DWORD PTR _this$[ebp], ecx

; 622  : 		return (_Myfirst == 0 ? 0 : _Myend - _Myfirst);

	mov	eax, DWORD PTR _this$[ebp]
	cmp	DWORD PTR [eax+8], 0
	jne	SHORT $LN3@capacity
	mov	DWORD PTR tv70[ebp], 0
	jmp	SHORT $LN4@capacity
$LN3@capacity:
	mov	ecx, DWORD PTR _this$[ebp]
	mov	edx, DWORD PTR _this$[ebp]
	mov	eax, DWORD PTR [ecx+16]
	sub	eax, DWORD PTR [edx+8]
	cdq
	mov	ecx, 12					; 0000000cH
	idiv	ecx
	mov	DWORD PTR tv70[ebp], eax
$LN4@capacity:
	mov	eax, DWORD PTR tv70[ebp]

; 623  : 		}

	mov	esp, ebp
	pop	ebp
	ret	0
?capacity@?$vector@VFreeMemoryBlock@@V?$allocator@VFreeMemoryBlock@@@std@@@std@@QBEIXZ ENDP ; std::vector<FreeMemoryBlock,std::allocator<FreeMemoryBlock> >::capacity
; Function compile flags: /Odtp /RTCsu
_TEXT	ENDS
;	COMDAT ?end@?$vector@VFreeMemoryBlock@@V?$allocator@VFreeMemoryBlock@@@std@@@std@@QAE?AV?$_Vector_iterator@VFreeMemoryBlock@@V?$allocator@VFreeMemoryBlock@@@std@@@2@XZ
_TEXT	SEGMENT
$T17193 = -8						; size = 4
_this$ = -4						; size = 4
___$ReturnUdt$ = 8					; size = 4
?end@?$vector@VFreeMemoryBlock@@V?$allocator@VFreeMemoryBlock@@@std@@@std@@QAE?AV?$_Vector_iterator@VFreeMemoryBlock@@V?$allocator@VFreeMemoryBlock@@@std@@@2@XZ PROC ; std::vector<FreeMemoryBlock,std::allocator<FreeMemoryBlock> >::end, COMDAT
; _this$ = ecx

; 637  : 		{	// return iterator for end of mutable sequence

	push	ebp
	mov	ebp, esp
	sub	esp, 8
	mov	DWORD PTR [ebp-8], -858993460		; ccccccccH
	mov	DWORD PTR [ebp-4], -858993460		; ccccccccH
	mov	DWORD PTR _this$[ebp], ecx
	mov	DWORD PTR $T17193[ebp], 0

; 638  : 		return (iterator(_Mylast, this));

	mov	eax, DWORD PTR _this$[ebp]
	push	eax
	mov	ecx, DWORD PTR _this$[ebp]
	mov	edx, DWORD PTR [ecx+12]
	push	edx
	mov	ecx, DWORD PTR ___$ReturnUdt$[ebp]
	call	??0?$_Vector_iterator@VFreeMemoryBlock@@V?$allocator@VFreeMemoryBlock@@@std@@@std@@QAE@PAVFreeMemoryBlock@@PBV_Container_base@1@@Z ; std::_Vector_iterator<FreeMemoryBlock,std::allocator<FreeMemoryBlock> >::_Vector_iterator<FreeMemoryBlock,std::allocator<FreeMemoryBlock> >
	mov	eax, DWORD PTR $T17193[ebp]
	or	eax, 1
	mov	DWORD PTR $T17193[ebp], eax
	mov	eax, DWORD PTR ___$ReturnUdt$[ebp]

; 639  : 		}

	add	esp, 8
	cmp	ebp, esp
	call	__RTC_CheckEsp
	mov	esp, ebp
	pop	ebp
	ret	4
?end@?$vector@VFreeMemoryBlock@@V?$allocator@VFreeMemoryBlock@@@std@@@std@@QAE?AV?$_Vector_iterator@VFreeMemoryBlock@@V?$allocator@VFreeMemoryBlock@@@std@@@2@XZ ENDP ; std::vector<FreeMemoryBlock,std::allocator<FreeMemoryBlock> >::end
_TEXT	ENDS
PUBLIC	?allocate@?$allocator@VFreeMemoryBlock@@@std@@QAEPAVFreeMemoryBlock@@I@Z ; std::allocator<FreeMemoryBlock>::allocate
PUBLIC	?_Xlen@?$vector@VFreeMemoryBlock@@V?$allocator@VFreeMemoryBlock@@@std@@@std@@KAXXZ ; std::vector<FreeMemoryBlock,std::allocator<FreeMemoryBlock> >::_Xlen
PUBLIC	?max_size@?$vector@VFreeMemoryBlock@@V?$allocator@VFreeMemoryBlock@@@std@@@std@@QBEIXZ ; std::vector<FreeMemoryBlock,std::allocator<FreeMemoryBlock> >::max_size
; Function compile flags: /Odtp /RTCsu
;	COMDAT ?_Buy@?$vector@VFreeMemoryBlock@@V?$allocator@VFreeMemoryBlock@@@std@@@std@@IAE_NI@Z
_TEXT	SEGMENT
_this$ = -4						; size = 4
__Capacity$ = 8						; size = 4
?_Buy@?$vector@VFreeMemoryBlock@@V?$allocator@VFreeMemoryBlock@@@std@@@std@@IAE_NI@Z PROC ; std::vector<FreeMemoryBlock,std::allocator<FreeMemoryBlock> >::_Buy, COMDAT
; _this$ = ecx

; 1066 : 		{	// allocate array with _Capacity elements

	push	ebp
	mov	ebp, esp
	push	ecx
	mov	DWORD PTR [ebp-4], -858993460		; ccccccccH
	mov	DWORD PTR _this$[ebp], ecx

; 1067 : 		_Myfirst = 0, _Mylast = 0, _Myend = 0;

	mov	eax, DWORD PTR _this$[ebp]
	mov	DWORD PTR [eax+8], 0
	mov	ecx, DWORD PTR _this$[ebp]
	mov	DWORD PTR [ecx+12], 0
	mov	edx, DWORD PTR _this$[ebp]
	mov	DWORD PTR [edx+16], 0

; 1068 : 		if (_Capacity == 0)

	cmp	DWORD PTR __Capacity$[ebp], 0
	jne	SHORT $LN4@Buy

; 1069 : 			return (false);

	xor	al, al
	jmp	SHORT $LN5@Buy
	jmp	SHORT $LN3@Buy
$LN4@Buy:

; 1070 : 		else if (max_size() < _Capacity)

	mov	ecx, DWORD PTR _this$[ebp]
	call	?max_size@?$vector@VFreeMemoryBlock@@V?$allocator@VFreeMemoryBlock@@@std@@@std@@QBEIXZ ; std::vector<FreeMemoryBlock,std::allocator<FreeMemoryBlock> >::max_size
	cmp	eax, DWORD PTR __Capacity$[ebp]
	jae	SHORT $LN2@Buy

; 1071 : 			_Xlen();	// result too long

	call	?_Xlen@?$vector@VFreeMemoryBlock@@V?$allocator@VFreeMemoryBlock@@@std@@@std@@KAXXZ ; std::vector<FreeMemoryBlock,std::allocator<FreeMemoryBlock> >::_Xlen

; 1072 : 		else

	jmp	SHORT $LN3@Buy
$LN2@Buy:

; 1073 : 			{	// nonempty array, allocate storage
; 1074 : 			_Myfirst = this->_Alval.allocate(_Capacity);

	mov	eax, DWORD PTR __Capacity$[ebp]
	push	eax
	mov	ecx, DWORD PTR _this$[ebp]
	add	ecx, 4
	call	?allocate@?$allocator@VFreeMemoryBlock@@@std@@QAEPAVFreeMemoryBlock@@I@Z ; std::allocator<FreeMemoryBlock>::allocate
	mov	ecx, DWORD PTR _this$[ebp]
	mov	DWORD PTR [ecx+8], eax

; 1075 : 			_Mylast = _Myfirst;

	mov	edx, DWORD PTR _this$[ebp]
	mov	eax, DWORD PTR _this$[ebp]
	mov	ecx, DWORD PTR [eax+8]
	mov	DWORD PTR [edx+12], ecx

; 1076 : 			_Myend = _Myfirst + _Capacity;

	mov	edx, DWORD PTR __Capacity$[ebp]
	imul	edx, 12					; 0000000cH
	mov	eax, DWORD PTR _this$[ebp]
	add	edx, DWORD PTR [eax+8]
	mov	ecx, DWORD PTR _this$[ebp]
	mov	DWORD PTR [ecx+16], edx
$LN3@Buy:

; 1077 : 			}
; 1078 : 		return (true);

	mov	al, 1
$LN5@Buy:

; 1079 : 		}

	add	esp, 4
	cmp	ebp, esp
	call	__RTC_CheckEsp
	mov	esp, ebp
	pop	ebp
	ret	4
?_Buy@?$vector@VFreeMemoryBlock@@V?$allocator@VFreeMemoryBlock@@@std@@@std@@IAE_NI@Z ENDP ; std::vector<FreeMemoryBlock,std::allocator<FreeMemoryBlock> >::_Buy
_TEXT	ENDS
PUBLIC	??$_Destroy_range@VFreeMemoryBlock@@V?$allocator@VFreeMemoryBlock@@@std@@@std@@YAXPAVFreeMemoryBlock@@0AAV?$allocator@VFreeMemoryBlock@@@0@@Z ; std::_Destroy_range<FreeMemoryBlock,std::allocator<FreeMemoryBlock> >
; Function compile flags: /Odtp /RTCsu
;	COMDAT ?_Destroy@?$vector@VFreeMemoryBlock@@V?$allocator@VFreeMemoryBlock@@@std@@@std@@IAEXPAVFreeMemoryBlock@@0@Z
_TEXT	SEGMENT
_this$ = -4						; size = 4
__First$ = 8						; size = 4
__Last$ = 12						; size = 4
?_Destroy@?$vector@VFreeMemoryBlock@@V?$allocator@VFreeMemoryBlock@@@std@@@std@@IAEXPAVFreeMemoryBlock@@0@Z PROC ; std::vector<FreeMemoryBlock,std::allocator<FreeMemoryBlock> >::_Destroy, COMDAT
; _this$ = ecx

; 1082 : 		{	// destroy [_First, _Last) using allocator

	push	ebp
	mov	ebp, esp
	push	ecx
	mov	DWORD PTR [ebp-4], -858993460		; ccccccccH
	mov	DWORD PTR _this$[ebp], ecx

; 1083 : 		_Destroy_range(_First, _Last, this->_Alval);

	mov	eax, DWORD PTR _this$[ebp]
	add	eax, 4
	push	eax
	mov	ecx, DWORD PTR __Last$[ebp]
	push	ecx
	mov	edx, DWORD PTR __First$[ebp]
	push	edx
	call	??$_Destroy_range@VFreeMemoryBlock@@V?$allocator@VFreeMemoryBlock@@@std@@@std@@YAXPAVFreeMemoryBlock@@0AAV?$allocator@VFreeMemoryBlock@@@0@@Z ; std::_Destroy_range<FreeMemoryBlock,std::allocator<FreeMemoryBlock> >
	add	esp, 12					; 0000000cH

; 1084 : 		}

	add	esp, 4
	cmp	ebp, esp
	call	__RTC_CheckEsp
	mov	esp, ebp
	pop	ebp
	ret	8
?_Destroy@?$vector@VFreeMemoryBlock@@V?$allocator@VFreeMemoryBlock@@@std@@@std@@IAEXPAVFreeMemoryBlock@@0@Z ENDP ; std::vector<FreeMemoryBlock,std::allocator<FreeMemoryBlock> >::_Destroy
_TEXT	ENDS
PUBLIC	?deallocate@?$allocator@VFreeMemoryBlock@@@std@@QAEXPAVFreeMemoryBlock@@I@Z ; std::allocator<FreeMemoryBlock>::deallocate
; Function compile flags: /Odtp /RTCsu
;	COMDAT ?_Tidy@?$vector@VFreeMemoryBlock@@V?$allocator@VFreeMemoryBlock@@@std@@@std@@IAEXXZ
_TEXT	SEGMENT
_this$ = -4						; size = 4
?_Tidy@?$vector@VFreeMemoryBlock@@V?$allocator@VFreeMemoryBlock@@@std@@@std@@IAEXXZ PROC ; std::vector<FreeMemoryBlock,std::allocator<FreeMemoryBlock> >::_Tidy, COMDAT
; _this$ = ecx

; 1087 : 		{	// free all storage

	push	ebp
	mov	ebp, esp
	push	ecx
	mov	DWORD PTR [ebp-4], -858993460		; ccccccccH
	mov	DWORD PTR _this$[ebp], ecx

; 1088 : 		if (_Myfirst != 0)

	mov	eax, DWORD PTR _this$[ebp]
	cmp	DWORD PTR [eax+8], 0
	je	SHORT $LN1@Tidy

; 1089 : 			{	// something to free, destroy and deallocate it
; 1090 : 
; 1091 :  #if _HAS_ITERATOR_DEBUGGING
; 1092 : 			this->_Orphan_all();

	mov	ecx, DWORD PTR _this$[ebp]
	call	?_Orphan_all@_Container_base@std@@QBEXXZ ; std::_Container_base::_Orphan_all

; 1093 :  #endif /* _HAS_ITERATOR_DEBUGGING */
; 1094 : 
; 1095 : 			_Destroy(_Myfirst, _Mylast);

	mov	ecx, DWORD PTR _this$[ebp]
	mov	edx, DWORD PTR [ecx+12]
	push	edx
	mov	eax, DWORD PTR _this$[ebp]
	mov	ecx, DWORD PTR [eax+8]
	push	ecx
	mov	ecx, DWORD PTR _this$[ebp]
	call	?_Destroy@?$vector@VFreeMemoryBlock@@V?$allocator@VFreeMemoryBlock@@@std@@@std@@IAEXPAVFreeMemoryBlock@@0@Z ; std::vector<FreeMemoryBlock,std::allocator<FreeMemoryBlock> >::_Destroy

; 1096 : 			this->_Alval.deallocate(_Myfirst, _Myend - _Myfirst);

	mov	edx, DWORD PTR _this$[ebp]
	mov	eax, DWORD PTR _this$[ebp]
	mov	ecx, DWORD PTR [edx+16]
	sub	ecx, DWORD PTR [eax+8]
	mov	eax, ecx
	cdq
	mov	ecx, 12					; 0000000cH
	idiv	ecx
	push	eax
	mov	edx, DWORD PTR _this$[ebp]
	mov	eax, DWORD PTR [edx+8]
	push	eax
	mov	ecx, DWORD PTR _this$[ebp]
	add	ecx, 4
	call	?deallocate@?$allocator@VFreeMemoryBlock@@@std@@QAEXPAVFreeMemoryBlock@@I@Z ; std::allocator<FreeMemoryBlock>::deallocate
$LN1@Tidy:

; 1097 : 			}
; 1098 : 		_Myfirst = 0, _Mylast = 0, _Myend = 0;

	mov	ecx, DWORD PTR _this$[ebp]
	mov	DWORD PTR [ecx+8], 0
	mov	edx, DWORD PTR _this$[ebp]
	mov	DWORD PTR [edx+12], 0
	mov	eax, DWORD PTR _this$[ebp]
	mov	DWORD PTR [eax+16], 0

; 1099 : 		}

	add	esp, 4
	cmp	ebp, esp
	call	__RTC_CheckEsp
	mov	esp, ebp
	pop	ebp
	ret	0
?_Tidy@?$vector@VFreeMemoryBlock@@V?$allocator@VFreeMemoryBlock@@@std@@@std@@IAEXXZ ENDP ; std::vector<FreeMemoryBlock,std::allocator<FreeMemoryBlock> >::_Tidy
_TEXT	ENDS
PUBLIC	??$_Unchecked_move_backward@PAVFreeMemoryBlock@@PAV1@@stdext@@YAPAVFreeMemoryBlock@@PAV1@00@Z ; stdext::_Unchecked_move_backward<FreeMemoryBlock *,FreeMemoryBlock *>
PUBLIC	??$fill@PAVFreeMemoryBlock@@V1@@std@@YAXPAVFreeMemoryBlock@@0ABV1@@Z ; std::fill<FreeMemoryBlock *,FreeMemoryBlock>
PUBLIC	??$_Umove@PAVFreeMemoryBlock@@@?$vector@VFreeMemoryBlock@@V?$allocator@VFreeMemoryBlock@@@std@@@std@@IAEPAVFreeMemoryBlock@@PAV2@00@Z ; std::vector<FreeMemoryBlock,std::allocator<FreeMemoryBlock> >::_Umove<FreeMemoryBlock *>
PUBLIC	??_C@_1EK@EEHFMKDC@?$AAv?$AAe?$AAc?$AAt?$AAo?$AAr?$AA?5?$AAi?$AAn?$AAs?$AAe?$AAr?$AAt?$AA?5?$AAi?$AAt?$AAe?$AAr?$AAa?$AAt?$AAo?$AAr?$AA?5?$AAo?$AAu?$AAt?$AAs?$AAi?$AAd?$AAe?$AA?5?$AAr@ ; `string'
EXTRN	__CxxThrowException@8:PROC
;	COMDAT ??_C@_1EK@EEHFMKDC@?$AAv?$AAe?$AAc?$AAt?$AAo?$AAr?$AA?5?$AAi?$AAn?$AAs?$AAe?$AAr?$AAt?$AA?5?$AAi?$AAt?$AAe?$AAr?$AAa?$AAt?$AAo?$AAr?$AA?5?$AAo?$AAu?$AAt?$AAs?$AAi?$AAd?$AAe?$AA?5?$AAr@
CONST	SEGMENT
??_C@_1EK@EEHFMKDC@?$AAv?$AAe?$AAc?$AAt?$AAo?$AAr?$AA?5?$AAi?$AAn?$AAs?$AAe?$AAr?$AAt?$AA?5?$AAi?$AAt?$AAe?$AAr?$AAa?$AAt?$AAo?$AAr?$AA?5?$AAo?$AAu?$AAt?$AAs?$AAi?$AAd?$AAe?$AA?5?$AAr@ DB 'v'
	DB	00H, 'e', 00H, 'c', 00H, 't', 00H, 'o', 00H, 'r', 00H, ' ', 00H
	DB	'i', 00H, 'n', 00H, 's', 00H, 'e', 00H, 'r', 00H, 't', 00H, ' '
	DB	00H, 'i', 00H, 't', 00H, 'e', 00H, 'r', 00H, 'a', 00H, 't', 00H
	DB	'o', 00H, 'r', 00H, ' ', 00H, 'o', 00H, 'u', 00H, 't', 00H, 's'
	DB	00H, 'i', 00H, 'd', 00H, 'e', 00H, ' ', 00H, 'r', 00H, 'a', 00H
	DB	'n', 00H, 'g', 00H, 'e', 00H, 00H, 00H	; `string'
CONST	ENDS
;	COMDAT xdata$x
xdata$x	SEGMENT
__catchsym$?_Insert_n@?$vector@VFreeMemoryBlock@@V?$allocator@VFreeMemoryBlock@@@std@@@std@@IAEXV?$_Vector_iterator@VFreeMemoryBlock@@V?$allocator@VFreeMemoryBlock@@@std@@@2@IABVFreeMemoryBlock@@@Z$6 DD 040H
	DD	00H
	DD	00H
	DD	FLAT:__catch$?_Insert_n@?$vector@VFreeMemoryBlock@@V?$allocator@VFreeMemoryBlock@@@std@@@std@@IAEXV?$_Vector_iterator@VFreeMemoryBlock@@V?$allocator@VFreeMemoryBlock@@@std@@@2@IABVFreeMemoryBlock@@@Z$2
__catchsym$?_Insert_n@?$vector@VFreeMemoryBlock@@V?$allocator@VFreeMemoryBlock@@@std@@@std@@IAEXV?$_Vector_iterator@VFreeMemoryBlock@@V?$allocator@VFreeMemoryBlock@@@std@@@2@IABVFreeMemoryBlock@@@Z$5 DD 040H
	DD	00H
	DD	00H
	DD	FLAT:__catch$?_Insert_n@?$vector@VFreeMemoryBlock@@V?$allocator@VFreeMemoryBlock@@@std@@@std@@IAEXV?$_Vector_iterator@VFreeMemoryBlock@@V?$allocator@VFreeMemoryBlock@@@std@@@2@IABVFreeMemoryBlock@@@Z$0
__ehfuncinfo$?_Insert_n@?$vector@VFreeMemoryBlock@@V?$allocator@VFreeMemoryBlock@@@std@@@std@@IAEXV?$_Vector_iterator@VFreeMemoryBlock@@V?$allocator@VFreeMemoryBlock@@@std@@@2@IABVFreeMemoryBlock@@@Z DD 019930522H
	DD	05H
	DD	FLAT:__unwindtable$?_Insert_n@?$vector@VFreeMemoryBlock@@V?$allocator@VFreeMemoryBlock@@@std@@@std@@IAEXV?$_Vector_iterator@VFreeMemoryBlock@@V?$allocator@VFreeMemoryBlock@@@std@@@2@IABVFreeMemoryBlock@@@Z
	DD	02H
	DD	FLAT:__tryblocktable$?_Insert_n@?$vector@VFreeMemoryBlock@@V?$allocator@VFreeMemoryBlock@@@std@@@std@@IAEXV?$_Vector_iterator@VFreeMemoryBlock@@V?$allocator@VFreeMemoryBlock@@@std@@@2@IABVFreeMemoryBlock@@@Z
	DD	2 DUP(00H)
	DD	00H
	DD	01H
__tryblocktable$?_Insert_n@?$vector@VFreeMemoryBlock@@V?$allocator@VFreeMemoryBlock@@@std@@@std@@IAEXV?$_Vector_iterator@VFreeMemoryBlock@@V?$allocator@VFreeMemoryBlock@@@std@@@2@IABVFreeMemoryBlock@@@Z DD 01H
	DD	01H
	DD	02H
	DD	01H
	DD	FLAT:__catchsym$?_Insert_n@?$vector@VFreeMemoryBlock@@V?$allocator@VFreeMemoryBlock@@@std@@@std@@IAEXV?$_Vector_iterator@VFreeMemoryBlock@@V?$allocator@VFreeMemoryBlock@@@std@@@2@IABVFreeMemoryBlock@@@Z$5
	DD	03H
	DD	03H
	DD	04H
	DD	01H
	DD	FLAT:__catchsym$?_Insert_n@?$vector@VFreeMemoryBlock@@V?$allocator@VFreeMemoryBlock@@@std@@@std@@IAEXV?$_Vector_iterator@VFreeMemoryBlock@@V?$allocator@VFreeMemoryBlock@@@std@@@2@IABVFreeMemoryBlock@@@Z$6
__unwindtable$?_Insert_n@?$vector@VFreeMemoryBlock@@V?$allocator@VFreeMemoryBlock@@@std@@@std@@IAEXV?$_Vector_iterator@VFreeMemoryBlock@@V?$allocator@VFreeMemoryBlock@@@std@@@2@IABVFreeMemoryBlock@@@Z DD 0ffffffffH
	DD	FLAT:__unwindfunclet$?_Insert_n@?$vector@VFreeMemoryBlock@@V?$allocator@VFreeMemoryBlock@@@std@@@std@@IAEXV?$_Vector_iterator@VFreeMemoryBlock@@V?$allocator@VFreeMemoryBlock@@@std@@@2@IABVFreeMemoryBlock@@@Z$4
	DD	00H
	DD	00H
	DD	00H
	DD	00H
	DD	00H
	DD	00H
	DD	00H
	DD	00H
; Function compile flags: /Odtp /RTCsu
xdata$x	ENDS
;	COMDAT ?_Insert_n@?$vector@VFreeMemoryBlock@@V?$allocator@VFreeMemoryBlock@@@std@@@std@@IAEXV?$_Vector_iterator@VFreeMemoryBlock@@V?$allocator@VFreeMemoryBlock@@@std@@@2@IABVFreeMemoryBlock@@@Z
_TEXT	SEGMENT
tv263 = -68						; size = 4
tv262 = -64						; size = 4
tv94 = -60						; size = 4
__Oldend$14404 = -56					; size = 4
__Ptr$14384 = -52					; size = 4
__Newvec$14383 = -48					; size = 4
__Capacity$ = -44					; size = 4
__Tmp$ = -36						; size = 12
_this$ = -20						; size = 4
__$EHRec$ = -16						; size = 16
__Where$ = 8						; size = 12
__Count$ = 20						; size = 4
__Val$ = 24						; size = 4
?_Insert_n@?$vector@VFreeMemoryBlock@@V?$allocator@VFreeMemoryBlock@@@std@@@std@@IAEXV?$_Vector_iterator@VFreeMemoryBlock@@V?$allocator@VFreeMemoryBlock@@@std@@@2@IABVFreeMemoryBlock@@@Z PROC ; std::vector<FreeMemoryBlock,std::allocator<FreeMemoryBlock> >::_Insert_n, COMDAT
; _this$ = ecx

; 1117 : 		{	// insert _Count * _Val at _Where

	push	ebp
	mov	ebp, esp
	push	-1
	push	__ehhandler$?_Insert_n@?$vector@VFreeMemoryBlock@@V?$allocator@VFreeMemoryBlock@@@std@@@std@@IAEXV?$_Vector_iterator@VFreeMemoryBlock@@V?$allocator@VFreeMemoryBlock@@@std@@@2@IABVFreeMemoryBlock@@@Z
	mov	eax, DWORD PTR fs:0
	push	eax
	mov	DWORD PTR fs:0, esp
	push	ecx
	sub	esp, 52					; 00000034H
	push	ebx
	push	esi
	push	edi
	push	ecx
	lea	edi, DWORD PTR [ebp-68]
	mov	ecx, 13					; 0000000dH
	mov	eax, -858993460				; ccccccccH
	rep stosd
	pop	ecx
	mov	DWORD PTR __$EHRec$[ebp], esp
	mov	DWORD PTR _this$[ebp], ecx
	mov	DWORD PTR __$EHRec$[ebp+12], 0

; 1118 : 
; 1119 :  #if _HAS_ITERATOR_DEBUGGING
; 1120 : 		if (_Where._Mycont != this
; 1121 : 			|| _Where._Myptr < _Myfirst || _Mylast < _Where._Myptr)

	mov	eax, DWORD PTR __Where$[ebp]
	cmp	eax, DWORD PTR _this$[ebp]
	jne	SHORT $LN13@Insert_n
	mov	ecx, DWORD PTR _this$[ebp]
	mov	edx, DWORD PTR __Where$[ebp+8]
	cmp	edx, DWORD PTR [ecx+8]
	jb	SHORT $LN13@Insert_n
	mov	eax, DWORD PTR _this$[ebp]
	mov	ecx, DWORD PTR [eax+12]
	cmp	ecx, DWORD PTR __Where$[ebp+8]
	jae	SHORT $LN14@Insert_n
$LN13@Insert_n:

; 1122 : 			_DEBUG_ERROR("vector insert iterator outside range");

	push	1122					; 00000462H
	push	OFFSET ??_C@_1FO@LOAHDEOC@?$AAC?$AA?3?$AA?2?$AAM?$AAi?$AAc?$AAr?$AAo?$AAs?$AAo?$AAf?$AAt?$AA?5?$AAV?$AAi?$AAs?$AAu?$AAa?$AAl?$AA?5?$AAS?$AAt?$AAu?$AAd?$AAi?$AAo?$AA?5?$AA8?$AA?2?$AAV?$AAC?$AA?2@
	push	OFFSET ??_C@_1EK@EEHFMKDC@?$AAv?$AAe?$AAc?$AAt?$AAo?$AAr?$AA?5?$AAi?$AAn?$AAs?$AAe?$AAr?$AAt?$AA?5?$AAi?$AAt?$AAe?$AAr?$AAa?$AAt?$AAo?$AAr?$AA?5?$AAo?$AAu?$AAt?$AAs?$AAi?$AAd?$AAe?$AA?5?$AAr@
	call	?_Debug_message@std@@YAXPB_W0I@Z	; std::_Debug_message
	add	esp, 12					; 0000000cH
$LN14@Insert_n:

; 1123 :  #endif /* _HAS_ITERATOR_DEBUGGING */
; 1124 : 
; 1125 : 		_Ty _Tmp = _Val;	// in case _Val is in sequence

	mov	edx, DWORD PTR __Val$[ebp]
	mov	eax, DWORD PTR [edx]
	mov	DWORD PTR __Tmp$[ebp], eax
	mov	ecx, DWORD PTR [edx+4]
	mov	DWORD PTR __Tmp$[ebp+4], ecx
	mov	edx, DWORD PTR [edx+8]
	mov	DWORD PTR __Tmp$[ebp+8], edx

; 1126 : 		size_type _Capacity = capacity();

	mov	ecx, DWORD PTR _this$[ebp]
	call	?capacity@?$vector@VFreeMemoryBlock@@V?$allocator@VFreeMemoryBlock@@@std@@@std@@QBEIXZ ; std::vector<FreeMemoryBlock,std::allocator<FreeMemoryBlock> >::capacity
	mov	DWORD PTR __Capacity$[ebp], eax

; 1127 : 
; 1128 : 		if (_Count == 0)

	cmp	DWORD PTR __Count$[ebp], 0
	jne	SHORT $LN12@Insert_n
	jmp	$LN11@Insert_n
$LN12@Insert_n:

; 1129 : 			;
; 1130 : 		else if (max_size() - size() < _Count)

	mov	ecx, DWORD PTR _this$[ebp]
	call	?size@?$vector@VFreeMemoryBlock@@V?$allocator@VFreeMemoryBlock@@@std@@@std@@QBEIXZ ; std::vector<FreeMemoryBlock,std::allocator<FreeMemoryBlock> >::size
	mov	esi, eax
	mov	ecx, DWORD PTR _this$[ebp]
	call	?max_size@?$vector@VFreeMemoryBlock@@V?$allocator@VFreeMemoryBlock@@@std@@@std@@QBEIXZ ; std::vector<FreeMemoryBlock,std::allocator<FreeMemoryBlock> >::max_size
	sub	eax, esi
	cmp	eax, DWORD PTR __Count$[ebp]
	jae	SHORT $LN10@Insert_n

; 1131 : 			_Xlen();	// result too long

	call	?_Xlen@?$vector@VFreeMemoryBlock@@V?$allocator@VFreeMemoryBlock@@@std@@@std@@KAXXZ ; std::vector<FreeMemoryBlock,std::allocator<FreeMemoryBlock> >::_Xlen
	jmp	$LN11@Insert_n
$LN10@Insert_n:

; 1132 : 		else if (_Capacity < size() + _Count)

	mov	ecx, DWORD PTR _this$[ebp]
	call	?size@?$vector@VFreeMemoryBlock@@V?$allocator@VFreeMemoryBlock@@@std@@@std@@QBEIXZ ; std::vector<FreeMemoryBlock,std::allocator<FreeMemoryBlock> >::size
	add	eax, DWORD PTR __Count$[ebp]
	cmp	DWORD PTR __Capacity$[ebp], eax
	jae	$LN8@Insert_n

; 1133 : 			{	// not enough room, reallocate
; 1134 : 			_Capacity = max_size() - _Capacity / 2 < _Capacity
; 1135 : 				? 0 : _Capacity + _Capacity / 2;	// try to grow by 50%

	mov	esi, DWORD PTR __Capacity$[ebp]
	shr	esi, 1
	mov	ecx, DWORD PTR _this$[ebp]
	call	?max_size@?$vector@VFreeMemoryBlock@@V?$allocator@VFreeMemoryBlock@@@std@@@std@@QBEIXZ ; std::vector<FreeMemoryBlock,std::allocator<FreeMemoryBlock> >::max_size
	sub	eax, esi
	cmp	eax, DWORD PTR __Capacity$[ebp]
	jae	SHORT $LN17@Insert_n
	mov	DWORD PTR tv94[ebp], 0
	jmp	SHORT $LN18@Insert_n
$LN17@Insert_n:
	mov	eax, DWORD PTR __Capacity$[ebp]
	shr	eax, 1
	add	eax, DWORD PTR __Capacity$[ebp]
	mov	DWORD PTR tv94[ebp], eax
$LN18@Insert_n:
	mov	ecx, DWORD PTR tv94[ebp]
	mov	DWORD PTR __Capacity$[ebp], ecx

; 1136 : 			if (_Capacity < size() + _Count)

	mov	ecx, DWORD PTR _this$[ebp]
	call	?size@?$vector@VFreeMemoryBlock@@V?$allocator@VFreeMemoryBlock@@@std@@@std@@QBEIXZ ; std::vector<FreeMemoryBlock,std::allocator<FreeMemoryBlock> >::size
	add	eax, DWORD PTR __Count$[ebp]
	cmp	DWORD PTR __Capacity$[ebp], eax
	jae	SHORT $LN7@Insert_n

; 1137 : 				_Capacity = size() + _Count;

	mov	ecx, DWORD PTR _this$[ebp]
	call	?size@?$vector@VFreeMemoryBlock@@V?$allocator@VFreeMemoryBlock@@@std@@@std@@QBEIXZ ; std::vector<FreeMemoryBlock,std::allocator<FreeMemoryBlock> >::size
	add	eax, DWORD PTR __Count$[ebp]
	mov	DWORD PTR __Capacity$[ebp], eax
$LN7@Insert_n:

; 1138 : 			pointer _Newvec = this->_Alval.allocate(_Capacity);

	mov	edx, DWORD PTR __Capacity$[ebp]
	push	edx
	mov	ecx, DWORD PTR _this$[ebp]
	add	ecx, 4
	call	?allocate@?$allocator@VFreeMemoryBlock@@@std@@QAEPAVFreeMemoryBlock@@I@Z ; std::allocator<FreeMemoryBlock>::allocate
	mov	DWORD PTR __Newvec$14383[ebp], eax

; 1139 : 			pointer _Ptr = _Newvec;

	mov	eax, DWORD PTR __Newvec$14383[ebp]
	mov	DWORD PTR __Ptr$14384[ebp], eax

; 1140 : 
; 1141 : 			_TRY_BEGIN

	mov	BYTE PTR __$EHRec$[ebp+12], 1

; 1142 : 			_Ptr = _Umove(_Myfirst, _VEC_ITER_BASE(_Where),
; 1143 : 				_Newvec);	// copy prefix

	mov	ecx, DWORD PTR __Newvec$14383[ebp]
	push	ecx
	mov	edx, DWORD PTR __Where$[ebp+8]
	push	edx
	mov	eax, DWORD PTR _this$[ebp]
	mov	ecx, DWORD PTR [eax+8]
	push	ecx
	mov	ecx, DWORD PTR _this$[ebp]
	call	??$_Umove@PAVFreeMemoryBlock@@@?$vector@VFreeMemoryBlock@@V?$allocator@VFreeMemoryBlock@@@std@@@std@@IAEPAVFreeMemoryBlock@@PAV2@00@Z ; std::vector<FreeMemoryBlock,std::allocator<FreeMemoryBlock> >::_Umove<FreeMemoryBlock *>
	mov	DWORD PTR tv262[ebp], eax
	mov	edx, DWORD PTR tv262[ebp]
	mov	DWORD PTR __Ptr$14384[ebp], edx

; 1144 : 			_Ptr = _Ufill(_Ptr, _Count, _Tmp);	// add new stuff

	lea	eax, DWORD PTR __Tmp$[ebp]
	push	eax
	mov	ecx, DWORD PTR __Count$[ebp]
	push	ecx
	mov	edx, DWORD PTR __Ptr$14384[ebp]
	push	edx
	mov	ecx, DWORD PTR _this$[ebp]
	call	?_Ufill@?$vector@VFreeMemoryBlock@@V?$allocator@VFreeMemoryBlock@@@std@@@std@@IAEPAVFreeMemoryBlock@@PAV3@IABV3@@Z ; std::vector<FreeMemoryBlock,std::allocator<FreeMemoryBlock> >::_Ufill
	mov	DWORD PTR tv263[ebp], eax
	mov	eax, DWORD PTR tv263[ebp]
	mov	DWORD PTR __Ptr$14384[ebp], eax

; 1145 : 			_Umove(_VEC_ITER_BASE(_Where), _Mylast, _Ptr);	// copy suffix

	mov	ecx, DWORD PTR __Ptr$14384[ebp]
	push	ecx
	mov	edx, DWORD PTR _this$[ebp]
	mov	eax, DWORD PTR [edx+12]
	push	eax
	mov	ecx, DWORD PTR __Where$[ebp+8]
	push	ecx
	mov	ecx, DWORD PTR _this$[ebp]
	call	??$_Umove@PAVFreeMemoryBlock@@@?$vector@VFreeMemoryBlock@@V?$allocator@VFreeMemoryBlock@@@std@@@std@@IAEPAVFreeMemoryBlock@@PAV2@00@Z ; std::vector<FreeMemoryBlock,std::allocator<FreeMemoryBlock> >::_Umove<FreeMemoryBlock *>
	jmp	SHORT $LN19@Insert_n
__catch$?_Insert_n@?$vector@VFreeMemoryBlock@@V?$allocator@VFreeMemoryBlock@@@std@@@std@@IAEXV?$_Vector_iterator@VFreeMemoryBlock@@V?$allocator@VFreeMemoryBlock@@@std@@@2@IABVFreeMemoryBlock@@@Z$0:

; 1146 : 			_CATCH_ALL
; 1147 : 			_Destroy(_Newvec, _Ptr);

	mov	edx, DWORD PTR __Ptr$14384[ebp]
	push	edx
	mov	eax, DWORD PTR __Newvec$14383[ebp]
	push	eax
	mov	ecx, DWORD PTR _this$[ebp]
	call	?_Destroy@?$vector@VFreeMemoryBlock@@V?$allocator@VFreeMemoryBlock@@@std@@@std@@IAEXPAVFreeMemoryBlock@@0@Z ; std::vector<FreeMemoryBlock,std::allocator<FreeMemoryBlock> >::_Destroy

; 1148 : 			this->_Alval.deallocate(_Newvec, _Capacity);

	mov	ecx, DWORD PTR __Capacity$[ebp]
	push	ecx
	mov	edx, DWORD PTR __Newvec$14383[ebp]
	push	edx
	mov	ecx, DWORD PTR _this$[ebp]
	add	ecx, 4
	call	?deallocate@?$allocator@VFreeMemoryBlock@@@std@@QAEXPAVFreeMemoryBlock@@I@Z ; std::allocator<FreeMemoryBlock>::deallocate

; 1149 : 			_RERAISE;

	push	0
	push	0
	call	__CxxThrowException@8

; 1150 : 			_CATCH_END

	mov	DWORD PTR __$EHRec$[ebp+12], 0
	mov	eax, __tryend$?_Insert_n@?$vector@VFreeMemoryBlock@@V?$allocator@VFreeMemoryBlock@@@std@@@std@@IAEXV?$_Vector_iterator@VFreeMemoryBlock@@V?$allocator@VFreeMemoryBlock@@@std@@@2@IABVFreeMemoryBlock@@@Z$1
	ret	0
$LN19@Insert_n:
	mov	DWORD PTR __$EHRec$[ebp+12], 0
__tryend$?_Insert_n@?$vector@VFreeMemoryBlock@@V?$allocator@VFreeMemoryBlock@@@std@@@std@@IAEXV?$_Vector_iterator@VFreeMemoryBlock@@V?$allocator@VFreeMemoryBlock@@@std@@@2@IABVFreeMemoryBlock@@@Z$1:

; 1151 : 
; 1152 : 			_Count += size();

	mov	ecx, DWORD PTR _this$[ebp]
	call	?size@?$vector@VFreeMemoryBlock@@V?$allocator@VFreeMemoryBlock@@@std@@@std@@QBEIXZ ; std::vector<FreeMemoryBlock,std::allocator<FreeMemoryBlock> >::size
	add	eax, DWORD PTR __Count$[ebp]
	mov	DWORD PTR __Count$[ebp], eax

; 1153 : 			if (_Myfirst != 0)

	mov	eax, DWORD PTR _this$[ebp]
	cmp	DWORD PTR [eax+8], 0
	je	SHORT $LN5@Insert_n

; 1154 : 				{	// destroy and deallocate old array
; 1155 : 				_Destroy(_Myfirst, _Mylast);

	mov	ecx, DWORD PTR _this$[ebp]
	mov	edx, DWORD PTR [ecx+12]
	push	edx
	mov	eax, DWORD PTR _this$[ebp]
	mov	ecx, DWORD PTR [eax+8]
	push	ecx
	mov	ecx, DWORD PTR _this$[ebp]
	call	?_Destroy@?$vector@VFreeMemoryBlock@@V?$allocator@VFreeMemoryBlock@@@std@@@std@@IAEXPAVFreeMemoryBlock@@0@Z ; std::vector<FreeMemoryBlock,std::allocator<FreeMemoryBlock> >::_Destroy

; 1156 : 				this->_Alval.deallocate(_Myfirst, _Myend - _Myfirst);

	mov	edx, DWORD PTR _this$[ebp]
	mov	eax, DWORD PTR _this$[ebp]
	mov	ecx, DWORD PTR [edx+16]
	sub	ecx, DWORD PTR [eax+8]
	mov	eax, ecx
	cdq
	mov	ecx, 12					; 0000000cH
	idiv	ecx
	push	eax
	mov	edx, DWORD PTR _this$[ebp]
	mov	eax, DWORD PTR [edx+8]
	push	eax
	mov	ecx, DWORD PTR _this$[ebp]
	add	ecx, 4
	call	?deallocate@?$allocator@VFreeMemoryBlock@@@std@@QAEXPAVFreeMemoryBlock@@I@Z ; std::allocator<FreeMemoryBlock>::deallocate
$LN5@Insert_n:

; 1157 : 				}
; 1158 : 
; 1159 :  #if _HAS_ITERATOR_DEBUGGING
; 1160 : 			this->_Orphan_all();

	mov	ecx, DWORD PTR _this$[ebp]
	call	?_Orphan_all@_Container_base@std@@QBEXXZ ; std::_Container_base::_Orphan_all

; 1161 :  #endif /* _HAS_ITERATOR_DEBUGGING */
; 1162 : 
; 1163 : 			_Myend = _Newvec + _Capacity;

	mov	ecx, DWORD PTR __Capacity$[ebp]
	imul	ecx, 12					; 0000000cH
	add	ecx, DWORD PTR __Newvec$14383[ebp]
	mov	edx, DWORD PTR _this$[ebp]
	mov	DWORD PTR [edx+16], ecx

; 1164 : 			_Mylast = _Newvec + _Count;

	mov	eax, DWORD PTR __Count$[ebp]
	imul	eax, 12					; 0000000cH
	add	eax, DWORD PTR __Newvec$14383[ebp]
	mov	ecx, DWORD PTR _this$[ebp]
	mov	DWORD PTR [ecx+12], eax

; 1165 : 			_Myfirst = _Newvec;

	mov	edx, DWORD PTR _this$[ebp]
	mov	eax, DWORD PTR __Newvec$14383[ebp]
	mov	DWORD PTR [edx+8], eax
	jmp	$LN11@Insert_n
$LN8@Insert_n:

; 1166 : 			}
; 1167 : 		else if ((size_type)(_Mylast - _VEC_ITER_BASE(_Where)) < _Count)

	mov	ecx, DWORD PTR _this$[ebp]
	mov	eax, DWORD PTR [ecx+12]
	sub	eax, DWORD PTR __Where$[ebp+8]
	cdq
	mov	ecx, 12					; 0000000cH
	idiv	ecx
	cmp	eax, DWORD PTR __Count$[ebp]
	jae	$LN3@Insert_n

; 1168 : 			{	// new stuff spills off end
; 1169 : 			_Umove(_VEC_ITER_BASE(_Where), _Mylast,
; 1170 : 				_VEC_ITER_BASE(_Where) + _Count);	// copy suffix

	mov	edx, DWORD PTR __Count$[ebp]
	imul	edx, 12					; 0000000cH
	add	edx, DWORD PTR __Where$[ebp+8]
	push	edx
	mov	eax, DWORD PTR _this$[ebp]
	mov	ecx, DWORD PTR [eax+12]
	push	ecx
	mov	edx, DWORD PTR __Where$[ebp+8]
	push	edx
	mov	ecx, DWORD PTR _this$[ebp]
	call	??$_Umove@PAVFreeMemoryBlock@@@?$vector@VFreeMemoryBlock@@V?$allocator@VFreeMemoryBlock@@@std@@@std@@IAEPAVFreeMemoryBlock@@PAV2@00@Z ; std::vector<FreeMemoryBlock,std::allocator<FreeMemoryBlock> >::_Umove<FreeMemoryBlock *>

; 1171 : 
; 1172 : 			_TRY_BEGIN

	mov	BYTE PTR __$EHRec$[ebp+12], 3

; 1173 : 			_Ufill(_Mylast, _Count - (_Mylast - _VEC_ITER_BASE(_Where)),
; 1174 : 				_Tmp);	// insert new stuff off end

	lea	eax, DWORD PTR __Tmp$[ebp]
	push	eax
	mov	ecx, DWORD PTR _this$[ebp]
	mov	eax, DWORD PTR [ecx+12]
	sub	eax, DWORD PTR __Where$[ebp+8]
	cdq
	mov	ecx, 12					; 0000000cH
	idiv	ecx
	mov	edx, DWORD PTR __Count$[ebp]
	sub	edx, eax
	push	edx
	mov	eax, DWORD PTR _this$[ebp]
	mov	ecx, DWORD PTR [eax+12]
	push	ecx
	mov	ecx, DWORD PTR _this$[ebp]
	call	?_Ufill@?$vector@VFreeMemoryBlock@@V?$allocator@VFreeMemoryBlock@@@std@@@std@@IAEPAVFreeMemoryBlock@@PAV3@IABV3@@Z ; std::vector<FreeMemoryBlock,std::allocator<FreeMemoryBlock> >::_Ufill
	jmp	SHORT $LN21@Insert_n
__catch$?_Insert_n@?$vector@VFreeMemoryBlock@@V?$allocator@VFreeMemoryBlock@@@std@@@std@@IAEXV?$_Vector_iterator@VFreeMemoryBlock@@V?$allocator@VFreeMemoryBlock@@@std@@@2@IABVFreeMemoryBlock@@@Z$2:

; 1175 : 			_CATCH_ALL
; 1176 : 			_Destroy(_VEC_ITER_BASE(_Where) + _Count, _Mylast + _Count);

	mov	edx, DWORD PTR __Count$[ebp]
	imul	edx, 12					; 0000000cH
	mov	eax, DWORD PTR _this$[ebp]
	add	edx, DWORD PTR [eax+12]
	push	edx
	mov	ecx, DWORD PTR __Count$[ebp]
	imul	ecx, 12					; 0000000cH
	add	ecx, DWORD PTR __Where$[ebp+8]
	push	ecx
	mov	ecx, DWORD PTR _this$[ebp]
	call	?_Destroy@?$vector@VFreeMemoryBlock@@V?$allocator@VFreeMemoryBlock@@@std@@@std@@IAEXPAVFreeMemoryBlock@@0@Z ; std::vector<FreeMemoryBlock,std::allocator<FreeMemoryBlock> >::_Destroy

; 1177 : 			_RERAISE;

	push	0
	push	0
	call	__CxxThrowException@8

; 1178 : 			_CATCH_END

	mov	DWORD PTR __$EHRec$[ebp+12], 0
	mov	eax, __tryend$?_Insert_n@?$vector@VFreeMemoryBlock@@V?$allocator@VFreeMemoryBlock@@@std@@@std@@IAEXV?$_Vector_iterator@VFreeMemoryBlock@@V?$allocator@VFreeMemoryBlock@@@std@@@2@IABVFreeMemoryBlock@@@Z$3
	ret	0
$LN21@Insert_n:
	mov	DWORD PTR __$EHRec$[ebp+12], 0
__tryend$?_Insert_n@?$vector@VFreeMemoryBlock@@V?$allocator@VFreeMemoryBlock@@@std@@@std@@IAEXV?$_Vector_iterator@VFreeMemoryBlock@@V?$allocator@VFreeMemoryBlock@@@std@@@2@IABVFreeMemoryBlock@@@Z$3:

; 1179 : 
; 1180 : 			_Mylast += _Count;

	mov	edx, DWORD PTR __Count$[ebp]
	imul	edx, 12					; 0000000cH
	mov	eax, DWORD PTR _this$[ebp]
	add	edx, DWORD PTR [eax+12]
	mov	ecx, DWORD PTR _this$[ebp]
	mov	DWORD PTR [ecx+12], edx

; 1181 : 
; 1182 :  #if _HAS_ITERATOR_DEBUGGING
; 1183 : 			_Orphan_range(_Where._Myptr, _Mylast);

	mov	edx, DWORD PTR _this$[ebp]
	mov	eax, DWORD PTR [edx+12]
	push	eax
	mov	ecx, DWORD PTR __Where$[ebp+8]
	push	ecx
	mov	ecx, DWORD PTR _this$[ebp]
	call	?_Orphan_range@?$vector@VFreeMemoryBlock@@V?$allocator@VFreeMemoryBlock@@@std@@@std@@IBEXPAVFreeMemoryBlock@@0@Z ; std::vector<FreeMemoryBlock,std::allocator<FreeMemoryBlock> >::_Orphan_range

; 1184 :  #endif /* _HAS_ITERATOR_DEBUGGING */
; 1185 : 
; 1186 : 			fill(_VEC_ITER_BASE(_Where), _Mylast - _Count,
; 1187 : 				_Tmp);	// insert up to old end

	lea	edx, DWORD PTR __Tmp$[ebp]
	push	edx
	mov	eax, DWORD PTR __Count$[ebp]
	imul	eax, 12					; 0000000cH
	mov	ecx, DWORD PTR _this$[ebp]
	mov	edx, DWORD PTR [ecx+12]
	sub	edx, eax
	push	edx
	mov	eax, DWORD PTR __Where$[ebp+8]
	push	eax
	call	??$fill@PAVFreeMemoryBlock@@V1@@std@@YAXPAVFreeMemoryBlock@@0ABV1@@Z ; std::fill<FreeMemoryBlock *,FreeMemoryBlock>
	add	esp, 12					; 0000000cH

; 1188 : 			}
; 1189 : 		else

	jmp	SHORT $LN11@Insert_n
$LN3@Insert_n:

; 1190 : 			{	// new stuff can all be assigned
; 1191 : 			pointer _Oldend = _Mylast;

	mov	ecx, DWORD PTR _this$[ebp]
	mov	edx, DWORD PTR [ecx+12]
	mov	DWORD PTR __Oldend$14404[ebp], edx

; 1192 : 			_Mylast = _Umove(_Oldend - _Count, _Oldend,
; 1193 : 				_Mylast);	// copy suffix

	mov	eax, DWORD PTR _this$[ebp]
	mov	ecx, DWORD PTR [eax+12]
	push	ecx
	mov	edx, DWORD PTR __Oldend$14404[ebp]
	push	edx
	mov	eax, DWORD PTR __Count$[ebp]
	imul	eax, 12					; 0000000cH
	mov	ecx, DWORD PTR __Oldend$14404[ebp]
	sub	ecx, eax
	push	ecx
	mov	ecx, DWORD PTR _this$[ebp]
	call	??$_Umove@PAVFreeMemoryBlock@@@?$vector@VFreeMemoryBlock@@V?$allocator@VFreeMemoryBlock@@@std@@@std@@IAEPAVFreeMemoryBlock@@PAV2@00@Z ; std::vector<FreeMemoryBlock,std::allocator<FreeMemoryBlock> >::_Umove<FreeMemoryBlock *>
	mov	edx, DWORD PTR _this$[ebp]
	mov	DWORD PTR [edx+12], eax

; 1194 : 
; 1195 :  #if _HAS_ITERATOR_DEBUGGING
; 1196 : 			_Orphan_range(_Where._Myptr, _Mylast);

	mov	eax, DWORD PTR _this$[ebp]
	mov	ecx, DWORD PTR [eax+12]
	push	ecx
	mov	edx, DWORD PTR __Where$[ebp+8]
	push	edx
	mov	ecx, DWORD PTR _this$[ebp]
	call	?_Orphan_range@?$vector@VFreeMemoryBlock@@V?$allocator@VFreeMemoryBlock@@@std@@@std@@IBEXPAVFreeMemoryBlock@@0@Z ; std::vector<FreeMemoryBlock,std::allocator<FreeMemoryBlock> >::_Orphan_range

; 1197 :  #endif /* _HAS_ITERATOR_DEBUGGING */
; 1198 : 
; 1199 : 			_STDEXT _Unchecked_move_backward(_VEC_ITER_BASE(_Where), _Oldend - _Count,
; 1200 : 				_Oldend);	// copy hole

	mov	eax, DWORD PTR __Oldend$14404[ebp]
	push	eax
	mov	ecx, DWORD PTR __Count$[ebp]
	imul	ecx, 12					; 0000000cH
	mov	edx, DWORD PTR __Oldend$14404[ebp]
	sub	edx, ecx
	push	edx
	mov	eax, DWORD PTR __Where$[ebp+8]
	push	eax
	call	??$_Unchecked_move_backward@PAVFreeMemoryBlock@@PAV1@@stdext@@YAPAVFreeMemoryBlock@@PAV1@00@Z ; stdext::_Unchecked_move_backward<FreeMemoryBlock *,FreeMemoryBlock *>
	add	esp, 12					; 0000000cH

; 1201 : 			fill(_VEC_ITER_BASE(_Where), _VEC_ITER_BASE(_Where) + _Count,
; 1202 : 				_Tmp);	// insert into hole

	lea	ecx, DWORD PTR __Tmp$[ebp]
	push	ecx
	mov	edx, DWORD PTR __Count$[ebp]
	imul	edx, 12					; 0000000cH
	add	edx, DWORD PTR __Where$[ebp+8]
	push	edx
	mov	eax, DWORD PTR __Where$[ebp+8]
	push	eax
	call	??$fill@PAVFreeMemoryBlock@@V1@@std@@YAXPAVFreeMemoryBlock@@0ABV1@@Z ; std::fill<FreeMemoryBlock *,FreeMemoryBlock>
	add	esp, 12					; 0000000cH
$LN11@Insert_n:

; 1203 : 			}
; 1204 : 		}

	mov	DWORD PTR __$EHRec$[ebp+12], -1
	lea	ecx, DWORD PTR __Where$[ebp]
	call	??1?$_Vector_iterator@VFreeMemoryBlock@@V?$allocator@VFreeMemoryBlock@@@std@@@std@@QAE@XZ
$LN16@Insert_n:
	push	edx
	mov	ecx, ebp
	push	eax
	lea	edx, DWORD PTR $LN33@Insert_n
	call	@_RTC_CheckStackVars@8
	pop	eax
	pop	edx
	mov	ecx, DWORD PTR __$EHRec$[ebp+4]
	mov	DWORD PTR fs:0, ecx
	pop	edi
	pop	esi
	pop	ebx
	add	esp, 68					; 00000044H
	cmp	ebp, esp
	call	__RTC_CheckEsp
	mov	esp, ebp
	pop	ebp
	ret	20					; 00000014H
$LN33@Insert_n:
	DD	1
	DD	$LN32@Insert_n
$LN32@Insert_n:
	DD	-36					; ffffffdcH
	DD	12					; 0000000cH
	DD	$LN30@Insert_n
$LN30@Insert_n:
	DB	95					; 0000005fH
	DB	84					; 00000054H
	DB	109					; 0000006dH
	DB	112					; 00000070H
	DB	0
_TEXT	ENDS
;	COMDAT text$x
text$x	SEGMENT
__unwindfunclet$?_Insert_n@?$vector@VFreeMemoryBlock@@V?$allocator@VFreeMemoryBlock@@@std@@@std@@IAEXV?$_Vector_iterator@VFreeMemoryBlock@@V?$allocator@VFreeMemoryBlock@@@std@@@2@IABVFreeMemoryBlock@@@Z$4:
	lea	ecx, DWORD PTR __Where$[ebp]
	jmp	??1?$_Vector_iterator@VFreeMemoryBlock@@V?$allocator@VFreeMemoryBlock@@@std@@@std@@QAE@XZ
__ehhandler$?_Insert_n@?$vector@VFreeMemoryBlock@@V?$allocator@VFreeMemoryBlock@@@std@@@std@@IAEXV?$_Vector_iterator@VFreeMemoryBlock@@V?$allocator@VFreeMemoryBlock@@@std@@@2@IABVFreeMemoryBlock@@@Z:
	mov	eax, OFFSET __ehfuncinfo$?_Insert_n@?$vector@VFreeMemoryBlock@@V?$allocator@VFreeMemoryBlock@@@std@@@std@@IAEXV?$_Vector_iterator@VFreeMemoryBlock@@V?$allocator@VFreeMemoryBlock@@@std@@@2@IABVFreeMemoryBlock@@@Z
	jmp	___CxxFrameHandler3
text$x	ENDS
?_Insert_n@?$vector@VFreeMemoryBlock@@V?$allocator@VFreeMemoryBlock@@@std@@@std@@IAEXV?$_Vector_iterator@VFreeMemoryBlock@@V?$allocator@VFreeMemoryBlock@@@std@@@2@IABVFreeMemoryBlock@@@Z ENDP ; std::vector<FreeMemoryBlock,std::allocator<FreeMemoryBlock> >::_Insert_n
PUBLIC	??$unchecked_uninitialized_fill_n@PAVFreeMemoryBlock@@IV1@V?$allocator@VFreeMemoryBlock@@@std@@@stdext@@YAXPAVFreeMemoryBlock@@IABV1@AAV?$allocator@VFreeMemoryBlock@@@std@@@Z ; stdext::unchecked_uninitialized_fill_n<FreeMemoryBlock *,unsigned int,FreeMemoryBlock,std::allocator<FreeMemoryBlock> >
; Function compile flags: /Odtp /RTCsu
;	COMDAT ?_Ufill@?$vector@VFreeMemoryBlock@@V?$allocator@VFreeMemoryBlock@@@std@@@std@@IAEPAVFreeMemoryBlock@@PAV3@IABV3@@Z
_TEXT	SEGMENT
_this$ = -4						; size = 4
__Ptr$ = 8						; size = 4
__Count$ = 12						; size = 4
__Val$ = 16						; size = 4
?_Ufill@?$vector@VFreeMemoryBlock@@V?$allocator@VFreeMemoryBlock@@@std@@@std@@IAEPAVFreeMemoryBlock@@PAV3@IABV3@@Z PROC ; std::vector<FreeMemoryBlock,std::allocator<FreeMemoryBlock> >::_Ufill, COMDAT
; _this$ = ecx

; 1207 : 		{	// copy initializing _Count * _Val, using allocator

	push	ebp
	mov	ebp, esp
	push	ecx
	mov	DWORD PTR [ebp-4], -858993460		; ccccccccH
	mov	DWORD PTR _this$[ebp], ecx

; 1208 : 		_STDEXT unchecked_uninitialized_fill_n(_Ptr, _Count, _Val, this->_Alval);

	mov	eax, DWORD PTR _this$[ebp]
	add	eax, 4
	push	eax
	mov	ecx, DWORD PTR __Val$[ebp]
	push	ecx
	mov	edx, DWORD PTR __Count$[ebp]
	push	edx
	mov	eax, DWORD PTR __Ptr$[ebp]
	push	eax
	call	??$unchecked_uninitialized_fill_n@PAVFreeMemoryBlock@@IV1@V?$allocator@VFreeMemoryBlock@@@std@@@stdext@@YAXPAVFreeMemoryBlock@@IABV1@AAV?$allocator@VFreeMemoryBlock@@@std@@@Z ; stdext::unchecked_uninitialized_fill_n<FreeMemoryBlock *,unsigned int,FreeMemoryBlock,std::allocator<FreeMemoryBlock> >
	add	esp, 16					; 00000010H

; 1209 : 		return (_Ptr + _Count);

	mov	eax, DWORD PTR __Count$[ebp]
	imul	eax, 12					; 0000000cH
	add	eax, DWORD PTR __Ptr$[ebp]

; 1210 : 		}

	add	esp, 4
	cmp	ebp, esp
	call	__RTC_CheckEsp
	mov	esp, ebp
	pop	ebp
	ret	12					; 0000000cH
?_Ufill@?$vector@VFreeMemoryBlock@@V?$allocator@VFreeMemoryBlock@@@std@@@std@@IAEPAVFreeMemoryBlock@@PAV3@IABV3@@Z ENDP ; std::vector<FreeMemoryBlock,std::allocator<FreeMemoryBlock> >::_Ufill
; Function compile flags: /Odtp /RTCsu
_TEXT	ENDS
;	COMDAT ?_Orphan_range@?$vector@VFreeMemoryBlock@@V?$allocator@VFreeMemoryBlock@@@std@@@std@@IBEXPAVFreeMemoryBlock@@0@Z
_TEXT	SEGMENT
__Pnext$ = -20						; size = 4
__Lock$ = -12						; size = 4
_this$ = -4						; size = 4
__First$ = 8						; size = 4
__Last$ = 12						; size = 4
?_Orphan_range@?$vector@VFreeMemoryBlock@@V?$allocator@VFreeMemoryBlock@@@std@@@std@@IBEXPAVFreeMemoryBlock@@0@Z PROC ; std::vector<FreeMemoryBlock,std::allocator<FreeMemoryBlock> >::_Orphan_range, COMDAT
; _this$ = ecx

; 1229 : 		{	// orphan iterators within specified (inclusive) range

	push	ebp
	mov	ebp, esp
	sub	esp, 20					; 00000014H
	mov	eax, -858993460				; ccccccccH
	mov	DWORD PTR [ebp-20], eax
	mov	DWORD PTR [ebp-16], eax
	mov	DWORD PTR [ebp-12], eax
	mov	DWORD PTR [ebp-8], eax
	mov	DWORD PTR [ebp-4], eax
	mov	DWORD PTR _this$[ebp], ecx

; 1230 : 		_Lockit _Lock(_LOCK_DEBUG);

	push	3
	lea	ecx, DWORD PTR __Lock$[ebp]
	call	??0_Lockit@std@@QAE@H@Z			; std::_Lockit::_Lockit

; 1231 : 		const_iterator **_Pnext = (const_iterator **)&this->_Myfirstiter;

	mov	eax, DWORD PTR _this$[ebp]
	mov	DWORD PTR __Pnext$[ebp], eax
$LN5@Orphan_ran:

; 1232 : 		while (*_Pnext != 0)

	mov	ecx, DWORD PTR __Pnext$[ebp]
	cmp	DWORD PTR [ecx], 0
	je	SHORT $LN4@Orphan_ran

; 1233 : 			if ((*_Pnext)->_Myptr < _First || _Last < (*_Pnext)->_Myptr)

	mov	edx, DWORD PTR __Pnext$[ebp]
	mov	eax, DWORD PTR [edx]
	mov	ecx, DWORD PTR [eax+8]
	cmp	ecx, DWORD PTR __First$[ebp]
	jb	SHORT $LN2@Orphan_ran
	mov	edx, DWORD PTR __Pnext$[ebp]
	mov	eax, DWORD PTR [edx]
	mov	ecx, DWORD PTR __Last$[ebp]
	cmp	ecx, DWORD PTR [eax+8]
	jae	SHORT $LN3@Orphan_ran
$LN2@Orphan_ran:

; 1234 : 				_Pnext = (const_iterator **)&(*_Pnext)->_Mynextiter;

	mov	edx, DWORD PTR __Pnext$[ebp]
	mov	eax, DWORD PTR [edx]
	add	eax, 4
	mov	DWORD PTR __Pnext$[ebp], eax

; 1235 : 			else

	jmp	SHORT $LN1@Orphan_ran
$LN3@Orphan_ran:

; 1236 : 				{	// orphan the iterator
; 1237 : 				(*_Pnext)->_Mycont = 0;

	mov	ecx, DWORD PTR __Pnext$[ebp]
	mov	edx, DWORD PTR [ecx]
	mov	DWORD PTR [edx], 0

; 1238 : 				*_Pnext = (const_iterator *)(*_Pnext)->_Mynextiter;

	mov	eax, DWORD PTR __Pnext$[ebp]
	mov	ecx, DWORD PTR [eax]
	mov	edx, DWORD PTR __Pnext$[ebp]
	mov	eax, DWORD PTR [ecx+4]
	mov	DWORD PTR [edx], eax
$LN1@Orphan_ran:

; 1239 : 				}

	jmp	SHORT $LN5@Orphan_ran
$LN4@Orphan_ran:

; 1240 : 		}

	lea	ecx, DWORD PTR __Lock$[ebp]
	call	??1_Lockit@std@@QAE@XZ			; std::_Lockit::~_Lockit
	push	edx
	mov	ecx, ebp
	push	eax
	lea	edx, DWORD PTR $LN11@Orphan_ran
	call	@_RTC_CheckStackVars@8
	pop	eax
	pop	edx
	add	esp, 20					; 00000014H
	cmp	ebp, esp
	call	__RTC_CheckEsp
	mov	esp, ebp
	pop	ebp
	ret	8
	npad	1
$LN11@Orphan_ran:
	DD	1
	DD	$LN10@Orphan_ran
$LN10@Orphan_ran:
	DD	-12					; fffffff4H
	DD	4
	DD	$LN9@Orphan_ran
$LN9@Orphan_ran:
	DB	95					; 0000005fH
	DB	76					; 0000004cH
	DB	111					; 0000006fH
	DB	99					; 00000063H
	DB	107					; 0000006bH
	DB	0
?_Orphan_range@?$vector@VFreeMemoryBlock@@V?$allocator@VFreeMemoryBlock@@@std@@@std@@IBEXPAVFreeMemoryBlock@@0@Z ENDP ; std::vector<FreeMemoryBlock,std::allocator<FreeMemoryBlock> >::_Orphan_range
_TEXT	ENDS
PUBLIC	??0?$allocator@VFreeMemoryBlock@@@std@@QAE@ABV01@@Z ; std::allocator<FreeMemoryBlock>::allocator<FreeMemoryBlock>
PUBLIC	??0_Container_base@std@@QAE@XZ			; std::_Container_base::_Container_base
; Function compile flags: /Odtp /RTCsu
;	COMDAT ??0?$_Vector_val@VFreeMemoryBlock@@V?$allocator@VFreeMemoryBlock@@@std@@@std@@IAE@V?$allocator@VFreeMemoryBlock@@@1@@Z
_TEXT	SEGMENT
_this$ = -4						; size = 4
__Al$ = 8						; size = 1
??0?$_Vector_val@VFreeMemoryBlock@@V?$allocator@VFreeMemoryBlock@@@std@@@std@@IAE@V?$allocator@VFreeMemoryBlock@@@1@@Z PROC ; std::_Vector_val<FreeMemoryBlock,std::allocator<FreeMemoryBlock> >::_Vector_val<FreeMemoryBlock,std::allocator<FreeMemoryBlock> >, COMDAT
; _this$ = ecx

; 412  : 		{	// construct allocator from _Al

	push	ebp
	mov	ebp, esp
	push	ecx
	mov	DWORD PTR [ebp-4], -858993460		; ccccccccH
	mov	DWORD PTR _this$[ebp], ecx
	mov	ecx, DWORD PTR _this$[ebp]
	call	??0_Container_base@std@@QAE@XZ		; std::_Container_base::_Container_base
	lea	eax, DWORD PTR __Al$[ebp]
	push	eax
	mov	ecx, DWORD PTR _this$[ebp]
	add	ecx, 4
	call	??0?$allocator@VFreeMemoryBlock@@@std@@QAE@ABV01@@Z ; std::allocator<FreeMemoryBlock>::allocator<FreeMemoryBlock>

; 413  : 		}

	mov	eax, DWORD PTR _this$[ebp]
	add	esp, 4
	cmp	ebp, esp
	call	__RTC_CheckEsp
	mov	esp, ebp
	pop	ebp
	ret	4
??0?$_Vector_val@VFreeMemoryBlock@@V?$allocator@VFreeMemoryBlock@@@std@@@std@@IAE@V?$allocator@VFreeMemoryBlock@@@1@@Z ENDP ; std::_Vector_val<FreeMemoryBlock,std::allocator<FreeMemoryBlock> >::_Vector_val<FreeMemoryBlock,std::allocator<FreeMemoryBlock> >
; Function compile flags: /Odtp /RTCsu
; File c:\microsoft visual studio 8\vc\include\xutility
_TEXT	ENDS
;	COMDAT ??0_Container_base@std@@QAE@XZ
_TEXT	SEGMENT
_this$ = -4						; size = 4
??0_Container_base@std@@QAE@XZ PROC			; std::_Container_base::_Container_base, COMDAT
; _this$ = ecx

; 91   : 		{	// construct childless container

	push	ebp
	mov	ebp, esp
	push	ecx
	mov	DWORD PTR [ebp-4], -858993460		; ccccccccH
	mov	DWORD PTR _this$[ebp], ecx
	mov	eax, DWORD PTR _this$[ebp]
	mov	DWORD PTR [eax], 0

; 92   : 		}

	mov	eax, DWORD PTR _this$[ebp]
	mov	esp, ebp
	pop	ebp
	ret	0
??0_Container_base@std@@QAE@XZ ENDP			; std::_Container_base::_Container_base
; Function compile flags: /Odtp /RTCsu
; File c:\microsoft visual studio 8\vc\include\xmemory
_TEXT	ENDS
;	COMDAT ??0?$allocator@VFreeMemoryBlock@@@std@@QAE@XZ
_TEXT	SEGMENT
_this$ = -4						; size = 4
??0?$allocator@VFreeMemoryBlock@@@std@@QAE@XZ PROC	; std::allocator<FreeMemoryBlock>::allocator<FreeMemoryBlock>, COMDAT
; _this$ = ecx

; 120  : 	allocator() _THROW0()

	push	ebp
	mov	ebp, esp
	push	ecx
	mov	DWORD PTR [ebp-4], -858993460		; ccccccccH
	mov	DWORD PTR _this$[ebp], ecx

; 121  : 		{	// construct default allocator (do nothing)
; 122  : 		}

	mov	eax, DWORD PTR _this$[ebp]
	mov	esp, ebp
	pop	ebp
	ret	0
??0?$allocator@VFreeMemoryBlock@@@std@@QAE@XZ ENDP	; std::allocator<FreeMemoryBlock>::allocator<FreeMemoryBlock>
_TEXT	ENDS
PUBLIC	?allocate@?$allocator@VAllocatedMemoryBlock@@@std@@QAEPAVAllocatedMemoryBlock@@I@Z ; std::allocator<AllocatedMemoryBlock>::allocate
PUBLIC	?_Xlen@?$vector@VAllocatedMemoryBlock@@V?$allocator@VAllocatedMemoryBlock@@@std@@@std@@KAXXZ ; std::vector<AllocatedMemoryBlock,std::allocator<AllocatedMemoryBlock> >::_Xlen
PUBLIC	?max_size@?$vector@VAllocatedMemoryBlock@@V?$allocator@VAllocatedMemoryBlock@@@std@@@std@@QBEIXZ ; std::vector<AllocatedMemoryBlock,std::allocator<AllocatedMemoryBlock> >::max_size
; Function compile flags: /Odtp /RTCsu
; File c:\microsoft visual studio 8\vc\include\vector
;	COMDAT ?_Buy@?$vector@VAllocatedMemoryBlock@@V?$allocator@VAllocatedMemoryBlock@@@std@@@std@@IAE_NI@Z
_TEXT	SEGMENT
_this$ = -4						; size = 4
__Capacity$ = 8						; size = 4
?_Buy@?$vector@VAllocatedMemoryBlock@@V?$allocator@VAllocatedMemoryBlock@@@std@@@std@@IAE_NI@Z PROC ; std::vector<AllocatedMemoryBlock,std::allocator<AllocatedMemoryBlock> >::_Buy, COMDAT
; _this$ = ecx

; 1066 : 		{	// allocate array with _Capacity elements

	push	ebp
	mov	ebp, esp
	push	ecx
	mov	DWORD PTR [ebp-4], -858993460		; ccccccccH
	mov	DWORD PTR _this$[ebp], ecx

; 1067 : 		_Myfirst = 0, _Mylast = 0, _Myend = 0;

	mov	eax, DWORD PTR _this$[ebp]
	mov	DWORD PTR [eax+8], 0
	mov	ecx, DWORD PTR _this$[ebp]
	mov	DWORD PTR [ecx+12], 0
	mov	edx, DWORD PTR _this$[ebp]
	mov	DWORD PTR [edx+16], 0

; 1068 : 		if (_Capacity == 0)

	cmp	DWORD PTR __Capacity$[ebp], 0
	jne	SHORT $LN4@Buy@2

; 1069 : 			return (false);

	xor	al, al
	jmp	SHORT $LN5@Buy@2
	jmp	SHORT $LN3@Buy@2
$LN4@Buy@2:

; 1070 : 		else if (max_size() < _Capacity)

	mov	ecx, DWORD PTR _this$[ebp]
	call	?max_size@?$vector@VAllocatedMemoryBlock@@V?$allocator@VAllocatedMemoryBlock@@@std@@@std@@QBEIXZ ; std::vector<AllocatedMemoryBlock,std::allocator<AllocatedMemoryBlock> >::max_size
	cmp	eax, DWORD PTR __Capacity$[ebp]
	jae	SHORT $LN2@Buy@2

; 1071 : 			_Xlen();	// result too long

	call	?_Xlen@?$vector@VAllocatedMemoryBlock@@V?$allocator@VAllocatedMemoryBlock@@@std@@@std@@KAXXZ ; std::vector<AllocatedMemoryBlock,std::allocator<AllocatedMemoryBlock> >::_Xlen

; 1072 : 		else

	jmp	SHORT $LN3@Buy@2
$LN2@Buy@2:

; 1073 : 			{	// nonempty array, allocate storage
; 1074 : 			_Myfirst = this->_Alval.allocate(_Capacity);

	mov	eax, DWORD PTR __Capacity$[ebp]
	push	eax
	mov	ecx, DWORD PTR _this$[ebp]
	add	ecx, 4
	call	?allocate@?$allocator@VAllocatedMemoryBlock@@@std@@QAEPAVAllocatedMemoryBlock@@I@Z ; std::allocator<AllocatedMemoryBlock>::allocate
	mov	ecx, DWORD PTR _this$[ebp]
	mov	DWORD PTR [ecx+8], eax

; 1075 : 			_Mylast = _Myfirst;

	mov	edx, DWORD PTR _this$[ebp]
	mov	eax, DWORD PTR _this$[ebp]
	mov	ecx, DWORD PTR [eax+8]
	mov	DWORD PTR [edx+12], ecx

; 1076 : 			_Myend = _Myfirst + _Capacity;

	mov	edx, DWORD PTR _this$[ebp]
	mov	eax, DWORD PTR [edx+8]
	mov	ecx, DWORD PTR __Capacity$[ebp]
	lea	edx, DWORD PTR [eax+ecx*8]
	mov	eax, DWORD PTR _this$[ebp]
	mov	DWORD PTR [eax+16], edx
$LN3@Buy@2:

; 1077 : 			}
; 1078 : 		return (true);

	mov	al, 1
$LN5@Buy@2:

; 1079 : 		}

	add	esp, 4
	cmp	ebp, esp
	call	__RTC_CheckEsp
	mov	esp, ebp
	pop	ebp
	ret	4
?_Buy@?$vector@VAllocatedMemoryBlock@@V?$allocator@VAllocatedMemoryBlock@@@std@@@std@@IAE_NI@Z ENDP ; std::vector<AllocatedMemoryBlock,std::allocator<AllocatedMemoryBlock> >::_Buy
_TEXT	ENDS
PUBLIC	??$_Destroy_range@VAllocatedMemoryBlock@@V?$allocator@VAllocatedMemoryBlock@@@std@@@std@@YAXPAVAllocatedMemoryBlock@@0AAV?$allocator@VAllocatedMemoryBlock@@@0@@Z ; std::_Destroy_range<AllocatedMemoryBlock,std::allocator<AllocatedMemoryBlock> >
; Function compile flags: /Odtp /RTCsu
;	COMDAT ?_Destroy@?$vector@VAllocatedMemoryBlock@@V?$allocator@VAllocatedMemoryBlock@@@std@@@std@@IAEXPAVAllocatedMemoryBlock@@0@Z
_TEXT	SEGMENT
_this$ = -4						; size = 4
__First$ = 8						; size = 4
__Last$ = 12						; size = 4
?_Destroy@?$vector@VAllocatedMemoryBlock@@V?$allocator@VAllocatedMemoryBlock@@@std@@@std@@IAEXPAVAllocatedMemoryBlock@@0@Z PROC ; std::vector<AllocatedMemoryBlock,std::allocator<AllocatedMemoryBlock> >::_Destroy, COMDAT
; _this$ = ecx

; 1082 : 		{	// destroy [_First, _Last) using allocator

	push	ebp
	mov	ebp, esp
	push	ecx
	mov	DWORD PTR [ebp-4], -858993460		; ccccccccH
	mov	DWORD PTR _this$[ebp], ecx

; 1083 : 		_Destroy_range(_First, _Last, this->_Alval);

	mov	eax, DWORD PTR _this$[ebp]
	add	eax, 4
	push	eax
	mov	ecx, DWORD PTR __Last$[ebp]
	push	ecx
	mov	edx, DWORD PTR __First$[ebp]
	push	edx
	call	??$_Destroy_range@VAllocatedMemoryBlock@@V?$allocator@VAllocatedMemoryBlock@@@std@@@std@@YAXPAVAllocatedMemoryBlock@@0AAV?$allocator@VAllocatedMemoryBlock@@@0@@Z ; std::_Destroy_range<AllocatedMemoryBlock,std::allocator<AllocatedMemoryBlock> >
	add	esp, 12					; 0000000cH

; 1084 : 		}

	add	esp, 4
	cmp	ebp, esp
	call	__RTC_CheckEsp
	mov	esp, ebp
	pop	ebp
	ret	8
?_Destroy@?$vector@VAllocatedMemoryBlock@@V?$allocator@VAllocatedMemoryBlock@@@std@@@std@@IAEXPAVAllocatedMemoryBlock@@0@Z ENDP ; std::vector<AllocatedMemoryBlock,std::allocator<AllocatedMemoryBlock> >::_Destroy
_TEXT	ENDS
PUBLIC	??$_Unchecked_move_backward@PAVAllocatedMemoryBlock@@PAV1@@stdext@@YAPAVAllocatedMemoryBlock@@PAV1@00@Z ; stdext::_Unchecked_move_backward<AllocatedMemoryBlock *,AllocatedMemoryBlock *>
PUBLIC	??$fill@PAVAllocatedMemoryBlock@@V1@@std@@YAXPAVAllocatedMemoryBlock@@0ABV1@@Z ; std::fill<AllocatedMemoryBlock *,AllocatedMemoryBlock>
PUBLIC	?deallocate@?$allocator@VAllocatedMemoryBlock@@@std@@QAEXPAVAllocatedMemoryBlock@@I@Z ; std::allocator<AllocatedMemoryBlock>::deallocate
PUBLIC	?_Ufill@?$vector@VAllocatedMemoryBlock@@V?$allocator@VAllocatedMemoryBlock@@@std@@@std@@IAEPAVAllocatedMemoryBlock@@PAV3@IABV3@@Z ; std::vector<AllocatedMemoryBlock,std::allocator<AllocatedMemoryBlock> >::_Ufill
PUBLIC	??$_Umove@PAVAllocatedMemoryBlock@@@?$vector@VAllocatedMemoryBlock@@V?$allocator@VAllocatedMemoryBlock@@@std@@@std@@IAEPAVAllocatedMemoryBlock@@PAV2@00@Z ; std::vector<AllocatedMemoryBlock,std::allocator<AllocatedMemoryBlock> >::_Umove<AllocatedMemoryBlock *>
PUBLIC	?capacity@?$vector@VAllocatedMemoryBlock@@V?$allocator@VAllocatedMemoryBlock@@@std@@@std@@QBEIXZ ; std::vector<AllocatedMemoryBlock,std::allocator<AllocatedMemoryBlock> >::capacity
;	COMDAT xdata$x
xdata$x	SEGMENT
__catchsym$?_Insert_n@?$vector@VAllocatedMemoryBlock@@V?$allocator@VAllocatedMemoryBlock@@@std@@@std@@IAEXV?$_Vector_iterator@VAllocatedMemoryBlock@@V?$allocator@VAllocatedMemoryBlock@@@std@@@2@IABVAllocatedMemoryBlock@@@Z$6 DD 040H
	DD	00H
	DD	00H
	DD	FLAT:__catch$?_Insert_n@?$vector@VAllocatedMemoryBlock@@V?$allocator@VAllocatedMemoryBlock@@@std@@@std@@IAEXV?$_Vector_iterator@VAllocatedMemoryBlock@@V?$allocator@VAllocatedMemoryBlock@@@std@@@2@IABVAllocatedMemoryBlock@@@Z$2
__catchsym$?_Insert_n@?$vector@VAllocatedMemoryBlock@@V?$allocator@VAllocatedMemoryBlock@@@std@@@std@@IAEXV?$_Vector_iterator@VAllocatedMemoryBlock@@V?$allocator@VAllocatedMemoryBlock@@@std@@@2@IABVAllocatedMemoryBlock@@@Z$5 DD 040H
	DD	00H
	DD	00H
	DD	FLAT:__catch$?_Insert_n@?$vector@VAllocatedMemoryBlock@@V?$allocator@VAllocatedMemoryBlock@@@std@@@std@@IAEXV?$_Vector_iterator@VAllocatedMemoryBlock@@V?$allocator@VAllocatedMemoryBlock@@@std@@@2@IABVAllocatedMemoryBlock@@@Z$0
__ehfuncinfo$?_Insert_n@?$vector@VAllocatedMemoryBlock@@V?$allocator@VAllocatedMemoryBlock@@@std@@@std@@IAEXV?$_Vector_iterator@VAllocatedMemoryBlock@@V?$allocator@VAllocatedMemoryBlock@@@std@@@2@IABVAllocatedMemoryBlock@@@Z DD 019930522H
	DD	05H
	DD	FLAT:__unwindtable$?_Insert_n@?$vector@VAllocatedMemoryBlock@@V?$allocator@VAllocatedMemoryBlock@@@std@@@std@@IAEXV?$_Vector_iterator@VAllocatedMemoryBlock@@V?$allocator@VAllocatedMemoryBlock@@@std@@@2@IABVAllocatedMemoryBlock@@@Z
	DD	02H
	DD	FLAT:__tryblocktable$?_Insert_n@?$vector@VAllocatedMemoryBlock@@V?$allocator@VAllocatedMemoryBlock@@@std@@@std@@IAEXV?$_Vector_iterator@VAllocatedMemoryBlock@@V?$allocator@VAllocatedMemoryBlock@@@std@@@2@IABVAllocatedMemoryBlock@@@Z
	DD	2 DUP(00H)
	DD	00H
	DD	01H
__tryblocktable$?_Insert_n@?$vector@VAllocatedMemoryBlock@@V?$allocator@VAllocatedMemoryBlock@@@std@@@std@@IAEXV?$_Vector_iterator@VAllocatedMemoryBlock@@V?$allocator@VAllocatedMemoryBlock@@@std@@@2@IABVAllocatedMemoryBlock@@@Z DD 01H
	DD	01H
	DD	02H
	DD	01H
	DD	FLAT:__catchsym$?_Insert_n@?$vector@VAllocatedMemoryBlock@@V?$allocator@VAllocatedMemoryBlock@@@std@@@std@@IAEXV?$_Vector_iterator@VAllocatedMemoryBlock@@V?$allocator@VAllocatedMemoryBlock@@@std@@@2@IABVAllocatedMemoryBlock@@@Z$5
	DD	03H
	DD	03H
	DD	04H
	DD	01H
	DD	FLAT:__catchsym$?_Insert_n@?$vector@VAllocatedMemoryBlock@@V?$allocator@VAllocatedMemoryBlock@@@std@@@std@@IAEXV?$_Vector_iterator@VAllocatedMemoryBlock@@V?$allocator@VAllocatedMemoryBlock@@@std@@@2@IABVAllocatedMemoryBlock@@@Z$6
__unwindtable$?_Insert_n@?$vector@VAllocatedMemoryBlock@@V?$allocator@VAllocatedMemoryBlock@@@std@@@std@@IAEXV?$_Vector_iterator@VAllocatedMemoryBlock@@V?$allocator@VAllocatedMemoryBlock@@@std@@@2@IABVAllocatedMemoryBlock@@@Z DD 0ffffffffH
	DD	FLAT:__unwindfunclet$?_Insert_n@?$vector@VAllocatedMemoryBlock@@V?$allocator@VAllocatedMemoryBlock@@@std@@@std@@IAEXV?$_Vector_iterator@VAllocatedMemoryBlock@@V?$allocator@VAllocatedMemoryBlock@@@std@@@2@IABVAllocatedMemoryBlock@@@Z$4
	DD	00H
	DD	00H
	DD	00H
	DD	00H
	DD	00H
	DD	00H
	DD	00H
	DD	00H
; Function compile flags: /Odtp /RTCsu
xdata$x	ENDS
;	COMDAT ?_Insert_n@?$vector@VAllocatedMemoryBlock@@V?$allocator@VAllocatedMemoryBlock@@@std@@@std@@IAEXV?$_Vector_iterator@VAllocatedMemoryBlock@@V?$allocator@VAllocatedMemoryBlock@@@std@@@2@IABVAllocatedMemoryBlock@@@Z
_TEXT	SEGMENT
tv263 = -64						; size = 4
tv262 = -60						; size = 4
tv94 = -56						; size = 4
__Oldend$14504 = -52					; size = 4
__Ptr$14484 = -48					; size = 4
__Newvec$14483 = -44					; size = 4
__Capacity$ = -40					; size = 4
__Tmp$ = -32						; size = 8
_this$ = -20						; size = 4
__$EHRec$ = -16						; size = 16
__Where$ = 8						; size = 12
__Count$ = 20						; size = 4
__Val$ = 24						; size = 4
?_Insert_n@?$vector@VAllocatedMemoryBlock@@V?$allocator@VAllocatedMemoryBlock@@@std@@@std@@IAEXV?$_Vector_iterator@VAllocatedMemoryBlock@@V?$allocator@VAllocatedMemoryBlock@@@std@@@2@IABVAllocatedMemoryBlock@@@Z PROC ; std::vector<AllocatedMemoryBlock,std::allocator<AllocatedMemoryBlock> >::_Insert_n, COMDAT
; _this$ = ecx

; 1117 : 		{	// insert _Count * _Val at _Where

	push	ebp
	mov	ebp, esp
	push	-1
	push	__ehhandler$?_Insert_n@?$vector@VAllocatedMemoryBlock@@V?$allocator@VAllocatedMemoryBlock@@@std@@@std@@IAEXV?$_Vector_iterator@VAllocatedMemoryBlock@@V?$allocator@VAllocatedMemoryBlock@@@std@@@2@IABVAllocatedMemoryBlock@@@Z
	mov	eax, DWORD PTR fs:0
	push	eax
	mov	DWORD PTR fs:0, esp
	push	ecx
	sub	esp, 48					; 00000030H
	push	ebx
	push	esi
	push	edi
	push	ecx
	lea	edi, DWORD PTR [ebp-64]
	mov	ecx, 12					; 0000000cH
	mov	eax, -858993460				; ccccccccH
	rep stosd
	pop	ecx
	mov	DWORD PTR __$EHRec$[ebp], esp
	mov	DWORD PTR _this$[ebp], ecx
	mov	DWORD PTR __$EHRec$[ebp+12], 0

; 1118 : 
; 1119 :  #if _HAS_ITERATOR_DEBUGGING
; 1120 : 		if (_Where._Mycont != this
; 1121 : 			|| _Where._Myptr < _Myfirst || _Mylast < _Where._Myptr)

	mov	eax, DWORD PTR __Where$[ebp]
	cmp	eax, DWORD PTR _this$[ebp]
	jne	SHORT $LN13@Insert_n@2
	mov	ecx, DWORD PTR _this$[ebp]
	mov	edx, DWORD PTR __Where$[ebp+8]
	cmp	edx, DWORD PTR [ecx+8]
	jb	SHORT $LN13@Insert_n@2
	mov	eax, DWORD PTR _this$[ebp]
	mov	ecx, DWORD PTR [eax+12]
	cmp	ecx, DWORD PTR __Where$[ebp+8]
	jae	SHORT $LN14@Insert_n@2
$LN13@Insert_n@2:

; 1122 : 			_DEBUG_ERROR("vector insert iterator outside range");

	push	1122					; 00000462H
	push	OFFSET ??_C@_1FO@LOAHDEOC@?$AAC?$AA?3?$AA?2?$AAM?$AAi?$AAc?$AAr?$AAo?$AAs?$AAo?$AAf?$AAt?$AA?5?$AAV?$AAi?$AAs?$AAu?$AAa?$AAl?$AA?5?$AAS?$AAt?$AAu?$AAd?$AAi?$AAo?$AA?5?$AA8?$AA?2?$AAV?$AAC?$AA?2@
	push	OFFSET ??_C@_1EK@EEHFMKDC@?$AAv?$AAe?$AAc?$AAt?$AAo?$AAr?$AA?5?$AAi?$AAn?$AAs?$AAe?$AAr?$AAt?$AA?5?$AAi?$AAt?$AAe?$AAr?$AAa?$AAt?$AAo?$AAr?$AA?5?$AAo?$AAu?$AAt?$AAs?$AAi?$AAd?$AAe?$AA?5?$AAr@
	call	?_Debug_message@std@@YAXPB_W0I@Z	; std::_Debug_message
	add	esp, 12					; 0000000cH
$LN14@Insert_n@2:

; 1123 :  #endif /* _HAS_ITERATOR_DEBUGGING */
; 1124 : 
; 1125 : 		_Ty _Tmp = _Val;	// in case _Val is in sequence

	mov	edx, DWORD PTR __Val$[ebp]
	mov	eax, DWORD PTR [edx]
	mov	ecx, DWORD PTR [edx+4]
	mov	DWORD PTR __Tmp$[ebp], eax
	mov	DWORD PTR __Tmp$[ebp+4], ecx

; 1126 : 		size_type _Capacity = capacity();

	mov	ecx, DWORD PTR _this$[ebp]
	call	?capacity@?$vector@VAllocatedMemoryBlock@@V?$allocator@VAllocatedMemoryBlock@@@std@@@std@@QBEIXZ ; std::vector<AllocatedMemoryBlock,std::allocator<AllocatedMemoryBlock> >::capacity
	mov	DWORD PTR __Capacity$[ebp], eax

; 1127 : 
; 1128 : 		if (_Count == 0)

	cmp	DWORD PTR __Count$[ebp], 0
	jne	SHORT $LN12@Insert_n@2
	jmp	$LN11@Insert_n@2
$LN12@Insert_n@2:

; 1129 : 			;
; 1130 : 		else if (max_size() - size() < _Count)

	mov	ecx, DWORD PTR _this$[ebp]
	call	?size@?$vector@VAllocatedMemoryBlock@@V?$allocator@VAllocatedMemoryBlock@@@std@@@std@@QBEIXZ ; std::vector<AllocatedMemoryBlock,std::allocator<AllocatedMemoryBlock> >::size
	mov	esi, eax
	mov	ecx, DWORD PTR _this$[ebp]
	call	?max_size@?$vector@VAllocatedMemoryBlock@@V?$allocator@VAllocatedMemoryBlock@@@std@@@std@@QBEIXZ ; std::vector<AllocatedMemoryBlock,std::allocator<AllocatedMemoryBlock> >::max_size
	sub	eax, esi
	cmp	eax, DWORD PTR __Count$[ebp]
	jae	SHORT $LN10@Insert_n@2

; 1131 : 			_Xlen();	// result too long

	call	?_Xlen@?$vector@VAllocatedMemoryBlock@@V?$allocator@VAllocatedMemoryBlock@@@std@@@std@@KAXXZ ; std::vector<AllocatedMemoryBlock,std::allocator<AllocatedMemoryBlock> >::_Xlen
	jmp	$LN11@Insert_n@2
$LN10@Insert_n@2:

; 1132 : 		else if (_Capacity < size() + _Count)

	mov	ecx, DWORD PTR _this$[ebp]
	call	?size@?$vector@VAllocatedMemoryBlock@@V?$allocator@VAllocatedMemoryBlock@@@std@@@std@@QBEIXZ ; std::vector<AllocatedMemoryBlock,std::allocator<AllocatedMemoryBlock> >::size
	add	eax, DWORD PTR __Count$[ebp]
	cmp	DWORD PTR __Capacity$[ebp], eax
	jae	$LN8@Insert_n@2

; 1133 : 			{	// not enough room, reallocate
; 1134 : 			_Capacity = max_size() - _Capacity / 2 < _Capacity
; 1135 : 				? 0 : _Capacity + _Capacity / 2;	// try to grow by 50%

	mov	esi, DWORD PTR __Capacity$[ebp]
	shr	esi, 1
	mov	ecx, DWORD PTR _this$[ebp]
	call	?max_size@?$vector@VAllocatedMemoryBlock@@V?$allocator@VAllocatedMemoryBlock@@@std@@@std@@QBEIXZ ; std::vector<AllocatedMemoryBlock,std::allocator<AllocatedMemoryBlock> >::max_size
	sub	eax, esi
	cmp	eax, DWORD PTR __Capacity$[ebp]
	jae	SHORT $LN17@Insert_n@2
	mov	DWORD PTR tv94[ebp], 0
	jmp	SHORT $LN18@Insert_n@2
$LN17@Insert_n@2:
	mov	edx, DWORD PTR __Capacity$[ebp]
	shr	edx, 1
	add	edx, DWORD PTR __Capacity$[ebp]
	mov	DWORD PTR tv94[ebp], edx
$LN18@Insert_n@2:
	mov	eax, DWORD PTR tv94[ebp]
	mov	DWORD PTR __Capacity$[ebp], eax

; 1136 : 			if (_Capacity < size() + _Count)

	mov	ecx, DWORD PTR _this$[ebp]
	call	?size@?$vector@VAllocatedMemoryBlock@@V?$allocator@VAllocatedMemoryBlock@@@std@@@std@@QBEIXZ ; std::vector<AllocatedMemoryBlock,std::allocator<AllocatedMemoryBlock> >::size
	add	eax, DWORD PTR __Count$[ebp]
	cmp	DWORD PTR __Capacity$[ebp], eax
	jae	SHORT $LN7@Insert_n@2

; 1137 : 				_Capacity = size() + _Count;

	mov	ecx, DWORD PTR _this$[ebp]
	call	?size@?$vector@VAllocatedMemoryBlock@@V?$allocator@VAllocatedMemoryBlock@@@std@@@std@@QBEIXZ ; std::vector<AllocatedMemoryBlock,std::allocator<AllocatedMemoryBlock> >::size
	add	eax, DWORD PTR __Count$[ebp]
	mov	DWORD PTR __Capacity$[ebp], eax
$LN7@Insert_n@2:

; 1138 : 			pointer _Newvec = this->_Alval.allocate(_Capacity);

	mov	ecx, DWORD PTR __Capacity$[ebp]
	push	ecx
	mov	ecx, DWORD PTR _this$[ebp]
	add	ecx, 4
	call	?allocate@?$allocator@VAllocatedMemoryBlock@@@std@@QAEPAVAllocatedMemoryBlock@@I@Z ; std::allocator<AllocatedMemoryBlock>::allocate
	mov	DWORD PTR __Newvec$14483[ebp], eax

; 1139 : 			pointer _Ptr = _Newvec;

	mov	edx, DWORD PTR __Newvec$14483[ebp]
	mov	DWORD PTR __Ptr$14484[ebp], edx

; 1140 : 
; 1141 : 			_TRY_BEGIN

	mov	BYTE PTR __$EHRec$[ebp+12], 1

; 1142 : 			_Ptr = _Umove(_Myfirst, _VEC_ITER_BASE(_Where),
