; Listing generated by Microsoft (R) Optimizing Compiler Version 14.00.50727.762 

	TITLE	c:\NuanceExperimental\nativecodecache.cpp
	.686P
	.XMM
	include listing.inc
	.model	flat

INCLUDELIB LIBCMTD
INCLUDELIB OLDNAMES

PUBLIC	??0PatchManager@@QAE@XZ				; PatchManager::PatchManager
PUBLIC	__real@3fef0a3d70a3d70a
PUBLIC	??0NativeCodeCache@@QAE@III@Z			; NativeCodeCache::NativeCodeCache
EXTRN	??3@YAXPAX@Z:PROC				; operator delete
EXTRN	__imp__VirtualAlloc@16:PROC
EXTRN	??0PageMap@@QAE@XZ:PROC				; PageMap::PageMap
EXTRN	??2@YAPAXI@Z:PROC				; operator new
EXTRN	___CxxFrameHandler3:PROC
EXTRN	__fltused:DWORD
EXTRN	__RTC_CheckEsp:PROC
EXTRN	__RTC_Shutdown:PROC
EXTRN	__RTC_InitBase:PROC
;	COMDAT __real@3fef0a3d70a3d70a
; File c:\nuanceexperimental\nativecodecache.cpp
CONST	SEGMENT
__real@3fef0a3d70a3d70a DQ 03fef0a3d70a3d70ar	; 0.97
CONST	ENDS
xdata$x	SEGMENT
__unwindtable$??0NativeCodeCache@@QAE@III@Z DD 0ffffffffH
	DD	FLAT:__unwindfunclet$??0NativeCodeCache@@QAE@III@Z$0
	DD	0ffffffffH
	DD	FLAT:__unwindfunclet$??0NativeCodeCache@@QAE@III@Z$1
__ehfuncinfo$??0NativeCodeCache@@QAE@III@Z DD 019930522H
	DD	02H
	DD	FLAT:__unwindtable$??0NativeCodeCache@@QAE@III@Z
	DD	2 DUP(00H)
	DD	2 DUP(00H)
	DD	00H
	DD	01H
xdata$x	ENDS
;	COMDAT rtc$TMZ
rtc$TMZ	SEGMENT
__RTC_Shutdown.rtc$TMZ DD FLAT:__RTC_Shutdown
rtc$TMZ	ENDS
;	COMDAT rtc$IMZ
rtc$IMZ	SEGMENT
__RTC_InitBase.rtc$IMZ DD FLAT:__RTC_InitBase
; Function compile flags: /Odtp /RTCsu
rtc$IMZ	ENDS
_TEXT	SEGMENT
tv154 = -156						; size = 4
tv233 = -152						; size = 8
tv231 = -144						; size = 4
tv228 = -138						; size = 2
tv225 = -136						; size = 8
tv221 = -128						; size = 8
tv217 = -120						; size = 8
tv215 = -112						; size = 4
tv212 = -106						; size = 2
tv208 = -104						; size = 8
tv193 = -96						; size = 8
tv191 = -88						; size = 4
tv188 = -82						; size = 2
tv185 = -80						; size = 8
tv181 = -72						; size = 8
tv177 = -64						; size = 8
tv175 = -56						; size = 4
tv172 = -50						; size = 2
tv168 = -48						; size = 8
tv73 = -40						; size = 4
$T63588 = -36						; size = 4
$T63587 = -32						; size = 4
$T63584 = -28						; size = 4
$T63583 = -24						; size = 4
_i$ = -20						; size = 4
_this$ = -16						; size = 4
__$EHRec$ = -12						; size = 12
_numBytes$ = 8						; size = 4
_warningThreshold$ = 12					; size = 4
_desiredTLBEntries$ = 16				; size = 4
??0NativeCodeCache@@QAE@III@Z PROC			; NativeCodeCache::NativeCodeCache
; _this$ = ecx

; 11   : {

	push	ebp
	mov	ebp, esp
	push	-1
	push	__ehhandler$??0NativeCodeCache@@QAE@III@Z
	mov	eax, DWORD PTR fs:0
	push	eax
	mov	DWORD PTR fs:0, esp
	sub	esp, 144				; 00000090H
	push	esi
	push	edi
	push	ecx
	lea	edi, DWORD PTR [ebp-156]
	mov	ecx, 36					; 00000024H
	mov	eax, -858993460				; ccccccccH
	rep stosd
	pop	ecx
	mov	DWORD PTR _this$[ebp], ecx

; 12   :   uint32 i = desiredTLBEntries - 1;

	mov	eax, DWORD PTR _desiredTLBEntries$[ebp]
	sub	eax, 1
	mov	DWORD PTR _i$[ebp], eax

; 13   : 
; 14   :   pageMap = new PageMap;

	push	2048					; 00000800H
	call	??2@YAPAXI@Z				; operator new
	add	esp, 4
	mov	DWORD PTR $T63584[ebp], eax
	mov	DWORD PTR __$EHRec$[ebp+8], 0
	cmp	DWORD PTR $T63584[ebp], 0
	je	SHORT $LN11@NativeCode
	mov	ecx, DWORD PTR $T63584[ebp]
	call	??0PageMap@@QAE@XZ			; PageMap::PageMap
	mov	DWORD PTR tv73[ebp], eax
	jmp	SHORT $LN12@NativeCode
$LN11@NativeCode:
	mov	DWORD PTR tv73[ebp], 0
$LN12@NativeCode:
	mov	ecx, DWORD PTR tv73[ebp]
	mov	DWORD PTR $T63583[ebp], ecx
	mov	DWORD PTR __$EHRec$[ebp+8], -1
	mov	edx, DWORD PTR _this$[ebp]
	mov	eax, DWORD PTR $T63583[ebp]
	mov	DWORD PTR [edx+12], eax

; 15   : 
; 16   :   if(numBytes == 0)

	cmp	DWORD PTR _numBytes$[ebp], 0
	jne	SHORT $LN8@NativeCode

; 17   :   {
; 18   :     numBytes = DEFAULT_CODE_BUFFER_BYTES;

	mov	DWORD PTR _numBytes$[ebp], 8388608	; 00800000H
$LN8@NativeCode:

; 19   :   }
; 20   : 
; 21   :   numTLBEntries = desiredTLBEntries;

	mov	ecx, DWORD PTR _this$[ebp]
	mov	edx, DWORD PTR _desiredTLBEntries$[ebp]
	mov	DWORD PTR [ecx+24], edx

; 22   : 
; 23   :   if(desiredTLBEntries == 0)

	cmp	DWORD PTR _desiredTLBEntries$[ebp], 0
	jne	SHORT $LN7@NativeCode

; 24   :   {
; 25   :     numTLBEntries = DEFAULT_NUM_TLB_ENTRIES;

	mov	eax, DWORD PTR _this$[ebp]
	mov	DWORD PTR [eax+24], 16384		; 00004000H
$LN7@NativeCode:

; 26   :   }
; 27   : 
; 28   :   if(warningThreshold == 0)

	cmp	DWORD PTR _warningThreshold$[ebp], 0
	jne	SHORT $LN6@NativeCode

; 29   :   {
; 30   :     this->warningThreshold = (uint32)(0.97 * numBytes); 

	mov	ecx, DWORD PTR _numBytes$[ebp]
	mov	DWORD PTR tv168[ebp], ecx
	mov	DWORD PTR tv168[ebp+4], 0
	fild	QWORD PTR tv168[ebp]
	fmul	QWORD PTR __real@3fef0a3d70a3d70a
	fnstcw	WORD PTR tv172[ebp]
	movzx	eax, WORD PTR tv172[ebp]
	or	eax, 3072				; 00000c00H
	mov	DWORD PTR tv175[ebp], eax
	fldcw	WORD PTR tv175[ebp]
	fistp	QWORD PTR tv177[ebp]
	fldcw	WORD PTR tv172[ebp]
	mov	edx, DWORD PTR tv177[ebp]
	mov	eax, DWORD PTR _this$[ebp]
	mov	DWORD PTR [eax+16], edx

; 31   :   }
; 32   :   else

	jmp	SHORT $LN5@NativeCode
$LN6@NativeCode:

; 33   :   {
; 34   :     this->warningThreshold = (uint32)((double)warningThreshold/(double)numBytes) * numBytes;

	mov	ecx, DWORD PTR _warningThreshold$[ebp]
	mov	DWORD PTR tv181[ebp], ecx
	mov	DWORD PTR tv181[ebp+4], 0
	fild	QWORD PTR tv181[ebp]
	mov	edx, DWORD PTR _numBytes$[ebp]
	mov	DWORD PTR tv185[ebp], edx
	mov	DWORD PTR tv185[ebp+4], 0
	fild	QWORD PTR tv185[ebp]
	fdivp	ST(1), ST(0)
	fnstcw	WORD PTR tv188[ebp]
	movzx	eax, WORD PTR tv188[ebp]
	or	eax, 3072				; 00000c00H
	mov	DWORD PTR tv191[ebp], eax
	fldcw	WORD PTR tv191[ebp]
	fistp	QWORD PTR tv193[ebp]
	fldcw	WORD PTR tv188[ebp]
	mov	eax, DWORD PTR tv193[ebp]
	imul	eax, DWORD PTR _numBytes$[ebp]
	mov	ecx, DWORD PTR _this$[ebp]
	mov	DWORD PTR [ecx+16], eax
$LN5@NativeCode:

; 35   :   }
; 36   : 
; 37   :   ptrNativeCodeBuffer = (uint8 *)VirtualAlloc(NULL,numBytes,MEM_COMMIT,PAGE_EXECUTE_READWRITE);

	mov	esi, esp
	push	64					; 00000040H
	push	4096					; 00001000H
	mov	edx, DWORD PTR _numBytes$[ebp]
	push	edx
	push	0
	call	DWORD PTR __imp__VirtualAlloc@16
	cmp	esi, esp
	call	__RTC_CheckEsp
	mov	ecx, DWORD PTR _this$[ebp]
	mov	DWORD PTR [ecx+8], eax

; 38   :   pEmitLoc = ptrNativeCodeBuffer;

	mov	edx, DWORD PTR _this$[ebp]
	mov	eax, DWORD PTR _this$[ebp]
	mov	ecx, DWORD PTR [eax+8]
	mov	DWORD PTR [edx+4], ecx

; 39   : 
; 40   :   if(ptrNativeCodeBuffer)

	mov	edx, DWORD PTR _this$[ebp]
	cmp	DWORD PTR [edx+8], 0
	je	$LN4@NativeCode

; 41   :   {
; 42   :     this->numBytes = numBytes;

	mov	eax, DWORD PTR _this$[ebp]
	mov	ecx, DWORD PTR _numBytes$[ebp]
	mov	DWORD PTR [eax+20], ecx

; 43   :     if(warningThreshold == 0)

	cmp	DWORD PTR _warningThreshold$[ebp], 0
	jne	SHORT $LN3@NativeCode

; 44   :     {
; 45   :       this->warningThreshold = (uint32)(0.97 * numBytes); 

	mov	edx, DWORD PTR _numBytes$[ebp]
	mov	DWORD PTR tv208[ebp], edx
	mov	DWORD PTR tv208[ebp+4], 0
	fild	QWORD PTR tv208[ebp]
	fmul	QWORD PTR __real@3fef0a3d70a3d70a
	fnstcw	WORD PTR tv212[ebp]
	movzx	eax, WORD PTR tv212[ebp]
	or	eax, 3072				; 00000c00H
	mov	DWORD PTR tv215[ebp], eax
	fldcw	WORD PTR tv215[ebp]
	fistp	QWORD PTR tv217[ebp]
	fldcw	WORD PTR tv212[ebp]
	mov	eax, DWORD PTR tv217[ebp]
	mov	ecx, DWORD PTR _this$[ebp]
	mov	DWORD PTR [ecx+16], eax

; 46   :     }
; 47   :     else

	jmp	SHORT $LN2@NativeCode
$LN3@NativeCode:

; 48   :     {
; 49   :       this->warningThreshold = (uint32)((double)warningThreshold/(double)numBytes) * numBytes;

	mov	edx, DWORD PTR _warningThreshold$[ebp]
	mov	DWORD PTR tv221[ebp], edx
	mov	DWORD PTR tv221[ebp+4], 0
	fild	QWORD PTR tv221[ebp]
	mov	eax, DWORD PTR _numBytes$[ebp]
	mov	DWORD PTR tv225[ebp], eax
	mov	DWORD PTR tv225[ebp+4], 0
	fild	QWORD PTR tv225[ebp]
	fdivp	ST(1), ST(0)
	fnstcw	WORD PTR tv228[ebp]
	movzx	eax, WORD PTR tv228[ebp]
	or	eax, 3072				; 00000c00H
	mov	DWORD PTR tv231[ebp], eax
	fldcw	WORD PTR tv231[ebp]
	fistp	QWORD PTR tv233[ebp]
	fldcw	WORD PTR tv228[ebp]
	mov	ecx, DWORD PTR tv233[ebp]
	imul	ecx, DWORD PTR _numBytes$[ebp]
	mov	edx, DWORD PTR _this$[ebp]
	mov	DWORD PTR [edx+16], ecx
$LN2@NativeCode:

; 50   :     }
; 51   :   }
; 52   :   else

	jmp	SHORT $LN1@NativeCode
$LN4@NativeCode:

; 53   :   {
; 54   :     numBytes = 0;

	mov	DWORD PTR _numBytes$[ebp], 0

; 55   :     this->warningThreshold = 0;

	mov	eax, DWORD PTR _this$[ebp]
	mov	DWORD PTR [eax+16], 0
$LN1@NativeCode:

; 56   :   }
; 57   : 
; 58   :   patchMgr = new PatchManager();

	push	1288					; 00000508H
	call	??2@YAPAXI@Z				; operator new
	add	esp, 4
	mov	DWORD PTR $T63588[ebp], eax
	mov	DWORD PTR __$EHRec$[ebp+8], 1
	cmp	DWORD PTR $T63588[ebp], 0
	je	SHORT $LN13@NativeCode
	mov	ecx, DWORD PTR $T63588[ebp]
	call	??0PatchManager@@QAE@XZ			; PatchManager::PatchManager
	mov	DWORD PTR tv154[ebp], eax
	jmp	SHORT $LN14@NativeCode
$LN13@NativeCode:
	mov	DWORD PTR tv154[ebp], 0
$LN14@NativeCode:
	mov	ecx, DWORD PTR tv154[ebp]
	mov	DWORD PTR $T63587[ebp], ecx
	mov	DWORD PTR __$EHRec$[ebp+8], -1
	mov	edx, DWORD PTR _this$[ebp]
	mov	eax, DWORD PTR $T63587[ebp]
	mov	DWORD PTR [edx], eax

; 59   : }

	mov	eax, DWORD PTR _this$[ebp]
	mov	ecx, DWORD PTR __$EHRec$[ebp]
	mov	DWORD PTR fs:0, ecx
	pop	edi
	pop	esi
	add	esp, 156				; 0000009cH
	cmp	ebp, esp
	call	__RTC_CheckEsp
	mov	esp, ebp
	pop	ebp
	ret	12					; 0000000cH
_TEXT	ENDS
text$x	SEGMENT
__unwindfunclet$??0NativeCodeCache@@QAE@III@Z$0:
	mov	eax, DWORD PTR $T63584[ebp]
	push	eax
	call	??3@YAXPAX@Z				; operator delete
	pop	ecx
	ret	0
__unwindfunclet$??0NativeCodeCache@@QAE@III@Z$1:
	mov	eax, DWORD PTR $T63588[ebp]
	push	eax
	call	??3@YAXPAX@Z				; operator delete
	pop	ecx
	ret	0
__ehhandler$??0NativeCodeCache@@QAE@III@Z:
	mov	eax, OFFSET __ehfuncinfo$??0NativeCodeCache@@QAE@III@Z
	jmp	___CxxFrameHandler3
text$x	ENDS
??0NativeCodeCache@@QAE@III@Z ENDP			; NativeCodeCache::NativeCodeCache
; Function compile flags: /Odtp /RTCsu
; File c:\nuanceexperimental\patchmanager.h
;	COMDAT ??0PatchManager@@QAE@XZ
_TEXT	SEGMENT
_this$ = -4						; size = 4
??0PatchManager@@QAE@XZ PROC				; PatchManager::PatchManager, COMDAT
; _this$ = ecx

; 35   :   PatchManager()

	push	ebp
	mov	ebp, esp
	push	ecx
	mov	DWORD PTR [ebp-4], -858993460		; ccccccccH
	mov	DWORD PTR _this$[ebp], ecx

; 36   :   {
; 37   :     numPatches = 0;

	mov	eax, DWORD PTR _this$[ebp]
	mov	DWORD PTR [eax+1280], 0

; 38   :     numLabels = 0;

	mov	ecx, DWORD PTR _this$[ebp]
	mov	DWORD PTR [ecx+1284], 0

; 39   :   }

	mov	eax, DWORD PTR _this$[ebp]
	mov	esp, ebp
	pop	ebp
	ret	0
??0PatchManager@@QAE@XZ ENDP				; PatchManager::PatchManager
_TEXT	ENDS
PUBLIC	??_GPageMap@@QAEPAXI@Z				; PageMap::`scalar deleting destructor'
PUBLIC	??1NativeCodeCache@@QAE@XZ			; NativeCodeCache::~NativeCodeCache
EXTRN	__imp__VirtualFree@12:PROC
; Function compile flags: /Odtp /RTCsu
; File c:\nuanceexperimental\nativecodecache.cpp
_TEXT	SEGMENT
tv71 = -20						; size = 4
$T63617 = -16						; size = 4
$T63614 = -12						; size = 4
$T63613 = -8						; size = 4
_this$ = -4						; size = 4
??1NativeCodeCache@@QAE@XZ PROC				; NativeCodeCache::~NativeCodeCache
; _this$ = ecx

; 62   : {

	push	ebp
	mov	ebp, esp
	sub	esp, 20					; 00000014H
	push	esi
	mov	eax, -858993460				; ccccccccH
	mov	DWORD PTR [ebp-20], eax
	mov	DWORD PTR [ebp-16], eax
	mov	DWORD PTR [ebp-12], eax
	mov	DWORD PTR [ebp-8], eax
	mov	DWORD PTR [ebp-4], eax
	mov	DWORD PTR _this$[ebp], ecx

; 63   :   if(pageMap)

	mov	eax, DWORD PTR _this$[ebp]
	cmp	DWORD PTR [eax+12], 0
	je	SHORT $LN3@NativeCode@2

; 64   :   {
; 65   :     delete pageMap;

	mov	ecx, DWORD PTR _this$[ebp]
	mov	edx, DWORD PTR [ecx+12]
	mov	DWORD PTR $T63614[ebp], edx
	mov	eax, DWORD PTR $T63614[ebp]
	mov	DWORD PTR $T63613[ebp], eax
	cmp	DWORD PTR $T63613[ebp], 0
	je	SHORT $LN6@NativeCode@2
	push	1
	mov	ecx, DWORD PTR $T63613[ebp]
	call	??_GPageMap@@QAEPAXI@Z
	mov	DWORD PTR tv71[ebp], eax
	jmp	SHORT $LN3@NativeCode@2
$LN6@NativeCode@2:
	mov	DWORD PTR tv71[ebp], 0
$LN3@NativeCode@2:

; 66   :   }
; 67   : 
; 68   :   if(ptrNativeCodeBuffer)

	mov	ecx, DWORD PTR _this$[ebp]
	cmp	DWORD PTR [ecx+8], 0
	je	SHORT $LN2@NativeCode@2

; 69   :   {
; 70   :     VirtualFree(ptrNativeCodeBuffer,0,MEM_RELEASE);

	mov	esi, esp
	push	32768					; 00008000H
	push	0
	mov	edx, DWORD PTR _this$[ebp]
	mov	eax, DWORD PTR [edx+8]
	push	eax
	call	DWORD PTR __imp__VirtualFree@12
	cmp	esi, esp
	call	__RTC_CheckEsp
$LN2@NativeCode@2:

; 71   :   }
; 72   : 
; 73   :   if(patchMgr)

	mov	ecx, DWORD PTR _this$[ebp]
	cmp	DWORD PTR [ecx], 0
	je	SHORT $LN4@NativeCode@2

; 74   :   {
; 75   :     delete patchMgr;

	mov	edx, DWORD PTR _this$[ebp]
	mov	eax, DWORD PTR [edx]
	mov	DWORD PTR $T63617[ebp], eax
	mov	ecx, DWORD PTR $T63617[ebp]
	push	ecx
	call	??3@YAXPAX@Z				; operator delete
	add	esp, 4
$LN4@NativeCode@2:

; 76   :   }
; 77   : }

	pop	esi
	add	esp, 20					; 00000014H
	cmp	ebp, esp
	call	__RTC_CheckEsp
	mov	esp, ebp
	pop	ebp
	ret	0
??1NativeCodeCache@@QAE@XZ ENDP				; NativeCodeCache::~NativeCodeCache
_TEXT	ENDS
EXTRN	??1PageMap@@QAE@XZ:PROC				; PageMap::~PageMap
; Function compile flags: /Odtp /RTCsu
;	COMDAT ??_GPageMap@@QAEPAXI@Z
_TEXT	SEGMENT
_this$ = -4						; size = 4
___flags$ = 8						; size = 4
??_GPageMap@@QAEPAXI@Z PROC				; PageMap::`scalar deleting destructor', COMDAT
; _this$ = ecx
	push	ebp
	mov	ebp, esp
	push	ecx
	mov	DWORD PTR [ebp-4], -858993460		; ccccccccH
	mov	DWORD PTR _this$[ebp], ecx
	mov	ecx, DWORD PTR _this$[ebp]
	call	??1PageMap@@QAE@XZ			; PageMap::~PageMap
	mov	eax, DWORD PTR ___flags$[ebp]
	and	eax, 1
	je	SHORT $LN1@scalar
	mov	ecx, DWORD PTR _this$[ebp]
	push	ecx
	call	??3@YAXPAX@Z				; operator delete
	add	esp, 4
$LN1@scalar:
	mov	eax, DWORD PTR _this$[ebp]
	add	esp, 4
	cmp	ebp, esp
	call	__RTC_CheckEsp
	mov	esp, ebp
	pop	ebp
	ret	4
??_GPageMap@@QAEPAXI@Z ENDP				; PageMap::`scalar deleting destructor'
_TEXT	ENDS
PUBLIC	?FindNativeCodeCacheEntry@NativeCodeCache@@QAEPAVNativeCodeCacheEntry@@I@Z ; NativeCodeCache::FindNativeCodeCacheEntry
EXTRN	?FindEntry@PageMap@@QAEPAVNativeCodeCacheEntry@@I@Z:PROC ; PageMap::FindEntry
; Function compile flags: /Odtp /RTCsu
_TEXT	SEGMENT
_pEntry$ = -8						; size = 4
_this$ = -4						; size = 4
_virtualAddress$ = 8					; size = 4
?FindNativeCodeCacheEntry@NativeCodeCache@@QAEPAVNativeCodeCacheEntry@@I@Z PROC ; NativeCodeCache::FindNativeCodeCacheEntry
; _this$ = ecx

; 80   : {

	push	ebp
	mov	ebp, esp
	sub	esp, 8
	mov	DWORD PTR [ebp-8], -858993460		; ccccccccH
	mov	DWORD PTR [ebp-4], -858993460		; ccccccccH
	mov	DWORD PTR _this$[ebp], ecx

; 81   :   NativeCodeCacheEntry *pEntry = pageMap->FindEntry(virtualAddress);

	mov	eax, DWORD PTR _virtualAddress$[ebp]
	push	eax
	mov	ecx, DWORD PTR _this$[ebp]
	mov	ecx, DWORD PTR [ecx+12]
	call	?FindEntry@PageMap@@QAEPAVNativeCodeCacheEntry@@I@Z ; PageMap::FindEntry
	mov	DWORD PTR _pEntry$[ebp], eax

; 82   : 
; 83   :   if(pEntry)

	cmp	DWORD PTR _pEntry$[ebp], 0
	je	SHORT $LN2@FindNative

; 84   :   {
; 85   :     if(pEntry->virtualAddress == virtualAddress)

	mov	edx, DWORD PTR _pEntry$[ebp]
	mov	eax, DWORD PTR [edx+4]
	cmp	eax, DWORD PTR _virtualAddress$[ebp]
	jne	SHORT $LN2@FindNative

; 86   :     {
; 87   :       return pEntry;

	mov	eax, DWORD PTR _pEntry$[ebp]
	jmp	SHORT $LN3@FindNative
$LN2@FindNative:

; 88   :     }
; 89   :   }
; 90   :   return 0;

	xor	eax, eax
$LN3@FindNative:

; 91   : }

	add	esp, 8
	cmp	ebp, esp
	call	__RTC_CheckEsp
	mov	esp, ebp
	pop	ebp
	ret	4
?FindNativeCodeCacheEntry@NativeCodeCache@@QAEPAVNativeCodeCacheEntry@@I@Z ENDP ; NativeCodeCache::FindNativeCodeCacheEntry
_TEXT	ENDS
PUBLIC	?GetUsedCodeBufferSize@NativeCodeCache@@QAEIXZ	; NativeCodeCache::GetUsedCodeBufferSize
PUBLIC	?ReleaseBuffer@NativeCodeCache@@QAE_NP6AXXZIIIIIW4SuperBlockCompileType@@II@Z ; NativeCodeCache::ReleaseBuffer
EXTRN	?UpdateEntry@PageMap@@QAEXIAAVNativeCodeCacheEntry@@@Z:PROC ; PageMap::UpdateEntry
EXTRN	@_RTC_CheckStackVars@8:PROC
; Function compile flags: /Odtp /RTCsu
_TEXT	SEGMENT
_address$ = -52						; size = 4
_newEntry$ = -44					; size = 36
_this$ = -4						; size = 4
_entryPoint$ = 8					; size = 4
_virtualAddress$ = 12					; size = 4
_nextVirtualAddress$ = 16				; size = 4
_newUsedBytes$ = 20					; size = 4
_packetCount$ = 24					; size = 4
_instructionCount$ = 28					; size = 4
_compileType$ = 32					; size = 4
_nextDelayCount$ = 36					; size = 4
_alignment$ = 40					; size = 4
?ReleaseBuffer@NativeCodeCache@@QAE_NP6AXXZIIIIIW4SuperBlockCompileType@@II@Z PROC ; NativeCodeCache::ReleaseBuffer
; _this$ = ecx

; 94   : {

	push	ebp
	mov	ebp, esp
	sub	esp, 52					; 00000034H
	push	edi
	push	ecx
	lea	edi, DWORD PTR [ebp-52]
	mov	ecx, 13					; 0000000dH
	mov	eax, -858993460				; ccccccccH
	rep stosd
	pop	ecx
	mov	DWORD PTR _this$[ebp], ecx

; 95   :   NativeCodeCacheEntry newEntry;
; 96   :   uint32 address;
; 97   : 
; 98   :   newEntry.entryPoint = entryPoint;

	mov	eax, DWORD PTR _entryPoint$[ebp]
	mov	DWORD PTR _newEntry$[ebp], eax

; 99   :   newEntry.virtualAddress = virtualAddress;

	mov	ecx, DWORD PTR _virtualAddress$[ebp]
	mov	DWORD PTR _newEntry$[ebp+4], ecx

; 100  :   newEntry.nextVirtualAddress = nextVirtualAddress;

	mov	edx, DWORD PTR _nextVirtualAddress$[ebp]
	mov	DWORD PTR _newEntry$[ebp+20], edx

; 101  :   newEntry.codeSize = newUsedBytes;

	mov	eax, DWORD PTR _newUsedBytes$[ebp]
	mov	DWORD PTR _newEntry$[ebp+28], eax

; 102  :   newEntry.numPackets = packetCount;

	mov	ecx, DWORD PTR _packetCount$[ebp]
	mov	DWORD PTR _newEntry$[ebp+12], ecx

; 103  :   newEntry.numInstructions = instructionCount;

	mov	edx, DWORD PTR _instructionCount$[ebp]
	mov	DWORD PTR _newEntry$[ebp+16], edx

; 104  :   newEntry.compileType = compileType;

	mov	eax, DWORD PTR _compileType$[ebp]
	mov	DWORD PTR _newEntry$[ebp+8], eax

; 105  :   newEntry.nextBranchDelayCount = nextDelayCount;

	mov	ecx, DWORD PTR _nextDelayCount$[ebp]
	mov	DWORD PTR _newEntry$[ebp+24], ecx

; 106  :   newEntry.accessCount = 0;

	mov	DWORD PTR _newEntry$[ebp+32], 0

; 107  : 
; 108  :   pageMap->UpdateEntry(virtualAddress,newEntry);

	lea	edx, DWORD PTR _newEntry$[ebp]
	push	edx
	mov	eax, DWORD PTR _virtualAddress$[ebp]
	push	eax
	mov	ecx, DWORD PTR _this$[ebp]
	mov	ecx, DWORD PTR [ecx+12]
	call	?UpdateEntry@PageMap@@QAEXIAAVNativeCodeCacheEntry@@@Z ; PageMap::UpdateEntry

; 109  :   pEmitLoc = ((uint8 *)entryPoint) + newUsedBytes;

	mov	edx, DWORD PTR _entryPoint$[ebp]
	add	edx, DWORD PTR _newUsedBytes$[ebp]
	mov	eax, DWORD PTR _this$[ebp]
	mov	DWORD PTR [eax+4], edx

; 110  : 
; 111  :   if(alignment)

	cmp	DWORD PTR _alignment$[ebp], 0
	je	SHORT $LN1@ReleaseBuf

; 112  :   {
; 113  :     address = (uint32)pEmitLoc;

	mov	ecx, DWORD PTR _this$[ebp]
	mov	edx, DWORD PTR [ecx+4]
	mov	DWORD PTR _address$[ebp], edx

; 114  :     address = ((address + ((1 << alignment) - 1)) & ~((1 << alignment) - 1));

	mov	eax, 1
	mov	ecx, DWORD PTR _alignment$[ebp]
	shl	eax, cl
	mov	ecx, DWORD PTR _address$[ebp]
	lea	edx, DWORD PTR [ecx+eax-1]
	mov	eax, 1
	mov	ecx, DWORD PTR _alignment$[ebp]
	shl	eax, cl
	sub	eax, 1
	not	eax
	and	edx, eax
	mov	DWORD PTR _address$[ebp], edx

; 115  :     pEmitLoc = (uint8 *)address;

	mov	ecx, DWORD PTR _this$[ebp]
	mov	edx, DWORD PTR _address$[ebp]
	mov	DWORD PTR [ecx+4], edx
$LN1@ReleaseBuf:

; 116  :   }
; 117  : 
; 118  :   return GetUsedCodeBufferSize() > warningThreshold;

	mov	ecx, DWORD PTR _this$[ebp]
	call	?GetUsedCodeBufferSize@NativeCodeCache@@QAEIXZ ; NativeCodeCache::GetUsedCodeBufferSize
	mov	ecx, DWORD PTR _this$[ebp]
	cmp	DWORD PTR [ecx+16], eax
	sbb	eax, eax
	neg	eax

; 119  : }

	push	edx
	mov	ecx, ebp
	push	eax
	lea	edx, DWORD PTR $LN6@ReleaseBuf
	call	@_RTC_CheckStackVars@8
	pop	eax
	pop	edx
	pop	edi
	add	esp, 52					; 00000034H
	cmp	ebp, esp
	call	__RTC_CheckEsp
	mov	esp, ebp
	pop	ebp
	ret	36					; 00000024H
	npad	2
$LN6@ReleaseBuf:
	DD	1
	DD	$LN5@ReleaseBuf
$LN5@ReleaseBuf:
	DD	-44					; ffffffd4H
	DD	36					; 00000024H
	DD	$LN4@ReleaseBuf
$LN4@ReleaseBuf:
	DB	110					; 0000006eH
	DB	101					; 00000065H
	DB	119					; 00000077H
	DB	69					; 00000045H
	DB	110					; 0000006eH
	DB	116					; 00000074H
	DB	114					; 00000072H
	DB	121					; 00000079H
	DB	0
?ReleaseBuffer@NativeCodeCache@@QAE_NP6AXXZIIIIIW4SuperBlockCompileType@@II@Z ENDP ; NativeCodeCache::ReleaseBuffer
; Function compile flags: /Odtp /RTCsu
; File c:\nuanceexperimental\nativecodecache.h
_TEXT	ENDS
;	COMDAT ?GetUsedCodeBufferSize@NativeCodeCache@@QAEIXZ
_TEXT	SEGMENT
_this$ = -4						; size = 4
?GetUsedCodeBufferSize@NativeCodeCache@@QAEIXZ PROC	; NativeCodeCache::GetUsedCodeBufferSize, COMDAT
; _this$ = ecx

; 77   :   {

	push	ebp
	mov	ebp, esp
	push	ecx
	mov	DWORD PTR [ebp-4], -858993460		; ccccccccH
	mov	DWORD PTR _this$[ebp], ecx

; 78   :     return (uint32)(pEmitLoc - ptrNativeCodeBuffer);

	mov	eax, DWORD PTR _this$[ebp]
	mov	ecx, DWORD PTR _this$[ebp]
	mov	eax, DWORD PTR [eax+4]
	sub	eax, DWORD PTR [ecx+8]

; 79   :   }

	mov	esp, ebp
	pop	ebp
	ret	0
?GetUsedCodeBufferSize@NativeCodeCache@@QAEIXZ ENDP	; NativeCodeCache::GetUsedCodeBufferSize
_TEXT	ENDS
PUBLIC	?Flush@NativeCodeCache@@QAEXXZ			; NativeCodeCache::Flush
EXTRN	?Invalidate@PageMap@@QAEIXZ:PROC		; PageMap::Invalidate
; Function compile flags: /Odtp /RTCsu
; File c:\nuanceexperimental\nativecodecache.cpp
_TEXT	SEGMENT
_this$ = -4						; size = 4
?Flush@NativeCodeCache@@QAEXXZ PROC			; NativeCodeCache::Flush
; _this$ = ecx

; 123  : {

	push	ebp
	mov	ebp, esp
	push	ecx
	mov	DWORD PTR [ebp-4], -858993460		; ccccccccH
	mov	DWORD PTR _this$[ebp], ecx

; 124  :   pageMap->Invalidate();

	mov	eax, DWORD PTR _this$[ebp]
	mov	ecx, DWORD PTR [eax+12]
	call	?Invalidate@PageMap@@QAEIXZ		; PageMap::Invalidate

; 125  :   pEmitLoc = ptrNativeCodeBuffer;

	mov	ecx, DWORD PTR _this$[ebp]
	mov	edx, DWORD PTR _this$[ebp]
	mov	eax, DWORD PTR [edx+8]
	mov	DWORD PTR [ecx+4], eax

; 126  : }

	add	esp, 4
	cmp	ebp, esp
	call	__RTC_CheckEsp
	mov	esp, ebp
	pop	ebp
	ret	0
?Flush@NativeCodeCache@@QAEXXZ ENDP			; NativeCodeCache::Flush
_TEXT	ENDS
PUBLIC	?FlushRegion@NativeCodeCache@@QAEXII@Z		; NativeCodeCache::FlushRegion
EXTRN	?InvalidateRegion@PageMap@@QAEXII@Z:PROC	; PageMap::InvalidateRegion
; Function compile flags: /Odtp /RTCsu
_TEXT	SEGMENT
_this$ = -4						; size = 4
_start$ = 8						; size = 4
_end$ = 12						; size = 4
?FlushRegion@NativeCodeCache@@QAEXII@Z PROC		; NativeCodeCache::FlushRegion
; _this$ = ecx

; 129  : {

	push	ebp
	mov	ebp, esp
	push	ecx
	mov	DWORD PTR [ebp-4], -858993460		; ccccccccH
	mov	DWORD PTR _this$[ebp], ecx

; 130  :   pageMap->InvalidateRegion(start, end);

	mov	eax, DWORD PTR _end$[ebp]
	push	eax
	mov	ecx, DWORD PTR _start$[ebp]
	push	ecx
	mov	edx, DWORD PTR _this$[ebp]
	mov	ecx, DWORD PTR [edx+12]
	call	?InvalidateRegion@PageMap@@QAEXII@Z	; PageMap::InvalidateRegion

; 131  : }

	add	esp, 4
	cmp	ebp, esp
	call	__RTC_CheckEsp
	mov	esp, ebp
	pop	ebp
	ret	8
?FlushRegion@NativeCodeCache@@QAEXII@Z ENDP		; NativeCodeCache::FlushRegion
_TEXT	ENDS
PUBLIC	?X86Emit_ModRegRM@NativeCodeCache@@QAEXW4x86ModType@@W4x86ModReg@@IW4x86IndexReg@@W4x86ScaleVal@@H@Z ; NativeCodeCache::X86Emit_ModRegRM
; Function compile flags: /Odtp /RTCsu
_TEXT	SEGMENT
_this$ = -4						; size = 4
_modType$ = 8						; size = 4
_regSpare$ = 12						; size = 4
_base$ = 16						; size = 4
_index$ = 20						; size = 4
_scale$ = 24						; size = 4
_disp$ = 28						; size = 4
?X86Emit_ModRegRM@NativeCodeCache@@QAEXW4x86ModType@@W4x86ModReg@@IW4x86IndexReg@@W4x86ScaleVal@@H@Z PROC ; NativeCodeCache::X86Emit_ModRegRM
; _this$ = ecx

; 134  : {

	push	ebp
	mov	ebp, esp
	push	ecx
	mov	DWORD PTR [ebp-4], -858993460		; ccccccccH
	mov	DWORD PTR _this$[ebp], ecx

; 135  :   if(base > 7)

	cmp	DWORD PTR _base$[ebp], 7
	jbe	SHORT $LN16@X86Emit_Mo

; 136  :   {
; 137  :     //[dword]: mod = 0, reg = regSpare, rm = 5
; 138  :     x86Emit_MRM(x86ModType_mem,regSpare,x86BaseReg_sdword);

	mov	eax, DWORD PTR _regSpare$[ebp]
	shl	eax, 3
	or	eax, 5
	mov	ecx, DWORD PTR _this$[ebp]
	mov	edx, DWORD PTR [ecx+4]
	mov	BYTE PTR [edx], al
	mov	eax, DWORD PTR _this$[ebp]
	mov	ecx, DWORD PTR [eax+4]
	add	ecx, 1
	mov	edx, DWORD PTR _this$[ebp]
	mov	DWORD PTR [edx+4], ecx

; 139  :     *((uint32 *)pEmitLoc) = base;

	mov	eax, DWORD PTR _this$[ebp]
	mov	ecx, DWORD PTR [eax+4]
	mov	edx, DWORD PTR _base$[ebp]
	mov	DWORD PTR [ecx], edx

; 140  :     pEmitLoc += sizeof(uint32);

	mov	eax, DWORD PTR _this$[ebp]
	mov	ecx, DWORD PTR [eax+4]
	add	ecx, 4
	mov	edx, DWORD PTR _this$[ebp]
	mov	DWORD PTR [edx+4], ecx

; 141  :   }
; 142  :   else

	jmp	$LN17@X86Emit_Mo
$LN16@X86Emit_Mo:

; 143  :   {
; 144  :     if(modType == x86ModType_reg)

	cmp	DWORD PTR _modType$[ebp], 3
	jne	SHORT $LN14@X86Emit_Mo

; 145  :     {
; 146  :       //reg
; 147  :       x86Emit_MRM(x86ModType_reg, regSpare, base);

	mov	eax, DWORD PTR _regSpare$[ebp]
	shl	eax, 3
	or	eax, 192				; 000000c0H
	or	eax, DWORD PTR _base$[ebp]
	mov	ecx, DWORD PTR _this$[ebp]
	mov	edx, DWORD PTR [ecx+4]
	mov	BYTE PTR [edx], al
	mov	eax, DWORD PTR _this$[ebp]
	mov	ecx, DWORD PTR [eax+4]
	add	ecx, 1
	mov	edx, DWORD PTR _this$[ebp]
	mov	DWORD PTR [edx+4], ecx

; 148  :     }
; 149  :     else

	jmp	$LN17@X86Emit_Mo
$LN14@X86Emit_Mo:

; 150  :     {
; 151  :       if(index != x86IndexReg_none)

	cmp	DWORD PTR _index$[ebp], 4
	je	$LN12@X86Emit_Mo

; 152  :       {
; 153  :         if(!disp)

	cmp	DWORD PTR _disp$[ebp], 0
	jne	SHORT $LN11@X86Emit_Mo

; 154  :         {
; 155  :           //[sib]
; 156  :           x86Emit_MRM(x86ModType_mem, regSpare, x86BaseReg_sib);

	mov	eax, DWORD PTR _regSpare$[ebp]
	shl	eax, 3
	or	eax, 4
	mov	ecx, DWORD PTR _this$[ebp]
	mov	edx, DWORD PTR [ecx+4]
	mov	BYTE PTR [edx], al
	mov	eax, DWORD PTR _this$[ebp]
	mov	ecx, DWORD PTR [eax+4]
	add	ecx, 1
	mov	edx, DWORD PTR _this$[ebp]
	mov	DWORD PTR [edx+4], ecx

; 157  :           x86Emit_SIB(base, scale, index);

	mov	eax, DWORD PTR _scale$[ebp]
	shl	eax, 6
	mov	ecx, DWORD PTR _index$[ebp]
	shl	ecx, 3
	or	eax, ecx
	or	eax, DWORD PTR _base$[ebp]
	mov	edx, DWORD PTR _this$[ebp]
	mov	ecx, DWORD PTR [edx+4]
	mov	BYTE PTR [ecx], al
	mov	edx, DWORD PTR _this$[ebp]
	mov	eax, DWORD PTR [edx+4]
	add	eax, 1
	mov	ecx, DWORD PTR _this$[ebp]
	mov	DWORD PTR [ecx+4], eax

; 158  :         }
; 159  :         else

	jmp	$LN10@X86Emit_Mo
$LN11@X86Emit_Mo:

; 160  :         {
; 161  :           //[sib + disp]
; 162  :           if((disp < -128) || (disp > 127))

	cmp	DWORD PTR _disp$[ebp], -128		; ffffff80H
	jl	SHORT $LN8@X86Emit_Mo
	cmp	DWORD PTR _disp$[ebp], 127		; 0000007fH
	jle	SHORT $LN9@X86Emit_Mo
$LN8@X86Emit_Mo:

; 163  :           {
; 164  :             //[base + scale*index + disp32]
; 165  :             x86Emit_MRM(x86ModType_mem_disp32, regSpare, x86BaseReg_sib);

	mov	edx, DWORD PTR _regSpare$[ebp]
	shl	edx, 3
	or	edx, 128				; 00000080H
	or	edx, 4
	mov	eax, DWORD PTR _this$[ebp]
	mov	ecx, DWORD PTR [eax+4]
	mov	BYTE PTR [ecx], dl
	mov	edx, DWORD PTR _this$[ebp]
	mov	eax, DWORD PTR [edx+4]
	add	eax, 1
	mov	ecx, DWORD PTR _this$[ebp]
	mov	DWORD PTR [ecx+4], eax

; 166  :             x86Emit_SIB(base, scale, index);

	mov	edx, DWORD PTR _scale$[ebp]
	shl	edx, 6
	mov	eax, DWORD PTR _index$[ebp]
	shl	eax, 3
	or	edx, eax
	or	edx, DWORD PTR _base$[ebp]
	mov	ecx, DWORD PTR _this$[ebp]
	mov	eax, DWORD PTR [ecx+4]
	mov	BYTE PTR [eax], dl
	mov	ecx, DWORD PTR _this$[ebp]
	mov	edx, DWORD PTR [ecx+4]
	add	edx, 1
	mov	eax, DWORD PTR _this$[ebp]
	mov	DWORD PTR [eax+4], edx

; 167  :             *((int32 *)pEmitLoc) = disp;

	mov	ecx, DWORD PTR _this$[ebp]
	mov	edx, DWORD PTR [ecx+4]
	mov	eax, DWORD PTR _disp$[ebp]
	mov	DWORD PTR [edx], eax

; 168  :             pEmitLoc += sizeof(int32);

	mov	ecx, DWORD PTR _this$[ebp]
	mov	edx, DWORD PTR [ecx+4]
	add	edx, 4
	mov	eax, DWORD PTR _this$[ebp]
	mov	DWORD PTR [eax+4], edx

; 169  :           }
; 170  :           else

	jmp	SHORT $LN10@X86Emit_Mo
$LN9@X86Emit_Mo:

; 171  :           {
; 172  :             //[sib + disp8]
; 173  :             x86Emit_MRM(x86ModType_mem_disp8, regSpare, x86BaseReg_sib);

	mov	ecx, DWORD PTR _regSpare$[ebp]
	shl	ecx, 3
	or	ecx, 64					; 00000040H
	or	ecx, 4
	mov	edx, DWORD PTR _this$[ebp]
	mov	eax, DWORD PTR [edx+4]
	mov	BYTE PTR [eax], cl
	mov	ecx, DWORD PTR _this$[ebp]
	mov	edx, DWORD PTR [ecx+4]
	add	edx, 1
	mov	eax, DWORD PTR _this$[ebp]
	mov	DWORD PTR [eax+4], edx

; 174  :             x86Emit_SIB(base, scale, index);

	mov	ecx, DWORD PTR _scale$[ebp]
	shl	ecx, 6
	mov	edx, DWORD PTR _index$[ebp]
	shl	edx, 3
	or	ecx, edx
	or	ecx, DWORD PTR _base$[ebp]
	mov	eax, DWORD PTR _this$[ebp]
	mov	edx, DWORD PTR [eax+4]
	mov	BYTE PTR [edx], cl
	mov	eax, DWORD PTR _this$[ebp]
	mov	ecx, DWORD PTR [eax+4]
	add	ecx, 1
	mov	edx, DWORD PTR _this$[ebp]
	mov	DWORD PTR [edx+4], ecx

; 175  :             *pEmitLoc++ = (uint8)disp;

	mov	eax, DWORD PTR _this$[ebp]
	mov	ecx, DWORD PTR [eax+4]
	mov	dl, BYTE PTR _disp$[ebp]
	mov	BYTE PTR [ecx], dl
	mov	eax, DWORD PTR _this$[ebp]
	mov	ecx, DWORD PTR [eax+4]
	add	ecx, 1
	mov	edx, DWORD PTR _this$[ebp]
	mov	DWORD PTR [edx+4], ecx
$LN10@X86Emit_Mo:

; 176  :           }
; 177  :         }
; 178  :       }
; 179  :       else

	jmp	$LN17@X86Emit_Mo
$LN12@X86Emit_Mo:

; 180  :       {
; 181  :         //[base + disp] or [base]
; 182  :         if(!disp && (base != x86BaseReg_ebp))

	cmp	DWORD PTR _disp$[ebp], 0
	jne	SHORT $LN5@X86Emit_Mo
	cmp	DWORD PTR _base$[ebp], 5
	je	SHORT $LN5@X86Emit_Mo

; 183  :         {
; 184  :           //[base]
; 185  :           x86Emit_MRM(x86ModType_mem, regSpare, base);

	mov	eax, DWORD PTR _regSpare$[ebp]
	shl	eax, 3
	or	eax, DWORD PTR _base$[ebp]
	mov	ecx, DWORD PTR _this$[ebp]
	mov	edx, DWORD PTR [ecx+4]
	mov	BYTE PTR [edx], al
	mov	eax, DWORD PTR _this$[ebp]
	mov	ecx, DWORD PTR [eax+4]
	add	ecx, 1
	mov	edx, DWORD PTR _this$[ebp]
	mov	DWORD PTR [edx+4], ecx

; 186  :         }
; 187  :         else

	jmp	$LN17@X86Emit_Mo
$LN5@X86Emit_Mo:

; 188  :         {
; 189  :           //[base + disp]
; 190  :           if((disp < -128) || (disp > 127))

	cmp	DWORD PTR _disp$[ebp], -128		; ffffff80H
	jl	SHORT $LN2@X86Emit_Mo
	cmp	DWORD PTR _disp$[ebp], 127		; 0000007fH
	jle	SHORT $LN3@X86Emit_Mo
$LN2@X86Emit_Mo:

; 191  :           {
; 192  :             //[base + disp32]
; 193  :             x86Emit_MRM(x86ModType_mem_disp32, regSpare, base);

	mov	eax, DWORD PTR _regSpare$[ebp]
	shl	eax, 3
	or	eax, 128				; 00000080H
	or	eax, DWORD PTR _base$[ebp]
	mov	ecx, DWORD PTR _this$[ebp]
	mov	edx, DWORD PTR [ecx+4]
	mov	BYTE PTR [edx], al
	mov	eax, DWORD PTR _this$[ebp]
	mov	ecx, DWORD PTR [eax+4]
	add	ecx, 1
	mov	edx, DWORD PTR _this$[ebp]
	mov	DWORD PTR [edx+4], ecx

; 194  :             *((int32 *)pEmitLoc) = disp;

	mov	eax, DWORD PTR _this$[ebp]
	mov	ecx, DWORD PTR [eax+4]
	mov	edx, DWORD PTR _disp$[ebp]
	mov	DWORD PTR [ecx], edx

; 195  :             pEmitLoc += sizeof(int32);

	mov	eax, DWORD PTR _this$[ebp]
	mov	ecx, DWORD PTR [eax+4]
	add	ecx, 4
	mov	edx, DWORD PTR _this$[ebp]
	mov	DWORD PTR [edx+4], ecx

; 196  :           }
; 197  :           else

	jmp	SHORT $LN17@X86Emit_Mo
$LN3@X86Emit_Mo:

; 198  :           {
; 199  :             //[base + disp8]
; 200  :             x86Emit_MRM(x86ModType_mem_disp8, regSpare, base);

	mov	eax, DWORD PTR _regSpare$[ebp]
	shl	eax, 3
	or	eax, 64					; 00000040H
	or	eax, DWORD PTR _base$[ebp]
	mov	ecx, DWORD PTR _this$[ebp]
	mov	edx, DWORD PTR [ecx+4]
	mov	BYTE PTR [edx], al
	mov	eax, DWORD PTR _this$[ebp]
	mov	ecx, DWORD PTR [eax+4]
	add	ecx, 1
	mov	edx, DWORD PTR _this$[ebp]
	mov	DWORD PTR [edx+4], ecx

; 201  :             *pEmitLoc++ = (uint8)disp;

	mov	eax, DWORD PTR _this$[ebp]
	mov	ecx, DWORD PTR [eax+4]
	mov	dl, BYTE PTR _disp$[ebp]
	mov	BYTE PTR [ecx], dl
	mov	eax, DWORD PTR _this$[ebp]
	mov	ecx, DWORD PTR [eax+4]
	add	ecx, 1
	mov	edx, DWORD PTR _this$[ebp]
	mov	DWORD PTR [edx+4], ecx
$LN17@X86Emit_Mo:

; 202  :           }
; 203  :         }
; 204  :       }
; 205  :     }
; 206  :   }
; 207  : }

	mov	esp, ebp
	pop	ebp
	ret	24					; 00000018H
?X86Emit_ModRegRM@NativeCodeCache@@QAEXW4x86ModType@@W4x86ModReg@@IW4x86IndexReg@@W4x86ScaleVal@@H@Z ENDP ; NativeCodeCache::X86Emit_ModRegRM
_TEXT	ENDS
PUBLIC	?X86Emit_Group1RR@NativeCodeCache@@QAEXW4x86Reg@@0E@Z ; NativeCodeCache::X86Emit_Group1RR
; Function compile flags: /Odtp /RTCsu
_TEXT	SEGMENT
_this$ = -4						; size = 4
_regDest$ = 8						; size = 4
_regSrc$ = 12						; size = 4
_groupIndex$ = 16					; size = 1
?X86Emit_Group1RR@NativeCodeCache@@QAEXW4x86Reg@@0E@Z PROC ; NativeCodeCache::X86Emit_Group1RR
; _this$ = ecx

; 210  : {

	push	ebp
	mov	ebp, esp
	push	ecx
	mov	DWORD PTR [ebp-4], -858993460		; ccccccccH
	mov	DWORD PTR _this$[ebp], ecx

; 211  :   //OP r8, reg8, OP r16, reg16 or OP r32, reg32
; 212  :   
; 213  :   if(regSrc < x86Reg_ax)

	cmp	DWORD PTR _regSrc$[ebp], 8
	jge	SHORT $LN4@X86Emit_Gr

; 214  :   {
; 215  :     //m8, r8
; 216  :     *pEmitLoc++ = groupIndex << 3;

	movzx	eax, BYTE PTR _groupIndex$[ebp]
	shl	eax, 3
	mov	ecx, DWORD PTR _this$[ebp]
	mov	edx, DWORD PTR [ecx+4]
	mov	BYTE PTR [edx], al
	mov	eax, DWORD PTR _this$[ebp]
	mov	ecx, DWORD PTR [eax+4]
	add	ecx, 1
	mov	edx, DWORD PTR _this$[ebp]
	mov	DWORD PTR [edx+4], ecx

; 217  :     X86Emit_ModRegRM(x86ModType_reg,(x86ModReg)(regSrc & 0x07),(regDest & 0x07));

	push	0
	push	0
	push	4
	mov	eax, DWORD PTR _regDest$[ebp]
	and	eax, 7
	push	eax
	mov	ecx, DWORD PTR _regSrc$[ebp]
	and	ecx, 7
	push	ecx
	push	3
	mov	ecx, DWORD PTR _this$[ebp]
	call	?X86Emit_ModRegRM@NativeCodeCache@@QAEXW4x86ModType@@W4x86ModReg@@IW4x86IndexReg@@W4x86ScaleVal@@H@Z ; NativeCodeCache::X86Emit_ModRegRM
	jmp	$LN5@X86Emit_Gr
$LN4@X86Emit_Gr:

; 218  :   }
; 219  :   else if(regSrc < x86Reg_eax)

	cmp	DWORD PTR _regSrc$[ebp], 16		; 00000010H
	jge	SHORT $LN2@X86Emit_Gr

; 220  :   {
; 221  :     //m16, r16
; 222  :     *pEmitLoc++ = 0x66;

	mov	edx, DWORD PTR _this$[ebp]
	mov	eax, DWORD PTR [edx+4]
	mov	BYTE PTR [eax], 102			; 00000066H
	mov	ecx, DWORD PTR _this$[ebp]
	mov	edx, DWORD PTR [ecx+4]
	add	edx, 1
	mov	eax, DWORD PTR _this$[ebp]
	mov	DWORD PTR [eax+4], edx

; 223  :     *pEmitLoc++ = (groupIndex << 3) + 1;

	movzx	ecx, BYTE PTR _groupIndex$[ebp]
	lea	edx, DWORD PTR [ecx*8+1]
	mov	eax, DWORD PTR _this$[ebp]
	mov	ecx, DWORD PTR [eax+4]
	mov	BYTE PTR [ecx], dl
	mov	edx, DWORD PTR _this$[ebp]
	mov	eax, DWORD PTR [edx+4]
	add	eax, 1
	mov	ecx, DWORD PTR _this$[ebp]
	mov	DWORD PTR [ecx+4], eax

; 224  :     X86Emit_ModRegRM(x86ModType_reg,(x86ModReg)(regSrc & 0x07),(regDest & 0x07));

	push	0
	push	0
	push	4
	mov	edx, DWORD PTR _regDest$[ebp]
	and	edx, 7
	push	edx
	mov	eax, DWORD PTR _regSrc$[ebp]
	and	eax, 7
	push	eax
	push	3
	mov	ecx, DWORD PTR _this$[ebp]
	call	?X86Emit_ModRegRM@NativeCodeCache@@QAEXW4x86ModType@@W4x86ModReg@@IW4x86IndexReg@@W4x86ScaleVal@@H@Z ; NativeCodeCache::X86Emit_ModRegRM

; 225  :   }
; 226  :   else

	jmp	SHORT $LN5@X86Emit_Gr
$LN2@X86Emit_Gr:

; 227  :   {
; 228  :     //m32, r32
; 229  :     *pEmitLoc++ = (groupIndex << 3) + 1;

	movzx	ecx, BYTE PTR _groupIndex$[ebp]
	lea	edx, DWORD PTR [ecx*8+1]
	mov	eax, DWORD PTR _this$[ebp]
	mov	ecx, DWORD PTR [eax+4]
	mov	BYTE PTR [ecx], dl
	mov	edx, DWORD PTR _this$[ebp]
	mov	eax, DWORD PTR [edx+4]
	add	eax, 1
	mov	ecx, DWORD PTR _this$[ebp]
	mov	DWORD PTR [ecx+4], eax

; 230  :     X86Emit_ModRegRM(x86ModType_reg,(x86ModReg)(regSrc & 0x07),(regDest & 0x07));

	push	0
	push	0
	push	4
	mov	edx, DWORD PTR _regDest$[ebp]
	and	edx, 7
	push	edx
	mov	eax, DWORD PTR _regSrc$[ebp]
	and	eax, 7
	push	eax
	push	3
	mov	ecx, DWORD PTR _this$[ebp]
	call	?X86Emit_ModRegRM@NativeCodeCache@@QAEXW4x86ModType@@W4x86ModReg@@IW4x86IndexReg@@W4x86ScaleVal@@H@Z ; NativeCodeCache::X86Emit_ModRegRM
$LN5@X86Emit_Gr:

; 231  :   }
; 232  : }

	add	esp, 4
	cmp	ebp, esp
	call	__RTC_CheckEsp
	mov	esp, ebp
	pop	ebp
	ret	12					; 0000000cH
?X86Emit_Group1RR@NativeCodeCache@@QAEXW4x86Reg@@0E@Z ENDP ; NativeCodeCache::X86Emit_Group1RR
_TEXT	ENDS
PUBLIC	?X86Emit_Group1RM@NativeCodeCache@@QAEXW4x86Reg@@IW4x86IndexReg@@W4x86ScaleVal@@HE@Z ; NativeCodeCache::X86Emit_Group1RM
; Function compile flags: /Odtp /RTCsu
_TEXT	SEGMENT
_this$ = -4						; size = 4
_regSrc$ = 8						; size = 4
_base$ = 12						; size = 4
_index$ = 16						; size = 4
_scale$ = 20						; size = 4
_disp$ = 24						; size = 4
_groupIndex$ = 28					; size = 1
?X86Emit_Group1RM@NativeCodeCache@@QAEXW4x86Reg@@IW4x86IndexReg@@W4x86ScaleVal@@HE@Z PROC ; NativeCodeCache::X86Emit_Group1RM
; _this$ = ecx

; 235  : {

	push	ebp
	mov	ebp, esp
	push	ecx
	mov	DWORD PTR [ebp-4], -858993460		; ccccccccH
	mov	DWORD PTR _this$[ebp], ecx

; 236  :   //OP m8, reg8, OP m16, reg16 or OP m32, reg32
; 237  : 
; 238  :   if(regSrc < x86Reg_ax)

	cmp	DWORD PTR _regSrc$[ebp], 8
	jge	SHORT $LN4@X86Emit_Gr@2

; 239  :   {
; 240  :     //m8, r8
; 241  :     *pEmitLoc++ = (groupIndex << 3);

	movzx	eax, BYTE PTR _groupIndex$[ebp]
	shl	eax, 3
	mov	ecx, DWORD PTR _this$[ebp]
	mov	edx, DWORD PTR [ecx+4]
	mov	BYTE PTR [edx], al
	mov	eax, DWORD PTR _this$[ebp]
	mov	ecx, DWORD PTR [eax+4]
	add	ecx, 1
	mov	edx, DWORD PTR _this$[ebp]
	mov	DWORD PTR [edx+4], ecx

; 242  :     X86Emit_ModRegRM(x86ModType_mem,(x86ModReg)(regSrc & 0x07),base,index,scale,disp);

	mov	eax, DWORD PTR _disp$[ebp]
	push	eax
	mov	ecx, DWORD PTR _scale$[ebp]
	push	ecx
	mov	edx, DWORD PTR _index$[ebp]
	push	edx
	mov	eax, DWORD PTR _base$[ebp]
	push	eax
	mov	ecx, DWORD PTR _regSrc$[ebp]
	and	ecx, 7
	push	ecx
	push	0
	mov	ecx, DWORD PTR _this$[ebp]
	call	?X86Emit_ModRegRM@NativeCodeCache@@QAEXW4x86ModType@@W4x86ModReg@@IW4x86IndexReg@@W4x86ScaleVal@@H@Z ; NativeCodeCache::X86Emit_ModRegRM
	jmp	$LN5@X86Emit_Gr@2
$LN4@X86Emit_Gr@2:

; 243  :   }
; 244  :   else if(regSrc < x86Reg_eax)

	cmp	DWORD PTR _regSrc$[ebp], 16		; 00000010H
	jge	SHORT $LN2@X86Emit_Gr@2

; 245  :   {
; 246  :     //m16, r16
; 247  :     *pEmitLoc++ = 0x66;

	mov	edx, DWORD PTR _this$[ebp]
	mov	eax, DWORD PTR [edx+4]
	mov	BYTE PTR [eax], 102			; 00000066H
	mov	ecx, DWORD PTR _this$[ebp]
	mov	edx, DWORD PTR [ecx+4]
	add	edx, 1
	mov	eax, DWORD PTR _this$[ebp]
	mov	DWORD PTR [eax+4], edx

; 248  :     *pEmitLoc++ = (groupIndex << 3) + 1;

	movzx	ecx, BYTE PTR _groupIndex$[ebp]
	lea	edx, DWORD PTR [ecx*8+1]
	mov	eax, DWORD PTR _this$[ebp]
	mov	ecx, DWORD PTR [eax+4]
	mov	BYTE PTR [ecx], dl
	mov	edx, DWORD PTR _this$[ebp]
	mov	eax, DWORD PTR [edx+4]
	add	eax, 1
	mov	ecx, DWORD PTR _this$[ebp]
	mov	DWORD PTR [ecx+4], eax

; 249  :     X86Emit_ModRegRM(x86ModType_mem,(x86ModReg)(regSrc & 0x07),base,index,scale,disp);

	mov	edx, DWORD PTR _disp$[ebp]
	push	edx
	mov	eax, DWORD PTR _scale$[ebp]
	push	eax
	mov	ecx, DWORD PTR _index$[ebp]
	push	ecx
	mov	edx, DWORD PTR _base$[ebp]
	push	edx
	mov	eax, DWORD PTR _regSrc$[ebp]
	and	eax, 7
	push	eax
	push	0
	mov	ecx, DWORD PTR _this$[ebp]
	call	?X86Emit_ModRegRM@NativeCodeCache@@QAEXW4x86ModType@@W4x86ModReg@@IW4x86IndexReg@@W4x86ScaleVal@@H@Z ; NativeCodeCache::X86Emit_ModRegRM

; 250  :   }
; 251  :   else

	jmp	SHORT $LN5@X86Emit_Gr@2
$LN2@X86Emit_Gr@2:

; 252  :   {
; 253  :     //m32, r32
; 254  :     *pEmitLoc++ = (groupIndex << 3) + 1;

	movzx	ecx, BYTE PTR _groupIndex$[ebp]
	lea	edx, DWORD PTR [ecx*8+1]
	mov	eax, DWORD PTR _this$[ebp]
	mov	ecx, DWORD PTR [eax+4]
	mov	BYTE PTR [ecx], dl
	mov	edx, DWORD PTR _this$[ebp]
	mov	eax, DWORD PTR [edx+4]
	add	eax, 1
	mov	ecx, DWORD PTR _this$[ebp]
	mov	DWORD PTR [ecx+4], eax

; 255  :     X86Emit_ModRegRM(x86ModType_mem,(x86ModReg)(regSrc & 0x07),base,index,scale,disp);

	mov	edx, DWORD PTR _disp$[ebp]
	push	edx
	mov	eax, DWORD PTR _scale$[ebp]
	push	eax
	mov	ecx, DWORD PTR _index$[ebp]
	push	ecx
	mov	edx, DWORD PTR _base$[ebp]
	push	edx
	mov	eax, DWORD PTR _regSrc$[ebp]
	and	eax, 7
	push	eax
	push	0
	mov	ecx, DWORD PTR _this$[ebp]
	call	?X86Emit_ModRegRM@NativeCodeCache@@QAEXW4x86ModType@@W4x86ModReg@@IW4x86IndexReg@@W4x86ScaleVal@@H@Z ; NativeCodeCache::X86Emit_ModRegRM
$LN5@X86Emit_Gr@2:

; 256  :   }
; 257  : }

	add	esp, 4
	cmp	ebp, esp
	call	__RTC_CheckEsp
	mov	esp, ebp
	pop	ebp
	ret	24					; 00000018H
?X86Emit_Group1RM@NativeCodeCache@@QAEXW4x86Reg@@IW4x86IndexReg@@W4x86ScaleVal@@HE@Z ENDP ; NativeCodeCache::X86Emit_Group1RM
_TEXT	ENDS
PUBLIC	?X86Emit_Group1MR@NativeCodeCache@@QAEXW4x86Reg@@IW4x86IndexReg@@W4x86ScaleVal@@HE@Z ; NativeCodeCache::X86Emit_Group1MR
; Function compile flags: /Odtp /RTCsu
_TEXT	SEGMENT
_this$ = -4						; size = 4
_regDest$ = 8						; size = 4
_base$ = 12						; size = 4
_index$ = 16						; size = 4
_scale$ = 20						; size = 4
_disp$ = 24						; size = 4
_groupIndex$ = 28					; size = 1
?X86Emit_Group1MR@NativeCodeCache@@QAEXW4x86Reg@@IW4x86IndexReg@@W4x86ScaleVal@@HE@Z PROC ; NativeCodeCache::X86Emit_Group1MR
; _this$ = ecx

; 260  : {

	push	ebp
	mov	ebp, esp
	push	ecx
	mov	DWORD PTR [ebp-4], -858993460		; ccccccccH
	mov	DWORD PTR _this$[ebp], ecx

; 261  :   //OP reg8, m8, OP reg16, m16 or OP reg32, m32
; 262  :   if(regDest < x86Reg_ax)

	cmp	DWORD PTR _regDest$[ebp], 8
	jge	SHORT $LN4@X86Emit_Gr@3

; 263  :   {
; 264  :     //r8, m8
; 265  :     *pEmitLoc++ = (groupIndex << 3) + 0x02;

	movzx	eax, BYTE PTR _groupIndex$[ebp]
	lea	ecx, DWORD PTR [eax*8+2]
	mov	edx, DWORD PTR _this$[ebp]
	mov	eax, DWORD PTR [edx+4]
	mov	BYTE PTR [eax], cl
	mov	ecx, DWORD PTR _this$[ebp]
	mov	edx, DWORD PTR [ecx+4]
	add	edx, 1
	mov	eax, DWORD PTR _this$[ebp]
	mov	DWORD PTR [eax+4], edx

; 266  :     X86Emit_ModRegRM(x86ModType_mem,(x86ModReg)(regDest & 0x07),base,index,scale,disp);

	mov	ecx, DWORD PTR _disp$[ebp]
	push	ecx
	mov	edx, DWORD PTR _scale$[ebp]
	push	edx
	mov	eax, DWORD PTR _index$[ebp]
	push	eax
	mov	ecx, DWORD PTR _base$[ebp]
	push	ecx
	mov	edx, DWORD PTR _regDest$[ebp]
	and	edx, 7
	push	edx
	push	0
	mov	ecx, DWORD PTR _this$[ebp]
	call	?X86Emit_ModRegRM@NativeCodeCache@@QAEXW4x86ModType@@W4x86ModReg@@IW4x86IndexReg@@W4x86ScaleVal@@H@Z ; NativeCodeCache::X86Emit_ModRegRM
	jmp	$LN5@X86Emit_Gr@3
$LN4@X86Emit_Gr@3:

; 267  :   }
; 268  :   else if(regDest < x86Reg_eax)

	cmp	DWORD PTR _regDest$[ebp], 16		; 00000010H
	jge	SHORT $LN2@X86Emit_Gr@3

; 269  :   {
; 270  :     //r16, m16
; 271  :     *pEmitLoc++ = 0x66;

	mov	eax, DWORD PTR _this$[ebp]
	mov	ecx, DWORD PTR [eax+4]
	mov	BYTE PTR [ecx], 102			; 00000066H
	mov	edx, DWORD PTR _this$[ebp]
	mov	eax, DWORD PTR [edx+4]
	add	eax, 1
	mov	ecx, DWORD PTR _this$[ebp]
	mov	DWORD PTR [ecx+4], eax

; 272  :     *pEmitLoc++ = (groupIndex << 3) + 0x03;

	movzx	edx, BYTE PTR _groupIndex$[ebp]
	lea	eax, DWORD PTR [edx*8+3]
	mov	ecx, DWORD PTR _this$[ebp]
	mov	edx, DWORD PTR [ecx+4]
	mov	BYTE PTR [edx], al
	mov	eax, DWORD PTR _this$[ebp]
	mov	ecx, DWORD PTR [eax+4]
	add	ecx, 1
	mov	edx, DWORD PTR _this$[ebp]
	mov	DWORD PTR [edx+4], ecx

; 273  :     X86Emit_ModRegRM(x86ModType_mem,(x86ModReg)(regDest & 0x07),base,index,scale,disp);

	mov	eax, DWORD PTR _disp$[ebp]
	push	eax
	mov	ecx, DWORD PTR _scale$[ebp]
	push	ecx
	mov	edx, DWORD PTR _index$[ebp]
	push	edx
	mov	eax, DWORD PTR _base$[ebp]
	push	eax
	mov	ecx, DWORD PTR _regDest$[ebp]
	and	ecx, 7
	push	ecx
	push	0
	mov	ecx, DWORD PTR _this$[ebp]
	call	?X86Emit_ModRegRM@NativeCodeCache@@QAEXW4x86ModType@@W4x86ModReg@@IW4x86IndexReg@@W4x86ScaleVal@@H@Z ; NativeCodeCache::X86Emit_ModRegRM

; 274  :   }
; 275  :   else

	jmp	SHORT $LN5@X86Emit_Gr@3
$LN2@X86Emit_Gr@3:

; 276  :   {
; 277  :     //r32, m32
; 278  :     *pEmitLoc++ = (groupIndex << 3) + 0x03;

	movzx	edx, BYTE PTR _groupIndex$[ebp]
	lea	eax, DWORD PTR [edx*8+3]
	mov	ecx, DWORD PTR _this$[ebp]
	mov	edx, DWORD PTR [ecx+4]
	mov	BYTE PTR [edx], al
	mov	eax, DWORD PTR _this$[ebp]
	mov	ecx, DWORD PTR [eax+4]
	add	ecx, 1
	mov	edx, DWORD PTR _this$[ebp]
	mov	DWORD PTR [edx+4], ecx

; 279  :     X86Emit_ModRegRM(x86ModType_mem,(x86ModReg)(regDest & 0x07),base,index,scale,disp);

	mov	eax, DWORD PTR _disp$[ebp]
	push	eax
	mov	ecx, DWORD PTR _scale$[ebp]
	push	ecx
	mov	edx, DWORD PTR _index$[ebp]
	push	edx
	mov	eax, DWORD PTR _base$[ebp]
	push	eax
	mov	ecx, DWORD PTR _regDest$[ebp]
	and	ecx, 7
	push	ecx
	push	0
	mov	ecx, DWORD PTR _this$[ebp]
	call	?X86Emit_ModRegRM@NativeCodeCache@@QAEXW4x86ModType@@W4x86ModReg@@IW4x86IndexReg@@W4x86ScaleVal@@H@Z ; NativeCodeCache::X86Emit_ModRegRM
$LN5@X86Emit_Gr@3:

; 280  :   }
; 281  : }

	add	esp, 4
	cmp	ebp, esp
	call	__RTC_CheckEsp
	mov	esp, ebp
	pop	ebp
	ret	24					; 00000018H
?X86Emit_Group1MR@NativeCodeCache@@QAEXW4x86Reg@@IW4x86IndexReg@@W4x86ScaleVal@@HE@Z ENDP ; NativeCodeCache::X86Emit_Group1MR
_TEXT	ENDS
PUBLIC	?X86Emit_Group1IR@NativeCodeCache@@QAEXHW4x86Reg@@E@Z ; NativeCodeCache::X86Emit_Group1IR
; Function compile flags: /Odtp /RTCsu
_TEXT	SEGMENT
_this$ = -4						; size = 4
_imm$ = 8						; size = 4
_regDest$ = 12						; size = 4
_groupIndex$ = 16					; size = 1
?X86Emit_Group1IR@NativeCodeCache@@QAEXHW4x86Reg@@E@Z PROC ; NativeCodeCache::X86Emit_Group1IR
; _this$ = ecx

; 284  : {

	push	ebp
	mov	ebp, esp
	push	ecx
	mov	DWORD PTR [ebp-4], -858993460		; ccccccccH
	mov	DWORD PTR _this$[ebp], ecx

; 285  :   if(regDest < x86Reg_ax)

	cmp	DWORD PTR _regDest$[ebp], 8
	jge	$LN14@X86Emit_Gr@4

; 286  :   {
; 287  :     //r8,imm8
; 288  :     if(regDest == x86Reg_al)

	cmp	DWORD PTR _regDest$[ebp], 0
	jne	SHORT $LN13@X86Emit_Gr@4

; 289  :     {
; 290  :       //al, imm8
; 291  :       *pEmitLoc++ = (groupIndex << 3) + 0x04;

	movzx	eax, BYTE PTR _groupIndex$[ebp]
	lea	ecx, DWORD PTR [eax*8+4]
	mov	edx, DWORD PTR _this$[ebp]
	mov	eax, DWORD PTR [edx+4]
	mov	BYTE PTR [eax], cl
	mov	ecx, DWORD PTR _this$[ebp]
	mov	edx, DWORD PTR [ecx+4]
	add	edx, 1
	mov	eax, DWORD PTR _this$[ebp]
	mov	DWORD PTR [eax+4], edx

; 292  :       *pEmitLoc++ = (int8)imm;

	mov	ecx, DWORD PTR _this$[ebp]
	mov	edx, DWORD PTR [ecx+4]
	mov	al, BYTE PTR _imm$[ebp]
	mov	BYTE PTR [edx], al
	mov	ecx, DWORD PTR _this$[ebp]
	mov	edx, DWORD PTR [ecx+4]
	add	edx, 1
	mov	eax, DWORD PTR _this$[ebp]
	mov	DWORD PTR [eax+4], edx

; 293  :     }
; 294  :     else

	jmp	SHORT $LN12@X86Emit_Gr@4
$LN13@X86Emit_Gr@4:

; 295  :     {
; 296  :       //r8, imm8
; 297  :       *pEmitLoc++ = 0x80;

	mov	ecx, DWORD PTR _this$[ebp]
	mov	edx, DWORD PTR [ecx+4]
	mov	BYTE PTR [edx], 128			; 00000080H
	mov	eax, DWORD PTR _this$[ebp]
	mov	ecx, DWORD PTR [eax+4]
	add	ecx, 1
	mov	edx, DWORD PTR _this$[ebp]
	mov	DWORD PTR [edx+4], ecx

; 298  :       X86Emit_ModRegRM(x86ModType_reg,(x86ModReg)groupIndex,(regDest & 0x07));

	push	0
	push	0
	push	4
	mov	eax, DWORD PTR _regDest$[ebp]
	and	eax, 7
	push	eax
	movzx	ecx, BYTE PTR _groupIndex$[ebp]
	push	ecx
	push	3
	mov	ecx, DWORD PTR _this$[ebp]
	call	?X86Emit_ModRegRM@NativeCodeCache@@QAEXW4x86ModType@@W4x86ModReg@@IW4x86IndexReg@@W4x86ScaleVal@@H@Z ; NativeCodeCache::X86Emit_ModRegRM

; 299  :       *pEmitLoc++ = (int8)imm;

	mov	edx, DWORD PTR _this$[ebp]
	mov	eax, DWORD PTR [edx+4]
	mov	cl, BYTE PTR _imm$[ebp]
	mov	BYTE PTR [eax], cl
	mov	edx, DWORD PTR _this$[ebp]
	mov	eax, DWORD PTR [edx+4]
	add	eax, 1
	mov	ecx, DWORD PTR _this$[ebp]
	mov	DWORD PTR [ecx+4], eax
$LN12@X86Emit_Gr@4:

; 300  :     }

	jmp	$LN15@X86Emit_Gr@4
$LN14@X86Emit_Gr@4:

; 301  :   }
; 302  :   else if(regDest < x86Reg_eax)

	cmp	DWORD PTR _regDest$[ebp], 16		; 00000010H
	jge	$LN10@X86Emit_Gr@4

; 303  :   {
; 304  :     //r16, imm
; 305  :     if((imm <= 127) && (imm >= -128))

	cmp	DWORD PTR _imm$[ebp], 127		; 0000007fH
	jg	SHORT $LN9@X86Emit_Gr@4
	cmp	DWORD PTR _imm$[ebp], -128		; ffffff80H
	jl	SHORT $LN9@X86Emit_Gr@4

; 306  :     {
; 307  :       *pEmitLoc++ = 0x66;

	mov	edx, DWORD PTR _this$[ebp]
	mov	eax, DWORD PTR [edx+4]
	mov	BYTE PTR [eax], 102			; 00000066H
	mov	ecx, DWORD PTR _this$[ebp]
	mov	edx, DWORD PTR [ecx+4]
	add	edx, 1
	mov	eax, DWORD PTR _this$[ebp]
	mov	DWORD PTR [eax+4], edx

; 308  :       *pEmitLoc++ = 0x83;

	mov	ecx, DWORD PTR _this$[ebp]
	mov	edx, DWORD PTR [ecx+4]
	mov	BYTE PTR [edx], 131			; 00000083H
	mov	eax, DWORD PTR _this$[ebp]
	mov	ecx, DWORD PTR [eax+4]
	add	ecx, 1
	mov	edx, DWORD PTR _this$[ebp]
	mov	DWORD PTR [edx+4], ecx

; 309  :       X86Emit_ModRegRM(x86ModType_reg,(x86ModReg)groupIndex,(regDest & 0x07));

	push	0
	push	0
	push	4
	mov	eax, DWORD PTR _regDest$[ebp]
	and	eax, 7
	push	eax
	movzx	ecx, BYTE PTR _groupIndex$[ebp]
	push	ecx
	push	3
	mov	ecx, DWORD PTR _this$[ebp]
	call	?X86Emit_ModRegRM@NativeCodeCache@@QAEXW4x86ModType@@W4x86ModReg@@IW4x86IndexReg@@W4x86ScaleVal@@H@Z ; NativeCodeCache::X86Emit_ModRegRM

; 310  :       *pEmitLoc++ = (int8)imm;

	mov	edx, DWORD PTR _this$[ebp]
	mov	eax, DWORD PTR [edx+4]
	mov	cl, BYTE PTR _imm$[ebp]
	mov	BYTE PTR [eax], cl
	mov	edx, DWORD PTR _this$[ebp]
	mov	eax, DWORD PTR [edx+4]
	add	eax, 1
	mov	ecx, DWORD PTR _this$[ebp]
	mov	DWORD PTR [ecx+4], eax
	jmp	$LN8@X86Emit_Gr@4
$LN9@X86Emit_Gr@4:

; 311  :     }
; 312  :     else if(regDest == x86Reg_ax)

	cmp	DWORD PTR _regDest$[ebp], 8
	jne	SHORT $LN7@X86Emit_Gr@4

; 313  :     {
; 314  :       *pEmitLoc++ = 0x66;

	mov	edx, DWORD PTR _this$[ebp]
	mov	eax, DWORD PTR [edx+4]
	mov	BYTE PTR [eax], 102			; 00000066H
	mov	ecx, DWORD PTR _this$[ebp]
	mov	edx, DWORD PTR [ecx+4]
	add	edx, 1
	mov	eax, DWORD PTR _this$[ebp]
	mov	DWORD PTR [eax+4], edx

; 315  :       *pEmitLoc++ = (groupIndex << 3) + 0x05;

	movzx	ecx, BYTE PTR _groupIndex$[ebp]
	lea	edx, DWORD PTR [ecx*8+5]
	mov	eax, DWORD PTR _this$[ebp]
	mov	ecx, DWORD PTR [eax+4]
	mov	BYTE PTR [ecx], dl
	mov	edx, DWORD PTR _this$[ebp]
	mov	eax, DWORD PTR [edx+4]
	add	eax, 1
	mov	ecx, DWORD PTR _this$[ebp]
	mov	DWORD PTR [ecx+4], eax

; 316  :       *((int16 *)pEmitLoc) = (int16)imm;

	mov	edx, DWORD PTR _this$[ebp]
	mov	eax, DWORD PTR [edx+4]
	mov	cx, WORD PTR _imm$[ebp]
	mov	WORD PTR [eax], cx

; 317  :       pEmitLoc += sizeof(int16);

	mov	edx, DWORD PTR _this$[ebp]
	mov	eax, DWORD PTR [edx+4]
	add	eax, 2
	mov	ecx, DWORD PTR _this$[ebp]
	mov	DWORD PTR [ecx+4], eax

; 318  :     }
; 319  :     else

	jmp	SHORT $LN8@X86Emit_Gr@4
$LN7@X86Emit_Gr@4:

; 320  :     {
; 321  :       *pEmitLoc++ = 0x66;

	mov	edx, DWORD PTR _this$[ebp]
	mov	eax, DWORD PTR [edx+4]
	mov	BYTE PTR [eax], 102			; 00000066H
	mov	ecx, DWORD PTR _this$[ebp]
	mov	edx, DWORD PTR [ecx+4]
	add	edx, 1
	mov	eax, DWORD PTR _this$[ebp]
	mov	DWORD PTR [eax+4], edx

; 322  :       *pEmitLoc++ = 0x81;

	mov	ecx, DWORD PTR _this$[ebp]
	mov	edx, DWORD PTR [ecx+4]
	mov	BYTE PTR [edx], 129			; 00000081H
	mov	eax, DWORD PTR _this$[ebp]
	mov	ecx, DWORD PTR [eax+4]
	add	ecx, 1
	mov	edx, DWORD PTR _this$[ebp]
	mov	DWORD PTR [edx+4], ecx

; 323  :       X86Emit_ModRegRM(x86ModType_reg,(x86ModReg)groupIndex,(regDest & 0x07));

	push	0
	push	0
	push	4
	mov	eax, DWORD PTR _regDest$[ebp]
	and	eax, 7
	push	eax
	movzx	ecx, BYTE PTR _groupIndex$[ebp]
	push	ecx
	push	3
	mov	ecx, DWORD PTR _this$[ebp]
	call	?X86Emit_ModRegRM@NativeCodeCache@@QAEXW4x86ModType@@W4x86ModReg@@IW4x86IndexReg@@W4x86ScaleVal@@H@Z ; NativeCodeCache::X86Emit_ModRegRM

; 324  :       *((int16 *)pEmitLoc) = (int16)imm;

	mov	edx, DWORD PTR _this$[ebp]
	mov	eax, DWORD PTR [edx+4]
	mov	cx, WORD PTR _imm$[ebp]
	mov	WORD PTR [eax], cx

; 325  :       pEmitLoc += sizeof(int16);

	mov	edx, DWORD PTR _this$[ebp]
	mov	eax, DWORD PTR [edx+4]
	add	eax, 2
	mov	ecx, DWORD PTR _this$[ebp]
	mov	DWORD PTR [ecx+4], eax
$LN8@X86Emit_Gr@4:

; 326  :     }
; 327  :   }
; 328  :   else

	jmp	$LN15@X86Emit_Gr@4
$LN10@X86Emit_Gr@4:

; 329  :   {
; 330  :     //r32, imm
; 331  :     if((imm <= 127) && (imm >= -128))

	cmp	DWORD PTR _imm$[ebp], 127		; 0000007fH
	jg	SHORT $LN4@X86Emit_Gr@4
	cmp	DWORD PTR _imm$[ebp], -128		; ffffff80H
	jl	SHORT $LN4@X86Emit_Gr@4

; 332  :     {
; 333  :       *pEmitLoc++ = 0x83;

	mov	edx, DWORD PTR _this$[ebp]
	mov	eax, DWORD PTR [edx+4]
	mov	BYTE PTR [eax], 131			; 00000083H
	mov	ecx, DWORD PTR _this$[ebp]
	mov	edx, DWORD PTR [ecx+4]
	add	edx, 1
	mov	eax, DWORD PTR _this$[ebp]
	mov	DWORD PTR [eax+4], edx

; 334  :       X86Emit_ModRegRM(x86ModType_reg,(x86ModReg)groupIndex,(regDest & 0x07));

	push	0
	push	0
	push	4
	mov	ecx, DWORD PTR _regDest$[ebp]
	and	ecx, 7
	push	ecx
	movzx	edx, BYTE PTR _groupIndex$[ebp]
	push	edx
	push	3
	mov	ecx, DWORD PTR _this$[ebp]
	call	?X86Emit_ModRegRM@NativeCodeCache@@QAEXW4x86ModType@@W4x86ModReg@@IW4x86IndexReg@@W4x86ScaleVal@@H@Z ; NativeCodeCache::X86Emit_ModRegRM

; 335  :       *pEmitLoc++ = (int8)imm;

	mov	eax, DWORD PTR _this$[ebp]
	mov	ecx, DWORD PTR [eax+4]
	mov	dl, BYTE PTR _imm$[ebp]
	mov	BYTE PTR [ecx], dl
	mov	eax, DWORD PTR _this$[ebp]
	mov	ecx, DWORD PTR [eax+4]
	add	ecx, 1
	mov	edx, DWORD PTR _this$[ebp]
	mov	DWORD PTR [edx+4], ecx
	jmp	$LN15@X86Emit_Gr@4
$LN4@X86Emit_Gr@4:

; 336  :     }
; 337  :     else if(regDest == x86Reg_eax)

	cmp	DWORD PTR _regDest$[ebp], 16		; 00000010H
	jne	SHORT $LN2@X86Emit_Gr@4

; 338  :     {
; 339  :       *pEmitLoc++ = (groupIndex << 3) + 0x05;

	movzx	eax, BYTE PTR _groupIndex$[ebp]
	lea	ecx, DWORD PTR [eax*8+5]
	mov	edx, DWORD PTR _this$[ebp]
	mov	eax, DWORD PTR [edx+4]
	mov	BYTE PTR [eax], cl
	mov	ecx, DWORD PTR _this$[ebp]
	mov	edx, DWORD PTR [ecx+4]
	add	edx, 1
	mov	eax, DWORD PTR _this$[ebp]
	mov	DWORD PTR [eax+4], edx

; 340  :       *((int32 *)pEmitLoc) = (int32)imm;

	mov	ecx, DWORD PTR _this$[ebp]
	mov	edx, DWORD PTR [ecx+4]
	mov	eax, DWORD PTR _imm$[ebp]
	mov	DWORD PTR [edx], eax

; 341  :       pEmitLoc += sizeof(int32);

	mov	ecx, DWORD PTR _this$[ebp]
	mov	edx, DWORD PTR [ecx+4]
	add	edx, 4
	mov	eax, DWORD PTR _this$[ebp]
	mov	DWORD PTR [eax+4], edx

; 342  : 
; 343  :     }
; 344  :     else

	jmp	SHORT $LN15@X86Emit_Gr@4
$LN2@X86Emit_Gr@4:

; 345  :     {
; 346  :       *pEmitLoc++ = 0x81;

	mov	ecx, DWORD PTR _this$[ebp]
	mov	edx, DWORD PTR [ecx+4]
	mov	BYTE PTR [edx], 129			; 00000081H
	mov	eax, DWORD PTR _this$[ebp]
	mov	ecx, DWORD PTR [eax+4]
	add	ecx, 1
	mov	edx, DWORD PTR _this$[ebp]
	mov	DWORD PTR [edx+4], ecx

; 347  :       X86Emit_ModRegRM(x86ModType_reg,(x86ModReg)groupIndex,(regDest & 0x07));

	push	0
	push	0
	push	4
	mov	eax, DWORD PTR _regDest$[ebp]
	and	eax, 7
	push	eax
	movzx	ecx, BYTE PTR _groupIndex$[ebp]
	push	ecx
	push	3
	mov	ecx, DWORD PTR _this$[ebp]
	call	?X86Emit_ModRegRM@NativeCodeCache@@QAEXW4x86ModType@@W4x86ModReg@@IW4x86IndexReg@@W4x86ScaleVal@@H@Z ; NativeCodeCache::X86Emit_ModRegRM

; 348  :       *((int32 *)pEmitLoc) = (int32)imm;

	mov	edx, DWORD PTR _this$[ebp]
	mov	eax, DWORD PTR [edx+4]
	mov	ecx, DWORD PTR _imm$[ebp]
	mov	DWORD PTR [eax], ecx

; 349  :       pEmitLoc += sizeof(int32);

	mov	edx, DWORD PTR _this$[ebp]
	mov	eax, DWORD PTR [edx+4]
	add	eax, 4
	mov	ecx, DWORD PTR _this$[ebp]
	mov	DWORD PTR [ecx+4], eax
$LN15@X86Emit_Gr@4:

; 350  :     }
; 351  :   }
; 352  : }

	add	esp, 4
	cmp	ebp, esp
	call	__RTC_CheckEsp
	mov	esp, ebp
	pop	ebp
	ret	12					; 0000000cH
?X86Emit_Group1IR@NativeCodeCache@@QAEXHW4x86Reg@@E@Z ENDP ; NativeCodeCache::X86Emit_Group1IR
_TEXT	ENDS
PUBLIC	?X86Emit_Group1IM@NativeCodeCache@@QAEXHW4x86MemPtr@@IW4x86IndexReg@@W4x86ScaleVal@@HE@Z ; NativeCodeCache::X86Emit_Group1IM
; Function compile flags: /Odtp /RTCsu
_TEXT	SEGMENT
_this$ = -4						; size = 4
_imm$ = 8						; size = 4
_ptrType$ = 12						; size = 4
_base$ = 16						; size = 4
_index$ = 20						; size = 4
_scale$ = 24						; size = 4
_disp$ = 28						; size = 4
_groupIndex$ = 32					; size = 1
?X86Emit_Group1IM@NativeCodeCache@@QAEXHW4x86MemPtr@@IW4x86IndexReg@@W4x86ScaleVal@@HE@Z PROC ; NativeCodeCache::X86Emit_Group1IM
; _this$ = ecx

; 355  : {

	push	ebp
	mov	ebp, esp
	push	ecx
	mov	DWORD PTR [ebp-4], -858993460		; ccccccccH
	mov	DWORD PTR _this$[ebp], ecx

; 356  :   if(ptrType == x86MemPtr_byte)

	cmp	DWORD PTR _ptrType$[ebp], 0
	jne	SHORT $LN8@X86Emit_Gr@5

; 357  :   {
; 358  :     //mem8,imm8
; 359  :     *pEmitLoc++ = 0x80;

	mov	eax, DWORD PTR _this$[ebp]
	mov	ecx, DWORD PTR [eax+4]
	mov	BYTE PTR [ecx], 128			; 00000080H
	mov	edx, DWORD PTR _this$[ebp]
	mov	eax, DWORD PTR [edx+4]
	add	eax, 1
	mov	ecx, DWORD PTR _this$[ebp]
	mov	DWORD PTR [ecx+4], eax

; 360  :     X86Emit_ModRegRM(x86ModType_mem,(x86ModReg)groupIndex,base,index,scale,disp);

	mov	edx, DWORD PTR _disp$[ebp]
	push	edx
	mov	eax, DWORD PTR _scale$[ebp]
	push	eax
	mov	ecx, DWORD PTR _index$[ebp]
	push	ecx
	mov	edx, DWORD PTR _base$[ebp]
	push	edx
	movzx	eax, BYTE PTR _groupIndex$[ebp]
	push	eax
	push	0
	mov	ecx, DWORD PTR _this$[ebp]
	call	?X86Emit_ModRegRM@NativeCodeCache@@QAEXW4x86ModType@@W4x86ModReg@@IW4x86IndexReg@@W4x86ScaleVal@@H@Z ; NativeCodeCache::X86Emit_ModRegRM

; 361  :     *pEmitLoc++ = (int8)imm;

	mov	ecx, DWORD PTR _this$[ebp]
	mov	edx, DWORD PTR [ecx+4]
	mov	al, BYTE PTR _imm$[ebp]
	mov	BYTE PTR [edx], al
	mov	ecx, DWORD PTR _this$[ebp]
	mov	edx, DWORD PTR [ecx+4]
	add	edx, 1
	mov	eax, DWORD PTR _this$[ebp]
	mov	DWORD PTR [eax+4], edx
	jmp	$LN9@X86Emit_Gr@5
$LN8@X86Emit_Gr@5:

; 362  :   }
; 363  :   else if(ptrType == x86MemPtr_dword)

	cmp	DWORD PTR _ptrType$[ebp], 2
	jne	$LN6@X86Emit_Gr@5

; 364  :   {
; 365  :     //mem32, imm
; 366  :     if((imm <= 127) && (imm >= -128))

	cmp	DWORD PTR _imm$[ebp], 127		; 0000007fH
	jg	SHORT $LN5@X86Emit_Gr@5
	cmp	DWORD PTR _imm$[ebp], -128		; ffffff80H
	jl	SHORT $LN5@X86Emit_Gr@5

; 367  :     {
; 368  :       //mem32, imm8
; 369  :       *pEmitLoc++ = 0x83;

	mov	ecx, DWORD PTR _this$[ebp]
	mov	edx, DWORD PTR [ecx+4]
	mov	BYTE PTR [edx], 131			; 00000083H
	mov	eax, DWORD PTR _this$[ebp]
	mov	ecx, DWORD PTR [eax+4]
	add	ecx, 1
	mov	edx, DWORD PTR _this$[ebp]
	mov	DWORD PTR [edx+4], ecx

; 370  :       X86Emit_ModRegRM(x86ModType_mem,(x86ModReg)groupIndex,base,index,scale,disp);

	mov	eax, DWORD PTR _disp$[ebp]
	push	eax
	mov	ecx, DWORD PTR _scale$[ebp]
	push	ecx
	mov	edx, DWORD PTR _index$[ebp]
	push	edx
	mov	eax, DWORD PTR _base$[ebp]
	push	eax
	movzx	ecx, BYTE PTR _groupIndex$[ebp]
	push	ecx
	push	0
	mov	ecx, DWORD PTR _this$[ebp]
	call	?X86Emit_ModRegRM@NativeCodeCache@@QAEXW4x86ModType@@W4x86ModReg@@IW4x86IndexReg@@W4x86ScaleVal@@H@Z ; NativeCodeCache::X86Emit_ModRegRM

; 371  :       *pEmitLoc++ = (int8)imm;

	mov	edx, DWORD PTR _this$[ebp]
	mov	eax, DWORD PTR [edx+4]
	mov	cl, BYTE PTR _imm$[ebp]
	mov	BYTE PTR [eax], cl
	mov	edx, DWORD PTR _this$[ebp]
	mov	eax, DWORD PTR [edx+4]
	add	eax, 1
	mov	ecx, DWORD PTR _this$[ebp]
	mov	DWORD PTR [ecx+4], eax

; 372  :     }
; 373  :     else

	jmp	SHORT $LN4@X86Emit_Gr@5
$LN5@X86Emit_Gr@5:

; 374  :     {
; 375  :       //mem32, imm32
; 376  :       *pEmitLoc++ = 0x81;

	mov	edx, DWORD PTR _this$[ebp]
	mov	eax, DWORD PTR [edx+4]
	mov	BYTE PTR [eax], 129			; 00000081H
	mov	ecx, DWORD PTR _this$[ebp]
	mov	edx, DWORD PTR [ecx+4]
	add	edx, 1
	mov	eax, DWORD PTR _this$[ebp]
	mov	DWORD PTR [eax+4], edx

; 377  :       X86Emit_ModRegRM(x86ModType_mem,(x86ModReg)groupIndex,base,index,scale,disp);

	mov	ecx, DWORD PTR _disp$[ebp]
	push	ecx
	mov	edx, DWORD PTR _scale$[ebp]
	push	edx
	mov	eax, DWORD PTR _index$[ebp]
	push	eax
	mov	ecx, DWORD PTR _base$[ebp]
	push	ecx
	movzx	edx, BYTE PTR _groupIndex$[ebp]
	push	edx
	push	0
	mov	ecx, DWORD PTR _this$[ebp]
	call	?X86Emit_ModRegRM@NativeCodeCache@@QAEXW4x86ModType@@W4x86ModReg@@IW4x86IndexReg@@W4x86ScaleVal@@H@Z ; NativeCodeCache::X86Emit_ModRegRM

; 378  :       *((int32 *)pEmitLoc) = (int32)imm;

	mov	eax, DWORD PTR _this$[ebp]
	mov	ecx, DWORD PTR [eax+4]
	mov	edx, DWORD PTR _imm$[ebp]
	mov	DWORD PTR [ecx], edx

; 379  :       pEmitLoc += sizeof(int32);

	mov	eax, DWORD PTR _this$[ebp]
	mov	ecx, DWORD PTR [eax+4]
	add	ecx, 4
	mov	edx, DWORD PTR _this$[ebp]
	mov	DWORD PTR [edx+4], ecx
$LN4@X86Emit_Gr@5:

; 380  :     }
; 381  :   }
; 382  :   else

	jmp	$LN9@X86Emit_Gr@5
$LN6@X86Emit_Gr@5:

; 383  :   {
; 384  :     //mem16, imm
; 385  :     if((imm <= 127) && (imm >= -128))

	cmp	DWORD PTR _imm$[ebp], 127		; 0000007fH
	jg	SHORT $LN2@X86Emit_Gr@5
	cmp	DWORD PTR _imm$[ebp], -128		; ffffff80H
	jl	SHORT $LN2@X86Emit_Gr@5

; 386  :     {
; 387  :       //mem16, imm8
; 388  :       *pEmitLoc++ = 0x66;

	mov	eax, DWORD PTR _this$[ebp]
	mov	ecx, DWORD PTR [eax+4]
	mov	BYTE PTR [ecx], 102			; 00000066H
	mov	edx, DWORD PTR _this$[ebp]
	mov	eax, DWORD PTR [edx+4]
	add	eax, 1
	mov	ecx, DWORD PTR _this$[ebp]
	mov	DWORD PTR [ecx+4], eax

; 389  :       *pEmitLoc++ = 0x83;

	mov	edx, DWORD PTR _this$[ebp]
	mov	eax, DWORD PTR [edx+4]
	mov	BYTE PTR [eax], 131			; 00000083H
	mov	ecx, DWORD PTR _this$[ebp]
	mov	edx, DWORD PTR [ecx+4]
	add	edx, 1
	mov	eax, DWORD PTR _this$[ebp]
	mov	DWORD PTR [eax+4], edx

; 390  :       X86Emit_ModRegRM(x86ModType_mem,(x86ModReg)groupIndex,base,index,scale,disp);

	mov	ecx, DWORD PTR _disp$[ebp]
	push	ecx
	mov	edx, DWORD PTR _scale$[ebp]
	push	edx
	mov	eax, DWORD PTR _index$[ebp]
	push	eax
	mov	ecx, DWORD PTR _base$[ebp]
	push	ecx
	movzx	edx, BYTE PTR _groupIndex$[ebp]
	push	edx
	push	0
	mov	ecx, DWORD PTR _this$[ebp]
	call	?X86Emit_ModRegRM@NativeCodeCache@@QAEXW4x86ModType@@W4x86ModReg@@IW4x86IndexReg@@W4x86ScaleVal@@H@Z ; NativeCodeCache::X86Emit_ModRegRM

; 391  :       *pEmitLoc++ = imm;

	mov	eax, DWORD PTR _this$[ebp]
	mov	ecx, DWORD PTR [eax+4]
	mov	dl, BYTE PTR _imm$[ebp]
	mov	BYTE PTR [ecx], dl
	mov	eax, DWORD PTR _this$[ebp]
	mov	ecx, DWORD PTR [eax+4]
	add	ecx, 1
	mov	edx, DWORD PTR _this$[ebp]
	mov	DWORD PTR [edx+4], ecx

; 392  :     }
; 393  :     else

	jmp	SHORT $LN9@X86Emit_Gr@5
$LN2@X86Emit_Gr@5:

; 394  :     {
; 395  :       //mem16, imm16
; 396  :       *pEmitLoc++ = 0x66;

	mov	eax, DWORD PTR _this$[ebp]
	mov	ecx, DWORD PTR [eax+4]
	mov	BYTE PTR [ecx], 102			; 00000066H
	mov	edx, DWORD PTR _this$[ebp]
	mov	eax, DWORD PTR [edx+4]
	add	eax, 1
	mov	ecx, DWORD PTR _this$[ebp]
	mov	DWORD PTR [ecx+4], eax

; 397  :       *pEmitLoc++ = 0x81;

	mov	edx, DWORD PTR _this$[ebp]
	mov	eax, DWORD PTR [edx+4]
	mov	BYTE PTR [eax], 129			; 00000081H
	mov	ecx, DWORD PTR _this$[ebp]
	mov	edx, DWORD PTR [ecx+4]
	add	edx, 1
	mov	eax, DWORD PTR _this$[ebp]
	mov	DWORD PTR [eax+4], edx

; 398  :       //ModRegRM(modtype, regspare, base, index, scale, disp)
; 399  :       X86Emit_ModRegRM(x86ModType_mem,(x86ModReg)groupIndex,base,index,scale,disp);

	mov	ecx, DWORD PTR _disp$[ebp]
	push	ecx
	mov	edx, DWORD PTR _scale$[ebp]
	push	edx
	mov	eax, DWORD PTR _index$[ebp]
	push	eax
	mov	ecx, DWORD PTR _base$[ebp]
	push	ecx
	movzx	edx, BYTE PTR _groupIndex$[ebp]
	push	edx
	push	0
	mov	ecx, DWORD PTR _this$[ebp]
	call	?X86Emit_ModRegRM@NativeCodeCache@@QAEXW4x86ModType@@W4x86ModReg@@IW4x86IndexReg@@W4x86ScaleVal@@H@Z ; NativeCodeCache::X86Emit_ModRegRM

; 400  :       *((int16 *)pEmitLoc) = (int16)imm;

	mov	eax, DWORD PTR _this$[ebp]
	mov	ecx, DWORD PTR [eax+4]
	mov	dx, WORD PTR _imm$[ebp]
	mov	WORD PTR [ecx], dx

; 401  :       pEmitLoc += sizeof(int16);

	mov	eax, DWORD PTR _this$[ebp]
	mov	ecx, DWORD PTR [eax+4]
	add	ecx, 2
	mov	edx, DWORD PTR _this$[ebp]
	mov	DWORD PTR [edx+4], ecx
$LN9@X86Emit_Gr@5:

; 402  : 
; 403  :     }
; 404  :   }
; 405  : }

	add	esp, 4
	cmp	ebp, esp
	call	__RTC_CheckEsp
	mov	esp, ebp
	pop	ebp
	ret	28					; 0000001cH
?X86Emit_Group1IM@NativeCodeCache@@QAEXHW4x86MemPtr@@IW4x86IndexReg@@W4x86ScaleVal@@HE@Z ENDP ; NativeCodeCache::X86Emit_Group1IM
_TEXT	ENDS
PUBLIC	?X86Emit_Group2IR@NativeCodeCache@@QAEXW4x86Reg@@EE@Z ; NativeCodeCache::X86Emit_Group2IR
; Function compile flags: /Odtp /RTCsu
_TEXT	SEGMENT
_this$ = -4						; size = 4
_regDest$ = 8						; size = 4
_shiftCount$ = 12					; size = 1
_groupIndex$ = 16					; size = 1
?X86Emit_Group2IR@NativeCodeCache@@QAEXW4x86Reg@@EE@Z PROC ; NativeCodeCache::X86Emit_Group2IR
; _this$ = ecx

; 408  : {

	push	ebp
	mov	ebp, esp
	push	ecx
	mov	DWORD PTR [ebp-4], -858993460		; ccccccccH
	mov	DWORD PTR _this$[ebp], ecx

; 409  :   //SHIFTOP r8, CL, SHIFTOP r16, CL, or SHIFTOP r32, CL
; 410  :   
; 411  :   if(regDest < x86Reg_ax)

	cmp	DWORD PTR _regDest$[ebp], 8
	jge	$LN10@X86Emit_Gr@6

; 412  :   {
; 413  :     if(shiftCount == 1)

	movzx	eax, BYTE PTR _shiftCount$[ebp]
	cmp	eax, 1
	jne	SHORT $LN9@X86Emit_Gr@6

; 414  :     {
; 415  :       *pEmitLoc++ = 0xD0;

	mov	ecx, DWORD PTR _this$[ebp]
	mov	edx, DWORD PTR [ecx+4]
	mov	BYTE PTR [edx], 208			; 000000d0H
	mov	eax, DWORD PTR _this$[ebp]
	mov	ecx, DWORD PTR [eax+4]
	add	ecx, 1
	mov	edx, DWORD PTR _this$[ebp]
	mov	DWORD PTR [edx+4], ecx

; 416  :       X86Emit_ModRegRM(x86ModType_reg,(x86ModReg)groupIndex,(regDest & 0x07));

	push	0
	push	0
	push	4
	mov	eax, DWORD PTR _regDest$[ebp]
	and	eax, 7
	push	eax
	movzx	ecx, BYTE PTR _groupIndex$[ebp]
	push	ecx
	push	3
	mov	ecx, DWORD PTR _this$[ebp]
	call	?X86Emit_ModRegRM@NativeCodeCache@@QAEXW4x86ModType@@W4x86ModReg@@IW4x86IndexReg@@W4x86ScaleVal@@H@Z ; NativeCodeCache::X86Emit_ModRegRM

; 417  :     }
; 418  :     else

	jmp	SHORT $LN8@X86Emit_Gr@6
$LN9@X86Emit_Gr@6:

; 419  :     {
; 420  :       *pEmitLoc++ = 0xC0;

	mov	edx, DWORD PTR _this$[ebp]
	mov	eax, DWORD PTR [edx+4]
	mov	BYTE PTR [eax], 192			; 000000c0H
	mov	ecx, DWORD PTR _this$[ebp]
	mov	edx, DWORD PTR [ecx+4]
	add	edx, 1
	mov	eax, DWORD PTR _this$[ebp]
	mov	DWORD PTR [eax+4], edx

; 421  :       X86Emit_ModRegRM(x86ModType_reg,(x86ModReg)groupIndex,(regDest & 0x07));

	push	0
	push	0
	push	4
	mov	ecx, DWORD PTR _regDest$[ebp]
	and	ecx, 7
	push	ecx
	movzx	edx, BYTE PTR _groupIndex$[ebp]
	push	edx
	push	3
	mov	ecx, DWORD PTR _this$[ebp]
	call	?X86Emit_ModRegRM@NativeCodeCache@@QAEXW4x86ModType@@W4x86ModReg@@IW4x86IndexReg@@W4x86ScaleVal@@H@Z ; NativeCodeCache::X86Emit_ModRegRM

; 422  :       *pEmitLoc++ = shiftCount;

	mov	eax, DWORD PTR _this$[ebp]
	mov	ecx, DWORD PTR [eax+4]
	mov	dl, BYTE PTR _shiftCount$[ebp]
	mov	BYTE PTR [ecx], dl
	mov	eax, DWORD PTR _this$[ebp]
	mov	ecx, DWORD PTR [eax+4]
	add	ecx, 1
	mov	edx, DWORD PTR _this$[ebp]
	mov	DWORD PTR [edx+4], ecx
$LN8@X86Emit_Gr@6:

; 423  :     }

	jmp	$LN11@X86Emit_Gr@6
$LN10@X86Emit_Gr@6:

; 424  :   }
; 425  :   else if(regDest < x86Reg_eax)

	cmp	DWORD PTR _regDest$[ebp], 16		; 00000010H
	jge	$LN6@X86Emit_Gr@6

; 426  :   {
; 427  :     *pEmitLoc++ = 0x66;

	mov	eax, DWORD PTR _this$[ebp]
	mov	ecx, DWORD PTR [eax+4]
	mov	BYTE PTR [ecx], 102			; 00000066H
	mov	edx, DWORD PTR _this$[ebp]
	mov	eax, DWORD PTR [edx+4]
	add	eax, 1
	mov	ecx, DWORD PTR _this$[ebp]
	mov	DWORD PTR [ecx+4], eax

; 428  : 
; 429  :     if(shiftCount == 1)

	movzx	edx, BYTE PTR _shiftCount$[ebp]
	cmp	edx, 1
	jne	SHORT $LN5@X86Emit_Gr@6

; 430  :     {
; 431  :       *pEmitLoc++ = 0xD1;

	mov	eax, DWORD PTR _this$[ebp]
	mov	ecx, DWORD PTR [eax+4]
	mov	BYTE PTR [ecx], 209			; 000000d1H
	mov	edx, DWORD PTR _this$[ebp]
	mov	eax, DWORD PTR [edx+4]
	add	eax, 1
	mov	ecx, DWORD PTR _this$[ebp]
	mov	DWORD PTR [ecx+4], eax

; 432  :       X86Emit_ModRegRM(x86ModType_reg,(x86ModReg)groupIndex,(regDest & 0x07));

	push	0
	push	0
	push	4
	mov	edx, DWORD PTR _regDest$[ebp]
	and	edx, 7
	push	edx
	movzx	eax, BYTE PTR _groupIndex$[ebp]
	push	eax
	push	3
	mov	ecx, DWORD PTR _this$[ebp]
	call	?X86Emit_ModRegRM@NativeCodeCache@@QAEXW4x86ModType@@W4x86ModReg@@IW4x86IndexReg@@W4x86ScaleVal@@H@Z ; NativeCodeCache::X86Emit_ModRegRM

; 433  :     }
; 434  :     else

	jmp	SHORT $LN4@X86Emit_Gr@6
$LN5@X86Emit_Gr@6:

; 435  :     {
; 436  :       *pEmitLoc++ = 0xC1;

	mov	ecx, DWORD PTR _this$[ebp]
	mov	edx, DWORD PTR [ecx+4]
	mov	BYTE PTR [edx], 193			; 000000c1H
	mov	eax, DWORD PTR _this$[ebp]
	mov	ecx, DWORD PTR [eax+4]
	add	ecx, 1
	mov	edx, DWORD PTR _this$[ebp]
	mov	DWORD PTR [edx+4], ecx

; 437  :       X86Emit_ModRegRM(x86ModType_reg,(x86ModReg)groupIndex,(regDest & 0x07));

	push	0
	push	0
	push	4
	mov	eax, DWORD PTR _regDest$[ebp]
	and	eax, 7
	push	eax
	movzx	ecx, BYTE PTR _groupIndex$[ebp]
	push	ecx
	push	3
	mov	ecx, DWORD PTR _this$[ebp]
	call	?X86Emit_ModRegRM@NativeCodeCache@@QAEXW4x86ModType@@W4x86ModReg@@IW4x86IndexReg@@W4x86ScaleVal@@H@Z ; NativeCodeCache::X86Emit_ModRegRM

; 438  :       *pEmitLoc++ = shiftCount;

	mov	edx, DWORD PTR _this$[ebp]
	mov	eax, DWORD PTR [edx+4]
	mov	cl, BYTE PTR _shiftCount$[ebp]
	mov	BYTE PTR [eax], cl
	mov	edx, DWORD PTR _this$[ebp]
	mov	eax, DWORD PTR [edx+4]
	add	eax, 1
	mov	ecx, DWORD PTR _this$[ebp]
	mov	DWORD PTR [ecx+4], eax
$LN4@X86Emit_Gr@6:

; 439  :     }
; 440  :   }
; 441  :   else

	jmp	$LN11@X86Emit_Gr@6
$LN6@X86Emit_Gr@6:

; 442  :   {
; 443  :     if(shiftCount == 1)

	movzx	edx, BYTE PTR _shiftCount$[ebp]
	cmp	edx, 1
	jne	SHORT $LN2@X86Emit_Gr@6

; 444  :     {
; 445  :       *pEmitLoc++ = 0xD1;

	mov	eax, DWORD PTR _this$[ebp]
	mov	ecx, DWORD PTR [eax+4]
	mov	BYTE PTR [ecx], 209			; 000000d1H
	mov	edx, DWORD PTR _this$[ebp]
	mov	eax, DWORD PTR [edx+4]
	add	eax, 1
	mov	ecx, DWORD PTR _this$[ebp]
	mov	DWORD PTR [ecx+4], eax

; 446  :       X86Emit_ModRegRM(x86ModType_reg,(x86ModReg)groupIndex,(regDest & 0x07));

	push	0
	push	0
	push	4
	mov	edx, DWORD PTR _regDest$[ebp]
	and	edx, 7
	push	edx
	movzx	eax, BYTE PTR _groupIndex$[ebp]
	push	eax
	push	3
	mov	ecx, DWORD PTR _this$[ebp]
	call	?X86Emit_ModRegRM@NativeCodeCache@@QAEXW4x86ModType@@W4x86ModReg@@IW4x86IndexReg@@W4x86ScaleVal@@H@Z ; NativeCodeCache::X86Emit_ModRegRM

; 447  :     }
; 448  :     else

	jmp	SHORT $LN11@X86Emit_Gr@6
$LN2@X86Emit_Gr@6:

; 449  :     {
; 450  :       *pEmitLoc++ = 0xC1;

	mov	ecx, DWORD PTR _this$[ebp]
	mov	edx, DWORD PTR [ecx+4]
	mov	BYTE PTR [edx], 193			; 000000c1H
	mov	eax, DWORD PTR _this$[ebp]
	mov	ecx, DWORD PTR [eax+4]
	add	ecx, 1
	mov	edx, DWORD PTR _this$[ebp]
	mov	DWORD PTR [edx+4], ecx

; 451  :       X86Emit_ModRegRM(x86ModType_reg,(x86ModReg)groupIndex,(regDest & 0x07));

	push	0
	push	0
	push	4
	mov	eax, DWORD PTR _regDest$[ebp]
	and	eax, 7
	push	eax
	movzx	ecx, BYTE PTR _groupIndex$[ebp]
	push	ecx
	push	3
	mov	ecx, DWORD PTR _this$[ebp]
	call	?X86Emit_ModRegRM@NativeCodeCache@@QAEXW4x86ModType@@W4x86ModReg@@IW4x86IndexReg@@W4x86ScaleVal@@H@Z ; NativeCodeCache::X86Emit_ModRegRM

; 452  :       *pEmitLoc++ = shiftCount;

	mov	edx, DWORD PTR _this$[ebp]
	mov	eax, DWORD PTR [edx+4]
	mov	cl, BYTE PTR _shiftCount$[ebp]
	mov	BYTE PTR [eax], cl
	mov	edx, DWORD PTR _this$[ebp]
	mov	eax, DWORD PTR [edx+4]
	add	eax, 1
	mov	ecx, DWORD PTR _this$[ebp]
	mov	DWORD PTR [ecx+4], eax
$LN11@X86Emit_Gr@6:

; 453  :     }
; 454  :   }
; 455  : }

	add	esp, 4
	cmp	ebp, esp
	call	__RTC_CheckEsp
	mov	esp, ebp
	pop	ebp
	ret	12					; 0000000cH
?X86Emit_Group2IR@NativeCodeCache@@QAEXW4x86Reg@@EE@Z ENDP ; NativeCodeCache::X86Emit_Group2IR
_TEXT	ENDS
PUBLIC	?X86Emit_Group2IM@NativeCodeCache@@QAEXW4x86MemPtr@@EIW4x86IndexReg@@W4x86ScaleVal@@HE@Z ; NativeCodeCache::X86Emit_Group2IM
; Function compile flags: /Odtp /RTCsu
_TEXT	SEGMENT
_this$ = -4						; size = 4
_ptrType$ = 8						; size = 4
_shiftCount$ = 12					; size = 1
_base$ = 16						; size = 4
_index$ = 20						; size = 4
_scale$ = 24						; size = 4
_disp$ = 28						; size = 4
_groupIndex$ = 32					; size = 1
?X86Emit_Group2IM@NativeCodeCache@@QAEXW4x86MemPtr@@EIW4x86IndexReg@@W4x86ScaleVal@@HE@Z PROC ; NativeCodeCache::X86Emit_Group2IM
; _this$ = ecx

; 458  : {

	push	ebp
	mov	ebp, esp
	push	ecx
	mov	DWORD PTR [ebp-4], -858993460		; ccccccccH
	mov	DWORD PTR _this$[ebp], ecx

; 459  :   if(ptrType == x86MemPtr_byte)

	cmp	DWORD PTR _ptrType$[ebp], 0
	jne	$LN10@X86Emit_Gr@7

; 460  :   {
; 461  :     if(shiftCount == 1)

	movzx	eax, BYTE PTR _shiftCount$[ebp]
	cmp	eax, 1
	jne	SHORT $LN9@X86Emit_Gr@7

; 462  :     {
; 463  :       *pEmitLoc++ = 0xD0;

	mov	ecx, DWORD PTR _this$[ebp]
	mov	edx, DWORD PTR [ecx+4]
	mov	BYTE PTR [edx], 208			; 000000d0H
	mov	eax, DWORD PTR _this$[ebp]
	mov	ecx, DWORD PTR [eax+4]
	add	ecx, 1
	mov	edx, DWORD PTR _this$[ebp]
	mov	DWORD PTR [edx+4], ecx

; 464  :       X86Emit_ModRegRM(x86ModType_mem,(x86ModReg)groupIndex,base,index,scale,disp);

	mov	eax, DWORD PTR _disp$[ebp]
	push	eax
	mov	ecx, DWORD PTR _scale$[ebp]
	push	ecx
	mov	edx, DWORD PTR _index$[ebp]
	push	edx
	mov	eax, DWORD PTR _base$[ebp]
	push	eax
	movzx	ecx, BYTE PTR _groupIndex$[ebp]
	push	ecx
	push	0
	mov	ecx, DWORD PTR _this$[ebp]
	call	?X86Emit_ModRegRM@NativeCodeCache@@QAEXW4x86ModType@@W4x86ModReg@@IW4x86IndexReg@@W4x86ScaleVal@@H@Z ; NativeCodeCache::X86Emit_ModRegRM

; 465  :     }
; 466  :     else

	jmp	SHORT $LN8@X86Emit_Gr@7
$LN9@X86Emit_Gr@7:

; 467  :     {
; 468  :       *pEmitLoc++ = 0xC0;

	mov	edx, DWORD PTR _this$[ebp]
	mov	eax, DWORD PTR [edx+4]
	mov	BYTE PTR [eax], 192			; 000000c0H
	mov	ecx, DWORD PTR _this$[ebp]
	mov	edx, DWORD PTR [ecx+4]
	add	edx, 1
	mov	eax, DWORD PTR _this$[ebp]
	mov	DWORD PTR [eax+4], edx

; 469  :       X86Emit_ModRegRM(x86ModType_mem,(x86ModReg)groupIndex,base,index,scale,disp);

	mov	ecx, DWORD PTR _disp$[ebp]
	push	ecx
	mov	edx, DWORD PTR _scale$[ebp]
	push	edx
	mov	eax, DWORD PTR _index$[ebp]
	push	eax
	mov	ecx, DWORD PTR _base$[ebp]
	push	ecx
	movzx	edx, BYTE PTR _groupIndex$[ebp]
	push	edx
	push	0
	mov	ecx, DWORD PTR _this$[ebp]
	call	?X86Emit_ModRegRM@NativeCodeCache@@QAEXW4x86ModType@@W4x86ModReg@@IW4x86IndexReg@@W4x86ScaleVal@@H@Z ; NativeCodeCache::X86Emit_ModRegRM

; 470  :       *pEmitLoc++ = shiftCount;

	mov	eax, DWORD PTR _this$[ebp]
	mov	ecx, DWORD PTR [eax+4]
	mov	dl, BYTE PTR _shiftCount$[ebp]
	mov	BYTE PTR [ecx], dl
	mov	eax, DWORD PTR _this$[ebp]
	mov	ecx, DWORD PTR [eax+4]
	add	ecx, 1
	mov	edx, DWORD PTR _this$[ebp]
	mov	DWORD PTR [edx+4], ecx
$LN8@X86Emit_Gr@7:

; 471  :     }

	jmp	$LN11@X86Emit_Gr@7
$LN10@X86Emit_Gr@7:

; 472  :   }
; 473  :   else if(ptrType == x86MemPtr_word)

	cmp	DWORD PTR _ptrType$[ebp], 1
	jne	$LN6@X86Emit_Gr@7

; 474  :   {
; 475  :     *pEmitLoc++ = 0x66;

	mov	eax, DWORD PTR _this$[ebp]
	mov	ecx, DWORD PTR [eax+4]
	mov	BYTE PTR [ecx], 102			; 00000066H
	mov	edx, DWORD PTR _this$[ebp]
	mov	eax, DWORD PTR [edx+4]
	add	eax, 1
	mov	ecx, DWORD PTR _this$[ebp]
	mov	DWORD PTR [ecx+4], eax

; 476  : 
; 477  :     if(shiftCount == 1)

	movzx	edx, BYTE PTR _shiftCount$[ebp]
	cmp	edx, 1
	jne	SHORT $LN5@X86Emit_Gr@7

; 478  :     {
; 479  :       *pEmitLoc++ = 0xD1;

	mov	eax, DWORD PTR _this$[ebp]
	mov	ecx, DWORD PTR [eax+4]
	mov	BYTE PTR [ecx], 209			; 000000d1H
	mov	edx, DWORD PTR _this$[ebp]
	mov	eax, DWORD PTR [edx+4]
	add	eax, 1
	mov	ecx, DWORD PTR _this$[ebp]
	mov	DWORD PTR [ecx+4], eax

; 480  :       X86Emit_ModRegRM(x86ModType_mem,(x86ModReg)groupIndex,base,index,scale,disp);

	mov	edx, DWORD PTR _disp$[ebp]
	push	edx
	mov	eax, DWORD PTR _scale$[ebp]
	push	eax
	mov	ecx, DWORD PTR _index$[ebp]
	push	ecx
	mov	edx, DWORD PTR _base$[ebp]
	push	edx
	movzx	eax, BYTE PTR _groupIndex$[ebp]
	push	eax
	push	0
	mov	ecx, DWORD PTR _this$[ebp]
	call	?X86Emit_ModRegRM@NativeCodeCache@@QAEXW4x86ModType@@W4x86ModReg@@IW4x86IndexReg@@W4x86ScaleVal@@H@Z ; NativeCodeCache::X86Emit_ModRegRM

; 481  :     }
; 482  :     else

	jmp	SHORT $LN4@X86Emit_Gr@7
$LN5@X86Emit_Gr@7:

; 483  :     {
; 484  :       *pEmitLoc++ = 0xC1;

	mov	ecx, DWORD PTR _this$[ebp]
	mov	edx, DWORD PTR [ecx+4]
	mov	BYTE PTR [edx], 193			; 000000c1H
	mov	eax, DWORD PTR _this$[ebp]
	mov	ecx, DWORD PTR [eax+4]
	add	ecx, 1
	mov	edx, DWORD PTR _this$[ebp]
	mov	DWORD PTR [edx+4], ecx

; 485  :       X86Emit_ModRegRM(x86ModType_mem,(x86ModReg)groupIndex,base,index,scale,disp);

	mov	eax, DWORD PTR _disp$[ebp]
	push	eax
	mov	ecx, DWORD PTR _scale$[ebp]
	push	ecx
	mov	edx, DWORD PTR _index$[ebp]
	push	edx
	mov	eax, DWORD PTR _base$[ebp]
	push	eax
	movzx	ecx, BYTE PTR _groupIndex$[ebp]
	push	ecx
	push	0
	mov	ecx, DWORD PTR _this$[ebp]
	call	?X86Emit_ModRegRM@NativeCodeCache@@QAEXW4x86ModType@@W4x86ModReg@@IW4x86IndexReg@@W4x86ScaleVal@@H@Z ; NativeCodeCache::X86Emit_ModRegRM

; 486  :       *pEmitLoc++ = shiftCount;

	mov	edx, DWORD PTR _this$[ebp]
	mov	eax, DWORD PTR [edx+4]
	mov	cl, BYTE PTR _shiftCount$[ebp]
	mov	BYTE PTR [eax], cl
	mov	edx, DWORD PTR _this$[ebp]
	mov	eax, DWORD PTR [edx+4]
	add	eax, 1
	mov	ecx, DWORD PTR _this$[ebp]
	mov	DWORD PTR [ecx+4], eax
$LN4@X86Emit_Gr@7:

; 487  :     }
; 488  :   }
; 489  :   else

	jmp	$LN11@X86Emit_Gr@7
$LN6@X86Emit_Gr@7:

; 490  :   {
; 491  :     if(shiftCount == 1)

	movzx	edx, BYTE PTR _shiftCount$[ebp]
	cmp	edx, 1
	jne	SHORT $LN2@X86Emit_Gr@7

; 492  :     {
; 493  :       *pEmitLoc++ = 0xD1;

	mov	eax, DWORD PTR _this$[ebp]
	mov	ecx, DWORD PTR [eax+4]
	mov	BYTE PTR [ecx], 209			; 000000d1H
	mov	edx, DWORD PTR _this$[ebp]
	mov	eax, DWORD PTR [edx+4]
	add	eax, 1
	mov	ecx, DWORD PTR _this$[ebp]
	mov	DWORD PTR [ecx+4], eax

; 494  :       X86Emit_ModRegRM(x86ModType_mem,(x86ModReg)groupIndex,base,index,scale,disp);

	mov	edx, DWORD PTR _disp$[ebp]
	push	edx
	mov	eax, DWORD PTR _scale$[ebp]
	push	eax
	mov	ecx, DWORD PTR _index$[ebp]
	push	ecx
	mov	edx, DWORD PTR _base$[ebp]
	push	edx
	movzx	eax, BYTE PTR _groupIndex$[ebp]
	push	eax
	push	0
	mov	ecx, DWORD PTR _this$[ebp]
	call	?X86Emit_ModRegRM@NativeCodeCache@@QAEXW4x86ModType@@W4x86ModReg@@IW4x86IndexReg@@W4x86ScaleVal@@H@Z ; NativeCodeCache::X86Emit_ModRegRM

; 495  :     }
; 496  :     else

	jmp	SHORT $LN11@X86Emit_Gr@7
$LN2@X86Emit_Gr@7:

; 497  :     {
; 498  :       *pEmitLoc++ = 0xC1;

	mov	ecx, DWORD PTR _this$[ebp]
	mov	edx, DWORD PTR [ecx+4]
	mov	BYTE PTR [edx], 193			; 000000c1H
	mov	eax, DWORD PTR _this$[ebp]
	mov	ecx, DWORD PTR [eax+4]
	add	ecx, 1
	mov	edx, DWORD PTR _this$[ebp]
	mov	DWORD PTR [edx+4], ecx

; 499  :       X86Emit_ModRegRM(x86ModType_mem,(x86ModReg)groupIndex,base,index,scale,disp);

	mov	eax, DWORD PTR _disp$[ebp]
	push	eax
	mov	ecx, DWORD PTR _scale$[ebp]
	push	ecx
	mov	edx, DWORD PTR _index$[ebp]
	push	edx
	mov	eax, DWORD PTR _base$[ebp]
	push	eax
	movzx	ecx, BYTE PTR _groupIndex$[ebp]
	push	ecx
	push	0
	mov	ecx, DWORD PTR _this$[ebp]
	call	?X86Emit_ModRegRM@NativeCodeCache@@QAEXW4x86ModType@@W4x86ModReg@@IW4x86IndexReg@@W4x86ScaleVal@@H@Z ; NativeCodeCache::X86Emit_ModRegRM

; 500  :       *pEmitLoc++ = shiftCount;

	mov	edx, DWORD PTR _this$[ebp]
	mov	eax, DWORD PTR [edx+4]
	mov	cl, BYTE PTR _shiftCount$[ebp]
	mov	BYTE PTR [eax], cl
	mov	edx, DWORD PTR _this$[ebp]
	mov	eax, DWORD PTR [edx+4]
	add	eax, 1
	mov	ecx, DWORD PTR _this$[ebp]
	mov	DWORD PTR [ecx+4], eax
$LN11@X86Emit_Gr@7:

; 501  :     }
; 502  :   }
; 503  : }

	add	esp, 4
	cmp	ebp, esp
	call	__RTC_CheckEsp
	mov	esp, ebp
	pop	ebp
	ret	28					; 0000001cH
?X86Emit_Group2IM@NativeCodeCache@@QAEXW4x86MemPtr@@EIW4x86IndexReg@@W4x86ScaleVal@@HE@Z ENDP ; NativeCodeCache::X86Emit_Group2IM
_TEXT	ENDS
PUBLIC	?X86Emit_Group2RR@NativeCodeCache@@QAEXW4x86Reg@@E@Z ; NativeCodeCache::X86Emit_Group2RR
; Function compile flags: /Odtp /RTCsu
_TEXT	SEGMENT
_this$ = -4						; size = 4
_regDest$ = 8						; size = 4
_groupIndex$ = 12					; size = 1
?X86Emit_Group2RR@NativeCodeCache@@QAEXW4x86Reg@@E@Z PROC ; NativeCodeCache::X86Emit_Group2RR
; _this$ = ecx

; 506  : {

	push	ebp
	mov	ebp, esp
	push	ecx
	mov	DWORD PTR [ebp-4], -858993460		; ccccccccH
	mov	DWORD PTR _this$[ebp], ecx

; 507  :   //SHIFTOP r8, CL, SHIFTOP r16, CL, or SHIFTOP r32, CL
; 508  :   
; 509  :   if(regDest < x86Reg_ax)

	cmp	DWORD PTR _regDest$[ebp], 8
	jge	SHORT $LN4@X86Emit_Gr@8

; 510  :   {
; 511  :     //m8, r8
; 512  :     *pEmitLoc++ = 0xD2;

	mov	eax, DWORD PTR _this$[ebp]
	mov	ecx, DWORD PTR [eax+4]
	mov	BYTE PTR [ecx], 210			; 000000d2H
	mov	edx, DWORD PTR _this$[ebp]
	mov	eax, DWORD PTR [edx+4]
	add	eax, 1
	mov	ecx, DWORD PTR _this$[ebp]
	mov	DWORD PTR [ecx+4], eax

; 513  :     X86Emit_ModRegRM(x86ModType_reg,(x86ModReg)groupIndex,(regDest & 0x07));

	push	0
	push	0
	push	4
	mov	edx, DWORD PTR _regDest$[ebp]
	and	edx, 7
	push	edx
	movzx	eax, BYTE PTR _groupIndex$[ebp]
	push	eax
	push	3
	mov	ecx, DWORD PTR _this$[ebp]
	call	?X86Emit_ModRegRM@NativeCodeCache@@QAEXW4x86ModType@@W4x86ModReg@@IW4x86IndexReg@@W4x86ScaleVal@@H@Z ; NativeCodeCache::X86Emit_ModRegRM
	jmp	$LN5@X86Emit_Gr@8
$LN4@X86Emit_Gr@8:

; 514  :   }
; 515  :   else if(regDest < x86Reg_eax)

	cmp	DWORD PTR _regDest$[ebp], 16		; 00000010H
	jge	SHORT $LN2@X86Emit_Gr@8

; 516  :   {
; 517  :     //m16, r16
; 518  :     *pEmitLoc++ = 0x66;

	mov	ecx, DWORD PTR _this$[ebp]
	mov	edx, DWORD PTR [ecx+4]
	mov	BYTE PTR [edx], 102			; 00000066H
	mov	eax, DWORD PTR _this$[ebp]
	mov	ecx, DWORD PTR [eax+4]
	add	ecx, 1
	mov	edx, DWORD PTR _this$[ebp]
	mov	DWORD PTR [edx+4], ecx

; 519  :     *pEmitLoc++ = 0xD3;

	mov	eax, DWORD PTR _this$[ebp]
	mov	ecx, DWORD PTR [eax+4]
	mov	BYTE PTR [ecx], 211			; 000000d3H
	mov	edx, DWORD PTR _this$[ebp]
	mov	eax, DWORD PTR [edx+4]
	add	eax, 1
	mov	ecx, DWORD PTR _this$[ebp]
	mov	DWORD PTR [ecx+4], eax

; 520  :     X86Emit_ModRegRM(x86ModType_reg,(x86ModReg)groupIndex,(regDest & 0x07));

	push	0
	push	0
	push	4
	mov	edx, DWORD PTR _regDest$[ebp]
	and	edx, 7
	push	edx
	movzx	eax, BYTE PTR _groupIndex$[ebp]
	push	eax
	push	3
	mov	ecx, DWORD PTR _this$[ebp]
	call	?X86Emit_ModRegRM@NativeCodeCache@@QAEXW4x86ModType@@W4x86ModReg@@IW4x86IndexReg@@W4x86ScaleVal@@H@Z ; NativeCodeCache::X86Emit_ModRegRM

; 521  :   }
; 522  :   else

	jmp	SHORT $LN5@X86Emit_Gr@8
$LN2@X86Emit_Gr@8:

; 523  :   {
; 524  :     //m32, r32
; 525  :     *pEmitLoc++ = 0xD3;

	mov	ecx, DWORD PTR _this$[ebp]
	mov	edx, DWORD PTR [ecx+4]
	mov	BYTE PTR [edx], 211			; 000000d3H
	mov	eax, DWORD PTR _this$[ebp]
	mov	ecx, DWORD PTR [eax+4]
	add	ecx, 1
	mov	edx, DWORD PTR _this$[ebp]
	mov	DWORD PTR [edx+4], ecx

; 526  :     X86Emit_ModRegRM(x86ModType_reg,(x86ModReg)groupIndex,(regDest & 0x07));

	push	0
	push	0
	push	4
	mov	eax, DWORD PTR _regDest$[ebp]
	and	eax, 7
	push	eax
	movzx	ecx, BYTE PTR _groupIndex$[ebp]
	push	ecx
	push	3
	mov	ecx, DWORD PTR _this$[ebp]
	call	?X86Emit_ModRegRM@NativeCodeCache@@QAEXW4x86ModType@@W4x86ModReg@@IW4x86IndexReg@@W4x86ScaleVal@@H@Z ; NativeCodeCache::X86Emit_ModRegRM
$LN5@X86Emit_Gr@8:

; 527  :   }
; 528  : }

	add	esp, 4
	cmp	ebp, esp
	call	__RTC_CheckEsp
	mov	esp, ebp
	pop	ebp
	ret	8
?X86Emit_Group2RR@NativeCodeCache@@QAEXW4x86Reg@@E@Z ENDP ; NativeCodeCache::X86Emit_Group2RR
_TEXT	ENDS
PUBLIC	?X86Emit_Group2RM@NativeCodeCache@@QAEXW4x86MemPtr@@IW4x86IndexReg@@W4x86ScaleVal@@HE@Z ; NativeCodeCache::X86Emit_Group2RM
; Function compile flags: /Odtp /RTCsu
_TEXT	SEGMENT
_this$ = -4						; size = 4
_ptrType$ = 8						; size = 4
_base$ = 12						; size = 4
_index$ = 16						; size = 4
_scale$ = 20						; size = 4
_disp$ = 24						; size = 4
_groupIndex$ = 28					; size = 1
?X86Emit_Group2RM@NativeCodeCache@@QAEXW4x86MemPtr@@IW4x86IndexReg@@W4x86ScaleVal@@HE@Z PROC ; NativeCodeCache::X86Emit_Group2RM
; _this$ = ecx

; 531  : {

	push	ebp
	mov	ebp, esp
	push	ecx
	mov	DWORD PTR [ebp-4], -858993460		; ccccccccH
	mov	DWORD PTR _this$[ebp], ecx

; 532  :   //OP m8, reg8, OP m16, reg16 or OP m32, reg32
; 533  : 
; 534  :   if(ptrType == x86MemPtr_byte)

	cmp	DWORD PTR _ptrType$[ebp], 0
	jne	SHORT $LN4@X86Emit_Gr@9

; 535  :   {
; 536  :     *pEmitLoc++ = 0xD2;

	mov	eax, DWORD PTR _this$[ebp]
	mov	ecx, DWORD PTR [eax+4]
	mov	BYTE PTR [ecx], 210			; 000000d2H
	mov	edx, DWORD PTR _this$[ebp]
	mov	eax, DWORD PTR [edx+4]
	add	eax, 1
	mov	ecx, DWORD PTR _this$[ebp]
	mov	DWORD PTR [ecx+4], eax

; 537  :     X86Emit_ModRegRM(x86ModType_mem,(x86ModReg)groupIndex,base,index,scale,disp);

	mov	edx, DWORD PTR _disp$[ebp]
	push	edx
	mov	eax, DWORD PTR _scale$[ebp]
	push	eax
	mov	ecx, DWORD PTR _index$[ebp]
	push	ecx
	mov	edx, DWORD PTR _base$[ebp]
	push	edx
	movzx	eax, BYTE PTR _groupIndex$[ebp]
	push	eax
	push	0
	mov	ecx, DWORD PTR _this$[ebp]
	call	?X86Emit_ModRegRM@NativeCodeCache@@QAEXW4x86ModType@@W4x86ModReg@@IW4x86IndexReg@@W4x86ScaleVal@@H@Z ; NativeCodeCache::X86Emit_ModRegRM
	jmp	$LN5@X86Emit_Gr@9
$LN4@X86Emit_Gr@9:

; 538  :   }
; 539  :   else if(ptrType == x86MemPtr_word)

	cmp	DWORD PTR _ptrType$[ebp], 1
	jne	SHORT $LN2@X86Emit_Gr@9

; 540  :   {
; 541  :     *pEmitLoc++ = 0x66;

	mov	ecx, DWORD PTR _this$[ebp]
	mov	edx, DWORD PTR [ecx+4]
	mov	BYTE PTR [edx], 102			; 00000066H
	mov	eax, DWORD PTR _this$[ebp]
	mov	ecx, DWORD PTR [eax+4]
	add	ecx, 1
	mov	edx, DWORD PTR _this$[ebp]
	mov	DWORD PTR [edx+4], ecx

; 542  :     *pEmitLoc++ = 0xD3;

	mov	eax, DWORD PTR _this$[ebp]
	mov	ecx, DWORD PTR [eax+4]
	mov	BYTE PTR [ecx], 211			; 000000d3H
	mov	edx, DWORD PTR _this$[ebp]
	mov	eax, DWORD PTR [edx+4]
	add	eax, 1
	mov	ecx, DWORD PTR _this$[ebp]
	mov	DWORD PTR [ecx+4], eax

; 543  :     X86Emit_ModRegRM(x86ModType_mem,(x86ModReg)groupIndex,base,index,scale,disp);

	mov	edx, DWORD PTR _disp$[ebp]
	push	edx
	mov	eax, DWORD PTR _scale$[ebp]
	push	eax
	mov	ecx, DWORD PTR _index$[ebp]
	push	ecx
	mov	edx, DWORD PTR _base$[ebp]
	push	edx
	movzx	eax, BYTE PTR _groupIndex$[ebp]
	push	eax
	push	0
	mov	ecx, DWORD PTR _this$[ebp]
	call	?X86Emit_ModRegRM@NativeCodeCache@@QAEXW4x86ModType@@W4x86ModReg@@IW4x86IndexReg@@W4x86ScaleVal@@H@Z ; NativeCodeCache::X86Emit_ModRegRM

; 544  :   }
; 545  :   else

	jmp	SHORT $LN5@X86Emit_Gr@9
$LN2@X86Emit_Gr@9:

; 546  :   {
; 547  :     *pEmitLoc++ = 0xD3;

	mov	ecx, DWORD PTR _this$[ebp]
	mov	edx, DWORD PTR [ecx+4]
	mov	BYTE PTR [edx], 211			; 000000d3H
	mov	eax, DWORD PTR _this$[ebp]
	mov	ecx, DWORD PTR [eax+4]
	add	ecx, 1
	mov	edx, DWORD PTR _this$[ebp]
	mov	DWORD PTR [edx+4], ecx

; 548  :     X86Emit_ModRegRM(x86ModType_mem,(x86ModReg)groupIndex,base,index,scale,disp);

	mov	eax, DWORD PTR _disp$[ebp]
	push	eax
	mov	ecx, DWORD PTR _scale$[ebp]
	push	ecx
	mov	edx, DWORD PTR _index$[ebp]
	push	edx
	mov	eax, DWORD PTR _base$[ebp]
	push	eax
	movzx	ecx, BYTE PTR _groupIndex$[ebp]
	push	ecx
	push	0
	mov	ecx, DWORD PTR _this$[ebp]
	call	?X86Emit_ModRegRM@NativeCodeCache@@QAEXW4x86ModType@@W4x86ModReg@@IW4x86IndexReg@@W4x86ScaleVal@@H@Z ; NativeCodeCache::X86Emit_ModRegRM
$LN5@X86Emit_Gr@9:

; 549  :   }
; 550  : }

	add	esp, 4
	cmp	ebp, esp
	call	__RTC_CheckEsp
	mov	esp, ebp
	pop	ebp
	ret	24					; 00000018H
?X86Emit_Group2RM@NativeCodeCache@@QAEXW4x86MemPtr@@IW4x86IndexReg@@W4x86ScaleVal@@HE@Z ENDP ; NativeCodeCache::X86Emit_Group2RM
_TEXT	ENDS
PUBLIC	?X86Emit_ADDRR@NativeCodeCache@@QAEXW4x86Reg@@0@Z ; NativeCodeCache::X86Emit_ADDRR
; Function compile flags: /Odtp /RTCsu
_TEXT	SEGMENT
_this$ = -4						; size = 4
_regDest$ = 8						; size = 4
_regSrc$ = 12						; size = 4
?X86Emit_ADDRR@NativeCodeCache@@QAEXW4x86Reg@@0@Z PROC	; NativeCodeCache::X86Emit_ADDRR
; _this$ = ecx

; 553  : {

	push	ebp
	mov	ebp, esp
	push	ecx
	mov	DWORD PTR [ebp-4], -858993460		; ccccccccH
	mov	DWORD PTR _this$[ebp], ecx

; 554  :   X86Emit_Group1RR(regDest, regSrc, 0);

	push	0
	mov	eax, DWORD PTR _regSrc$[ebp]
	push	eax
	mov	ecx, DWORD PTR _regDest$[ebp]
	push	ecx
	mov	ecx, DWORD PTR _this$[ebp]
	call	?X86Emit_Group1RR@NativeCodeCache@@QAEXW4x86Reg@@0E@Z ; NativeCodeCache::X86Emit_Group1RR

; 555  : }

	add	esp, 4
	cmp	ebp, esp
	call	__RTC_CheckEsp
	mov	esp, ebp
	pop	ebp
	ret	8
?X86Emit_ADDRR@NativeCodeCache@@QAEXW4x86Reg@@0@Z ENDP	; NativeCodeCache::X86Emit_ADDRR
_TEXT	ENDS
PUBLIC	?X86Emit_ADDRM@NativeCodeCache@@QAEXW4x86Reg@@IW4x86IndexReg@@W4x86ScaleVal@@H@Z ; NativeCodeCache::X86Emit_ADDRM
; Function compile flags: /Odtp /RTCsu
_TEXT	SEGMENT
_this$ = -4						; size = 4
_regSrc$ = 8						; size = 4
_base$ = 12						; size = 4
_index$ = 16						; size = 4
_scale$ = 20						; size = 4
_disp$ = 24						; size = 4
?X86Emit_ADDRM@NativeCodeCache@@QAEXW4x86Reg@@IW4x86IndexReg@@W4x86ScaleVal@@H@Z PROC ; NativeCodeCache::X86Emit_ADDRM
; _this$ = ecx

; 558  : {

	push	ebp
	mov	ebp, esp
	push	ecx
	mov	DWORD PTR [ebp-4], -858993460		; ccccccccH
	mov	DWORD PTR _this$[ebp], ecx

; 559  :   X86Emit_Group1RM(regSrc, base, index, scale, disp, 0);

	push	0
	mov	eax, DWORD PTR _disp$[ebp]
	push	eax
	mov	ecx, DWORD PTR _scale$[ebp]
	push	ecx
	mov	edx, DWORD PTR _index$[ebp]
	push	edx
	mov	eax, DWORD PTR _base$[ebp]
	push	eax
	mov	ecx, DWORD PTR _regSrc$[ebp]
	push	ecx
	mov	ecx, DWORD PTR _this$[ebp]
	call	?X86Emit_Group1RM@NativeCodeCache@@QAEXW4x86Reg@@IW4x86IndexReg@@W4x86ScaleVal@@HE@Z ; NativeCodeCache::X86Emit_Group1RM

; 560  : }

	add	esp, 4
	cmp	ebp, esp
	call	__RTC_CheckEsp
	mov	esp, ebp
	pop	ebp
	ret	20					; 00000014H
?X86Emit_ADDRM@NativeCodeCache@@QAEXW4x86Reg@@IW4x86IndexReg@@W4x86ScaleVal@@H@Z ENDP ; NativeCodeCache::X86Emit_ADDRM
_TEXT	ENDS
PUBLIC	?X86Emit_ADDMR@NativeCodeCache@@QAEXW4x86Reg@@IW4x86IndexReg@@W4x86ScaleVal@@H@Z ; NativeCodeCache::X86Emit_ADDMR
; Function compile flags: /Odtp /RTCsu
_TEXT	SEGMENT
_this$ = -4						; size = 4
_regDest$ = 8						; size = 4
_base$ = 12						; size = 4
_index$ = 16						; size = 4
_scale$ = 20						; size = 4
_disp$ = 24						; size = 4
?X86Emit_ADDMR@NativeCodeCache@@QAEXW4x86Reg@@IW4x86IndexReg@@W4x86ScaleVal@@H@Z PROC ; NativeCodeCache::X86Emit_ADDMR
; _this$ = ecx

; 563  : {

	push	ebp
	mov	ebp, esp
	push	ecx
	mov	DWORD PTR [ebp-4], -858993460		; ccccccccH
	mov	DWORD PTR _this$[ebp], ecx

; 564  :   X86Emit_Group1MR(regDest, base, index, scale, disp, 0);

	push	0
	mov	eax, DWORD PTR _disp$[ebp]
	push	eax
	mov	ecx, DWORD PTR _scale$[ebp]
	push	ecx
	mov	edx, DWORD PTR _index$[ebp]
	push	edx
	mov	eax, DWORD PTR _base$[ebp]
	push	eax
	mov	ecx, DWORD PTR _regDest$[ebp]
	push	ecx
	mov	ecx, DWORD PTR _this$[ebp]
	call	?X86Emit_Group1MR@NativeCodeCache@@QAEXW4x86Reg@@IW4x86IndexReg@@W4x86ScaleVal@@HE@Z ; NativeCodeCache::X86Emit_Group1MR

; 565  : }

	add	esp, 4
	cmp	ebp, esp
	call	__RTC_CheckEsp
	mov	esp, ebp
	pop	ebp
	ret	20					; 00000014H
?X86Emit_ADDMR@NativeCodeCache@@QAEXW4x86Reg@@IW4x86IndexReg@@W4x86ScaleVal@@H@Z ENDP ; NativeCodeCache::X86Emit_ADDMR
_TEXT	ENDS
PUBLIC	?X86Emit_ADDIR@NativeCodeCache@@QAEXHW4x86Reg@@@Z ; NativeCodeCache::X86Emit_ADDIR
; Function compile flags: /Odtp /RTCsu
_TEXT	SEGMENT
_this$ = -4						; size = 4
_imm$ = 8						; size = 4
_regDest$ = 12						; size = 4
?X86Emit_ADDIR@NativeCodeCache@@QAEXHW4x86Reg@@@Z PROC	; NativeCodeCache::X86Emit_ADDIR
; _this$ = ecx

; 568  : {

	push	ebp
	mov	ebp, esp
	push	ecx
	mov	DWORD PTR [ebp-4], -858993460		; ccccccccH
	mov	DWORD PTR _this$[ebp], ecx

; 569  :   X86Emit_Group1IR(imm, regDest, 0);

	push	0
	mov	eax, DWORD PTR _regDest$[ebp]
	push	eax
	mov	ecx, DWORD PTR _imm$[ebp]
	push	ecx
	mov	ecx, DWORD PTR _this$[ebp]
	call	?X86Emit_Group1IR@NativeCodeCache@@QAEXHW4x86Reg@@E@Z ; NativeCodeCache::X86Emit_Group1IR

; 570  : }

	add	esp, 4
	cmp	ebp, esp
	call	__RTC_CheckEsp
	mov	esp, ebp
	pop	ebp
	ret	8
?X86Emit_ADDIR@NativeCodeCache@@QAEXHW4x86Reg@@@Z ENDP	; NativeCodeCache::X86Emit_ADDIR
_TEXT	ENDS
PUBLIC	?X86Emit_ADDIM@NativeCodeCache@@QAEXHW4x86MemPtr@@IW4x86IndexReg@@W4x86ScaleVal@@H@Z ; NativeCodeCache::X86Emit_ADDIM
; Function compile flags: /Odtp /RTCsu
_TEXT	SEGMENT
_this$ = -4						; size = 4
_imm$ = 8						; size = 4
_ptrType$ = 12						; size = 4
_base$ = 16						; size = 4
_index$ = 20						; size = 4
_scale$ = 24						; size = 4
_disp$ = 28						; size = 4
?X86Emit_ADDIM@NativeCodeCache@@QAEXHW4x86MemPtr@@IW4x86IndexReg@@W4x86ScaleVal@@H@Z PROC ; NativeCodeCache::X86Emit_ADDIM
; _this$ = ecx

; 573  : {

	push	ebp
	mov	ebp, esp
	push	ecx
	mov	DWORD PTR [ebp-4], -858993460		; ccccccccH
	mov	DWORD PTR _this$[ebp], ecx

; 574  :   X86Emit_Group1IM(imm, ptrType, base, index, scale, disp, 0);

	push	0
	mov	eax, DWORD PTR _disp$[ebp]
	push	eax
	mov	ecx, DWORD PTR _scale$[ebp]
	push	ecx
	mov	edx, DWORD PTR _index$[ebp]
	push	edx
	mov	eax, DWORD PTR _base$[ebp]
	push	eax
	mov	ecx, DWORD PTR _ptrType$[ebp]
	push	ecx
	mov	edx, DWORD PTR _imm$[ebp]
	push	edx
	mov	ecx, DWORD PTR _this$[ebp]
	call	?X86Emit_Group1IM@NativeCodeCache@@QAEXHW4x86MemPtr@@IW4x86IndexReg@@W4x86ScaleVal@@HE@Z ; NativeCodeCache::X86Emit_Group1IM

; 575  : }

	add	esp, 4
	cmp	ebp, esp
	call	__RTC_CheckEsp
	mov	esp, ebp
	pop	ebp
	ret	24					; 00000018H
?X86Emit_ADDIM@NativeCodeCache@@QAEXHW4x86MemPtr@@IW4x86IndexReg@@W4x86ScaleVal@@H@Z ENDP ; NativeCodeCache::X86Emit_ADDIM
_TEXT	ENDS
PUBLIC	?X86Emit_PUSHES@NativeCodeCache@@QAEXXZ		; NativeCodeCache::X86Emit_PUSHES
; Function compile flags: /Odtp /RTCsu
_TEXT	SEGMENT
_this$ = -4						; size = 4
?X86Emit_PUSHES@NativeCodeCache@@QAEXXZ PROC		; NativeCodeCache::X86Emit_PUSHES
; _this$ = ecx

; 578  : {

	push	ebp
	mov	ebp, esp
	push	ecx
	mov	DWORD PTR [ebp-4], -858993460		; ccccccccH
	mov	DWORD PTR _this$[ebp], ecx

; 579  :   *pEmitLoc++ = 0x06;

	mov	eax, DWORD PTR _this$[ebp]
	mov	ecx, DWORD PTR [eax+4]
	mov	BYTE PTR [ecx], 6
	mov	edx, DWORD PTR _this$[ebp]
	mov	eax, DWORD PTR [edx+4]
	add	eax, 1
	mov	ecx, DWORD PTR _this$[ebp]
	mov	DWORD PTR [ecx+4], eax

; 580  : }

	mov	esp, ebp
	pop	ebp
	ret	0
?X86Emit_PUSHES@NativeCodeCache@@QAEXXZ ENDP		; NativeCodeCache::X86Emit_PUSHES
_TEXT	ENDS
PUBLIC	?X86Emit_POPES@NativeCodeCache@@QAEXXZ		; NativeCodeCache::X86Emit_POPES
; Function compile flags: /Odtp /RTCsu
_TEXT	SEGMENT
_this$ = -4						; size = 4
?X86Emit_POPES@NativeCodeCache@@QAEXXZ PROC		; NativeCodeCache::X86Emit_POPES
; _this$ = ecx

; 583  : {

	push	ebp
	mov	ebp, esp
	push	ecx
	mov	DWORD PTR [ebp-4], -858993460		; ccccccccH
	mov	DWORD PTR _this$[ebp], ecx

; 584  :   *pEmitLoc++ = 0x07;

	mov	eax, DWORD PTR _this$[ebp]
	mov	ecx, DWORD PTR [eax+4]
	mov	BYTE PTR [ecx], 7
	mov	edx, DWORD PTR _this$[ebp]
	mov	eax, DWORD PTR [edx+4]
	add	eax, 1
	mov	ecx, DWORD PTR _this$[ebp]
	mov	DWORD PTR [ecx+4], eax

; 585  : }

	mov	esp, ebp
	pop	ebp
	ret	0
?X86Emit_POPES@NativeCodeCache@@QAEXXZ ENDP		; NativeCodeCache::X86Emit_POPES
_TEXT	ENDS
PUBLIC	?X86Emit_ORRR@NativeCodeCache@@QAEXW4x86Reg@@0@Z ; NativeCodeCache::X86Emit_ORRR
; Function compile flags: /Odtp /RTCsu
_TEXT	SEGMENT
_this$ = -4						; size = 4
_regDest$ = 8						; size = 4
_regSrc$ = 12						; size = 4
?X86Emit_ORRR@NativeCodeCache@@QAEXW4x86Reg@@0@Z PROC	; NativeCodeCache::X86Emit_ORRR
; _this$ = ecx

; 588  : {

	push	ebp
	mov	ebp, esp
	push	ecx
	mov	DWORD PTR [ebp-4], -858993460		; ccccccccH
	mov	DWORD PTR _this$[ebp], ecx

; 589  :   X86Emit_Group1RR(regDest, regSrc, 1);

	push	1
	mov	eax, DWORD PTR _regSrc$[ebp]
	push	eax
	mov	ecx, DWORD PTR _regDest$[ebp]
	push	ecx
	mov	ecx, DWORD PTR _this$[ebp]
	call	?X86Emit_Group1RR@NativeCodeCache@@QAEXW4x86Reg@@0E@Z ; NativeCodeCache::X86Emit_Group1RR

; 590  : }

	add	esp, 4
	cmp	ebp, esp
	call	__RTC_CheckEsp
	mov	esp, ebp
	pop	ebp
	ret	8
?X86Emit_ORRR@NativeCodeCache@@QAEXW4x86Reg@@0@Z ENDP	; NativeCodeCache::X86Emit_ORRR
_TEXT	ENDS
PUBLIC	?X86Emit_ORRM@NativeCodeCache@@QAEXW4x86Reg@@IW4x86IndexReg@@W4x86ScaleVal@@H@Z ; NativeCodeCache::X86Emit_ORRM
; Function compile flags: /Odtp /RTCsu
_TEXT	SEGMENT
_this$ = -4						; size = 4
_regSrc$ = 8						; size = 4
_base$ = 12						; size = 4
_index$ = 16						; size = 4
_scale$ = 20						; size = 4
_disp$ = 24						; size = 4
?X86Emit_ORRM@NativeCodeCache@@QAEXW4x86Reg@@IW4x86IndexReg@@W4x86ScaleVal@@H@Z PROC ; NativeCodeCache::X86Emit_ORRM
; _this$ = ecx

; 593  : {

	push	ebp
	mov	ebp, esp
	push	ecx
	mov	DWORD PTR [ebp-4], -858993460		; ccccccccH
	mov	DWORD PTR _this$[ebp], ecx

; 594  :   X86Emit_Group1RM(regSrc, base, index, scale, disp, 1);

	push	1
	mov	eax, DWORD PTR _disp$[ebp]
	push	eax
	mov	ecx, DWORD PTR _scale$[ebp]
	push	ecx
	mov	edx, DWORD PTR _index$[ebp]
	push	edx
	mov	eax, DWORD PTR _base$[ebp]
	push	eax
	mov	ecx, DWORD PTR _regSrc$[ebp]
	push	ecx
	mov	ecx, DWORD PTR _this$[ebp]
	call	?X86Emit_Group1RM@NativeCodeCache@@QAEXW4x86Reg@@IW4x86IndexReg@@W4x86ScaleVal@@HE@Z ; NativeCodeCache::X86Emit_Group1RM

; 595  : }

	add	esp, 4
	cmp	ebp, esp
	call	__RTC_CheckEsp
	mov	esp, ebp
	pop	ebp
	ret	20					; 00000014H
?X86Emit_ORRM@NativeCodeCache@@QAEXW4x86Reg@@IW4x86IndexReg@@W4x86ScaleVal@@H@Z ENDP ; NativeCodeCache::X86Emit_ORRM
_TEXT	ENDS
PUBLIC	?X86Emit_ORMR@NativeCodeCache@@QAEXW4x86Reg@@IW4x86IndexReg@@W4x86ScaleVal@@H@Z ; NativeCodeCache::X86Emit_ORMR
; Function compile flags: /Odtp /RTCsu
_TEXT	SEGMENT
_this$ = -4						; size = 4
_regDest$ = 8						; size = 4
_base$ = 12						; size = 4
_index$ = 16						; size = 4
_scale$ = 20						; size = 4
_disp$ = 24						; size = 4
?X86Emit_ORMR@NativeCodeCache@@QAEXW4x86Reg@@IW4x86IndexReg@@W4x86ScaleVal@@H@Z PROC ; NativeCodeCache::X86Emit_ORMR
; _this$ = ecx

; 598  : {

	push	ebp
	mov	ebp, esp
	push	ecx
	mov	DWORD PTR [ebp-4], -858993460		; ccccccccH
	mov	DWORD PTR _this$[ebp], ecx

; 599  :   X86Emit_Group1MR(regDest, base, index, scale, disp, 1);

	push	1
	mov	eax, DWORD PTR _disp$[ebp]
	push	eax
	mov	ecx, DWORD PTR _scale$[ebp]
	push	ecx
	mov	edx, DWORD PTR _index$[ebp]
	push	edx
	mov	eax, DWORD PTR _base$[ebp]
	push	eax
	mov	ecx, DWORD PTR _regDest$[ebp]
	push	ecx
	mov	ecx, DWORD PTR _this$[ebp]
	call	?X86Emit_Group1MR@NativeCodeCache@@QAEXW4x86Reg@@IW4x86IndexReg@@W4x86ScaleVal@@HE@Z ; NativeCodeCache::X86Emit_Group1MR

; 600  : }

	add	esp, 4
	cmp	ebp, esp
	call	__RTC_CheckEsp
	mov	esp, ebp
	pop	ebp
	ret	20					; 00000014H
?X86Emit_ORMR@NativeCodeCache@@QAEXW4x86Reg@@IW4x86IndexReg@@W4x86ScaleVal@@H@Z ENDP ; NativeCodeCache::X86Emit_ORMR
_TEXT	ENDS
PUBLIC	?X86Emit_ORIR@NativeCodeCache@@QAEXHW4x86Reg@@@Z ; NativeCodeCache::X86Emit_ORIR
; Function compile flags: /Odtp /RTCsu
_TEXT	SEGMENT
_this$ = -4						; size = 4
_imm$ = 8						; size = 4
_regDest$ = 12						; size = 4
?X86Emit_ORIR@NativeCodeCache@@QAEXHW4x86Reg@@@Z PROC	; NativeCodeCache::X86Emit_ORIR
; _this$ = ecx

; 603  : {

	push	ebp
	mov	ebp, esp
	push	ecx
	mov	DWORD PTR [ebp-4], -858993460		; ccccccccH
	mov	DWORD PTR _this$[ebp], ecx

; 604  :   X86Emit_Group1IR(imm, regDest, 1);

	push	1
	mov	eax, DWORD PTR _regDest$[ebp]
	push	eax
	mov	ecx, DWORD PTR _imm$[ebp]
	push	ecx
	mov	ecx, DWORD PTR _this$[ebp]
	call	?X86Emit_Group1IR@NativeCodeCache@@QAEXHW4x86Reg@@E@Z ; NativeCodeCache::X86Emit_Group1IR

; 605  : }

	add	esp, 4
	cmp	ebp, esp
	call	__RTC_CheckEsp
	mov	esp, ebp
	pop	ebp
	ret	8
?X86Emit_ORIR@NativeCodeCache@@QAEXHW4x86Reg@@@Z ENDP	; NativeCodeCache::X86Emit_ORIR
_TEXT	ENDS
PUBLIC	?X86Emit_ORIM@NativeCodeCache@@QAEXHW4x86MemPtr@@IW4x86IndexReg@@W4x86ScaleVal@@H@Z ; NativeCodeCache::X86Emit_ORIM
; Function compile flags: /Odtp /RTCsu
_TEXT	SEGMENT
_this$ = -4						; size = 4
_imm$ = 8						; size = 4
_ptrType$ = 12						; size = 4
_base$ = 16						; size = 4
_index$ = 20						; size = 4
_scale$ = 24						; size = 4
_disp$ = 28						; size = 4
?X86Emit_ORIM@NativeCodeCache@@QAEXHW4x86MemPtr@@IW4x86IndexReg@@W4x86ScaleVal@@H@Z PROC ; NativeCodeCache::X86Emit_ORIM
; _this$ = ecx

; 608  : {

	push	ebp
	mov	ebp, esp
	push	ecx
	mov	DWORD PTR [ebp-4], -858993460		; ccccccccH
	mov	DWORD PTR _this$[ebp], ecx

; 609  :   X86Emit_Group1IM(imm, ptrType, base, index, scale, disp, 1);

	push	1
	mov	eax, DWORD PTR _disp$[ebp]
	push	eax
	mov	ecx, DWORD PTR _scale$[ebp]
	push	ecx
	mov	edx, DWORD PTR _index$[ebp]
	push	edx
	mov	eax, DWORD PTR _base$[ebp]
	push	eax
	mov	ecx, DWORD PTR _ptrType$[ebp]
	push	ecx
	mov	edx, DWORD PTR _imm$[ebp]
	push	edx
	mov	ecx, DWORD PTR _this$[ebp]
	call	?X86Emit_Group1IM@NativeCodeCache@@QAEXHW4x86MemPtr@@IW4x86IndexReg@@W4x86ScaleVal@@HE@Z ; NativeCodeCache::X86Emit_Group1IM

; 610  : }

	add	esp, 4
	cmp	ebp, esp
	call	__RTC_CheckEsp
	mov	esp, ebp
	pop	ebp
	ret	24					; 00000018H
?X86Emit_ORIM@NativeCodeCache@@QAEXHW4x86MemPtr@@IW4x86IndexReg@@W4x86ScaleVal@@H@Z ENDP ; NativeCodeCache::X86Emit_ORIM
_TEXT	ENDS
PUBLIC	?X86Emit_PUSHCS@NativeCodeCache@@QAEXXZ		; NativeCodeCache::X86Emit_PUSHCS
; Function compile flags: /Odtp /RTCsu
_TEXT	SEGMENT
_this$ = -4						; size = 4
?X86Emit_PUSHCS@NativeCodeCache@@QAEXXZ PROC		; NativeCodeCache::X86Emit_PUSHCS
; _this$ = ecx

; 613  : {

	push	ebp
	mov	ebp, esp
	push	ecx
	mov	DWORD PTR [ebp-4], -858993460		; ccccccccH
	mov	DWORD PTR _this$[ebp], ecx

; 614  :   *pEmitLoc++ = 0x0E;

	mov	eax, DWORD PTR _this$[ebp]
	mov	ecx, DWORD PTR [eax+4]
	mov	BYTE PTR [ecx], 14			; 0000000eH
	mov	edx, DWORD PTR _this$[ebp]
	mov	eax, DWORD PTR [edx+4]
	add	eax, 1
	mov	ecx, DWORD PTR _this$[ebp]
	mov	DWORD PTR [ecx+4], eax

; 615  : }

	mov	esp, ebp
	pop	ebp
	ret	0
?X86Emit_PUSHCS@NativeCodeCache@@QAEXXZ ENDP		; NativeCodeCache::X86Emit_PUSHCS
_TEXT	ENDS
PUBLIC	?X86Emit_ADCRR@NativeCodeCache@@QAEXW4x86Reg@@0@Z ; NativeCodeCache::X86Emit_ADCRR
; Function compile flags: /Odtp /RTCsu
_TEXT	SEGMENT
_this$ = -4						; size = 4
_regDest$ = 8						; size = 4
_regSrc$ = 12						; size = 4
?X86Emit_ADCRR@NativeCodeCache@@QAEXW4x86Reg@@0@Z PROC	; NativeCodeCache::X86Emit_ADCRR
; _this$ = ecx

; 618  : {

	push	ebp
	mov	ebp, esp
	push	ecx
	mov	DWORD PTR [ebp-4], -858993460		; ccccccccH
	mov	DWORD PTR _this$[ebp], ecx

; 619  :   X86Emit_Group1RR(regDest, regSrc, 2);

	push	2
	mov	eax, DWORD PTR _regSrc$[ebp]
	push	eax
	mov	ecx, DWORD PTR _regDest$[ebp]
	push	ecx
	mov	ecx, DWORD PTR _this$[ebp]
	call	?X86Emit_Group1RR@NativeCodeCache@@QAEXW4x86Reg@@0E@Z ; NativeCodeCache::X86Emit_Group1RR

; 620  : }

	add	esp, 4
	cmp	ebp, esp
	call	__RTC_CheckEsp
	mov	esp, ebp
	pop	ebp
	ret	8
?X86Emit_ADCRR@NativeCodeCache@@QAEXW4x86Reg@@0@Z ENDP	; NativeCodeCache::X86Emit_ADCRR
_TEXT	ENDS
PUBLIC	?X86Emit_ADCRM@NativeCodeCache@@QAEXW4x86Reg@@IW4x86IndexReg@@W4x86ScaleVal@@H@Z ; NativeCodeCache::X86Emit_ADCRM
; Function compile flags: /Odtp /RTCsu
_TEXT	SEGMENT
_this$ = -4						; size = 4
_regSrc$ = 8						; size = 4
_base$ = 12						; size = 4
_index$ = 16						; size = 4
_scale$ = 20						; size = 4
_disp$ = 24						; size = 4
?X86Emit_ADCRM@NativeCodeCache@@QAEXW4x86Reg@@IW4x86IndexReg@@W4x86ScaleVal@@H@Z PROC ; NativeCodeCache::X86Emit_ADCRM
; _this$ = ecx

; 623  : {

	push	ebp
	mov	ebp, esp
	push	ecx
	mov	DWORD PTR [ebp-4], -858993460		; ccccccccH
	mov	DWORD PTR _this$[ebp], ecx

; 624  :   X86Emit_Group1RM(regSrc, base, index, scale, disp, 2);

	push	2
	mov	eax, DWORD PTR _disp$[ebp]
	push	eax
	mov	ecx, DWORD PTR _scale$[ebp]
	push	ecx
	mov	edx, DWORD PTR _index$[ebp]
	push	edx
	mov	eax, DWORD PTR _base$[ebp]
	push	eax
	mov	ecx, DWORD PTR _regSrc$[ebp]
	push	ecx
	mov	ecx, DWORD PTR _this$[ebp]
	call	?X86Emit_Group1RM@NativeCodeCache@@QAEXW4x86Reg@@IW4x86IndexReg@@W4x86ScaleVal@@HE@Z ; NativeCodeCache::X86Emit_Group1RM

; 625  : }

	add	esp, 4
	cmp	ebp, esp
	call	__RTC_CheckEsp
	mov	esp, ebp
	pop	ebp
	ret	20					; 00000014H
?X86Emit_ADCRM@NativeCodeCache@@QAEXW4x86Reg@@IW4x86IndexReg@@W4x86ScaleVal@@H@Z ENDP ; NativeCodeCache::X86Emit_ADCRM
_TEXT	ENDS
PUBLIC	?X86Emit_ADCMR@NativeCodeCache@@QAEXW4x86Reg@@IW4x86IndexReg@@W4x86ScaleVal@@H@Z ; NativeCodeCache::X86Emit_ADCMR
; Function compile flags: /Odtp /RTCsu
_TEXT	SEGMENT
_this$ = -4						; size = 4
_regDest$ = 8						; size = 4
_base$ = 12						; size = 4
_index$ = 16						; size = 4
_scale$ = 20						; size = 4
_disp$ = 24						; size = 4
?X86Emit_ADCMR@NativeCodeCache@@QAEXW4x86Reg@@IW4x86IndexReg@@W4x86ScaleVal@@H@Z PROC ; NativeCodeCache::X86Emit_ADCMR
; _this$ = ecx

; 628  : {

	push	ebp
	mov	ebp, esp
	push	ecx
	mov	DWORD PTR [ebp-4], -858993460		; ccccccccH
	mov	DWORD PTR _this$[ebp], ecx

; 629  :   X86Emit_Group1MR(regDest, base, index, scale, disp, 2);

	push	2
	mov	eax, DWORD PTR _disp$[ebp]
	push	eax
	mov	ecx, DWORD PTR _scale$[ebp]
	push	ecx
	mov	edx, DWORD PTR _index$[ebp]
	push	edx
	mov	eax, DWORD PTR _base$[ebp]
	push	eax
	mov	ecx, DWORD PTR _regDest$[ebp]
	push	ecx
	mov	ecx, DWORD PTR _this$[ebp]
	call	?X86Emit_Group1MR@NativeCodeCache@@QAEXW4x86Reg@@IW4x86IndexReg@@W4x86ScaleVal@@HE@Z ; NativeCodeCache::X86Emit_Group1MR

; 630  : }

	add	esp, 4
	cmp	ebp, esp
	call	__RTC_CheckEsp
	mov	esp, ebp
	pop	ebp
	ret	20					; 00000014H
?X86Emit_ADCMR@NativeCodeCache@@QAEXW4x86Reg@@IW4x86IndexReg@@W4x86ScaleVal@@H@Z ENDP ; NativeCodeCache::X86Emit_ADCMR
_TEXT	ENDS
PUBLIC	?X86Emit_ADCIR@NativeCodeCache@@QAEXHW4x86Reg@@@Z ; NativeCodeCache::X86Emit_ADCIR
; Function compile flags: /Odtp /RTCsu
_TEXT	SEGMENT
_this$ = -4						; size = 4
_imm$ = 8						; size = 4
_regDest$ = 12						; size = 4
?X86Emit_ADCIR@NativeCodeCache@@QAEXHW4x86Reg@@@Z PROC	; NativeCodeCache::X86Emit_ADCIR
; _this$ = ecx

; 633  : {

	push	ebp
	mov	ebp, esp
	push	ecx
	mov	DWORD PTR [ebp-4], -858993460		; ccccccccH
	mov	DWORD PTR _this$[ebp], ecx

; 634  :   X86Emit_Group1IR(imm, regDest, 2);

	push	2
	mov	eax, DWORD PTR _regDest$[ebp]
	push	eax
	mov	ecx, DWORD PTR _imm$[ebp]
	push	ecx
	mov	ecx, DWORD PTR _this$[ebp]
	call	?X86Emit_Group1IR@NativeCodeCache@@QAEXHW4x86Reg@@E@Z ; NativeCodeCache::X86Emit_Group1IR

; 635  : }

	add	esp, 4
	cmp	ebp, esp
	call	__RTC_CheckEsp
	mov	esp, ebp
	pop	ebp
	ret	8
?X86Emit_ADCIR@NativeCodeCache@@QAEXHW4x86Reg@@@Z ENDP	; NativeCodeCache::X86Emit_ADCIR
_TEXT	ENDS
PUBLIC	?X86Emit_ADCIM@NativeCodeCache@@QAEXHW4x86MemPtr@@IW4x86IndexReg@@W4x86ScaleVal@@H@Z ; NativeCodeCache::X86Emit_ADCIM
; Function compile flags: /Odtp /RTCsu
_TEXT	SEGMENT
_this$ = -4						; size = 4
_imm$ = 8						; size = 4
_ptrType$ = 12						; size = 4
_base$ = 16						; size = 4
_index$ = 20						; size = 4
_scale$ = 24						; size = 4
_disp$ = 28						; size = 4
?X86Emit_ADCIM@NativeCodeCache@@QAEXHW4x86MemPtr@@IW4x86IndexReg@@W4x86ScaleVal@@H@Z PROC ; NativeCodeCache::X86Emit_ADCIM
; _this$ = ecx

; 638  : {

	push	ebp
	mov	ebp, esp
	push	ecx
	mov	DWORD PTR [ebp-4], -858993460		; ccccccccH
	mov	DWORD PTR _this$[ebp], ecx

; 639  :   X86Emit_Group1IM(imm, ptrType, base, index, scale, disp, 2);

	push	2
	mov	eax, DWORD PTR _disp$[ebp]
	push	eax
	mov	ecx, DWORD PTR _scale$[ebp]
	push	ecx
	mov	edx, DWORD PTR _index$[ebp]
	push	edx
	mov	eax, DWORD PTR _base$[ebp]
	push	eax
	mov	ecx, DWORD PTR _ptrType$[ebp]
	push	ecx
	mov	edx, DWORD PTR _imm$[ebp]
	push	edx
	mov	ecx, DWORD PTR _this$[ebp]
	call	?X86Emit_Group1IM@NativeCodeCache@@QAEXHW4x86MemPtr@@IW4x86IndexReg@@W4x86ScaleVal@@HE@Z ; NativeCodeCache::X86Emit_Group1IM

; 640  : }

	add	esp, 4
	cmp	ebp, esp
	call	__RTC_CheckEsp
	mov	esp, ebp
	pop	ebp
	ret	24					; 00000018H
?X86Emit_ADCIM@NativeCodeCache@@QAEXHW4x86MemPtr@@IW4x86IndexReg@@W4x86ScaleVal@@H@Z ENDP ; NativeCodeCache::X86Emit_ADCIM
_TEXT	ENDS
PUBLIC	?X86Emit_PUSHSS@NativeCodeCache@@QAEXXZ		; NativeCodeCache::X86Emit_PUSHSS
; Function compile flags: /Odtp /RTCsu
_TEXT	SEGMENT
_this$ = -4						; size = 4
?X86Emit_PUSHSS@NativeCodeCache@@QAEXXZ PROC		; NativeCodeCache::X86Emit_PUSHSS
; _this$ = ecx

; 643  : {

	push	ebp
	mov	ebp, esp
	push	ecx
	mov	DWORD PTR [ebp-4], -858993460		; ccccccccH
	mov	DWORD PTR _this$[ebp], ecx

; 644  :   *pEmitLoc++ = 0x16;

	mov	eax, DWORD PTR _this$[ebp]
	mov	ecx, DWORD PTR [eax+4]
	mov	BYTE PTR [ecx], 22			; 00000016H
	mov	edx, DWORD PTR _this$[ebp]
	mov	eax, DWORD PTR [edx+4]
	add	eax, 1
	mov	ecx, DWORD PTR _this$[ebp]
	mov	DWORD PTR [ecx+4], eax

; 645  : }

	mov	esp, ebp
	pop	ebp
	ret	0
?X86Emit_PUSHSS@NativeCodeCache@@QAEXXZ ENDP		; NativeCodeCache::X86Emit_PUSHSS
_TEXT	ENDS
PUBLIC	?X86Emit_POPSS@NativeCodeCache@@QAEXXZ		; NativeCodeCache::X86Emit_POPSS
; Function compile flags: /Odtp /RTCsu
_TEXT	SEGMENT
_this$ = -4						; size = 4
?X86Emit_POPSS@NativeCodeCache@@QAEXXZ PROC		; NativeCodeCache::X86Emit_POPSS
; _this$ = ecx

; 648  : {

	push	ebp
	mov	ebp, esp
	push	ecx
	mov	DWORD PTR [ebp-4], -858993460		; ccccccccH
	mov	DWORD PTR _this$[ebp], ecx

; 649  :   *pEmitLoc++ = 0x17;

	mov	eax, DWORD PTR _this$[ebp]
	mov	ecx, DWORD PTR [eax+4]
	mov	BYTE PTR [ecx], 23			; 00000017H
	mov	edx, DWORD PTR _this$[ebp]
	mov	eax, DWORD PTR [edx+4]
	add	eax, 1
	mov	ecx, DWORD PTR _this$[ebp]
	mov	DWORD PTR [ecx+4], eax

; 650  : }

	mov	esp, ebp
	pop	ebp
	ret	0
?X86Emit_POPSS@NativeCodeCache@@QAEXXZ ENDP		; NativeCodeCache::X86Emit_POPSS
_TEXT	ENDS
PUBLIC	?X86Emit_SBBRR@NativeCodeCache@@QAEXW4x86Reg@@0@Z ; NativeCodeCache::X86Emit_SBBRR
; Function compile flags: /Odtp /RTCsu
_TEXT	SEGMENT
_this$ = -4						; size = 4
_regDest$ = 8						; size = 4
_regSrc$ = 12						; size = 4
?X86Emit_SBBRR@NativeCodeCache@@QAEXW4x86Reg@@0@Z PROC	; NativeCodeCache::X86Emit_SBBRR
; _this$ = ecx

; 653  : {

	push	ebp
	mov	ebp, esp
	push	ecx
	mov	DWORD PTR [ebp-4], -858993460		; ccccccccH
	mov	DWORD PTR _this$[ebp], ecx

; 654  :   X86Emit_Group1RR(regDest, regSrc, 3);

	push	3
	mov	eax, DWORD PTR _regSrc$[ebp]
	push	eax
	mov	ecx, DWORD PTR _regDest$[ebp]
	push	ecx
	mov	ecx, DWORD PTR _this$[ebp]
	call	?X86Emit_Group1RR@NativeCodeCache@@QAEXW4x86Reg@@0E@Z ; NativeCodeCache::X86Emit_Group1RR

; 655  : }

	add	esp, 4
	cmp	ebp, esp
	call	__RTC_CheckEsp
	mov	esp, ebp
	pop	ebp
	ret	8
?X86Emit_SBBRR@NativeCodeCache@@QAEXW4x86Reg@@0@Z ENDP	; NativeCodeCache::X86Emit_SBBRR
_TEXT	ENDS
PUBLIC	?X86Emit_SBBRM@NativeCodeCache@@QAEXW4x86Reg@@IW4x86IndexReg@@W4x86ScaleVal@@H@Z ; NativeCodeCache::X86Emit_SBBRM
; Function compile flags: /Odtp /RTCsu
_TEXT	SEGMENT
_this$ = -4						; size = 4
_regSrc$ = 8						; size = 4
_base$ = 12						; size = 4
_index$ = 16						; size = 4
_scale$ = 20						; size = 4
_disp$ = 24						; size = 4
?X86Emit_SBBRM@NativeCodeCache@@QAEXW4x86Reg@@IW4x86IndexReg@@W4x86ScaleVal@@H@Z PROC ; NativeCodeCache::X86Emit_SBBRM
; _this$ = ecx

; 658  : {

	push	ebp
	mov	ebp, esp
	push	ecx
	mov	DWORD PTR [ebp-4], -858993460		; ccccccccH
	mov	DWORD PTR _this$[ebp], ecx

; 659  :   X86Emit_Group1RM(regSrc, base, index, scale, disp, 3);

	push	3
	mov	eax, DWORD PTR _disp$[ebp]
	push	eax
	mov	ecx, DWORD PTR _scale$[ebp]
	push	ecx
	mov	edx, DWORD PTR _index$[ebp]
	push	edx
	mov	eax, DWORD PTR _base$[ebp]
	push	eax
	mov	ecx, DWORD PTR _regSrc$[ebp]
	push	ecx
	mov	ecx, DWORD PTR _this$[ebp]
	call	?X86Emit_Group1RM@NativeCodeCache@@QAEXW4x86Reg@@IW4x86IndexReg@@W4x86ScaleVal@@HE@Z ; NativeCodeCache::X86Emit_Group1RM

; 660  : }

	add	esp, 4
	cmp	ebp, esp
	call	__RTC_CheckEsp
	mov	esp, ebp
	pop	ebp
	ret	20					; 00000014H
?X86Emit_SBBRM@NativeCodeCache@@QAEXW4x86Reg@@IW4x86IndexReg@@W4x86ScaleVal@@H@Z ENDP ; NativeCodeCache::X86Emit_SBBRM
_TEXT	ENDS
PUBLIC	?X86Emit_SBBMR@NativeCodeCache@@QAEXW4x86Reg@@IW4x86IndexReg@@W4x86ScaleVal@@H@Z ; NativeCodeCache::X86Emit_SBBMR
; Function compile flags: /Odtp /RTCsu
_TEXT	SEGMENT
_this$ = -4						; size = 4
_regDest$ = 8						; size = 4
_base$ = 12						; size = 4
_index$ = 16						; size = 4
_scale$ = 20						; size = 4
_disp$ = 24						; size = 4
?X86Emit_SBBMR@NativeCodeCache@@QAEXW4x86Reg@@IW4x86IndexReg@@W4x86ScaleVal@@H@Z PROC ; NativeCodeCache::X86Emit_SBBMR
; _this$ = ecx

; 663  : {

	push	ebp
	mov	ebp, esp
	push	ecx
	mov	DWORD PTR [ebp-4], -858993460		; ccccccccH
	mov	DWORD PTR _this$[ebp], ecx

; 664  :   X86Emit_Group1MR(regDest, base, index, scale, disp, 3);

	push	3
	mov	eax, DWORD PTR _disp$[ebp]
	push	eax
	mov	ecx, DWORD PTR _scale$[ebp]
	push	ecx
	mov	edx, DWORD PTR _index$[ebp]
	push	edx
	mov	eax, DWORD PTR _base$[ebp]
	push	eax
	mov	ecx, DWORD PTR _regDest$[ebp]
	push	ecx
	mov	ecx, DWORD PTR _this$[ebp]
	call	?X86Emit_Group1MR@NativeCodeCache@@QAEXW4x86Reg@@IW4x86IndexReg@@W4x86ScaleVal@@HE@Z ; NativeCodeCache::X86Emit_Group1MR

; 665  : }

	add	esp, 4
	cmp	ebp, esp
	call	__RTC_CheckEsp
	mov	esp, ebp
	pop	ebp
	ret	20					; 00000014H
?X86Emit_SBBMR@NativeCodeCache@@QAEXW4x86Reg@@IW4x86IndexReg@@W4x86ScaleVal@@H@Z ENDP ; NativeCodeCache::X86Emit_SBBMR
_TEXT	ENDS
PUBLIC	?X86Emit_SBBIR@NativeCodeCache@@QAEXHW4x86Reg@@@Z ; NativeCodeCache::X86Emit_SBBIR
; Function compile flags: /Odtp /RTCsu
_TEXT	SEGMENT
_this$ = -4						; size = 4
_imm$ = 8						; size = 4
_regDest$ = 12						; size = 4
?X86Emit_SBBIR@NativeCodeCache@@QAEXHW4x86Reg@@@Z PROC	; NativeCodeCache::X86Emit_SBBIR
; _this$ = ecx

; 668  : {

	push	ebp
	mov	ebp, esp
	push	ecx
	mov	DWORD PTR [ebp-4], -858993460		; ccccccccH
	mov	DWORD PTR _this$[ebp], ecx

; 669  :   X86Emit_Group1IR(imm, regDest, 3);

	push	3
	mov	eax, DWORD PTR _regDest$[ebp]
	push	eax
	mov	ecx, DWORD PTR _imm$[ebp]
	push	ecx
	mov	ecx, DWORD PTR _this$[ebp]
	call	?X86Emit_Group1IR@NativeCodeCache@@QAEXHW4x86Reg@@E@Z ; NativeCodeCache::X86Emit_Group1IR

; 670  : }

	add	esp, 4
	cmp	ebp, esp
	call	__RTC_CheckEsp
	mov	esp, ebp
	pop	ebp
	ret	8
?X86Emit_SBBIR@NativeCodeCache@@QAEXHW4x86Reg@@@Z ENDP	; NativeCodeCache::X86Emit_SBBIR
_TEXT	ENDS
PUBLIC	?X86Emit_SBBIM@NativeCodeCache@@QAEXHW4x86MemPtr@@IW4x86IndexReg@@W4x86ScaleVal@@H@Z ; NativeCodeCache::X86Emit_SBBIM
; Function compile flags: /Odtp /RTCsu
_TEXT	SEGMENT
_this$ = -4						; size = 4
_imm$ = 8						; size = 4
_ptrType$ = 12						; size = 4
_base$ = 16						; size = 4
_index$ = 20						; size = 4
_scale$ = 24						; size = 4
_disp$ = 28						; size = 4
?X86Emit_SBBIM@NativeCodeCache@@QAEXHW4x86MemPtr@@IW4x86IndexReg@@W4x86ScaleVal@@H@Z PROC ; NativeCodeCache::X86Emit_SBBIM
; _this$ = ecx

; 673  : {

	push	ebp
	mov	ebp, esp
	push	ecx
	mov	DWORD PTR [ebp-4], -858993460		; ccccccccH
	mov	DWORD PTR _this$[ebp], ecx

; 674  :   X86Emit_Group1IM(imm, ptrType, base, index, scale, disp, 3);

	push	3
	mov	eax, DWORD PTR _disp$[ebp]
	push	eax
	mov	ecx, DWORD PTR _scale$[ebp]
	push	ecx
	mov	edx, DWORD PTR _index$[ebp]
	push	edx
	mov	eax, DWORD PTR _base$[ebp]
	push	eax
	mov	ecx, DWORD PTR _ptrType$[ebp]
	push	ecx
	mov	edx, DWORD PTR _imm$[ebp]
	push	edx
	mov	ecx, DWORD PTR _this$[ebp]
	call	?X86Emit_Group1IM@NativeCodeCache@@QAEXHW4x86MemPtr@@IW4x86IndexReg@@W4x86ScaleVal@@HE@Z ; NativeCodeCache::X86Emit_Group1IM

; 675  : }

	add	esp, 4
	cmp	ebp, esp
	call	__RTC_CheckEsp
	mov	esp, ebp
	pop	ebp
	ret	24					; 00000018H
?X86Emit_SBBIM@NativeCodeCache@@QAEXHW4x86MemPtr@@IW4x86IndexReg@@W4x86ScaleVal@@H@Z ENDP ; NativeCodeCache::X86Emit_SBBIM
_TEXT	ENDS
PUBLIC	?X86Emit_PUSHDS@NativeCodeCache@@QAEXXZ		; NativeCodeCache::X86Emit_PUSHDS
; Function compile flags: /Odtp /RTCsu
_TEXT	SEGMENT
_this$ = -4						; size = 4
?X86Emit_PUSHDS@NativeCodeCache@@QAEXXZ PROC		; NativeCodeCache::X86Emit_PUSHDS
; _this$ = ecx

; 678  : {

	push	ebp
	mov	ebp, esp
	push	ecx
	mov	DWORD PTR [ebp-4], -858993460		; ccccccccH
	mov	DWORD PTR _this$[ebp], ecx

; 679  :   *pEmitLoc++ = 0x1E;

	mov	eax, DWORD PTR _this$[ebp]
	mov	ecx, DWORD PTR [eax+4]
	mov	BYTE PTR [ecx], 30			; 0000001eH
	mov	edx, DWORD PTR _this$[ebp]
	mov	eax, DWORD PTR [edx+4]
	add	eax, 1
	mov	ecx, DWORD PTR _this$[ebp]
	mov	DWORD PTR [ecx+4], eax

; 680  : }

	mov	esp, ebp
	pop	ebp
	ret	0
?X86Emit_PUSHDS@NativeCodeCache@@QAEXXZ ENDP		; NativeCodeCache::X86Emit_PUSHDS
_TEXT	ENDS
PUBLIC	?X86Emit_POPDS@NativeCodeCache@@QAEXXZ		; NativeCodeCache::X86Emit_POPDS
; Function compile flags: /Odtp /RTCsu
_TEXT	SEGMENT
_this$ = -4						; size = 4
?X86Emit_POPDS@NativeCodeCache@@QAEXXZ PROC		; NativeCodeCache::X86Emit_POPDS
; _this$ = ecx

; 683  : {

	push	ebp
	mov	ebp, esp
	push	ecx
	mov	DWORD PTR [ebp-4], -858993460		; ccccccccH
	mov	DWORD PTR _this$[ebp], ecx

; 684  :   *pEmitLoc++ = 0x1F;

	mov	eax, DWORD PTR _this$[ebp]
	mov	ecx, DWORD PTR [eax+4]
	mov	BYTE PTR [ecx], 31			; 0000001fH
	mov	edx, DWORD PTR _this$[ebp]
	mov	eax, DWORD PTR [edx+4]
	add	eax, 1
	mov	ecx, DWORD PTR _this$[ebp]
	mov	DWORD PTR [ecx+4], eax

; 685  : }

	mov	esp, ebp
	pop	ebp
	ret	0
?X86Emit_POPDS@NativeCodeCache@@QAEXXZ ENDP		; NativeCodeCache::X86Emit_POPDS
_TEXT	ENDS
PUBLIC	?X86Emit_ANDRR@NativeCodeCache@@QAEXW4x86Reg@@0@Z ; NativeCodeCache::X86Emit_ANDRR
; Function compile flags: /Odtp /RTCsu
_TEXT	SEGMENT
_this$ = -4						; size = 4
_regDest$ = 8						; size = 4
_regSrc$ = 12						; size = 4
?X86Emit_ANDRR@NativeCodeCache@@QAEXW4x86Reg@@0@Z PROC	; NativeCodeCache::X86Emit_ANDRR
; _this$ = ecx

; 688  : {

	push	ebp
	mov	ebp, esp
	push	ecx
	mov	DWORD PTR [ebp-4], -858993460		; ccccccccH
	mov	DWORD PTR _this$[ebp], ecx

; 689  :   X86Emit_Group1RR(regDest, regSrc, 4);

	push	4
	mov	eax, DWORD PTR _regSrc$[ebp]
	push	eax
	mov	ecx, DWORD PTR _regDest$[ebp]
	push	ecx
	mov	ecx, DWORD PTR _this$[ebp]
	call	?X86Emit_Group1RR@NativeCodeCache@@QAEXW4x86Reg@@0E@Z ; NativeCodeCache::X86Emit_Group1RR

; 690  : }

	add	esp, 4
	cmp	ebp, esp
	call	__RTC_CheckEsp
	mov	esp, ebp
	pop	ebp
	ret	8
?X86Emit_ANDRR@NativeCodeCache@@QAEXW4x86Reg@@0@Z ENDP	; NativeCodeCache::X86Emit_ANDRR
_TEXT	ENDS
PUBLIC	?X86Emit_ANDRM@NativeCodeCache@@QAEXW4x86Reg@@IW4x86IndexReg@@W4x86ScaleVal@@H@Z ; NativeCodeCache::X86Emit_ANDRM
; Function compile flags: /Odtp /RTCsu
_TEXT	SEGMENT
_this$ = -4						; size = 4
_regSrc$ = 8						; size = 4
_base$ = 12						; size = 4
_index$ = 16						; size = 4
_scale$ = 20						; size = 4
_disp$ = 24						; size = 4
?X86Emit_ANDRM@NativeCodeCache@@QAEXW4x86Reg@@IW4x86IndexReg@@W4x86ScaleVal@@H@Z PROC ; NativeCodeCache::X86Emit_ANDRM
; _this$ = ecx

; 693  : {

	push	ebp
	mov	ebp, esp
	push	ecx
	mov	DWORD PTR [ebp-4], -858993460		; ccccccccH
	mov	DWORD PTR _this$[ebp], ecx

; 694  :   X86Emit_Group1RM(regSrc, base, index, scale, disp, 4);

	push	4
	mov	eax, DWORD PTR _disp$[ebp]
	push	eax
	mov	ecx, DWORD PTR _scale$[ebp]
	push	ecx
	mov	edx, DWORD PTR _index$[ebp]
	push	edx
	mov	eax, DWORD PTR _base$[ebp]
	push	eax
	mov	ecx, DWORD PTR _regSrc$[ebp]
	push	ecx
	mov	ecx, DWORD PTR _this$[ebp]
	call	?X86Emit_Group1RM@NativeCodeCache@@QAEXW4x86Reg@@IW4x86IndexReg@@W4x86ScaleVal@@HE@Z ; NativeCodeCache::X86Emit_Group1RM

; 695  : }

	add	esp, 4
	cmp	ebp, esp
	call	__RTC_CheckEsp
	mov	esp, ebp
	pop	ebp
	ret	20					; 00000014H
?X86Emit_ANDRM@NativeCodeCache@@QAEXW4x86Reg@@IW4x86IndexReg@@W4x86ScaleVal@@H@Z ENDP ; NativeCodeCache::X86Emit_ANDRM
_TEXT	ENDS
PUBLIC	?X86Emit_ANDMR@NativeCodeCache@@QAEXW4x86Reg@@IW4x86IndexReg@@W4x86ScaleVal@@H@Z ; NativeCodeCache::X86Emit_ANDMR
; Function compile flags: /Odtp /RTCsu
_TEXT	SEGMENT
_this$ = -4						; size = 4
_regDest$ = 8						; size = 4
_base$ = 12						; size = 4
_index$ = 16						; size = 4
_scale$ = 20						; size = 4
_disp$ = 24						; size = 4
?X86Emit_ANDMR@NativeCodeCache@@QAEXW4x86Reg@@IW4x86IndexReg@@W4x86ScaleVal@@H@Z PROC ; NativeCodeCache::X86Emit_ANDMR
; _this$ = ecx

; 698  : {

	push	ebp
	mov	ebp, esp
	push	ecx
	mov	DWORD PTR [ebp-4], -858993460		; ccccccccH
	mov	DWORD PTR _this$[ebp], ecx

; 699  :   X86Emit_Group1MR(regDest, base, index, scale, disp, 4);

	push	4
	mov	eax, DWORD PTR _disp$[ebp]
	push	eax
	mov	ecx, DWORD PTR _scale$[ebp]
	push	ecx
	mov	edx, DWORD PTR _index$[ebp]
	push	edx
	mov	eax, DWORD PTR _base$[ebp]
	push	eax
	mov	ecx, DWORD PTR _regDest$[ebp]
	push	ecx
	mov	ecx, DWORD PTR _this$[ebp]
	call	?X86Emit_Group1MR@NativeCodeCache@@QAEXW4x86Reg@@IW4x86IndexReg@@W4x86ScaleVal@@HE@Z ; NativeCodeCache::X86Emit_Group1MR

; 700  : }

	add	esp, 4
	cmp	ebp, esp
	call	__RTC_CheckEsp
	mov	esp, ebp
	pop	ebp
	ret	20					; 00000014H
?X86Emit_ANDMR@NativeCodeCache@@QAEXW4x86Reg@@IW4x86IndexReg@@W4x86ScaleVal@@H@Z ENDP ; NativeCodeCache::X86Emit_ANDMR
_TEXT	ENDS
PUBLIC	?X86Emit_ANDIR@NativeCodeCache@@QAEXHW4x86Reg@@@Z ; NativeCodeCache::X86Emit_ANDIR
; Function compile flags: /Odtp /RTCsu
_TEXT	SEGMENT
_this$ = -4						; size = 4
_imm$ = 8						; size = 4
_regDest$ = 12						; size = 4
?X86Emit_ANDIR@NativeCodeCache@@QAEXHW4x86Reg@@@Z PROC	; NativeCodeCache::X86Emit_ANDIR
; _this$ = ecx

; 703  : {

	push	ebp
	mov	ebp, esp
	push	ecx
	mov	DWORD PTR [ebp-4], -858993460		; ccccccccH
	mov	DWORD PTR _this$[ebp], ecx

; 704  :   X86Emit_Group1IR(imm, regDest, 4);

	push	4
	mov	eax, DWORD PTR _regDest$[ebp]
	push	eax
	mov	ecx, DWORD PTR _imm$[ebp]
	push	ecx
	mov	ecx, DWORD PTR _this$[ebp]
	call	?X86Emit_Group1IR@NativeCodeCache@@QAEXHW4x86Reg@@E@Z ; NativeCodeCache::X86Emit_Group1IR

; 705  : }

	add	esp, 4
	cmp	ebp, esp
	call	__RTC_CheckEsp
	mov	esp, ebp
	pop	ebp
	ret	8
?X86Emit_ANDIR@NativeCodeCache@@QAEXHW4x86Reg@@@Z ENDP	; NativeCodeCache::X86Emit_ANDIR
_TEXT	ENDS
PUBLIC	?X86Emit_ANDIM@NativeCodeCache@@QAEXHW4x86MemPtr@@IW4x86IndexReg@@W4x86ScaleVal@@H@Z ; NativeCodeCache::X86Emit_ANDIM
; Function compile flags: /Odtp /RTCsu
_TEXT	SEGMENT
_this$ = -4						; size = 4
_imm$ = 8						; size = 4
_ptrType$ = 12						; size = 4
_base$ = 16						; size = 4
_index$ = 20						; size = 4
_scale$ = 24						; size = 4
_disp$ = 28						; size = 4
?X86Emit_ANDIM@NativeCodeCache@@QAEXHW4x86MemPtr@@IW4x86IndexReg@@W4x86ScaleVal@@H@Z PROC ; NativeCodeCache::X86Emit_ANDIM
; _this$ = ecx

; 708  : {

	push	ebp
	mov	ebp, esp
	push	ecx
	mov	DWORD PTR [ebp-4], -858993460		; ccccccccH
	mov	DWORD PTR _this$[ebp], ecx

; 709  :   X86Emit_Group1IM(imm, ptrType, base, index, scale, disp, 4);

	push	4
	mov	eax, DWORD PTR _disp$[ebp]
	push	eax
	mov	ecx, DWORD PTR _scale$[ebp]
	push	ecx
	mov	edx, DWORD PTR _index$[ebp]
	push	edx
	mov	eax, DWORD PTR _base$[ebp]
	push	eax
	mov	ecx, DWORD PTR _ptrType$[ebp]
	push	ecx
	mov	edx, DWORD PTR _imm$[ebp]
	push	edx
	mov	ecx, DWORD PTR _this$[ebp]
	call	?X86Emit_Group1IM@NativeCodeCache@@QAEXHW4x86MemPtr@@IW4x86IndexReg@@W4x86ScaleVal@@HE@Z ; NativeCodeCache::X86Emit_Group1IM

; 710  : }

	add	esp, 4
	cmp	ebp, esp
	call	__RTC_CheckEsp
	mov	esp, ebp
	pop	ebp
	ret	24					; 00000018H
?X86Emit_ANDIM@NativeCodeCache@@QAEXHW4x86MemPtr@@IW4x86IndexReg@@W4x86ScaleVal@@H@Z ENDP ; NativeCodeCache::X86Emit_ANDIM
_TEXT	ENDS
PUBLIC	?X86Emit_ES@NativeCodeCache@@QAEXXZ		; NativeCodeCache::X86Emit_ES
; Function compile flags: /Odtp /RTCsu
_TEXT	SEGMENT
_this$ = -4						; size = 4
?X86Emit_ES@NativeCodeCache@@QAEXXZ PROC		; NativeCodeCache::X86Emit_ES
; _this$ = ecx

; 713  : {

	push	ebp
	mov	ebp, esp
	push	ecx
	mov	DWORD PTR [ebp-4], -858993460		; ccccccccH
	mov	DWORD PTR _this$[ebp], ecx

; 714  :   *pEmitLoc++ = 0x26;

	mov	eax, DWORD PTR _this$[ebp]
	mov	ecx, DWORD PTR [eax+4]
	mov	BYTE PTR [ecx], 38			; 00000026H
	mov	edx, DWORD PTR _this$[ebp]
	mov	eax, DWORD PTR [edx+4]
	add	eax, 1
	mov	ecx, DWORD PTR _this$[ebp]
	mov	DWORD PTR [ecx+4], eax

; 715  : }

	mov	esp, ebp
	pop	ebp
	ret	0
?X86Emit_ES@NativeCodeCache@@QAEXXZ ENDP		; NativeCodeCache::X86Emit_ES
_TEXT	ENDS
PUBLIC	?X86Emit_DAA@NativeCodeCache@@QAEXXZ		; NativeCodeCache::X86Emit_DAA
; Function compile flags: /Odtp /RTCsu
_TEXT	SEGMENT
_this$ = -4						; size = 4
?X86Emit_DAA@NativeCodeCache@@QAEXXZ PROC		; NativeCodeCache::X86Emit_DAA
; _this$ = ecx

; 718  : {

	push	ebp
	mov	ebp, esp
	push	ecx
	mov	DWORD PTR [ebp-4], -858993460		; ccccccccH
	mov	DWORD PTR _this$[ebp], ecx

; 719  :   *pEmitLoc++ = 0x27;

	mov	eax, DWORD PTR _this$[ebp]
	mov	ecx, DWORD PTR [eax+4]
	mov	BYTE PTR [ecx], 39			; 00000027H
	mov	edx, DWORD PTR _this$[ebp]
	mov	eax, DWORD PTR [edx+4]
	add	eax, 1
	mov	ecx, DWORD PTR _this$[ebp]
	mov	DWORD PTR [ecx+4], eax

; 720  : }

	mov	esp, ebp
	pop	ebp
	ret	0
?X86Emit_DAA@NativeCodeCache@@QAEXXZ ENDP		; NativeCodeCache::X86Emit_DAA
_TEXT	ENDS
PUBLIC	?X86Emit_SUBRR@NativeCodeCache@@QAEXW4x86Reg@@0@Z ; NativeCodeCache::X86Emit_SUBRR
; Function compile flags: /Odtp /RTCsu
_TEXT	SEGMENT
_this$ = -4						; size = 4
_regDest$ = 8						; size = 4
_regSrc$ = 12						; size = 4
?X86Emit_SUBRR@NativeCodeCache@@QAEXW4x86Reg@@0@Z PROC	; NativeCodeCache::X86Emit_SUBRR
; _this$ = ecx

; 723  : {

	push	ebp
	mov	ebp, esp
	push	ecx
	mov	DWORD PTR [ebp-4], -858993460		; ccccccccH
	mov	DWORD PTR _this$[ebp], ecx

; 724  :   X86Emit_Group1RR(regDest, regSrc, 5);

	push	5
	mov	eax, DWORD PTR _regSrc$[ebp]
	push	eax
	mov	ecx, DWORD PTR _regDest$[ebp]
	push	ecx
	mov	ecx, DWORD PTR _this$[ebp]
	call	?X86Emit_Group1RR@NativeCodeCache@@QAEXW4x86Reg@@0E@Z ; NativeCodeCache::X86Emit_Group1RR

; 725  : }

	add	esp, 4
	cmp	ebp, esp
	call	__RTC_CheckEsp
	mov	esp, ebp
	pop	ebp
	ret	8
?X86Emit_SUBRR@NativeCodeCache@@QAEXW4x86Reg@@0@Z ENDP	; NativeCodeCache::X86Emit_SUBRR
_TEXT	ENDS
PUBLIC	?X86Emit_SUBRM@NativeCodeCache@@QAEXW4x86Reg@@IW4x86IndexReg@@W4x86ScaleVal@@H@Z ; NativeCodeCache::X86Emit_SUBRM
; Function compile flags: /Odtp /RTCsu
_TEXT	SEGMENT
_this$ = -4						; size = 4
_regSrc$ = 8						; size = 4
_base$ = 12						; size = 4
_index$ = 16						; size = 4
_scale$ = 20						; size = 4
_disp$ = 24						; size = 4
?X86Emit_SUBRM@NativeCodeCache@@QAEXW4x86Reg@@IW4x86IndexReg@@W4x86ScaleVal@@H@Z PROC ; NativeCodeCache::X86Emit_SUBRM
; _this$ = ecx

; 728  : {

	push	ebp
	mov	ebp, esp
	push	ecx
	mov	DWORD PTR [ebp-4], -858993460		; ccccccccH
	mov	DWORD PTR _this$[ebp], ecx

; 729  :   X86Emit_Group1RM(regSrc, base, index, scale, disp, 5);

	push	5
	mov	eax, DWORD PTR _disp$[ebp]
	push	eax
	mov	ecx, DWORD PTR _scale$[ebp]
	push	ecx
	mov	edx, DWORD PTR _index$[ebp]
	push	edx
	mov	eax, DWORD PTR _base$[ebp]
	push	eax
	mov	ecx, DWORD PTR _regSrc$[ebp]
	push	ecx
	mov	ecx, DWORD PTR _this$[ebp]
	call	?X86Emit_Group1RM@NativeCodeCache@@QAEXW4x86Reg@@IW4x86IndexReg@@W4x86ScaleVal@@HE@Z ; NativeCodeCache::X86Emit_Group1RM

; 730  : }

	add	esp, 4
	cmp	ebp, esp
	call	__RTC_CheckEsp
	mov	esp, ebp
	pop	ebp
	ret	20					; 00000014H
?X86Emit_SUBRM@NativeCodeCache@@QAEXW4x86Reg@@IW4x86IndexReg@@W4x86ScaleVal@@H@Z ENDP ; NativeCodeCache::X86Emit_SUBRM
_TEXT	ENDS
PUBLIC	?X86Emit_SUBMR@NativeCodeCache@@QAEXW4x86Reg@@IW4x86IndexReg@@W4x86ScaleVal@@H@Z ; NativeCodeCache::X86Emit_SUBMR
; Function compile flags: /Odtp /RTCsu
_TEXT	SEGMENT
_this$ = -4						; size = 4
_regDest$ = 8						; size = 4
_base$ = 12						; size = 4
_index$ = 16						; size = 4
_scale$ = 20						; size = 4
_disp$ = 24						; size = 4
?X86Emit_SUBMR@NativeCodeCache@@QAEXW4x86Reg@@IW4x86IndexReg@@W4x86ScaleVal@@H@Z PROC ; NativeCodeCache::X86Emit_SUBMR
; _this$ = ecx

; 733  : {

	push	ebp
	mov	ebp, esp
	push	ecx
	mov	DWORD PTR [ebp-4], -858993460		; ccccccccH
	mov	DWORD PTR _this$[ebp], ecx

; 734  :   X86Emit_Group1MR(regDest, base, index, scale, disp, 5);

	push	5
	mov	eax, DWORD PTR _disp$[ebp]
	push	eax
	mov	ecx, DWORD PTR _scale$[ebp]
	push	ecx
	mov	edx, DWORD PTR _index$[ebp]
	push	edx
	mov	eax, DWORD PTR _base$[ebp]
	push	eax
	mov	ecx, DWORD PTR _regDest$[ebp]
	push	ecx
	mov	ecx, DWORD PTR _this$[ebp]
	call	?X86Emit_Group1MR@NativeCodeCache@@QAEXW4x86Reg@@IW4x86IndexReg@@W4x86ScaleVal@@HE@Z ; NativeCodeCache::X86Emit_Group1MR

; 735  : }

	add	esp, 4
	cmp	ebp, esp
	call	__RTC_CheckEsp
	mov	esp, ebp
	pop	ebp
	ret	20					; 00000014H
?X86Emit_SUBMR@NativeCodeCache@@QAEXW4x86Reg@@IW4x86IndexReg@@W4x86ScaleVal@@H@Z ENDP ; NativeCodeCache::X86Emit_SUBMR
_TEXT	ENDS
PUBLIC	?X86Emit_SUBIR@NativeCodeCache@@QAEXHW4x86Reg@@@Z ; NativeCodeCache::X86Emit_SUBIR
; Function compile flags: /Odtp /RTCsu
_TEXT	SEGMENT
_this$ = -4						; size = 4
_imm$ = 8						; size = 4
_regDest$ = 12						; size = 4
?X86Emit_SUBIR@NativeCodeCache@@QAEXHW4x86Reg@@@Z PROC	; NativeCodeCache::X86Emit_SUBIR
; _this$ = ecx

; 738  : {

	push	ebp
	mov	ebp, esp
	push	ecx
	mov	DWORD PTR [ebp-4], -858993460		; ccccccccH
	mov	DWORD PTR _this$[ebp], ecx

; 739  :   X86Emit_Group1IR(imm, regDest, 5);

	push	5
	mov	eax, DWORD PTR _regDest$[ebp]
	push	eax
	mov	ecx, DWORD PTR _imm$[ebp]
	push	ecx
	mov	ecx, DWORD PTR _this$[ebp]
	call	?X86Emit_Group1IR@NativeCodeCache@@QAEXHW4x86Reg@@E@Z ; NativeCodeCache::X86Emit_Group1IR

; 740  : }

	add	esp, 4
	cmp	ebp, esp
	call	__RTC_CheckEsp
	mov	esp, ebp
	pop	ebp
	ret	8
?X86Emit_SUBIR@NativeCodeCache@@QAEXHW4x86Reg@@@Z ENDP	; NativeCodeCache::X86Emit_SUBIR
_TEXT	ENDS
PUBLIC	?X86Emit_SUBIM@NativeCodeCache@@QAEXHW4x86MemPtr@@IW4x86IndexReg@@W4x86ScaleVal@@H@Z ; NativeCodeCache::X86Emit_SUBIM
; Function compile flags: /Odtp /RTCsu
_TEXT	SEGMENT
_this$ = -4						; size = 4
_imm$ = 8						; size = 4
_ptrType$ = 12						; size = 4
_base$ = 16						; size = 4
_index$ = 20						; size = 4
_scale$ = 24						; size = 4
_disp$ = 28						; size = 4
?X86Emit_SUBIM@NativeCodeCache@@QAEXHW4x86MemPtr@@IW4x86IndexReg@@W4x86ScaleVal@@H@Z PROC ; NativeCodeCache::X86Emit_SUBIM
; _this$ = ecx

; 743  : {

	push	ebp
	mov	ebp, esp
	push	ecx
	mov	DWORD PTR [ebp-4], -858993460		; ccccccccH
	mov	DWORD PTR _this$[ebp], ecx

; 744  :   X86Emit_Group1IM(imm, ptrType, base, index, scale, disp, 5);

	push	5
	mov	eax, DWORD PTR _disp$[ebp]
	push	eax
	mov	ecx, DWORD PTR _scale$[ebp]
	push	ecx
	mov	edx, DWORD PTR _index$[ebp]
	push	edx
	mov	eax, DWORD PTR _base$[ebp]
	push	eax
	mov	ecx, DWORD PTR _ptrType$[ebp]
	push	ecx
	mov	edx, DWORD PTR _imm$[ebp]
	push	edx
	mov	ecx, DWORD PTR _this$[ebp]
	call	?X86Emit_Group1IM@NativeCodeCache@@QAEXHW4x86MemPtr@@IW4x86IndexReg@@W4x86ScaleVal@@HE@Z ; NativeCodeCache::X86Emit_Group1IM

; 745  : }

	add	esp, 4
	cmp	ebp, esp
	call	__RTC_CheckEsp
	mov	esp, ebp
	pop	ebp
	ret	24					; 00000018H
?X86Emit_SUBIM@NativeCodeCache@@QAEXHW4x86MemPtr@@IW4x86IndexReg@@W4x86ScaleVal@@H@Z ENDP ; NativeCodeCache::X86Emit_SUBIM
_TEXT	ENDS
PUBLIC	?X86Emit_CS@NativeCodeCache@@QAEXXZ		; NativeCodeCache::X86Emit_CS
; Function compile flags: /Odtp /RTCsu
_TEXT	SEGMENT
_this$ = -4						; size = 4
?X86Emit_CS@NativeCodeCache@@QAEXXZ PROC		; NativeCodeCache::X86Emit_CS
; _this$ = ecx

; 748  : {

	push	ebp
	mov	ebp, esp
	push	ecx
	mov	DWORD PTR [ebp-4], -858993460		; ccccccccH
	mov	DWORD PTR _this$[ebp], ecx

; 749  :   *pEmitLoc++ = 0x2E;

	mov	eax, DWORD PTR _this$[ebp]
	mov	ecx, DWORD PTR [eax+4]
	mov	BYTE PTR [ecx], 46			; 0000002eH
	mov	edx, DWORD PTR _this$[ebp]
	mov	eax, DWORD PTR [edx+4]
	add	eax, 1
	mov	ecx, DWORD PTR _this$[ebp]
	mov	DWORD PTR [ecx+4], eax

; 750  : }

	mov	esp, ebp
	pop	ebp
	ret	0
?X86Emit_CS@NativeCodeCache@@QAEXXZ ENDP		; NativeCodeCache::X86Emit_CS
_TEXT	ENDS
PUBLIC	?X86Emit_DAS@NativeCodeCache@@QAEXXZ		; NativeCodeCache::X86Emit_DAS
; Function compile flags: /Odtp /RTCsu
_TEXT	SEGMENT
_this$ = -4						; size = 4
?X86Emit_DAS@NativeCodeCache@@QAEXXZ PROC		; NativeCodeCache::X86Emit_DAS
; _this$ = ecx

; 753  : {

	push	ebp
	mov	ebp, esp
	push	ecx
	mov	DWORD PTR [ebp-4], -858993460		; ccccccccH
	mov	DWORD PTR _this$[ebp], ecx

; 754  :   *pEmitLoc++ = 0x2F;

	mov	eax, DWORD PTR _this$[ebp]
	mov	ecx, DWORD PTR [eax+4]
	mov	BYTE PTR [ecx], 47			; 0000002fH
	mov	edx, DWORD PTR _this$[ebp]
	mov	eax, DWORD PTR [edx+4]
	add	eax, 1
	mov	ecx, DWORD PTR _this$[ebp]
	mov	DWORD PTR [ecx+4], eax

; 755  : }

	mov	esp, ebp
	pop	ebp
	ret	0
?X86Emit_DAS@NativeCodeCache@@QAEXXZ ENDP		; NativeCodeCache::X86Emit_DAS
_TEXT	ENDS
PUBLIC	?X86Emit_XORRR@NativeCodeCache@@QAEXW4x86Reg@@0@Z ; NativeCodeCache::X86Emit_XORRR
; Function compile flags: /Odtp /RTCsu
_TEXT	SEGMENT
_this$ = -4						; size = 4
_regDest$ = 8						; size = 4
_regSrc$ = 12						; size = 4
?X86Emit_XORRR@NativeCodeCache@@QAEXW4x86Reg@@0@Z PROC	; NativeCodeCache::X86Emit_XORRR
; _this$ = ecx

; 758  : {

	push	ebp
	mov	ebp, esp
	push	ecx
	mov	DWORD PTR [ebp-4], -858993460		; ccccccccH
	mov	DWORD PTR _this$[ebp], ecx

; 759  :   X86Emit_Group1RR(regDest, regSrc, 6);

	push	6
	mov	eax, DWORD PTR _regSrc$[ebp]
	push	eax
	mov	ecx, DWORD PTR _regDest$[ebp]
	push	ecx
	mov	ecx, DWORD PTR _this$[ebp]
	call	?X86Emit_Group1RR@NativeCodeCache@@QAEXW4x86Reg@@0E@Z ; NativeCodeCache::X86Emit_Group1RR

; 760  : }

	add	esp, 4
	cmp	ebp, esp
	call	__RTC_CheckEsp
	mov	esp, ebp
	pop	ebp
	ret	8
?X86Emit_XORRR@NativeCodeCache@@QAEXW4x86Reg@@0@Z ENDP	; NativeCodeCache::X86Emit_XORRR
_TEXT	ENDS
PUBLIC	?X86Emit_XORRM@NativeCodeCache@@QAEXW4x86Reg@@IW4x86IndexReg@@W4x86ScaleVal@@H@Z ; NativeCodeCache::X86Emit_XORRM
; Function compile flags: /Odtp /RTCsu
_TEXT	SEGMENT
_this$ = -4						; size = 4
_regSrc$ = 8						; size = 4
_base$ = 12						; size = 4
_index$ = 16						; size = 4
_scale$ = 20						; size = 4
_disp$ = 24						; size = 4
?X86Emit_XORRM@NativeCodeCache@@QAEXW4x86Reg@@IW4x86IndexReg@@W4x86ScaleVal@@H@Z PROC ; NativeCodeCache::X86Emit_XORRM
; _this$ = ecx

; 763  : {

	push	ebp
	mov	ebp, esp
	push	ecx
	mov	DWORD PTR [ebp-4], -858993460		; ccccccccH
	mov	DWORD PTR _this$[ebp], ecx

; 764  :   X86Emit_Group1RM(regSrc, base, index, scale, disp, 6);

	push	6
	mov	eax, DWORD PTR _disp$[ebp]
	push	eax
	mov	ecx, DWORD PTR _scale$[ebp]
	push	ecx
	mov	edx, DWORD PTR _index$[ebp]
	push	edx
	mov	eax, DWORD PTR _base$[ebp]
	push	eax
	mov	ecx, DWORD PTR _regSrc$[ebp]
	push	ecx
	mov	ecx, DWORD PTR _this$[ebp]
	call	?X86Emit_Group1RM@NativeCodeCache@@QAEXW4x86Reg@@IW4x86IndexReg@@W4x86ScaleVal@@HE@Z ; NativeCodeCache::X86Emit_Group1RM

; 765  : }

	add	esp, 4
	cmp	ebp, esp
	call	__RTC_CheckEsp
	mov	esp, ebp
	pop	ebp
	ret	20					; 00000014H
?X86Emit_XORRM@NativeCodeCache@@QAEXW4x86Reg@@IW4x86IndexReg@@W4x86ScaleVal@@H@Z ENDP ; NativeCodeCache::X86Emit_XORRM
_TEXT	ENDS
PUBLIC	?X86Emit_XORMR@NativeCodeCache@@QAEXW4x86Reg@@IW4x86IndexReg@@W4x86ScaleVal@@H@Z ; NativeCodeCache::X86Emit_XORMR
; Function compile flags: /Odtp /RTCsu
_TEXT	SEGMENT
_this$ = -4						; size = 4
_regDest$ = 8						; size = 4
_base$ = 12						; size = 4
_index$ = 16						; size = 4
_scale$ = 20						; size = 4
_disp$ = 24						; size = 4
?X86Emit_XORMR@NativeCodeCache@@QAEXW4x86Reg@@IW4x86IndexReg@@W4x86ScaleVal@@H@Z PROC ; NativeCodeCache::X86Emit_XORMR
; _this$ = ecx

; 768  : {

	push	ebp
	mov	ebp, esp
	push	ecx
	mov	DWORD PTR [ebp-4], -858993460		; ccccccccH
	mov	DWORD PTR _this$[ebp], ecx

; 769  :   X86Emit_Group1MR(regDest, base, index, scale, disp, 6);

	push	6
	mov	eax, DWORD PTR _disp$[ebp]
	push	eax
	mov	ecx, DWORD PTR _scale$[ebp]
	push	ecx
	mov	edx, DWORD PTR _index$[ebp]
	push	edx
	mov	eax, DWORD PTR _base$[ebp]
	push	eax
	mov	ecx, DWORD PTR _regDest$[ebp]
	push	ecx
	mov	ecx, DWORD PTR _this$[ebp]
	call	?X86Emit_Group1MR@NativeCodeCache@@QAEXW4x86Reg@@IW4x86IndexReg@@W4x86ScaleVal@@HE@Z ; NativeCodeCache::X86Emit_Group1MR

; 770  : }

	add	esp, 4
	cmp	ebp, esp
	call	__RTC_CheckEsp
	mov	esp, ebp
	pop	ebp
	ret	20					; 00000014H
?X86Emit_XORMR@NativeCodeCache@@QAEXW4x86Reg@@IW4x86IndexReg@@W4x86ScaleVal@@H@Z ENDP ; NativeCodeCache::X86Emit_XORMR
_TEXT	ENDS
PUBLIC	?X86Emit_XORIR@NativeCodeCache@@QAEXHW4x86Reg@@@Z ; NativeCodeCache::X86Emit_XORIR
; Function compile flags: /Odtp /RTCsu
_TEXT	SEGMENT
_this$ = -4						; size = 4
_imm$ = 8						; size = 4
_regDest$ = 12						; size = 4
?X86Emit_XORIR@NativeCodeCache@@QAEXHW4x86Reg@@@Z PROC	; NativeCodeCache::X86Emit_XORIR
; _this$ = ecx

; 773  : {

	push	ebp
	mov	ebp, esp
	push	ecx
	mov	DWORD PTR [ebp-4], -858993460		; ccccccccH
	mov	DWORD PTR _this$[ebp], ecx

; 774  :   X86Emit_Group1IR(imm, regDest, 6);

	push	6
	mov	eax, DWORD PTR _regDest$[ebp]
	push	eax
	mov	ecx, DWORD PTR _imm$[ebp]
	push	ecx
	mov	ecx, DWORD PTR _this$[ebp]
	call	?X86Emit_Group1IR@NativeCodeCache@@QAEXHW4x86Reg@@E@Z ; NativeCodeCache::X86Emit_Group1IR

; 775  : }

	add	esp, 4
	cmp	ebp, esp
	call	__RTC_CheckEsp
	mov	esp, ebp
	pop	ebp
	ret	8
?X86Emit_XORIR@NativeCodeCache@@QAEXHW4x86Reg@@@Z ENDP	; NativeCodeCache::X86Emit_XORIR
_TEXT	ENDS
PUBLIC	?X86Emit_XORIM@NativeCodeCache@@QAEXHW4x86MemPtr@@IW4x86IndexReg@@W4x86ScaleVal@@H@Z ; NativeCodeCache::X86Emit_XORIM
; Function compile flags: /Odtp /RTCsu
_TEXT	SEGMENT
_this$ = -4						; size = 4
_imm$ = 8						; size = 4
_ptrType$ = 12						; size = 4
_base$ = 16						; size = 4
_index$ = 20						; size = 4
_scale$ = 24						; size = 4
_disp$ = 28						; size = 4
?X86Emit_XORIM@NativeCodeCache@@QAEXHW4x86MemPtr@@IW4x86IndexReg@@W4x86ScaleVal@@H@Z PROC ; NativeCodeCache::X86Emit_XORIM
; _this$ = ecx

; 778  : {

	push	ebp
	mov	ebp, esp
	push	ecx
	mov	DWORD PTR [ebp-4], -858993460		; ccccccccH
	mov	DWORD PTR _this$[ebp], ecx

; 779  :   X86Emit_Group1IM(imm, ptrType, base, index, scale, disp, 6);

	push	6
	mov	eax, DWORD PTR _disp$[ebp]
	push	eax
	mov	ecx, DWORD PTR _scale$[ebp]
	push	ecx
	mov	edx, DWORD PTR _index$[ebp]
	push	edx
	mov	eax, DWORD PTR _base$[ebp]
	push	eax
	mov	ecx, DWORD PTR _ptrType$[ebp]
	push	ecx
	mov	edx, DWORD PTR _imm$[ebp]
	push	edx
	mov	ecx, DWORD PTR _this$[ebp]
	call	?X86Emit_Group1IM@NativeCodeCache@@QAEXHW4x86MemPtr@@IW4x86IndexReg@@W4x86ScaleVal@@HE@Z ; NativeCodeCache::X86Emit_Group1IM

; 780  : }

	add	esp, 4
	cmp	ebp, esp
	call	__RTC_CheckEsp
	mov	esp, ebp
	pop	ebp
	ret	24					; 00000018H
?X86Emit_XORIM@NativeCodeCache@@QAEXHW4x86MemPtr@@IW4x86IndexReg@@W4x86ScaleVal@@H@Z ENDP ; NativeCodeCache::X86Emit_XORIM
_TEXT	ENDS
PUBLIC	?X86Emit_SS@NativeCodeCache@@QAEXXZ		; NativeCodeCache::X86Emit_SS
; Function compile flags: /Odtp /RTCsu
_TEXT	SEGMENT
_this$ = -4						; size = 4
?X86Emit_SS@NativeCodeCache@@QAEXXZ PROC		; NativeCodeCache::X86Emit_SS
; _this$ = ecx

; 783  : {

	push	ebp
	mov	ebp, esp
	push	ecx
	mov	DWORD PTR [ebp-4], -858993460		; ccccccccH
	mov	DWORD PTR _this$[ebp], ecx

; 784  :   *pEmitLoc++ = 0x36;

	mov	eax, DWORD PTR _this$[ebp]
	mov	ecx, DWORD PTR [eax+4]
	mov	BYTE PTR [ecx], 54			; 00000036H
	mov	edx, DWORD PTR _this$[ebp]
	mov	eax, DWORD PTR [edx+4]
	add	eax, 1
	mov	ecx, DWORD PTR _this$[ebp]
	mov	DWORD PTR [ecx+4], eax

; 785  : }

	mov	esp, ebp
	pop	ebp
	ret	0
?X86Emit_SS@NativeCodeCache@@QAEXXZ ENDP		; NativeCodeCache::X86Emit_SS
_TEXT	ENDS
PUBLIC	?X86Emit_AAA@NativeCodeCache@@QAEXXZ		; NativeCodeCache::X86Emit_AAA
; Function compile flags: /Odtp /RTCsu
_TEXT	SEGMENT
_this$ = -4						; size = 4
?X86Emit_AAA@NativeCodeCache@@QAEXXZ PROC		; NativeCodeCache::X86Emit_AAA
; _this$ = ecx

; 788  : {

	push	ebp
	mov	ebp, esp
	push	ecx
	mov	DWORD PTR [ebp-4], -858993460		; ccccccccH
	mov	DWORD PTR _this$[ebp], ecx

; 789  :   *pEmitLoc++ = 0x37;

	mov	eax, DWORD PTR _this$[ebp]
	mov	ecx, DWORD PTR [eax+4]
	mov	BYTE PTR [ecx], 55			; 00000037H
	mov	edx, DWORD PTR _this$[ebp]
	mov	eax, DWORD PTR [edx+4]
	add	eax, 1
	mov	ecx, DWORD PTR _this$[ebp]
	mov	DWORD PTR [ecx+4], eax

; 790  : }

	mov	esp, ebp
	pop	ebp
	ret	0
?X86Emit_AAA@NativeCodeCache@@QAEXXZ ENDP		; NativeCodeCache::X86Emit_AAA
_TEXT	ENDS
PUBLIC	?X86Emit_CMPRR@NativeCodeCache@@QAEXW4x86Reg@@0@Z ; NativeCodeCache::X86Emit_CMPRR
; Function compile flags: /Odtp /RTCsu
_TEXT	SEGMENT
_this$ = -4						; size = 4
_regDest$ = 8						; size = 4
_regSrc$ = 12						; size = 4
?X86Emit_CMPRR@NativeCodeCache@@QAEXW4x86Reg@@0@Z PROC	; NativeCodeCache::X86Emit_CMPRR
; _this$ = ecx

; 793  : {

	push	ebp
	mov	ebp, esp
	push	ecx
	mov	DWORD PTR [ebp-4], -858993460		; ccccccccH
	mov	DWORD PTR _this$[ebp], ecx

; 794  :   X86Emit_Group1RR(regDest, regSrc, 7);

	push	7
	mov	eax, DWORD PTR _regSrc$[ebp]
	push	eax
	mov	ecx, DWORD PTR _regDest$[ebp]
	push	ecx
	mov	ecx, DWORD PTR _this$[ebp]
	call	?X86Emit_Group1RR@NativeCodeCache@@QAEXW4x86Reg@@0E@Z ; NativeCodeCache::X86Emit_Group1RR

; 795  : }

	add	esp, 4
	cmp	ebp, esp
	call	__RTC_CheckEsp
	mov	esp, ebp
	pop	ebp
	ret	8
?X86Emit_CMPRR@NativeCodeCache@@QAEXW4x86Reg@@0@Z ENDP	; NativeCodeCache::X86Emit_CMPRR
_TEXT	ENDS
PUBLIC	?X86Emit_CMPRM@NativeCodeCache@@QAEXW4x86Reg@@IW4x86IndexReg@@W4x86ScaleVal@@H@Z ; NativeCodeCache::X86Emit_CMPRM
; Function compile flags: /Odtp /RTCsu
_TEXT	SEGMENT
_this$ = -4						; size = 4
_regSrc$ = 8						; size = 4
_base$ = 12						; size = 4
_index$ = 16						; size = 4
_scale$ = 20						; size = 4
_disp$ = 24						; size = 4
?X86Emit_CMPRM@NativeCodeCache@@QAEXW4x86Reg@@IW4x86IndexReg@@W4x86ScaleVal@@H@Z PROC ; NativeCodeCache::X86Emit_CMPRM
; _this$ = ecx

; 798  : {

	push	ebp
	mov	ebp, esp
	push	ecx
	mov	DWORD PTR [ebp-4], -858993460		; ccccccccH
	mov	DWORD PTR _this$[ebp], ecx

; 799  :   X86Emit_Group1RM(regSrc, base, index, scale, disp, 7);

	push	7
	mov	eax, DWORD PTR _disp$[ebp]
	push	eax
	mov	ecx, DWORD PTR _scale$[ebp]
	push	ecx
	mov	edx, DWORD PTR _index$[ebp]
	push	edx
	mov	eax, DWORD PTR _base$[ebp]
	push	eax
	mov	ecx, DWORD PTR _regSrc$[ebp]
	push	ecx
	mov	ecx, DWORD PTR _this$[ebp]
	call	?X86Emit_Group1RM@NativeCodeCache@@QAEXW4x86Reg@@IW4x86IndexReg@@W4x86ScaleVal@@HE@Z ; NativeCodeCache::X86Emit_Group1RM

; 800  : }

	add	esp, 4
	cmp	ebp, esp
	call	__RTC_CheckEsp
	mov	esp, ebp
	pop	ebp
	ret	20					; 00000014H
?X86Emit_CMPRM@NativeCodeCache@@QAEXW4x86Reg@@IW4x86IndexReg@@W4x86ScaleVal@@H@Z ENDP ; NativeCodeCache::X86Emit_CMPRM
_TEXT	ENDS
PUBLIC	?X86Emit_CMPMR@NativeCodeCache@@QAEXW4x86Reg@@IW4x86IndexReg@@W4x86ScaleVal@@H@Z ; NativeCodeCache::X86Emit_CMPMR
; Function compile flags: /Odtp /RTCsu
_TEXT	SEGMENT
_this$ = -4						; size = 4
_regDest$ = 8						; size = 4
_base$ = 12						; size = 4
_index$ = 16						; size = 4
_scale$ = 20						; size = 4
_disp$ = 24						; size = 4
?X86Emit_CMPMR@NativeCodeCache@@QAEXW4x86Reg@@IW4x86IndexReg@@W4x86ScaleVal@@H@Z PROC ; NativeCodeCache::X86Emit_CMPMR
; _this$ = ecx

; 803  : {

	push	ebp
	mov	ebp, esp
	push	ecx
	mov	DWORD PTR [ebp-4], -858993460		; ccccccccH
	mov	DWORD PTR _this$[ebp], ecx

; 804  :   X86Emit_Group1MR(regDest, base, index, scale, disp, 7);

	push	7
	mov	eax, DWORD PTR _disp$[ebp]
	push	eax
	mov	ecx, DWORD PTR _scale$[ebp]
	push	ecx
	mov	edx, DWORD PTR _index$[ebp]
	push	edx
	mov	eax, DWORD PTR _base$[ebp]
	push	eax
	mov	ecx, DWORD PTR _regDest$[ebp]
	push	ecx
	mov	ecx, DWORD PTR _this$[ebp]
	call	?X86Emit_Group1MR@NativeCodeCache@@QAEXW4x86Reg@@IW4x86IndexReg@@W4x86ScaleVal@@HE@Z ; NativeCodeCache::X86Emit_Group1MR

; 805  : }

	add	esp, 4
	cmp	ebp, esp
	call	__RTC_CheckEsp
	mov	esp, ebp
	pop	ebp
	ret	20					; 00000014H
?X86Emit_CMPMR@NativeCodeCache@@QAEXW4x86Reg@@IW4x86IndexReg@@W4x86ScaleVal@@H@Z ENDP ; NativeCodeCache::X86Emit_CMPMR
_TEXT	ENDS
PUBLIC	?X86Emit_CMPIR@NativeCodeCache@@QAEXHW4x86Reg@@@Z ; NativeCodeCache::X86Emit_CMPIR
; Function compile flags: /Odtp /RTCsu
_TEXT	SEGMENT
_this$ = -4						; size = 4
_imm$ = 8						; size = 4
_regDest$ = 12						; size = 4
?X86Emit_CMPIR@NativeCodeCache@@QAEXHW4x86Reg@@@Z PROC	; NativeCodeCache::X86Emit_CMPIR
; _this$ = ecx

; 808  : {

	push	ebp
	mov	ebp, esp
	push	ecx
	mov	DWORD PTR [ebp-4], -858993460		; ccccccccH
	mov	DWORD PTR _this$[ebp], ecx

; 809  :   X86Emit_Group1IR(imm, regDest, 7);

	push	7
	mov	eax, DWORD PTR _regDest$[ebp]
	push	eax
	mov	ecx, DWORD PTR _imm$[ebp]
	push	ecx
	mov	ecx, DWORD PTR _this$[ebp]
	call	?X86Emit_Group1IR@NativeCodeCache@@QAEXHW4x86Reg@@E@Z ; NativeCodeCache::X86Emit_Group1IR

; 810  : }

	add	esp, 4
	cmp	ebp, esp
	call	__RTC_CheckEsp
	mov	esp, ebp
	pop	ebp
	ret	8
?X86Emit_CMPIR@NativeCodeCache@@QAEXHW4x86Reg@@@Z ENDP	; NativeCodeCache::X86Emit_CMPIR
_TEXT	ENDS
PUBLIC	?X86Emit_CMPIM@NativeCodeCache@@QAEXHW4x86MemPtr@@IW4x86IndexReg@@W4x86ScaleVal@@H@Z ; NativeCodeCache::X86Emit_CMPIM
; Function compile flags: /Odtp /RTCsu
_TEXT	SEGMENT
_this$ = -4						; size = 4
_imm$ = 8						; size = 4
_ptrType$ = 12						; size = 4
_base$ = 16						; size = 4
_index$ = 20						; size = 4
_scale$ = 24						; size = 4
_disp$ = 28						; size = 4
?X86Emit_CMPIM@NativeCodeCache@@QAEXHW4x86MemPtr@@IW4x86IndexReg@@W4x86ScaleVal@@H@Z PROC ; NativeCodeCache::X86Emit_CMPIM
; _this$ = ecx

; 813  : {

	push	ebp
	mov	ebp, esp
	push	ecx
	mov	DWORD PTR [ebp-4], -858993460		; ccccccccH
	mov	DWORD PTR _this$[ebp], ecx

; 814  :   X86Emit_Group1IM(imm, ptrType, base, index, scale, disp, 7);

	push	7
	mov	eax, DWORD PTR _disp$[ebp]
	push	eax
	mov	ecx, DWORD PTR _scale$[ebp]
	push	ecx
	mov	edx, DWORD PTR _index$[ebp]
	push	edx
	mov	eax, DWORD PTR _base$[ebp]
	push	eax
	mov	ecx, DWORD PTR _ptrType$[ebp]
	push	ecx
	mov	edx, DWORD PTR _imm$[ebp]
	push	edx
	mov	ecx, DWORD PTR _this$[ebp]
	call	?X86Emit_Group1IM@NativeCodeCache@@QAEXHW4x86MemPtr@@IW4x86IndexReg@@W4x86ScaleVal@@HE@Z ; NativeCodeCache::X86Emit_Group1IM

; 815  : }

	add	esp, 4
	cmp	ebp, esp
	call	__RTC_CheckEsp
	mov	esp, ebp
	pop	ebp
	ret	24					; 00000018H
?X86Emit_CMPIM@NativeCodeCache@@QAEXHW4x86MemPtr@@IW4x86IndexReg@@W4x86ScaleVal@@H@Z ENDP ; NativeCodeCache::X86Emit_CMPIM
_TEXT	ENDS
PUBLIC	?X86Emit_DS@NativeCodeCache@@QAEXXZ		; NativeCodeCache::X86Emit_DS
; Function compile flags: /Odtp /RTCsu
_TEXT	SEGMENT
_this$ = -4						; size = 4
?X86Emit_DS@NativeCodeCache@@QAEXXZ PROC		; NativeCodeCache::X86Emit_DS
; _this$ = ecx

; 818  : {

	push	ebp
	mov	ebp, esp
	push	ecx
	mov	DWORD PTR [ebp-4], -858993460		; ccccccccH
	mov	DWORD PTR _this$[ebp], ecx

; 819  :   *pEmitLoc++ = 0x3E;

	mov	eax, DWORD PTR _this$[ebp]
	mov	ecx, DWORD PTR [eax+4]
	mov	BYTE PTR [ecx], 62			; 0000003eH
	mov	edx, DWORD PTR _this$[ebp]
	mov	eax, DWORD PTR [edx+4]
	add	eax, 1
	mov	ecx, DWORD PTR _this$[ebp]
	mov	DWORD PTR [ecx+4], eax

; 820  : }

	mov	esp, ebp
	pop	ebp
	ret	0
?X86Emit_DS@NativeCodeCache@@QAEXXZ ENDP		; NativeCodeCache::X86Emit_DS
_TEXT	ENDS
PUBLIC	?X86Emit_AAS@NativeCodeCache@@QAEXXZ		; NativeCodeCache::X86Emit_AAS
; Function compile flags: /Odtp /RTCsu
_TEXT	SEGMENT
_this$ = -4						; size = 4
?X86Emit_AAS@NativeCodeCache@@QAEXXZ PROC		; NativeCodeCache::X86Emit_AAS
; _this$ = ecx

; 823  : {

	push	ebp
	mov	ebp, esp
	push	ecx
	mov	DWORD PTR [ebp-4], -858993460		; ccccccccH
	mov	DWORD PTR _this$[ebp], ecx

; 824  :   *pEmitLoc++ = 0x3F;

	mov	eax, DWORD PTR _this$[ebp]
	mov	ecx, DWORD PTR [eax+4]
	mov	BYTE PTR [ecx], 63			; 0000003fH
	mov	edx, DWORD PTR _this$[ebp]
	mov	eax, DWORD PTR [edx+4]
	add	eax, 1
	mov	ecx, DWORD PTR _this$[ebp]
	mov	DWORD PTR [ecx+4], eax

; 825  : }

	mov	esp, ebp
	pop	ebp
	ret	0
?X86Emit_AAS@NativeCodeCache@@QAEXXZ ENDP		; NativeCodeCache::X86Emit_AAS
_TEXT	ENDS
PUBLIC	?X86Emit_INCR@NativeCodeCache@@QAEXW4x86Reg@@@Z	; NativeCodeCache::X86Emit_INCR
; Function compile flags: /Odtp /RTCsu
_TEXT	SEGMENT
_this$ = -4						; size = 4
_reg$ = 8						; size = 4
?X86Emit_INCR@NativeCodeCache@@QAEXW4x86Reg@@@Z PROC	; NativeCodeCache::X86Emit_INCR
; _this$ = ecx

; 828  : {

	push	ebp
	mov	ebp, esp
	push	ecx
	mov	DWORD PTR [ebp-4], -858993460		; ccccccccH
	mov	DWORD PTR _this$[ebp], ecx

; 829  :   if(reg < x86Reg_ax)

	cmp	DWORD PTR _reg$[ebp], 8
	jge	SHORT $LN4@X86Emit_IN

; 830  :   {
; 831  :     *pEmitLoc++ = 0xFE;

	mov	eax, DWORD PTR _this$[ebp]
	mov	ecx, DWORD PTR [eax+4]
	mov	BYTE PTR [ecx], 254			; 000000feH
	mov	edx, DWORD PTR _this$[ebp]
	mov	eax, DWORD PTR [edx+4]
	add	eax, 1
	mov	ecx, DWORD PTR _this$[ebp]
	mov	DWORD PTR [ecx+4], eax

; 832  :     X86Emit_ModRegRM(x86ModType_reg,(x86ModReg)0,(reg & 0x07));

	push	0
	push	0
	push	4
	mov	edx, DWORD PTR _reg$[ebp]
	and	edx, 7
	push	edx
	push	0
	push	3
	mov	ecx, DWORD PTR _this$[ebp]
	call	?X86Emit_ModRegRM@NativeCodeCache@@QAEXW4x86ModType@@W4x86ModReg@@IW4x86IndexReg@@W4x86ScaleVal@@H@Z ; NativeCodeCache::X86Emit_ModRegRM
	jmp	SHORT $LN5@X86Emit_IN
$LN4@X86Emit_IN:

; 833  :   }
; 834  :   else if(reg < x86Reg_eax)

	cmp	DWORD PTR _reg$[ebp], 16		; 00000010H
	jge	SHORT $LN2@X86Emit_IN

; 835  :   {
; 836  :     *pEmitLoc++ = 0x66;

	mov	eax, DWORD PTR _this$[ebp]
	mov	ecx, DWORD PTR [eax+4]
	mov	BYTE PTR [ecx], 102			; 00000066H
	mov	edx, DWORD PTR _this$[ebp]
	mov	eax, DWORD PTR [edx+4]
	add	eax, 1
	mov	ecx, DWORD PTR _this$[ebp]
	mov	DWORD PTR [ecx+4], eax

; 837  :     *pEmitLoc++ = 0x40 + (reg & 0x07);  

	mov	edx, DWORD PTR _reg$[ebp]
	and	edx, 7
	add	edx, 64					; 00000040H
	mov	eax, DWORD PTR _this$[ebp]
	mov	ecx, DWORD PTR [eax+4]
	mov	BYTE PTR [ecx], dl
	mov	edx, DWORD PTR _this$[ebp]
	mov	eax, DWORD PTR [edx+4]
	add	eax, 1
	mov	ecx, DWORD PTR _this$[ebp]
	mov	DWORD PTR [ecx+4], eax

; 838  :   }
; 839  :   else

	jmp	SHORT $LN5@X86Emit_IN
$LN2@X86Emit_IN:

; 840  :   {
; 841  :     *pEmitLoc++ = 0x40 + (reg & 0x07);  

	mov	edx, DWORD PTR _reg$[ebp]
	and	edx, 7
	add	edx, 64					; 00000040H
	mov	eax, DWORD PTR _this$[ebp]
	mov	ecx, DWORD PTR [eax+4]
	mov	BYTE PTR [ecx], dl
	mov	edx, DWORD PTR _this$[ebp]
	mov	eax, DWORD PTR [edx+4]
	add	eax, 1
	mov	ecx, DWORD PTR _this$[ebp]
	mov	DWORD PTR [ecx+4], eax
$LN5@X86Emit_IN:

; 842  :   }
; 843  : }

	add	esp, 4
	cmp	ebp, esp
	call	__RTC_CheckEsp
	mov	esp, ebp
	pop	ebp
	ret	4
?X86Emit_INCR@NativeCodeCache@@QAEXW4x86Reg@@@Z ENDP	; NativeCodeCache::X86Emit_INCR
_TEXT	ENDS
PUBLIC	?X86Emit_DECR@NativeCodeCache@@QAEXW4x86Reg@@@Z	; NativeCodeCache::X86Emit_DECR
; Function compile flags: /Odtp /RTCsu
_TEXT	SEGMENT
_this$ = -4						; size = 4
_reg$ = 8						; size = 4
?X86Emit_DECR@NativeCodeCache@@QAEXW4x86Reg@@@Z PROC	; NativeCodeCache::X86Emit_DECR
; _this$ = ecx

; 846  : {

	push	ebp
	mov	ebp, esp
	push	ecx
	mov	DWORD PTR [ebp-4], -858993460		; ccccccccH
	mov	DWORD PTR _this$[ebp], ecx

; 847  :   if(reg < x86Reg_ax)

	cmp	DWORD PTR _reg$[ebp], 8
	jge	SHORT $LN4@X86Emit_DE

; 848  :   {
; 849  :     *pEmitLoc++ = 0xFE;

	mov	eax, DWORD PTR _this$[ebp]
	mov	ecx, DWORD PTR [eax+4]
	mov	BYTE PTR [ecx], 254			; 000000feH
	mov	edx, DWORD PTR _this$[ebp]
	mov	eax, DWORD PTR [edx+4]
	add	eax, 1
	mov	ecx, DWORD PTR _this$[ebp]
	mov	DWORD PTR [ecx+4], eax

; 850  :     X86Emit_ModRegRM(x86ModType_reg,(x86ModReg)1,(reg & 0x07));

	push	0
	push	0
	push	4
	mov	edx, DWORD PTR _reg$[ebp]
	and	edx, 7
	push	edx
	push	1
	push	3
	mov	ecx, DWORD PTR _this$[ebp]
	call	?X86Emit_ModRegRM@NativeCodeCache@@QAEXW4x86ModType@@W4x86ModReg@@IW4x86IndexReg@@W4x86ScaleVal@@H@Z ; NativeCodeCache::X86Emit_ModRegRM
	jmp	SHORT $LN5@X86Emit_DE
$LN4@X86Emit_DE:

; 851  :   }
; 852  :   else if(reg < x86Reg_eax)

	cmp	DWORD PTR _reg$[ebp], 16		; 00000010H
	jge	SHORT $LN2@X86Emit_DE

; 853  :   {
; 854  :     *pEmitLoc++ = 0x66;

	mov	eax, DWORD PTR _this$[ebp]
	mov	ecx, DWORD PTR [eax+4]
	mov	BYTE PTR [ecx], 102			; 00000066H
	mov	edx, DWORD PTR _this$[ebp]
	mov	eax, DWORD PTR [edx+4]
	add	eax, 1
	mov	ecx, DWORD PTR _this$[ebp]
	mov	DWORD PTR [ecx+4], eax

; 855  :     *pEmitLoc++ = 0x48 + (reg & 0x07);  

	mov	edx, DWORD PTR _reg$[ebp]
	and	edx, 7
	add	edx, 72					; 00000048H
	mov	eax, DWORD PTR _this$[ebp]
	mov	ecx, DWORD PTR [eax+4]
	mov	BYTE PTR [ecx], dl
	mov	edx, DWORD PTR _this$[ebp]
	mov	eax, DWORD PTR [edx+4]
	add	eax, 1
	mov	ecx, DWORD PTR _this$[ebp]
	mov	DWORD PTR [ecx+4], eax

; 856  :   }
; 857  :   else

	jmp	SHORT $LN5@X86Emit_DE
$LN2@X86Emit_DE:

; 858  :   {
; 859  :     *pEmitLoc++ = 0x48 + (reg & 0x07);  

	mov	edx, DWORD PTR _reg$[ebp]
	and	edx, 7
	add	edx, 72					; 00000048H
	mov	eax, DWORD PTR _this$[ebp]
	mov	ecx, DWORD PTR [eax+4]
	mov	BYTE PTR [ecx], dl
	mov	edx, DWORD PTR _this$[ebp]
	mov	eax, DWORD PTR [edx+4]
	add	eax, 1
	mov	ecx, DWORD PTR _this$[ebp]
	mov	DWORD PTR [ecx+4], eax
$LN5@X86Emit_DE:

; 860  :   }
; 861  : }

	add	esp, 4
	cmp	ebp, esp
	call	__RTC_CheckEsp
	mov	esp, ebp
	pop	ebp
	ret	4
?X86Emit_DECR@NativeCodeCache@@QAEXW4x86Reg@@@Z ENDP	; NativeCodeCache::X86Emit_DECR
_TEXT	ENDS
PUBLIC	?X86Emit_PUSHR@NativeCodeCache@@QAEXW4x86Reg@@@Z ; NativeCodeCache::X86Emit_PUSHR
; Function compile flags: /Odtp /RTCsu
_TEXT	SEGMENT
_this$ = -4						; size = 4
_reg$ = 8						; size = 4
?X86Emit_PUSHR@NativeCodeCache@@QAEXW4x86Reg@@@Z PROC	; NativeCodeCache::X86Emit_PUSHR
; _this$ = ecx

; 864  : {

	push	ebp
	mov	ebp, esp
	push	ecx
	mov	DWORD PTR [ebp-4], -858993460		; ccccccccH
	mov	DWORD PTR _this$[ebp], ecx

; 865  :   if(reg < x86Reg_eax)

	cmp	DWORD PTR _reg$[ebp], 16		; 00000010H
	jge	SHORT $LN1@X86Emit_PU

; 866  :   {
; 867  :     *pEmitLoc++ = 0x66;

	mov	eax, DWORD PTR _this$[ebp]
	mov	ecx, DWORD PTR [eax+4]
	mov	BYTE PTR [ecx], 102			; 00000066H
	mov	edx, DWORD PTR _this$[ebp]
	mov	eax, DWORD PTR [edx+4]
	add	eax, 1
	mov	ecx, DWORD PTR _this$[ebp]
	mov	DWORD PTR [ecx+4], eax
$LN1@X86Emit_PU:

; 868  :   }
; 869  : 
; 870  :   *pEmitLoc++ = 0x50 + (reg & 0x07);  

	mov	edx, DWORD PTR _reg$[ebp]
	and	edx, 7
	add	edx, 80					; 00000050H
	mov	eax, DWORD PTR _this$[ebp]
	mov	ecx, DWORD PTR [eax+4]
	mov	BYTE PTR [ecx], dl
	mov	edx, DWORD PTR _this$[ebp]
	mov	eax, DWORD PTR [edx+4]
	add	eax, 1
	mov	ecx, DWORD PTR _this$[ebp]
	mov	DWORD PTR [ecx+4], eax

; 871  : }

	mov	esp, ebp
	pop	ebp
	ret	4
?X86Emit_PUSHR@NativeCodeCache@@QAEXW4x86Reg@@@Z ENDP	; NativeCodeCache::X86Emit_PUSHR
_TEXT	ENDS
PUBLIC	?X86Emit_POPR@NativeCodeCache@@QAEXW4x86Reg@@@Z	; NativeCodeCache::X86Emit_POPR
; Function compile flags: /Odtp /RTCsu
_TEXT	SEGMENT
_this$ = -4						; size = 4
_reg$ = 8						; size = 4
?X86Emit_POPR@NativeCodeCache@@QAEXW4x86Reg@@@Z PROC	; NativeCodeCache::X86Emit_POPR
; _this$ = ecx

; 874  : {

	push	ebp
	mov	ebp, esp
	push	ecx
	mov	DWORD PTR [ebp-4], -858993460		; ccccccccH
	mov	DWORD PTR _this$[ebp], ecx

; 875  :   if(reg < x86Reg_eax)

	cmp	DWORD PTR _reg$[ebp], 16		; 00000010H
	jge	SHORT $LN1@X86Emit_PO

; 876  :   {
; 877  :     *pEmitLoc++ = 0x66;

	mov	eax, DWORD PTR _this$[ebp]
	mov	ecx, DWORD PTR [eax+4]
	mov	BYTE PTR [ecx], 102			; 00000066H
	mov	edx, DWORD PTR _this$[ebp]
	mov	eax, DWORD PTR [edx+4]
	add	eax, 1
	mov	ecx, DWORD PTR _this$[ebp]
	mov	DWORD PTR [ecx+4], eax
$LN1@X86Emit_PO:

; 878  :   }
; 879  : 
; 880  :   *pEmitLoc++ = 0x58 + (reg & 0x07);  

	mov	edx, DWORD PTR _reg$[ebp]
	and	edx, 7
	add	edx, 88					; 00000058H
	mov	eax, DWORD PTR _this$[ebp]
	mov	ecx, DWORD PTR [eax+4]
	mov	BYTE PTR [ecx], dl
	mov	edx, DWORD PTR _this$[ebp]
	mov	eax, DWORD PTR [edx+4]
	add	eax, 1
	mov	ecx, DWORD PTR _this$[ebp]
	mov	DWORD PTR [ecx+4], eax

; 881  : }

	mov	esp, ebp
	pop	ebp
	ret	4
?X86Emit_POPR@NativeCodeCache@@QAEXW4x86Reg@@@Z ENDP	; NativeCodeCache::X86Emit_POPR
_TEXT	ENDS
PUBLIC	?X86Emit_PUSHAW@NativeCodeCache@@QAEXXZ		; NativeCodeCache::X86Emit_PUSHAW
; Function compile flags: /Odtp /RTCsu
_TEXT	SEGMENT
_this$ = -4						; size = 4
?X86Emit_PUSHAW@NativeCodeCache@@QAEXXZ PROC		; NativeCodeCache::X86Emit_PUSHAW
; _this$ = ecx

; 884  : {

	push	ebp
	mov	ebp, esp
	push	ecx
	mov	DWORD PTR [ebp-4], -858993460		; ccccccccH
	mov	DWORD PTR _this$[ebp], ecx

; 885  :   *pEmitLoc++ = 0x66;

	mov	eax, DWORD PTR _this$[ebp]
	mov	ecx, DWORD PTR [eax+4]
	mov	BYTE PTR [ecx], 102			; 00000066H
	mov	edx, DWORD PTR _this$[ebp]
	mov	eax, DWORD PTR [edx+4]
	add	eax, 1
	mov	ecx, DWORD PTR _this$[ebp]
	mov	DWORD PTR [ecx+4], eax

; 886  :   *pEmitLoc++ = 0x60;

	mov	edx, DWORD PTR _this$[ebp]
	mov	eax, DWORD PTR [edx+4]
	mov	BYTE PTR [eax], 96			; 00000060H
	mov	ecx, DWORD PTR _this$[ebp]
	mov	edx, DWORD PTR [ecx+4]
	add	edx, 1
	mov	eax, DWORD PTR _this$[ebp]
	mov	DWORD PTR [eax+4], edx

; 887  : }

	mov	esp, ebp
	pop	ebp
	ret	0
?X86Emit_PUSHAW@NativeCodeCache@@QAEXXZ ENDP		; NativeCodeCache::X86Emit_PUSHAW
_TEXT	ENDS
PUBLIC	?X86Emit_PUSHAD@NativeCodeCache@@QAEXXZ		; NativeCodeCache::X86Emit_PUSHAD
; Function compile flags: /Odtp /RTCsu
_TEXT	SEGMENT
_this$ = -4						; size = 4
?X86Emit_PUSHAD@NativeCodeCache@@QAEXXZ PROC		; NativeCodeCache::X86Emit_PUSHAD
; _this$ = ecx

; 890  : {

	push	ebp
	mov	ebp, esp
	push	ecx
	mov	DWORD PTR [ebp-4], -858993460		; ccccccccH
	mov	DWORD PTR _this$[ebp], ecx

; 891  :   *pEmitLoc++ = 0x60;

	mov	eax, DWORD PTR _this$[ebp]
	mov	ecx, DWORD PTR [eax+4]
	mov	BYTE PTR [ecx], 96			; 00000060H
	mov	edx, DWORD PTR _this$[ebp]
	mov	eax, DWORD PTR [edx+4]
	add	eax, 1
	mov	ecx, DWORD PTR _this$[ebp]
	mov	DWORD PTR [ecx+4], eax

; 892  : }

	mov	esp, ebp
	pop	ebp
	ret	0
?X86Emit_PUSHAD@NativeCodeCache@@QAEXXZ ENDP		; NativeCodeCache::X86Emit_PUSHAD
_TEXT	ENDS
PUBLIC	?X86Emit_POPAW@NativeCodeCache@@QAEXXZ		; NativeCodeCache::X86Emit_POPAW
; Function compile flags: /Odtp /RTCsu
_TEXT	SEGMENT
_this$ = -4						; size = 4
?X86Emit_POPAW@NativeCodeCache@@QAEXXZ PROC		; NativeCodeCache::X86Emit_POPAW
; _this$ = ecx

; 895  : {

	push	ebp
	mov	ebp, esp
	push	ecx
	mov	DWORD PTR [ebp-4], -858993460		; ccccccccH
	mov	DWORD PTR _this$[ebp], ecx

; 896  :   *pEmitLoc++ = 0x66;

	mov	eax, DWORD PTR _this$[ebp]
	mov	ecx, DWORD PTR [eax+4]
	mov	BYTE PTR [ecx], 102			; 00000066H
	mov	edx, DWORD PTR _this$[ebp]
	mov	eax, DWORD PTR [edx+4]
	add	eax, 1
	mov	ecx, DWORD PTR _this$[ebp]
	mov	DWORD PTR [ecx+4], eax

; 897  :   *pEmitLoc++ = 0x61;

	mov	edx, DWORD PTR _this$[ebp]
	mov	eax, DWORD PTR [edx+4]
	mov	BYTE PTR [eax], 97			; 00000061H
	mov	ecx, DWORD PTR _this$[ebp]
	mov	edx, DWORD PTR [ecx+4]
	add	edx, 1
	mov	eax, DWORD PTR _this$[ebp]
	mov	DWORD PTR [eax+4], edx

; 898  : }

	mov	esp, ebp
	pop	ebp
	ret	0
?X86Emit_POPAW@NativeCodeCache@@QAEXXZ ENDP		; NativeCodeCache::X86Emit_POPAW
_TEXT	ENDS
PUBLIC	?X86Emit_POPAD@NativeCodeCache@@QAEXXZ		; NativeCodeCache::X86Emit_POPAD
; Function compile flags: /Odtp /RTCsu
_TEXT	SEGMENT
_this$ = -4						; size = 4
?X86Emit_POPAD@NativeCodeCache@@QAEXXZ PROC		; NativeCodeCache::X86Emit_POPAD
; _this$ = ecx

; 901  : {

	push	ebp
	mov	ebp, esp
	push	ecx
	mov	DWORD PTR [ebp-4], -858993460		; ccccccccH
	mov	DWORD PTR _this$[ebp], ecx

; 902  :   *pEmitLoc++ = 0x61;

	mov	eax, DWORD PTR _this$[ebp]
	mov	ecx, DWORD PTR [eax+4]
	mov	BYTE PTR [ecx], 97			; 00000061H
	mov	edx, DWORD PTR _this$[ebp]
	mov	eax, DWORD PTR [edx+4]
	add	eax, 1
	mov	ecx, DWORD PTR _this$[ebp]
	mov	DWORD PTR [ecx+4], eax

; 903  : }

	mov	esp, ebp
	pop	ebp
	ret	0
?X86Emit_POPAD@NativeCodeCache@@QAEXXZ ENDP		; NativeCodeCache::X86Emit_POPAD
_TEXT	ENDS
PUBLIC	?X86Emit_FS@NativeCodeCache@@QAEXXZ		; NativeCodeCache::X86Emit_FS
; Function compile flags: /Odtp /RTCsu
_TEXT	SEGMENT
_this$ = -4						; size = 4
?X86Emit_FS@NativeCodeCache@@QAEXXZ PROC		; NativeCodeCache::X86Emit_FS
; _this$ = ecx

; 906  : {

	push	ebp
	mov	ebp, esp
	push	ecx
	mov	DWORD PTR [ebp-4], -858993460		; ccccccccH
	mov	DWORD PTR _this$[ebp], ecx

; 907  :   *pEmitLoc++ = 0x64;

	mov	eax, DWORD PTR _this$[ebp]
	mov	ecx, DWORD PTR [eax+4]
	mov	BYTE PTR [ecx], 100			; 00000064H
	mov	edx, DWORD PTR _this$[ebp]
	mov	eax, DWORD PTR [edx+4]
	add	eax, 1
	mov	ecx, DWORD PTR _this$[ebp]
	mov	DWORD PTR [ecx+4], eax

; 908  : }

	mov	esp, ebp
	pop	ebp
	ret	0
?X86Emit_FS@NativeCodeCache@@QAEXXZ ENDP		; NativeCodeCache::X86Emit_FS
_TEXT	ENDS
PUBLIC	?X86Emit_GS@NativeCodeCache@@QAEXXZ		; NativeCodeCache::X86Emit_GS
; Function compile flags: /Odtp /RTCsu
_TEXT	SEGMENT
_this$ = -4						; size = 4
?X86Emit_GS@NativeCodeCache@@QAEXXZ PROC		; NativeCodeCache::X86Emit_GS
; _this$ = ecx

; 911  : {

	push	ebp
	mov	ebp, esp
	push	ecx
	mov	DWORD PTR [ebp-4], -858993460		; ccccccccH
	mov	DWORD PTR _this$[ebp], ecx

; 912  :   *pEmitLoc++ = 0x65;

	mov	eax, DWORD PTR _this$[ebp]
	mov	ecx, DWORD PTR [eax+4]
	mov	BYTE PTR [ecx], 101			; 00000065H
	mov	edx, DWORD PTR _this$[ebp]
	mov	eax, DWORD PTR [edx+4]
	add	eax, 1
	mov	ecx, DWORD PTR _this$[ebp]
	mov	DWORD PTR [ecx+4], eax

; 913  : }

	mov	esp, ebp
	pop	ebp
	ret	0
?X86Emit_GS@NativeCodeCache@@QAEXXZ ENDP		; NativeCodeCache::X86Emit_GS
_TEXT	ENDS
PUBLIC	?X86Emit_OPSIZE@NativeCodeCache@@QAEXXZ		; NativeCodeCache::X86Emit_OPSIZE
; Function compile flags: /Odtp /RTCsu
_TEXT	SEGMENT
_this$ = -4						; size = 4
?X86Emit_OPSIZE@NativeCodeCache@@QAEXXZ PROC		; NativeCodeCache::X86Emit_OPSIZE
; _this$ = ecx

; 916  : {

	push	ebp
	mov	ebp, esp
	push	ecx
	mov	DWORD PTR [ebp-4], -858993460		; ccccccccH
	mov	DWORD PTR _this$[ebp], ecx

; 917  :   *pEmitLoc++ = 0x66;

	mov	eax, DWORD PTR _this$[ebp]
	mov	ecx, DWORD PTR [eax+4]
	mov	BYTE PTR [ecx], 102			; 00000066H
	mov	edx, DWORD PTR _this$[ebp]
	mov	eax, DWORD PTR [edx+4]
	add	eax, 1
	mov	ecx, DWORD PTR _this$[ebp]
	mov	DWORD PTR [ecx+4], eax

; 918  : }

	mov	esp, ebp
	pop	ebp
	ret	0
?X86Emit_OPSIZE@NativeCodeCache@@QAEXXZ ENDP		; NativeCodeCache::X86Emit_OPSIZE
_TEXT	ENDS
PUBLIC	?X86Emit_ADSIZE@NativeCodeCache@@QAEXXZ		; NativeCodeCache::X86Emit_ADSIZE
; Function compile flags: /Odtp /RTCsu
_TEXT	SEGMENT
_this$ = -4						; size = 4
?X86Emit_ADSIZE@NativeCodeCache@@QAEXXZ PROC		; NativeCodeCache::X86Emit_ADSIZE
; _this$ = ecx

; 921  : {

	push	ebp
	mov	ebp, esp
	push	ecx
	mov	DWORD PTR [ebp-4], -858993460		; ccccccccH
	mov	DWORD PTR _this$[ebp], ecx

; 922  :   *pEmitLoc++ = 0x67;

	mov	eax, DWORD PTR _this$[ebp]
	mov	ecx, DWORD PTR [eax+4]
	mov	BYTE PTR [ecx], 103			; 00000067H
	mov	edx, DWORD PTR _this$[ebp]
	mov	eax, DWORD PTR [edx+4]
	add	eax, 1
	mov	ecx, DWORD PTR _this$[ebp]
	mov	DWORD PTR [ecx+4], eax

; 923  : }

	mov	esp, ebp
	pop	ebp
	ret	0
?X86Emit_ADSIZE@NativeCodeCache@@QAEXXZ ENDP		; NativeCodeCache::X86Emit_ADSIZE
_TEXT	ENDS
PUBLIC	?X86Emit_PUSHID@NativeCodeCache@@QAEXH@Z	; NativeCodeCache::X86Emit_PUSHID
; Function compile flags: /Odtp /RTCsu
_TEXT	SEGMENT
_this$ = -4						; size = 4
_imm$ = 8						; size = 4
?X86Emit_PUSHID@NativeCodeCache@@QAEXH@Z PROC		; NativeCodeCache::X86Emit_PUSHID
; _this$ = ecx

; 926  : {

	push	ebp
	mov	ebp, esp
	push	ecx
	mov	DWORD PTR [ebp-4], -858993460		; ccccccccH
	mov	DWORD PTR _this$[ebp], ecx

; 927  :   *pEmitLoc++ = 0x68;

	mov	eax, DWORD PTR _this$[ebp]
	mov	ecx, DWORD PTR [eax+4]
	mov	BYTE PTR [ecx], 104			; 00000068H
	mov	edx, DWORD PTR _this$[ebp]
	mov	eax, DWORD PTR [edx+4]
	add	eax, 1
	mov	ecx, DWORD PTR _this$[ebp]
	mov	DWORD PTR [ecx+4], eax

; 928  :   *((int32 *)pEmitLoc++) = imm;

	mov	edx, DWORD PTR _this$[ebp]
	mov	eax, DWORD PTR [edx+4]
	mov	ecx, DWORD PTR _imm$[ebp]
	mov	DWORD PTR [eax], ecx
	mov	edx, DWORD PTR _this$[ebp]
	mov	eax, DWORD PTR [edx+4]
	add	eax, 1
	mov	ecx, DWORD PTR _this$[ebp]
	mov	DWORD PTR [ecx+4], eax

; 929  : }

	mov	esp, ebp
	pop	ebp
	ret	4
?X86Emit_PUSHID@NativeCodeCache@@QAEXH@Z ENDP		; NativeCodeCache::X86Emit_PUSHID
_TEXT	ENDS
PUBLIC	?X86Emit_PUSHIW@NativeCodeCache@@QAEXF@Z	; NativeCodeCache::X86Emit_PUSHIW
; Function compile flags: /Odtp /RTCsu
_TEXT	SEGMENT
_this$ = -4						; size = 4
_imm$ = 8						; size = 2
?X86Emit_PUSHIW@NativeCodeCache@@QAEXF@Z PROC		; NativeCodeCache::X86Emit_PUSHIW
; _this$ = ecx

; 932  : {

	push	ebp
	mov	ebp, esp
	push	ecx
	mov	DWORD PTR [ebp-4], -858993460		; ccccccccH
	mov	DWORD PTR _this$[ebp], ecx

; 933  :   *pEmitLoc++ = 0x66;

	mov	eax, DWORD PTR _this$[ebp]
	mov	ecx, DWORD PTR [eax+4]
	mov	BYTE PTR [ecx], 102			; 00000066H
	mov	edx, DWORD PTR _this$[ebp]
	mov	eax, DWORD PTR [edx+4]
	add	eax, 1
	mov	ecx, DWORD PTR _this$[ebp]
	mov	DWORD PTR [ecx+4], eax

; 934  :   *pEmitLoc++ = 0x68;

	mov	edx, DWORD PTR _this$[ebp]
	mov	eax, DWORD PTR [edx+4]
	mov	BYTE PTR [eax], 104			; 00000068H
	mov	ecx, DWORD PTR _this$[ebp]
	mov	edx, DWORD PTR [ecx+4]
	add	edx, 1
	mov	eax, DWORD PTR _this$[ebp]
	mov	DWORD PTR [eax+4], edx

; 935  :   *((int16 *)pEmitLoc++) = imm;

	mov	ecx, DWORD PTR _this$[ebp]
	mov	edx, DWORD PTR [ecx+4]
	mov	ax, WORD PTR _imm$[ebp]
	mov	WORD PTR [edx], ax
	mov	ecx, DWORD PTR _this$[ebp]
	mov	edx, DWORD PTR [ecx+4]
	add	edx, 1
	mov	eax, DWORD PTR _this$[ebp]
	mov	DWORD PTR [eax+4], edx

; 936  : }

	mov	esp, ebp
	pop	ebp
	ret	4
?X86Emit_PUSHIW@NativeCodeCache@@QAEXF@Z ENDP		; NativeCodeCache::X86Emit_PUSHIW
_TEXT	ENDS
PUBLIC	?X86Emit_IMULMRR@NativeCodeCache@@QAEXW4x86Reg@@IW4x86IndexReg@@W4x86ScaleVal@@H@Z ; NativeCodeCache::X86Emit_IMULMRR
; Function compile flags: /Odtp /RTCsu
_TEXT	SEGMENT
_this$ = -4						; size = 4
_regDest$ = 8						; size = 4
_base$ = 12						; size = 4
_index$ = 16						; size = 4
_scale$ = 20						; size = 4
_disp$ = 24						; size = 4
?X86Emit_IMULMRR@NativeCodeCache@@QAEXW4x86Reg@@IW4x86IndexReg@@W4x86ScaleVal@@H@Z PROC ; NativeCodeCache::X86Emit_IMULMRR
; _this$ = ecx

; 939  : {

	push	ebp
	mov	ebp, esp
	push	ecx
	mov	DWORD PTR [ebp-4], -858993460		; ccccccccH
	mov	DWORD PTR _this$[ebp], ecx

; 940  :   if(regDest < x86Reg_eax)

	cmp	DWORD PTR _regDest$[ebp], 16		; 00000010H
	jge	SHORT $LN1@X86Emit_IM

; 941  :   {
; 942  :     //imul reg16, r16
; 943  :     *pEmitLoc++ = 0x66;

	mov	eax, DWORD PTR _this$[ebp]
	mov	ecx, DWORD PTR [eax+4]
	mov	BYTE PTR [ecx], 102			; 00000066H
	mov	edx, DWORD PTR _this$[ebp]
	mov	eax, DWORD PTR [edx+4]
	add	eax, 1
	mov	ecx, DWORD PTR _this$[ebp]
	mov	DWORD PTR [ecx+4], eax
$LN1@X86Emit_IM:

; 944  :   }
; 945  :   *pEmitLoc++ = 0x0F;

	mov	edx, DWORD PTR _this$[ebp]
	mov	eax, DWORD PTR [edx+4]
	mov	BYTE PTR [eax], 15			; 0000000fH
	mov	ecx, DWORD PTR _this$[ebp]
	mov	edx, DWORD PTR [ecx+4]
	add	edx, 1
	mov	eax, DWORD PTR _this$[ebp]
	mov	DWORD PTR [eax+4], edx

; 946  :   *pEmitLoc++ = 0xAF;

	mov	ecx, DWORD PTR _this$[ebp]
	mov	edx, DWORD PTR [ecx+4]
	mov	BYTE PTR [edx], 175			; 000000afH
	mov	eax, DWORD PTR _this$[ebp]
	mov	ecx, DWORD PTR [eax+4]
	add	ecx, 1
	mov	edx, DWORD PTR _this$[ebp]
	mov	DWORD PTR [edx+4], ecx

; 947  :   X86Emit_ModRegRM(x86ModType_mem,(x86ModReg)(regDest & 0x07),base,index,scale,disp);

	mov	eax, DWORD PTR _disp$[ebp]
	push	eax
	mov	ecx, DWORD PTR _scale$[ebp]
	push	ecx
	mov	edx, DWORD PTR _index$[ebp]
	push	edx
	mov	eax, DWORD PTR _base$[ebp]
	push	eax
	mov	ecx, DWORD PTR _regDest$[ebp]
	and	ecx, 7
	push	ecx
	push	0
	mov	ecx, DWORD PTR _this$[ebp]
	call	?X86Emit_ModRegRM@NativeCodeCache@@QAEXW4x86ModType@@W4x86ModReg@@IW4x86IndexReg@@W4x86ScaleVal@@H@Z ; NativeCodeCache::X86Emit_ModRegRM

; 948  : }

	add	esp, 4
	cmp	ebp, esp
	call	__RTC_CheckEsp
	mov	esp, ebp
	pop	ebp
	ret	20					; 00000014H
?X86Emit_IMULMRR@NativeCodeCache@@QAEXW4x86Reg@@IW4x86IndexReg@@W4x86ScaleVal@@H@Z ENDP ; NativeCodeCache::X86Emit_IMULMRR
_TEXT	ENDS
PUBLIC	?X86Emit_IMULRRR@NativeCodeCache@@QAEXW4x86Reg@@0@Z ; NativeCodeCache::X86Emit_IMULRRR
; Function compile flags: /Odtp /RTCsu
_TEXT	SEGMENT
_this$ = -4						; size = 4
_regDest$ = 8						; size = 4
_regSrc$ = 12						; size = 4
?X86Emit_IMULRRR@NativeCodeCache@@QAEXW4x86Reg@@0@Z PROC ; NativeCodeCache::X86Emit_IMULRRR
; _this$ = ecx

; 951  : {

	push	ebp
	mov	ebp, esp
	push	ecx
	mov	DWORD PTR [ebp-4], -858993460		; ccccccccH
	mov	DWORD PTR _this$[ebp], ecx

; 952  :   if(regDest < x86Reg_eax)

	cmp	DWORD PTR _regDest$[ebp], 16		; 00000010H
	jge	SHORT $LN1@X86Emit_IM@2

; 953  :   {
; 954  :     //imul reg16, r16
; 955  :     *pEmitLoc++ = 0x66;

	mov	eax, DWORD PTR _this$[ebp]
	mov	ecx, DWORD PTR [eax+4]
	mov	BYTE PTR [ecx], 102			; 00000066H
	mov	edx, DWORD PTR _this$[ebp]
	mov	eax, DWORD PTR [edx+4]
	add	eax, 1
	mov	ecx, DWORD PTR _this$[ebp]
	mov	DWORD PTR [ecx+4], eax
$LN1@X86Emit_IM@2:

; 956  :   }
; 957  :   *pEmitLoc++ = 0x0F;

	mov	edx, DWORD PTR _this$[ebp]
	mov	eax, DWORD PTR [edx+4]
	mov	BYTE PTR [eax], 15			; 0000000fH
	mov	ecx, DWORD PTR _this$[ebp]
	mov	edx, DWORD PTR [ecx+4]
	add	edx, 1
	mov	eax, DWORD PTR _this$[ebp]
	mov	DWORD PTR [eax+4], edx

; 958  :   *pEmitLoc++ = 0xAF;

	mov	ecx, DWORD PTR _this$[ebp]
	mov	edx, DWORD PTR [ecx+4]
	mov	BYTE PTR [edx], 175			; 000000afH
	mov	eax, DWORD PTR _this$[ebp]
	mov	ecx, DWORD PTR [eax+4]
	add	ecx, 1
	mov	edx, DWORD PTR _this$[ebp]
	mov	DWORD PTR [edx+4], ecx

; 959  :   X86Emit_ModRegRM(x86ModType_reg,(x86ModReg)(regDest & 0x07),(regSrc & 0x07));

	push	0
	push	0
	push	4
	mov	eax, DWORD PTR _regSrc$[ebp]
	and	eax, 7
	push	eax
	mov	ecx, DWORD PTR _regDest$[ebp]
	and	ecx, 7
	push	ecx
	push	3
	mov	ecx, DWORD PTR _this$[ebp]
	call	?X86Emit_ModRegRM@NativeCodeCache@@QAEXW4x86ModType@@W4x86ModReg@@IW4x86IndexReg@@W4x86ScaleVal@@H@Z ; NativeCodeCache::X86Emit_ModRegRM

; 960  : }

	add	esp, 4
	cmp	ebp, esp
	call	__RTC_CheckEsp
	mov	esp, ebp
	pop	ebp
	ret	8
?X86Emit_IMULRRR@NativeCodeCache@@QAEXW4x86Reg@@0@Z ENDP ; NativeCodeCache::X86Emit_IMULRRR
_TEXT	ENDS
PUBLIC	?X86Emit_IMULIRR@NativeCodeCache@@QAEXW4x86Reg@@H0@Z ; NativeCodeCache::X86Emit_IMULIRR
; Function compile flags: /Odtp /RTCsu
_TEXT	SEGMENT
_this$ = -4						; size = 4
_regDest$ = 8						; size = 4
_imm$ = 12						; size = 4
_regSrc$ = 16						; size = 4
?X86Emit_IMULIRR@NativeCodeCache@@QAEXW4x86Reg@@H0@Z PROC ; NativeCodeCache::X86Emit_IMULIRR
; _this$ = ecx

; 963  : {

	push	ebp
	mov	ebp, esp
	push	ecx
	mov	DWORD PTR [ebp-4], -858993460		; ccccccccH
	mov	DWORD PTR _this$[ebp], ecx

; 964  :   if(regSrc < x86Reg_eax)

	cmp	DWORD PTR _regSrc$[ebp], 16		; 00000010H
	jge	$LN6@X86Emit_IM@3

; 965  :   {
; 966  :     //reg16, r8, imm8 or reg16, r16, imm16
; 967  :     if((imm >= -128) && (imm <= 127))

	cmp	DWORD PTR _imm$[ebp], -128		; ffffff80H
	jl	SHORT $LN5@X86Emit_IM@3
	cmp	DWORD PTR _imm$[ebp], 127		; 0000007fH
	jg	SHORT $LN5@X86Emit_IM@3

; 968  :     {
; 969  :       *pEmitLoc++ = 0x66;

	mov	eax, DWORD PTR _this$[ebp]
	mov	ecx, DWORD PTR [eax+4]
	mov	BYTE PTR [ecx], 102			; 00000066H
	mov	edx, DWORD PTR _this$[ebp]
	mov	eax, DWORD PTR [edx+4]
	add	eax, 1
	mov	ecx, DWORD PTR _this$[ebp]
	mov	DWORD PTR [ecx+4], eax

; 970  :       *pEmitLoc++ = 0x6B;

	mov	edx, DWORD PTR _this$[ebp]
	mov	eax, DWORD PTR [edx+4]
	mov	BYTE PTR [eax], 107			; 0000006bH
	mov	ecx, DWORD PTR _this$[ebp]
	mov	edx, DWORD PTR [ecx+4]
	add	edx, 1
	mov	eax, DWORD PTR _this$[ebp]
	mov	DWORD PTR [eax+4], edx

; 971  :       X86Emit_ModRegRM(x86ModType_reg,(x86ModReg)(regDest & 0x07),(regSrc & 0x07));

	push	0
	push	0
	push	4
	mov	ecx, DWORD PTR _regSrc$[ebp]
	and	ecx, 7
	push	ecx
	mov	edx, DWORD PTR _regDest$[ebp]
	and	edx, 7
	push	edx
	push	3
	mov	ecx, DWORD PTR _this$[ebp]
	call	?X86Emit_ModRegRM@NativeCodeCache@@QAEXW4x86ModType@@W4x86ModReg@@IW4x86IndexReg@@W4x86ScaleVal@@H@Z ; NativeCodeCache::X86Emit_ModRegRM

; 972  :       *pEmitLoc++ = (int8)imm;

	mov	eax, DWORD PTR _this$[ebp]
	mov	ecx, DWORD PTR [eax+4]
	mov	dl, BYTE PTR _imm$[ebp]
	mov	BYTE PTR [ecx], dl
	mov	eax, DWORD PTR _this$[ebp]
	mov	ecx, DWORD PTR [eax+4]
	add	ecx, 1
	mov	edx, DWORD PTR _this$[ebp]
	mov	DWORD PTR [edx+4], ecx

; 973  :     }
; 974  :     else

	jmp	SHORT $LN4@X86Emit_IM@3
$LN5@X86Emit_IM@3:

; 975  :     {
; 976  :       *pEmitLoc++ = 0x66;

	mov	eax, DWORD PTR _this$[ebp]
	mov	ecx, DWORD PTR [eax+4]
	mov	BYTE PTR [ecx], 102			; 00000066H
	mov	edx, DWORD PTR _this$[ebp]
	mov	eax, DWORD PTR [edx+4]
	add	eax, 1
	mov	ecx, DWORD PTR _this$[ebp]
	mov	DWORD PTR [ecx+4], eax

; 977  :       *pEmitLoc++ = 0x69;

	mov	edx, DWORD PTR _this$[ebp]
	mov	eax, DWORD PTR [edx+4]
	mov	BYTE PTR [eax], 105			; 00000069H
	mov	ecx, DWORD PTR _this$[ebp]
	mov	edx, DWORD PTR [ecx+4]
	add	edx, 1
	mov	eax, DWORD PTR _this$[ebp]
	mov	DWORD PTR [eax+4], edx

; 978  :       X86Emit_ModRegRM(x86ModType_reg,(x86ModReg)(regDest & 0x07),(regSrc & 0x07));

	push	0
	push	0
	push	4
	mov	ecx, DWORD PTR _regSrc$[ebp]
	and	ecx, 7
	push	ecx
	mov	edx, DWORD PTR _regDest$[ebp]
	and	edx, 7
	push	edx
	push	3
	mov	ecx, DWORD PTR _this$[ebp]
	call	?X86Emit_ModRegRM@NativeCodeCache@@QAEXW4x86ModType@@W4x86ModReg@@IW4x86IndexReg@@W4x86ScaleVal@@H@Z ; NativeCodeCache::X86Emit_ModRegRM

; 979  :       *((int16 *)pEmitLoc) = (int16)imm;

	mov	eax, DWORD PTR _this$[ebp]
	mov	ecx, DWORD PTR [eax+4]
	mov	dx, WORD PTR _imm$[ebp]
	mov	WORD PTR [ecx], dx

; 980  :       pEmitLoc += sizeof(int16);

	mov	eax, DWORD PTR _this$[ebp]
	mov	ecx, DWORD PTR [eax+4]
	add	ecx, 2
	mov	edx, DWORD PTR _this$[ebp]
	mov	DWORD PTR [edx+4], ecx
$LN4@X86Emit_IM@3:

; 981  :     }
; 982  :   }
; 983  :   else

	jmp	$LN7@X86Emit_IM@3
$LN6@X86Emit_IM@3:

; 984  :   {
; 985  :     //reg32, r32, imm8 or reg32, r32, imm32
; 986  :     if((imm >= -128) && (imm <= 127))

	cmp	DWORD PTR _imm$[ebp], -128		; ffffff80H
	jl	SHORT $LN2@X86Emit_IM@3
	cmp	DWORD PTR _imm$[ebp], 127		; 0000007fH
	jg	SHORT $LN2@X86Emit_IM@3

; 987  :     {
; 988  :       *pEmitLoc++ = 0x6B;

	mov	eax, DWORD PTR _this$[ebp]
	mov	ecx, DWORD PTR [eax+4]
	mov	BYTE PTR [ecx], 107			; 0000006bH
	mov	edx, DWORD PTR _this$[ebp]
	mov	eax, DWORD PTR [edx+4]
	add	eax, 1
	mov	ecx, DWORD PTR _this$[ebp]
	mov	DWORD PTR [ecx+4], eax

; 989  :       X86Emit_ModRegRM(x86ModType_reg,(x86ModReg)(regDest & 0x07),(regSrc & 0x07));

	push	0
	push	0
	push	4
	mov	edx, DWORD PTR _regSrc$[ebp]
	and	edx, 7
	push	edx
	mov	eax, DWORD PTR _regDest$[ebp]
	and	eax, 7
	push	eax
	push	3
	mov	ecx, DWORD PTR _this$[ebp]
	call	?X86Emit_ModRegRM@NativeCodeCache@@QAEXW4x86ModType@@W4x86ModReg@@IW4x86IndexReg@@W4x86ScaleVal@@H@Z ; NativeCodeCache::X86Emit_ModRegRM

; 990  :       *pEmitLoc++ = (int8)imm;

	mov	ecx, DWORD PTR _this$[ebp]
	mov	edx, DWORD PTR [ecx+4]
	mov	al, BYTE PTR _imm$[ebp]
	mov	BYTE PTR [edx], al
	mov	ecx, DWORD PTR _this$[ebp]
	mov	edx, DWORD PTR [ecx+4]
	add	edx, 1
	mov	eax, DWORD PTR _this$[ebp]
	mov	DWORD PTR [eax+4], edx

; 991  :     }
; 992  :     else

	jmp	SHORT $LN7@X86Emit_IM@3
$LN2@X86Emit_IM@3:

; 993  :     {
; 994  :       *pEmitLoc++ = 0x69;

	mov	ecx, DWORD PTR _this$[ebp]
	mov	edx, DWORD PTR [ecx+4]
	mov	BYTE PTR [edx], 105			; 00000069H
	mov	eax, DWORD PTR _this$[ebp]
	mov	ecx, DWORD PTR [eax+4]
	add	ecx, 1
	mov	edx, DWORD PTR _this$[ebp]
	mov	DWORD PTR [edx+4], ecx

; 995  :       X86Emit_ModRegRM(x86ModType_reg,(x86ModReg)(regDest & 0x07),(regSrc & 0x07));

	push	0
	push	0
	push	4
	mov	eax, DWORD PTR _regSrc$[ebp]
	and	eax, 7
	push	eax
	mov	ecx, DWORD PTR _regDest$[ebp]
	and	ecx, 7
	push	ecx
	push	3
	mov	ecx, DWORD PTR _this$[ebp]
	call	?X86Emit_ModRegRM@NativeCodeCache@@QAEXW4x86ModType@@W4x86ModReg@@IW4x86IndexReg@@W4x86ScaleVal@@H@Z ; NativeCodeCache::X86Emit_ModRegRM

; 996  :       *((int32 *)pEmitLoc) = (int32)imm;

	mov	edx, DWORD PTR _this$[ebp]
	mov	eax, DWORD PTR [edx+4]
	mov	ecx, DWORD PTR _imm$[ebp]
	mov	DWORD PTR [eax], ecx

; 997  :       pEmitLoc += sizeof(int32);

	mov	edx, DWORD PTR _this$[ebp]
	mov	eax, DWORD PTR [edx+4]
	add	eax, 4
	mov	ecx, DWORD PTR _this$[ebp]
	mov	DWORD PTR [ecx+4], eax
$LN7@X86Emit_IM@3:

; 998  :     }
; 999  :   }
; 1000 : }

	add	esp, 4
	cmp	ebp, esp
	call	__RTC_CheckEsp
	mov	esp, ebp
	pop	ebp
	ret	12					; 0000000cH
?X86Emit_IMULIRR@NativeCodeCache@@QAEXW4x86Reg@@H0@Z ENDP ; NativeCodeCache::X86Emit_IMULIRR
_TEXT	ENDS
PUBLIC	?X86Emit_IMULIMR@NativeCodeCache@@QAEXW4x86Reg@@HIW4x86IndexReg@@W4x86ScaleVal@@H@Z ; NativeCodeCache::X86Emit_IMULIMR
; Function compile flags: /Odtp /RTCsu
_TEXT	SEGMENT
_this$ = -4						; size = 4
_regDest$ = 8						; size = 4
_imm$ = 12						; size = 4
_base$ = 16						; size = 4
_index$ = 20						; size = 4
_scale$ = 24						; size = 4
_disp$ = 28						; size = 4
?X86Emit_IMULIMR@NativeCodeCache@@QAEXW4x86Reg@@HIW4x86IndexReg@@W4x86ScaleVal@@H@Z PROC ; NativeCodeCache::X86Emit_IMULIMR
; _this$ = ecx

; 1003 : {

	push	ebp
	mov	ebp, esp
	push	ecx
	mov	DWORD PTR [ebp-4], -858993460		; ccccccccH
	mov	DWORD PTR _this$[ebp], ecx

; 1004 :   if(regDest < x86Reg_eax)

	cmp	DWORD PTR _regDest$[ebp], 16		; 00000010H
	jge	$LN6@X86Emit_IM@4

; 1005 :   {
; 1006 :     //reg16, m8, imm8 or reg16, m16, imm16
; 1007 :     if((imm >= -128) && (imm <= 127))

	cmp	DWORD PTR _imm$[ebp], -128		; ffffff80H
	jl	SHORT $LN5@X86Emit_IM@4
	cmp	DWORD PTR _imm$[ebp], 127		; 0000007fH
	jg	SHORT $LN5@X86Emit_IM@4

; 1008 :     {
; 1009 :       *pEmitLoc++ = 0x66;

	mov	eax, DWORD PTR _this$[ebp]
	mov	ecx, DWORD PTR [eax+4]
	mov	BYTE PTR [ecx], 102			; 00000066H
	mov	edx, DWORD PTR _this$[ebp]
	mov	eax, DWORD PTR [edx+4]
	add	eax, 1
	mov	ecx, DWORD PTR _this$[ebp]
	mov	DWORD PTR [ecx+4], eax

; 1010 :       *pEmitLoc++ = 0x6B;

	mov	edx, DWORD PTR _this$[ebp]
	mov	eax, DWORD PTR [edx+4]
	mov	BYTE PTR [eax], 107			; 0000006bH
	mov	ecx, DWORD PTR _this$[ebp]
	mov	edx, DWORD PTR [ecx+4]
	add	edx, 1
	mov	eax, DWORD PTR _this$[ebp]
	mov	DWORD PTR [eax+4], edx

; 1011 :       X86Emit_ModRegRM(x86ModType_mem,(x86ModReg)(regDest & 0x07),base,index,scale,disp);

	mov	ecx, DWORD PTR _disp$[ebp]
	push	ecx
	mov	edx, DWORD PTR _scale$[ebp]
	push	edx
	mov	eax, DWORD PTR _index$[ebp]
	push	eax
	mov	ecx, DWORD PTR _base$[ebp]
	push	ecx
	mov	edx, DWORD PTR _regDest$[ebp]
	and	edx, 7
	push	edx
	push	0
	mov	ecx, DWORD PTR _this$[ebp]
	call	?X86Emit_ModRegRM@NativeCodeCache@@QAEXW4x86ModType@@W4x86ModReg@@IW4x86IndexReg@@W4x86ScaleVal@@H@Z ; NativeCodeCache::X86Emit_ModRegRM

; 1012 :       *pEmitLoc++ = (int8)imm;

	mov	eax, DWORD PTR _this$[ebp]
	mov	ecx, DWORD PTR [eax+4]
	mov	dl, BYTE PTR _imm$[ebp]
	mov	BYTE PTR [ecx], dl
	mov	eax, DWORD PTR _this$[ebp]
	mov	ecx, DWORD PTR [eax+4]
	add	ecx, 1
	mov	edx, DWORD PTR _this$[ebp]
	mov	DWORD PTR [edx+4], ecx

; 1013 :     }
; 1014 :     else

	jmp	SHORT $LN4@X86Emit_IM@4
$LN5@X86Emit_IM@4:

; 1015 :     {
; 1016 :       *pEmitLoc++ = 0x66;

	mov	eax, DWORD PTR _this$[ebp]
	mov	ecx, DWORD PTR [eax+4]
	mov	BYTE PTR [ecx], 102			; 00000066H
	mov	edx, DWORD PTR _this$[ebp]
	mov	eax, DWORD PTR [edx+4]
	add	eax, 1
	mov	ecx, DWORD PTR _this$[ebp]
	mov	DWORD PTR [ecx+4], eax

; 1017 :       *pEmitLoc++ = 0x69;

	mov	edx, DWORD PTR _this$[ebp]
	mov	eax, DWORD PTR [edx+4]
	mov	BYTE PTR [eax], 105			; 00000069H
	mov	ecx, DWORD PTR _this$[ebp]
	mov	edx, DWORD PTR [ecx+4]
	add	edx, 1
	mov	eax, DWORD PTR _this$[ebp]
	mov	DWORD PTR [eax+4], edx

; 1018 :       X86Emit_ModRegRM(x86ModType_mem,(x86ModReg)(regDest & 0x07),base,index,scale,disp);

	mov	ecx, DWORD PTR _disp$[ebp]
	push	ecx
	mov	edx, DWORD PTR _scale$[ebp]
	push	edx
	mov	eax, DWORD PTR _index$[ebp]
	push	eax
	mov	ecx, DWORD PTR _base$[ebp]
	push	ecx
	mov	edx, DWORD PTR _regDest$[ebp]
	and	edx, 7
	push	edx
	push	0
	mov	ecx, DWORD PTR _this$[ebp]
	call	?X86Emit_ModRegRM@NativeCodeCache@@QAEXW4x86ModType@@W4x86ModReg@@IW4x86IndexReg@@W4x86ScaleVal@@H@Z ; NativeCodeCache::X86Emit_ModRegRM

; 1019 :       *((int16 *)pEmitLoc) = (int16)imm;

	mov	eax, DWORD PTR _this$[ebp]
	mov	ecx, DWORD PTR [eax+4]
	mov	dx, WORD PTR _imm$[ebp]
	mov	WORD PTR [ecx], dx

; 1020 :       pEmitLoc += sizeof(int16);

	mov	eax, DWORD PTR _this$[ebp]
	mov	ecx, DWORD PTR [eax+4]
	add	ecx, 2
	mov	edx, DWORD PTR _this$[ebp]
	mov	DWORD PTR [edx+4], ecx
$LN4@X86Emit_IM@4:

; 1021 :     }
; 1022 :   }
; 1023 :   else

	jmp	$LN7@X86Emit_IM@4
$LN6@X86Emit_IM@4:

; 1024 :   {
; 1025 :     //reg32, m32, imm8 or reg32, m32, imm32
; 1026 :     if((imm >= -128) && (imm <= 127))

	cmp	DWORD PTR _imm$[ebp], -128		; ffffff80H
	jl	SHORT $LN2@X86Emit_IM@4
	cmp	DWORD PTR _imm$[ebp], 127		; 0000007fH
	jg	SHORT $LN2@X86Emit_IM@4

; 1027 :     {
; 1028 :       *pEmitLoc++ = 0x6B;

	mov	eax, DWORD PTR _this$[ebp]
	mov	ecx, DWORD PTR [eax+4]
	mov	BYTE PTR [ecx], 107			; 0000006bH
	mov	edx, DWORD PTR _this$[ebp]
	mov	eax, DWORD PTR [edx+4]
	add	eax, 1
	mov	ecx, DWORD PTR _this$[ebp]
	mov	DWORD PTR [ecx+4], eax

; 1029 :       X86Emit_ModRegRM(x86ModType_mem,(x86ModReg)(regDest & 0x07),base,index,scale,disp);

	mov	edx, DWORD PTR _disp$[ebp]
	push	edx
	mov	eax, DWORD PTR _scale$[ebp]
	push	eax
	mov	ecx, DWORD PTR _index$[ebp]
	push	ecx
	mov	edx, DWORD PTR _base$[ebp]
	push	edx
	mov	eax, DWORD PTR _regDest$[ebp]
	and	eax, 7
	push	eax
	push	0
	mov	ecx, DWORD PTR _this$[ebp]
	call	?X86Emit_ModRegRM@NativeCodeCache@@QAEXW4x86ModType@@W4x86ModReg@@IW4x86IndexReg@@W4x86ScaleVal@@H@Z ; NativeCodeCache::X86Emit_ModRegRM

; 1030 :       *pEmitLoc++ = (int8)imm;

	mov	ecx, DWORD PTR _this$[ebp]
	mov	edx, DWORD PTR [ecx+4]
	mov	al, BYTE PTR _imm$[ebp]
	mov	BYTE PTR [edx], al
	mov	ecx, DWORD PTR _this$[ebp]
	mov	edx, DWORD PTR [ecx+4]
	add	edx, 1
	mov	eax, DWORD PTR _this$[ebp]
	mov	DWORD PTR [eax+4], edx

; 1031 :     }
; 1032 :     else

	jmp	SHORT $LN7@X86Emit_IM@4
$LN2@X86Emit_IM@4:

; 1033 :     {
; 1034 :       *pEmitLoc++ = 0x69;

	mov	ecx, DWORD PTR _this$[ebp]
	mov	edx, DWORD PTR [ecx+4]
	mov	BYTE PTR [edx], 105			; 00000069H
	mov	eax, DWORD PTR _this$[ebp]
	mov	ecx, DWORD PTR [eax+4]
	add	ecx, 1
	mov	edx, DWORD PTR _this$[ebp]
	mov	DWORD PTR [edx+4], ecx

; 1035 :       X86Emit_ModRegRM(x86ModType_mem,(x86ModReg)(regDest & 0x07),base,index,scale,disp);

	mov	eax, DWORD PTR _disp$[ebp]
	push	eax
	mov	ecx, DWORD PTR _scale$[ebp]
	push	ecx
	mov	edx, DWORD PTR _index$[ebp]
	push	edx
	mov	eax, DWORD PTR _base$[ebp]
	push	eax
	mov	ecx, DWORD PTR _regDest$[ebp]
	and	ecx, 7
	push	ecx
	push	0
	mov	ecx, DWORD PTR _this$[ebp]
	call	?X86Emit_ModRegRM@NativeCodeCache@@QAEXW4x86ModType@@W4x86ModReg@@IW4x86IndexReg@@W4x86ScaleVal@@H@Z ; NativeCodeCache::X86Emit_ModRegRM

; 1036 :       *((int32 *)pEmitLoc) = (int32)imm;

	mov	edx, DWORD PTR _this$[ebp]
	mov	eax, DWORD PTR [edx+4]
	mov	ecx, DWORD PTR _imm$[ebp]
	mov	DWORD PTR [eax], ecx

; 1037 :       pEmitLoc += sizeof(int32);

	mov	edx, DWORD PTR _this$[ebp]
	mov	eax, DWORD PTR [edx+4]
	add	eax, 4
	mov	ecx, DWORD PTR _this$[ebp]
	mov	DWORD PTR [ecx+4], eax
$LN7@X86Emit_IM@4:

; 1038 :     }
; 1039 :   }
; 1040 : }

	add	esp, 4
	cmp	ebp, esp
	call	__RTC_CheckEsp
	mov	esp, ebp
	pop	ebp
	ret	24					; 00000018H
?X86Emit_IMULIMR@NativeCodeCache@@QAEXW4x86Reg@@HIW4x86IndexReg@@W4x86ScaleVal@@H@Z ENDP ; NativeCodeCache::X86Emit_IMULIMR
_TEXT	ENDS
PUBLIC	?X86Emit_PUSHIB@NativeCodeCache@@QAEXC@Z	; NativeCodeCache::X86Emit_PUSHIB
; Function compile flags: /Odtp /RTCsu
_TEXT	SEGMENT
_this$ = -4						; size = 4
_imm$ = 8						; size = 1
?X86Emit_PUSHIB@NativeCodeCache@@QAEXC@Z PROC		; NativeCodeCache::X86Emit_PUSHIB
; _this$ = ecx

; 1043 : {

	push	ebp
	mov	ebp, esp
	push	ecx
	mov	DWORD PTR [ebp-4], -858993460		; ccccccccH
	mov	DWORD PTR _this$[ebp], ecx

; 1044 :   *pEmitLoc++ = 0x6A;

	mov	eax, DWORD PTR _this$[ebp]
	mov	ecx, DWORD PTR [eax+4]
	mov	BYTE PTR [ecx], 106			; 0000006aH
	mov	edx, DWORD PTR _this$[ebp]
	mov	eax, DWORD PTR [edx+4]
	add	eax, 1
	mov	ecx, DWORD PTR _this$[ebp]
	mov	DWORD PTR [ecx+4], eax

; 1045 :   *pEmitLoc++ = imm;

	mov	edx, DWORD PTR _this$[ebp]
	mov	eax, DWORD PTR [edx+4]
	mov	cl, BYTE PTR _imm$[ebp]
	mov	BYTE PTR [eax], cl
	mov	edx, DWORD PTR _this$[ebp]
	mov	eax, DWORD PTR [edx+4]
	add	eax, 1
	mov	ecx, DWORD PTR _this$[ebp]
	mov	DWORD PTR [ecx+4], eax

; 1046 : }

	mov	esp, ebp
	pop	ebp
	ret	4
?X86Emit_PUSHIB@NativeCodeCache@@QAEXC@Z ENDP		; NativeCodeCache::X86Emit_PUSHIB
_TEXT	ENDS
PUBLIC	?X86Emit_INSB@NativeCodeCache@@QAEXXZ		; NativeCodeCache::X86Emit_INSB
; Function compile flags: /Odtp /RTCsu
_TEXT	SEGMENT
_this$ = -4						; size = 4
?X86Emit_INSB@NativeCodeCache@@QAEXXZ PROC		; NativeCodeCache::X86Emit_INSB
; _this$ = ecx

; 1049 : {

	push	ebp
	mov	ebp, esp
	push	ecx
	mov	DWORD PTR [ebp-4], -858993460		; ccccccccH
	mov	DWORD PTR _this$[ebp], ecx

; 1050 :   *pEmitLoc++ = 0x6C;

	mov	eax, DWORD PTR _this$[ebp]
	mov	ecx, DWORD PTR [eax+4]
	mov	BYTE PTR [ecx], 108			; 0000006cH
	mov	edx, DWORD PTR _this$[ebp]
	mov	eax, DWORD PTR [edx+4]
	add	eax, 1
	mov	ecx, DWORD PTR _this$[ebp]
	mov	DWORD PTR [ecx+4], eax

; 1051 : }

	mov	esp, ebp
	pop	ebp
	ret	0
?X86Emit_INSB@NativeCodeCache@@QAEXXZ ENDP		; NativeCodeCache::X86Emit_INSB
_TEXT	ENDS
PUBLIC	?X86Emit_INSW@NativeCodeCache@@QAEXXZ		; NativeCodeCache::X86Emit_INSW
; Function compile flags: /Odtp /RTCsu
_TEXT	SEGMENT
_this$ = -4						; size = 4
?X86Emit_INSW@NativeCodeCache@@QAEXXZ PROC		; NativeCodeCache::X86Emit_INSW
; _this$ = ecx

; 1054 : {

	push	ebp
	mov	ebp, esp
	push	ecx
	mov	DWORD PTR [ebp-4], -858993460		; ccccccccH
	mov	DWORD PTR _this$[ebp], ecx

; 1055 :   *pEmitLoc++ = 0x66;

	mov	eax, DWORD PTR _this$[ebp]
	mov	ecx, DWORD PTR [eax+4]
	mov	BYTE PTR [ecx], 102			; 00000066H
	mov	edx, DWORD PTR _this$[ebp]
	mov	eax, DWORD PTR [edx+4]
	add	eax, 1
	mov	ecx, DWORD PTR _this$[ebp]
	mov	DWORD PTR [ecx+4], eax

; 1056 :   *pEmitLoc++ = 0x6C;

	mov	edx, DWORD PTR _this$[ebp]
	mov	eax, DWORD PTR [edx+4]
	mov	BYTE PTR [eax], 108			; 0000006cH
	mov	ecx, DWORD PTR _this$[ebp]
	mov	edx, DWORD PTR [ecx+4]
	add	edx, 1
	mov	eax, DWORD PTR _this$[ebp]
	mov	DWORD PTR [eax+4], edx

; 1057 : }

	mov	esp, ebp
	pop	ebp
	ret	0
?X86Emit_INSW@NativeCodeCache@@QAEXXZ ENDP		; NativeCodeCache::X86Emit_INSW
_TEXT	ENDS
PUBLIC	?X86Emit_INSD@NativeCodeCache@@QAEXXZ		; NativeCodeCache::X86Emit_INSD
; Function compile flags: /Odtp /RTCsu
_TEXT	SEGMENT
_this$ = -4						; size = 4
?X86Emit_INSD@NativeCodeCache@@QAEXXZ PROC		; NativeCodeCache::X86Emit_INSD
; _this$ = ecx

; 1060 : {

	push	ebp
	mov	ebp, esp
	push	ecx
	mov	DWORD PTR [ebp-4], -858993460		; ccccccccH
	mov	DWORD PTR _this$[ebp], ecx

; 1061 :   *pEmitLoc++ = 0x6C;

	mov	eax, DWORD PTR _this$[ebp]
	mov	ecx, DWORD PTR [eax+4]
	mov	BYTE PTR [ecx], 108			; 0000006cH
	mov	edx, DWORD PTR _this$[ebp]
	mov	eax, DWORD PTR [edx+4]
	add	eax, 1
	mov	ecx, DWORD PTR _this$[ebp]
	mov	DWORD PTR [ecx+4], eax

; 1062 : }

	mov	esp, ebp
	pop	ebp
	ret	0
?X86Emit_INSD@NativeCodeCache@@QAEXXZ ENDP		; NativeCodeCache::X86Emit_INSD
_TEXT	ENDS
PUBLIC	?X86Emit_OUTSB@NativeCodeCache@@QAEXXZ		; NativeCodeCache::X86Emit_OUTSB
; Function compile flags: /Odtp /RTCsu
_TEXT	SEGMENT
_this$ = -4						; size = 4
?X86Emit_OUTSB@NativeCodeCache@@QAEXXZ PROC		; NativeCodeCache::X86Emit_OUTSB
; _this$ = ecx

; 1065 : {

	push	ebp
	mov	ebp, esp
	push	ecx
	mov	DWORD PTR [ebp-4], -858993460		; ccccccccH
	mov	DWORD PTR _this$[ebp], ecx

; 1066 :   *pEmitLoc++ = 0x6E;

	mov	eax, DWORD PTR _this$[ebp]
	mov	ecx, DWORD PTR [eax+4]
	mov	BYTE PTR [ecx], 110			; 0000006eH
	mov	edx, DWORD PTR _this$[ebp]
	mov	eax, DWORD PTR [edx+4]
	add	eax, 1
	mov	ecx, DWORD PTR _this$[ebp]
	mov	DWORD PTR [ecx+4], eax

; 1067 : }

	mov	esp, ebp
	pop	ebp
	ret	0
?X86Emit_OUTSB@NativeCodeCache@@QAEXXZ ENDP		; NativeCodeCache::X86Emit_OUTSB
_TEXT	ENDS
PUBLIC	?X86Emit_OUTSW@NativeCodeCache@@QAEXXZ		; NativeCodeCache::X86Emit_OUTSW
; Function compile flags: /Odtp /RTCsu
_TEXT	SEGMENT
_this$ = -4						; size = 4
?X86Emit_OUTSW@NativeCodeCache@@QAEXXZ PROC		; NativeCodeCache::X86Emit_OUTSW
; _this$ = ecx

; 1070 : {

	push	ebp
	mov	ebp, esp
	push	ecx
	mov	DWORD PTR [ebp-4], -858993460		; ccccccccH
	mov	DWORD PTR _this$[ebp], ecx

; 1071 :   *pEmitLoc++ = 0x66;

	mov	eax, DWORD PTR _this$[ebp]
	mov	ecx, DWORD PTR [eax+4]
	mov	BYTE PTR [ecx], 102			; 00000066H
	mov	edx, DWORD PTR _this$[ebp]
	mov	eax, DWORD PTR [edx+4]
	add	eax, 1
	mov	ecx, DWORD PTR _this$[ebp]
	mov	DWORD PTR [ecx+4], eax

; 1072 :   *pEmitLoc++ = 0x6E;

	mov	edx, DWORD PTR _this$[ebp]
	mov	eax, DWORD PTR [edx+4]
	mov	BYTE PTR [eax], 110			; 0000006eH
	mov	ecx, DWORD PTR _this$[ebp]
	mov	edx, DWORD PTR [ecx+4]
	add	edx, 1
	mov	eax, DWORD PTR _this$[ebp]
	mov	DWORD PTR [eax+4], edx

; 1073 : }

	mov	esp, ebp
	pop	ebp
	ret	0
?X86Emit_OUTSW@NativeCodeCache@@QAEXXZ ENDP		; NativeCodeCache::X86Emit_OUTSW
_TEXT	ENDS
PUBLIC	?X86Emit_OUTSD@NativeCodeCache@@QAEXXZ		; NativeCodeCache::X86Emit_OUTSD
; Function compile flags: /Odtp /RTCsu
_TEXT	SEGMENT
_this$ = -4						; size = 4
?X86Emit_OUTSD@NativeCodeCache@@QAEXXZ PROC		; NativeCodeCache::X86Emit_OUTSD
; _this$ = ecx

; 1076 : {

	push	ebp
	mov	ebp, esp
	push	ecx
	mov	DWORD PTR [ebp-4], -858993460		; ccccccccH
	mov	DWORD PTR _this$[ebp], ecx

; 1077 :   *pEmitLoc++ = 0x6E;

	mov	eax, DWORD PTR _this$[ebp]
	mov	ecx, DWORD PTR [eax+4]
	mov	BYTE PTR [ecx], 110			; 0000006eH
	mov	edx, DWORD PTR _this$[ebp]
	mov	eax, DWORD PTR [edx+4]
	add	eax, 1
	mov	ecx, DWORD PTR _this$[ebp]
	mov	DWORD PTR [ecx+4], eax

; 1078 : }

	mov	esp, ebp
	pop	ebp
	ret	0
?X86Emit_OUTSD@NativeCodeCache@@QAEXXZ ENDP		; NativeCodeCache::X86Emit_OUTSD
_TEXT	ENDS
PUBLIC	?X86Emit_FEMMS@NativeCodeCache@@QAEXXZ		; NativeCodeCache::X86Emit_FEMMS
; Function compile flags: /Odtp /RTCsu
_TEXT	SEGMENT
_this$ = -4						; size = 4
?X86Emit_FEMMS@NativeCodeCache@@QAEXXZ PROC		; NativeCodeCache::X86Emit_FEMMS
; _this$ = ecx

; 1081 : {

	push	ebp
	mov	ebp, esp
	push	ecx
	mov	DWORD PTR [ebp-4], -858993460		; ccccccccH
	mov	DWORD PTR _this$[ebp], ecx

; 1082 :   *pEmitLoc++ = 0x0F;

	mov	eax, DWORD PTR _this$[ebp]
	mov	ecx, DWORD PTR [eax+4]
	mov	BYTE PTR [ecx], 15			; 0000000fH
	mov	edx, DWORD PTR _this$[ebp]
	mov	eax, DWORD PTR [edx+4]
	add	eax, 1
	mov	ecx, DWORD PTR _this$[ebp]
	mov	DWORD PTR [ecx+4], eax

; 1083 :   *pEmitLoc++ = 0x0E;

	mov	edx, DWORD PTR _this$[ebp]
	mov	eax, DWORD PTR [edx+4]
	mov	BYTE PTR [eax], 14			; 0000000eH
	mov	ecx, DWORD PTR _this$[ebp]
	mov	edx, DWORD PTR [ecx+4]
	add	edx, 1
	mov	eax, DWORD PTR _this$[ebp]
	mov	DWORD PTR [eax+4], edx

; 1084 : }

	mov	esp, ebp
	pop	ebp
	ret	0
?X86Emit_FEMMS@NativeCodeCache@@QAEXXZ ENDP		; NativeCodeCache::X86Emit_FEMMS
_TEXT	ENDS
PUBLIC	?X86Emit_EMMS@NativeCodeCache@@QAEXXZ		; NativeCodeCache::X86Emit_EMMS
; Function compile flags: /Odtp /RTCsu
_TEXT	SEGMENT
_this$ = -4						; size = 4
?X86Emit_EMMS@NativeCodeCache@@QAEXXZ PROC		; NativeCodeCache::X86Emit_EMMS
; _this$ = ecx

; 1087 : {

	push	ebp
	mov	ebp, esp
	push	ecx
	mov	DWORD PTR [ebp-4], -858993460		; ccccccccH
	mov	DWORD PTR _this$[ebp], ecx

; 1088 :   *pEmitLoc++ = 0x0F;

	mov	eax, DWORD PTR _this$[ebp]
	mov	ecx, DWORD PTR [eax+4]
	mov	BYTE PTR [ecx], 15			; 0000000fH
	mov	edx, DWORD PTR _this$[ebp]
	mov	eax, DWORD PTR [edx+4]
	add	eax, 1
	mov	ecx, DWORD PTR _this$[ebp]
	mov	DWORD PTR [ecx+4], eax

; 1089 :   *pEmitLoc++ = 0x77;

	mov	edx, DWORD PTR _this$[ebp]
	mov	eax, DWORD PTR [edx+4]
	mov	BYTE PTR [eax], 119			; 00000077H
	mov	ecx, DWORD PTR _this$[ebp]
	mov	edx, DWORD PTR [ecx+4]
	add	edx, 1
	mov	eax, DWORD PTR _this$[ebp]
	mov	DWORD PTR [eax+4], edx

; 1090 : }

	mov	esp, ebp
	pop	ebp
	ret	0
?X86Emit_EMMS@NativeCodeCache@@QAEXXZ ENDP		; NativeCodeCache::X86Emit_EMMS
_TEXT	ENDS
PUBLIC	?X86Emit_JCC@NativeCodeCache@@QAEXPAEC@Z	; NativeCodeCache::X86Emit_JCC
; Function compile flags: /Odtp /RTCsu
_TEXT	SEGMENT
_pOffsetNear$ = -12					; size = 4
_pOffset$ = -8						; size = 4
_this$ = -4						; size = 4
_pTarget$ = 8						; size = 4
_conditionCode$ = 12					; size = 1
?X86Emit_JCC@NativeCodeCache@@QAEXPAEC@Z PROC		; NativeCodeCache::X86Emit_JCC
; _this$ = ecx

; 1093 : {

	push	ebp
	mov	ebp, esp
	sub	esp, 12					; 0000000cH
	mov	DWORD PTR [ebp-12], -858993460		; ccccccccH
	mov	DWORD PTR [ebp-8], -858993460		; ccccccccH
	mov	DWORD PTR [ebp-4], -858993460		; ccccccccH
	mov	DWORD PTR _this$[ebp], ecx

; 1094 :   int32 pOffset = pTarget - (pEmitLoc + 2);

	mov	eax, DWORD PTR _this$[ebp]
	mov	ecx, DWORD PTR [eax+4]
	add	ecx, 2
	mov	edx, DWORD PTR _pTarget$[ebp]
	sub	edx, ecx
	mov	DWORD PTR _pOffset$[ebp], edx

; 1095 :   int32 pOffsetNear = pTarget - (pEmitLoc + 6);

	mov	eax, DWORD PTR _this$[ebp]
	mov	ecx, DWORD PTR [eax+4]
	add	ecx, 6
	mov	edx, DWORD PTR _pTarget$[ebp]
	sub	edx, ecx
	mov	DWORD PTR _pOffsetNear$[ebp], edx

; 1096 :   
; 1097 :   if((pOffset >= -128) && (pOffset <= 127))

	cmp	DWORD PTR _pOffset$[ebp], -128		; ffffff80H
	jl	SHORT $LN2@X86Emit_JC
	cmp	DWORD PTR _pOffset$[ebp], 127		; 0000007fH
	jg	SHORT $LN2@X86Emit_JC

; 1098 :   {
; 1099 :     *pEmitLoc++ = 0x70 + conditionCode;

	movsx	eax, BYTE PTR _conditionCode$[ebp]
	add	eax, 112				; 00000070H
	mov	ecx, DWORD PTR _this$[ebp]
	mov	edx, DWORD PTR [ecx+4]
	mov	BYTE PTR [edx], al
	mov	eax, DWORD PTR _this$[ebp]
	mov	ecx, DWORD PTR [eax+4]
	add	ecx, 1
	mov	edx, DWORD PTR _this$[ebp]
	mov	DWORD PTR [edx+4], ecx

; 1100 :     *pEmitLoc++ = (int8)pOffset;

	mov	eax, DWORD PTR _this$[ebp]
	mov	ecx, DWORD PTR [eax+4]
	mov	dl, BYTE PTR _pOffset$[ebp]
	mov	BYTE PTR [ecx], dl
	mov	eax, DWORD PTR _this$[ebp]
	mov	ecx, DWORD PTR [eax+4]
	add	ecx, 1
	mov	edx, DWORD PTR _this$[ebp]
	mov	DWORD PTR [edx+4], ecx

; 1101 :   }
; 1102 :   else

	jmp	SHORT $LN3@X86Emit_JC
$LN2@X86Emit_JC:

; 1103 :   {
; 1104 :     *pEmitLoc++ = 0x0F;

	mov	eax, DWORD PTR _this$[ebp]
	mov	ecx, DWORD PTR [eax+4]
	mov	BYTE PTR [ecx], 15			; 0000000fH
	mov	edx, DWORD PTR _this$[ebp]
	mov	eax, DWORD PTR [edx+4]
	add	eax, 1
	mov	ecx, DWORD PTR _this$[ebp]
	mov	DWORD PTR [ecx+4], eax

; 1105 :     *pEmitLoc++ = 0x80 + conditionCode;

	movsx	edx, BYTE PTR _conditionCode$[ebp]
	add	edx, 128				; 00000080H
	mov	eax, DWORD PTR _this$[ebp]
	mov	ecx, DWORD PTR [eax+4]
	mov	BYTE PTR [ecx], dl
	mov	edx, DWORD PTR _this$[ebp]
	mov	eax, DWORD PTR [edx+4]
	add	eax, 1
	mov	ecx, DWORD PTR _this$[ebp]
	mov	DWORD PTR [ecx+4], eax

; 1106 :     *((int32 *)pEmitLoc) = pOffsetNear;

	mov	edx, DWORD PTR _this$[ebp]
	mov	eax, DWORD PTR [edx+4]
	mov	ecx, DWORD PTR _pOffsetNear$[ebp]
	mov	DWORD PTR [eax], ecx

; 1107 :     pEmitLoc += sizeof(int32);

	mov	edx, DWORD PTR _this$[ebp]
	mov	eax, DWORD PTR [edx+4]
	add	eax, 4
	mov	ecx, DWORD PTR _this$[ebp]
	mov	DWORD PTR [ecx+4], eax
$LN3@X86Emit_JC:

; 1108 :   }
; 1109 : }

	mov	esp, ebp
	pop	ebp
	ret	8
?X86Emit_JCC@NativeCodeCache@@QAEXPAEC@Z ENDP		; NativeCodeCache::X86Emit_JCC
_TEXT	ENDS
PUBLIC	?GetLabelPointer@PatchManager@@QAEPAEI@Z	; PatchManager::GetLabelPointer
PUBLIC	?AddPatch@PatchManager@@QAEXPAEW4PatchType@@0I@Z ; PatchManager::AddPatch
PUBLIC	?X86Emit_JCC_Label@NativeCodeCache@@QAEXPAVPatchManager@@CI@Z ; NativeCodeCache::X86Emit_JCC_Label
; Function compile flags: /Odtp /RTCsu
_TEXT	SEGMENT
_this$ = -4						; size = 4
_patchMgr$ = 8						; size = 4
_conditionCode$ = 12					; size = 1
_labelIndex$ = 16					; size = 4
?X86Emit_JCC_Label@NativeCodeCache@@QAEXPAVPatchManager@@CI@Z PROC ; NativeCodeCache::X86Emit_JCC_Label
; _this$ = ecx

; 1112 : {

	push	ebp
	mov	ebp, esp
	push	ecx
	mov	DWORD PTR [ebp-4], -858993460		; ccccccccH
	mov	DWORD PTR _this$[ebp], ecx

; 1113 :   if(labelIndex >= patchMgr->numLabels)

	mov	eax, DWORD PTR _patchMgr$[ebp]
	mov	ecx, DWORD PTR _labelIndex$[ebp]
	cmp	ecx, DWORD PTR [eax+1284]
	jb	SHORT $LN2@X86Emit_JC@2

; 1114 :   {
; 1115 :     patchMgr->AddPatch(pEmitLoc + 2, PatchType_Rel32, pEmitLoc + 6, labelIndex);

	mov	edx, DWORD PTR _labelIndex$[ebp]
	push	edx
	mov	eax, DWORD PTR _this$[ebp]
	mov	ecx, DWORD PTR [eax+4]
	add	ecx, 6
	push	ecx
	push	2
	mov	edx, DWORD PTR _this$[ebp]
	mov	eax, DWORD PTR [edx+4]
	add	eax, 2
	push	eax
	mov	ecx, DWORD PTR _patchMgr$[ebp]
	call	?AddPatch@PatchManager@@QAEXPAEW4PatchType@@0I@Z ; PatchManager::AddPatch

; 1116 :     *pEmitLoc++ = 0x0F;

	mov	ecx, DWORD PTR _this$[ebp]
	mov	edx, DWORD PTR [ecx+4]
	mov	BYTE PTR [edx], 15			; 0000000fH
	mov	eax, DWORD PTR _this$[ebp]
	mov	ecx, DWORD PTR [eax+4]
	add	ecx, 1
	mov	edx, DWORD PTR _this$[ebp]
	mov	DWORD PTR [edx+4], ecx

; 1117 :     *pEmitLoc++ = 0x80 + conditionCode;

	movsx	eax, BYTE PTR _conditionCode$[ebp]
	add	eax, 128				; 00000080H
	mov	ecx, DWORD PTR _this$[ebp]
	mov	edx, DWORD PTR [ecx+4]
	mov	BYTE PTR [edx], al
	mov	eax, DWORD PTR _this$[ebp]
	mov	ecx, DWORD PTR [eax+4]
	add	ecx, 1
	mov	edx, DWORD PTR _this$[ebp]
	mov	DWORD PTR [edx+4], ecx

; 1118 :     *((int32 *)pEmitLoc) = 0;

	mov	eax, DWORD PTR _this$[ebp]
	mov	ecx, DWORD PTR [eax+4]
	mov	DWORD PTR [ecx], 0

; 1119 :     pEmitLoc += sizeof(int32);

	mov	edx, DWORD PTR _this$[ebp]
	mov	eax, DWORD PTR [edx+4]
	add	eax, 4
	mov	ecx, DWORD PTR _this$[ebp]
	mov	DWORD PTR [ecx+4], eax

; 1120 :   }
; 1121 :   else

	jmp	SHORT $LN3@X86Emit_JC@2
$LN2@X86Emit_JC@2:

; 1122 :   {
; 1123 :     X86Emit_JCC(patchMgr->GetLabelPointer(labelIndex),conditionCode);

	mov	dl, BYTE PTR _conditionCode$[ebp]
	push	edx
	mov	eax, DWORD PTR _labelIndex$[ebp]
	push	eax
	mov	ecx, DWORD PTR _patchMgr$[ebp]
	call	?GetLabelPointer@PatchManager@@QAEPAEI@Z ; PatchManager::GetLabelPointer
	push	eax
	mov	ecx, DWORD PTR _this$[ebp]
	call	?X86Emit_JCC@NativeCodeCache@@QAEXPAEC@Z ; NativeCodeCache::X86Emit_JCC
$LN3@X86Emit_JC@2:

; 1124 :   }
; 1125 : }

	add	esp, 4
	cmp	ebp, esp
	call	__RTC_CheckEsp
	mov	esp, ebp
	pop	ebp
	ret	12					; 0000000cH
?X86Emit_JCC_Label@NativeCodeCache@@QAEXPAVPatchManager@@CI@Z ENDP ; NativeCodeCache::X86Emit_JCC_Label
; Function compile flags: /Odtp /RTCsu
; File c:\nuanceexperimental\patchmanager.h
_TEXT	ENDS
;	COMDAT ?AddPatch@PatchManager@@QAEXPAEW4PatchType@@0I@Z
_TEXT	SEGMENT
_this$ = -4						; size = 4
_patchPtr$ = 8						; size = 4
_patchType$ = 12					; size = 4
_basePtr$ = 16						; size = 4
_destLabel$ = 20					; size = 4
?AddPatch@PatchManager@@QAEXPAEW4PatchType@@0I@Z PROC	; PatchManager::AddPatch, COMDAT
; _this$ = ecx

; 60   :   {

	push	ebp
	mov	ebp, esp
	push	ecx
	mov	DWORD PTR [ebp-4], -858993460		; ccccccccH
	mov	DWORD PTR _this$[ebp], ecx

; 61   :     patchData[numPatches].patchPtr = patchPtr;

	mov	eax, DWORD PTR _this$[ebp]
	mov	ecx, DWORD PTR [eax+1280]
	shl	ecx, 4
	mov	edx, DWORD PTR _this$[ebp]
	mov	eax, DWORD PTR _patchPtr$[ebp]
	mov	DWORD PTR [edx+ecx], eax

; 62   :     patchData[numPatches].patchType = patchType;

	mov	ecx, DWORD PTR _this$[ebp]
	mov	edx, DWORD PTR [ecx+1280]
	shl	edx, 4
	mov	eax, DWORD PTR _this$[ebp]
	mov	ecx, DWORD PTR _patchType$[ebp]
	mov	DWORD PTR [eax+edx+12], ecx

; 63   :     patchData[numPatches].basePtr = basePtr;

	mov	edx, DWORD PTR _this$[ebp]
	mov	eax, DWORD PTR [edx+1280]
	shl	eax, 4
	mov	ecx, DWORD PTR _this$[ebp]
	mov	edx, DWORD PTR _basePtr$[ebp]
	mov	DWORD PTR [ecx+eax+4], edx

; 64   :     patchData[numPatches].destLabel = destLabel;

	mov	eax, DWORD PTR _this$[ebp]
	mov	ecx, DWORD PTR [eax+1280]
	shl	ecx, 4
	mov	edx, DWORD PTR _this$[ebp]
	mov	eax, DWORD PTR _destLabel$[ebp]
	mov	DWORD PTR [edx+ecx+8], eax

; 65   :     numPatches++;

	mov	ecx, DWORD PTR _this$[ebp]
	mov	edx, DWORD PTR [ecx+1280]
	add	edx, 1
	mov	eax, DWORD PTR _this$[ebp]
	mov	DWORD PTR [eax+1280], edx

; 66   :   }

	mov	esp, ebp
	pop	ebp
	ret	16					; 00000010H
?AddPatch@PatchManager@@QAEXPAEW4PatchType@@0I@Z ENDP	; PatchManager::AddPatch
; Function compile flags: /Odtp /RTCsu
_TEXT	ENDS
;	COMDAT ?GetLabelPointer@PatchManager@@QAEPAEI@Z
_TEXT	SEGMENT
_this$ = -4						; size = 4
_labelIndex$ = 8					; size = 4
?GetLabelPointer@PatchManager@@QAEPAEI@Z PROC		; PatchManager::GetLabelPointer, COMDAT
; _this$ = ecx

; 75   :   {

	push	ebp
	mov	ebp, esp
	push	ecx
	mov	DWORD PTR [ebp-4], -858993460		; ccccccccH
	mov	DWORD PTR _this$[ebp], ecx

; 76   :     return labelPointers[labelIndex];

	mov	eax, DWORD PTR _labelIndex$[ebp]
	mov	ecx, DWORD PTR _this$[ebp]
	mov	eax, DWORD PTR [ecx+eax*4+1024]

; 77   :   }

	mov	esp, ebp
	pop	ebp
	ret	4
?GetLabelPointer@PatchManager@@QAEPAEI@Z ENDP		; PatchManager::GetLabelPointer
_TEXT	ENDS
PUBLIC	?X86Emit_JO@NativeCodeCache@@QAEXPAE@Z		; NativeCodeCache::X86Emit_JO
; Function compile flags: /Odtp /RTCsu
; File c:\nuanceexperimental\nativecodecache.cpp
_TEXT	SEGMENT
_this$ = -4						; size = 4
_pTarget$ = 8						; size = 4
?X86Emit_JO@NativeCodeCache@@QAEXPAE@Z PROC		; NativeCodeCache::X86Emit_JO
; _this$ = ecx

; 1128 : {

	push	ebp
	mov	ebp, esp
	push	ecx
	mov	DWORD PTR [ebp-4], -858993460		; ccccccccH
	mov	DWORD PTR _this$[ebp], ecx

; 1129 :   X86Emit_JCC(pTarget,0);

	push	0
	mov	eax, DWORD PTR _pTarget$[ebp]
	push	eax
	mov	ecx, DWORD PTR _this$[ebp]
	call	?X86Emit_JCC@NativeCodeCache@@QAEXPAEC@Z ; NativeCodeCache::X86Emit_JCC

; 1130 : }

	add	esp, 4
	cmp	ebp, esp
	call	__RTC_CheckEsp
	mov	esp, ebp
	pop	ebp
	ret	4
?X86Emit_JO@NativeCodeCache@@QAEXPAE@Z ENDP		; NativeCodeCache::X86Emit_JO
_TEXT	ENDS
PUBLIC	?X86Emit_JNO@NativeCodeCache@@QAEXPAE@Z		; NativeCodeCache::X86Emit_JNO
; Function compile flags: /Odtp /RTCsu
_TEXT	SEGMENT
_this$ = -4						; size = 4
_pTarget$ = 8						; size = 4
?X86Emit_JNO@NativeCodeCache@@QAEXPAE@Z PROC		; NativeCodeCache::X86Emit_JNO
; _this$ = ecx

; 1133 : {

	push	ebp
	mov	ebp, esp
	push	ecx
	mov	DWORD PTR [ebp-4], -858993460		; ccccccccH
	mov	DWORD PTR _this$[ebp], ecx

; 1134 :   X86Emit_JCC(pTarget,1);

	push	1
	mov	eax, DWORD PTR _pTarget$[ebp]
	push	eax
	mov	ecx, DWORD PTR _this$[ebp]
	call	?X86Emit_JCC@NativeCodeCache@@QAEXPAEC@Z ; NativeCodeCache::X86Emit_JCC

; 1135 : }

	add	esp, 4
	cmp	ebp, esp
	call	__RTC_CheckEsp
	mov	esp, ebp
	pop	ebp
	ret	4
?X86Emit_JNO@NativeCodeCache@@QAEXPAE@Z ENDP		; NativeCodeCache::X86Emit_JNO
_TEXT	ENDS
PUBLIC	?X86Emit_JB@NativeCodeCache@@QAEXPAE@Z		; NativeCodeCache::X86Emit_JB
; Function compile flags: /Odtp /RTCsu
_TEXT	SEGMENT
_this$ = -4						; size = 4
_pTarget$ = 8						; size = 4
?X86Emit_JB@NativeCodeCache@@QAEXPAE@Z PROC		; NativeCodeCache::X86Emit_JB
; _this$ = ecx

; 1138 : {

	push	ebp
	mov	ebp, esp
	push	ecx
	mov	DWORD PTR [ebp-4], -858993460		; ccccccccH
	mov	DWORD PTR _this$[ebp], ecx

; 1139 :   X86Emit_JCC(pTarget,2);

	push	2
	mov	eax, DWORD PTR _pTarget$[ebp]
	push	eax
	mov	ecx, DWORD PTR _this$[ebp]
	call	?X86Emit_JCC@NativeCodeCache@@QAEXPAEC@Z ; NativeCodeCache::X86Emit_JCC

; 1140 : }

	add	esp, 4
	cmp	ebp, esp
	call	__RTC_CheckEsp
	mov	esp, ebp
	pop	ebp
	ret	4
?X86Emit_JB@NativeCodeCache@@QAEXPAE@Z ENDP		; NativeCodeCache::X86Emit_JB
_TEXT	ENDS
PUBLIC	?X86Emit_JNB@NativeCodeCache@@QAEXPAE@Z		; NativeCodeCache::X86Emit_JNB
; Function compile flags: /Odtp /RTCsu
_TEXT	SEGMENT
_this$ = -4						; size = 4
_pTarget$ = 8						; size = 4
?X86Emit_JNB@NativeCodeCache@@QAEXPAE@Z PROC		; NativeCodeCache::X86Emit_JNB
; _this$ = ecx

; 1143 : {

	push	ebp
	mov	ebp, esp
	push	ecx
	mov	DWORD PTR [ebp-4], -858993460		; ccccccccH
	mov	DWORD PTR _this$[ebp], ecx

; 1144 :   X86Emit_JCC(pTarget,3);

	push	3
	mov	eax, DWORD PTR _pTarget$[ebp]
	push	eax
	mov	ecx, DWORD PTR _this$[ebp]
	call	?X86Emit_JCC@NativeCodeCache@@QAEXPAEC@Z ; NativeCodeCache::X86Emit_JCC

; 1145 : }

	add	esp, 4
	cmp	ebp, esp
	call	__RTC_CheckEsp
	mov	esp, ebp
	pop	ebp
	ret	4
?X86Emit_JNB@NativeCodeCache@@QAEXPAE@Z ENDP		; NativeCodeCache::X86Emit_JNB
_TEXT	ENDS
PUBLIC	?X86Emit_JZ@NativeCodeCache@@QAEXPAE@Z		; NativeCodeCache::X86Emit_JZ
; Function compile flags: /Odtp /RTCsu
_TEXT	SEGMENT
_this$ = -4						; size = 4
_pTarget$ = 8						; size = 4
?X86Emit_JZ@NativeCodeCache@@QAEXPAE@Z PROC		; NativeCodeCache::X86Emit_JZ
; _this$ = ecx

; 1148 : {

	push	ebp
	mov	ebp, esp
	push	ecx
	mov	DWORD PTR [ebp-4], -858993460		; ccccccccH
	mov	DWORD PTR _this$[ebp], ecx

; 1149 :   X86Emit_JCC(pTarget,4);

	push	4
	mov	eax, DWORD PTR _pTarget$[ebp]
	push	eax
	mov	ecx, DWORD PTR _this$[ebp]
	call	?X86Emit_JCC@NativeCodeCache@@QAEXPAEC@Z ; NativeCodeCache::X86Emit_JCC

; 1150 : }

	add	esp, 4
	cmp	ebp, esp
	call	__RTC_CheckEsp
	mov	esp, ebp
	pop	ebp
	ret	4
?X86Emit_JZ@NativeCodeCache@@QAEXPAE@Z ENDP		; NativeCodeCache::X86Emit_JZ
_TEXT	ENDS
PUBLIC	?X86Emit_JNZ@NativeCodeCache@@QAEXPAE@Z		; NativeCodeCache::X86Emit_JNZ
; Function compile flags: /Odtp /RTCsu
_TEXT	SEGMENT
_this$ = -4						; size = 4
_pTarget$ = 8						; size = 4
?X86Emit_JNZ@NativeCodeCache@@QAEXPAE@Z PROC		; NativeCodeCache::X86Emit_JNZ
; _this$ = ecx

; 1153 : {

	push	ebp
	mov	ebp, esp
	push	ecx
	mov	DWORD PTR [ebp-4], -858993460		; ccccccccH
	mov	DWORD PTR _this$[ebp], ecx

; 1154 :   X86Emit_JCC(pTarget,5);

	push	5
	mov	eax, DWORD PTR _pTarget$[ebp]
	push	eax
	mov	ecx, DWORD PTR _this$[ebp]
	call	?X86Emit_JCC@NativeCodeCache@@QAEXPAEC@Z ; NativeCodeCache::X86Emit_JCC

; 1155 : }

	add	esp, 4
	cmp	ebp, esp
	call	__RTC_CheckEsp
	mov	esp, ebp
	pop	ebp
	ret	4
?X86Emit_JNZ@NativeCodeCache@@QAEXPAE@Z ENDP		; NativeCodeCache::X86Emit_JNZ
_TEXT	ENDS
PUBLIC	?X86Emit_JBE@NativeCodeCache@@QAEXPAE@Z		; NativeCodeCache::X86Emit_JBE
; Function compile flags: /Odtp /RTCsu
_TEXT	SEGMENT
_this$ = -4						; size = 4
_pTarget$ = 8						; size = 4
?X86Emit_JBE@NativeCodeCache@@QAEXPAE@Z PROC		; NativeCodeCache::X86Emit_JBE
; _this$ = ecx

; 1158 : {

	push	ebp
	mov	ebp, esp
	push	ecx
	mov	DWORD PTR [ebp-4], -858993460		; ccccccccH
	mov	DWORD PTR _this$[ebp], ecx

; 1159 :   X86Emit_JCC(pTarget,6);

	push	6
	mov	eax, DWORD PTR _pTarget$[ebp]
	push	eax
	mov	ecx, DWORD PTR _this$[ebp]
	call	?X86Emit_JCC@NativeCodeCache@@QAEXPAEC@Z ; NativeCodeCache::X86Emit_JCC

; 1160 : }

	add	esp, 4
	cmp	ebp, esp
	call	__RTC_CheckEsp
	mov	esp, ebp
	pop	ebp
	ret	4
?X86Emit_JBE@NativeCodeCache@@QAEXPAE@Z ENDP		; NativeCodeCache::X86Emit_JBE
_TEXT	ENDS
PUBLIC	?X86Emit_JNBE@NativeCodeCache@@QAEXPAE@Z	; NativeCodeCache::X86Emit_JNBE
; Function compile flags: /Odtp /RTCsu
_TEXT	SEGMENT
_this$ = -4						; size = 4
_pTarget$ = 8						; size = 4
?X86Emit_JNBE@NativeCodeCache@@QAEXPAE@Z PROC		; NativeCodeCache::X86Emit_JNBE
; _this$ = ecx

; 1163 : {

	push	ebp
	mov	ebp, esp
	push	ecx
	mov	DWORD PTR [ebp-4], -858993460		; ccccccccH
	mov	DWORD PTR _this$[ebp], ecx

; 1164 :   X86Emit_JCC(pTarget,7);

	push	7
	mov	eax, DWORD PTR _pTarget$[ebp]
	push	eax
	mov	ecx, DWORD PTR _this$[ebp]
	call	?X86Emit_JCC@NativeCodeCache@@QAEXPAEC@Z ; NativeCodeCache::X86Emit_JCC

; 1165 : }

	add	esp, 4
	cmp	ebp, esp
	call	__RTC_CheckEsp
	mov	esp, ebp
	pop	ebp
	ret	4
?X86Emit_JNBE@NativeCodeCache@@QAEXPAE@Z ENDP		; NativeCodeCache::X86Emit_JNBE
_TEXT	ENDS
PUBLIC	?X86Emit_JS@NativeCodeCache@@QAEXPAE@Z		; NativeCodeCache::X86Emit_JS
; Function compile flags: /Odtp /RTCsu
_TEXT	SEGMENT
_this$ = -4						; size = 4
_pTarget$ = 8						; size = 4
?X86Emit_JS@NativeCodeCache@@QAEXPAE@Z PROC		; NativeCodeCache::X86Emit_JS
; _this$ = ecx

; 1168 : {

	push	ebp
	mov	ebp, esp
	push	ecx
	mov	DWORD PTR [ebp-4], -858993460		; ccccccccH
	mov	DWORD PTR _this$[ebp], ecx

; 1169 :   X86Emit_JCC(pTarget,8);

	push	8
	mov	eax, DWORD PTR _pTarget$[ebp]
	push	eax
	mov	ecx, DWORD PTR _this$[ebp]
	call	?X86Emit_JCC@NativeCodeCache@@QAEXPAEC@Z ; NativeCodeCache::X86Emit_JCC

; 1170 : }

	add	esp, 4
	cmp	ebp, esp
	call	__RTC_CheckEsp
	mov	esp, ebp
	pop	ebp
	ret	4
?X86Emit_JS@NativeCodeCache@@QAEXPAE@Z ENDP		; NativeCodeCache::X86Emit_JS
_TEXT	ENDS
PUBLIC	?X86Emit_JNS@NativeCodeCache@@QAEXPAE@Z		; NativeCodeCache::X86Emit_JNS
; Function compile flags: /Odtp /RTCsu
_TEXT	SEGMENT
_this$ = -4						; size = 4
_pTarget$ = 8						; size = 4
?X86Emit_JNS@NativeCodeCache@@QAEXPAE@Z PROC		; NativeCodeCache::X86Emit_JNS
; _this$ = ecx

; 1173 : {

	push	ebp
	mov	ebp, esp
	push	ecx
	mov	DWORD PTR [ebp-4], -858993460		; ccccccccH
	mov	DWORD PTR _this$[ebp], ecx

; 1174 :   X86Emit_JCC(pTarget,9);

	push	9
	mov	eax, DWORD PTR _pTarget$[ebp]
	push	eax
	mov	ecx, DWORD PTR _this$[ebp]
	call	?X86Emit_JCC@NativeCodeCache@@QAEXPAEC@Z ; NativeCodeCache::X86Emit_JCC

; 1175 : }

	add	esp, 4
	cmp	ebp, esp
	call	__RTC_CheckEsp
	mov	esp, ebp
	pop	ebp
	ret	4
?X86Emit_JNS@NativeCodeCache@@QAEXPAE@Z ENDP		; NativeCodeCache::X86Emit_JNS
_TEXT	ENDS
PUBLIC	?X86Emit_JP@NativeCodeCache@@QAEXPAE@Z		; NativeCodeCache::X86Emit_JP
; Function compile flags: /Odtp /RTCsu
_TEXT	SEGMENT
_this$ = -4						; size = 4
_pTarget$ = 8						; size = 4
?X86Emit_JP@NativeCodeCache@@QAEXPAE@Z PROC		; NativeCodeCache::X86Emit_JP
; _this$ = ecx

; 1178 : {

	push	ebp
	mov	ebp, esp
	push	ecx
	mov	DWORD PTR [ebp-4], -858993460		; ccccccccH
	mov	DWORD PTR _this$[ebp], ecx

; 1179 :   X86Emit_JCC(pTarget,10);

	push	10					; 0000000aH
	mov	eax, DWORD PTR _pTarget$[ebp]
	push	eax
	mov	ecx, DWORD PTR _this$[ebp]
	call	?X86Emit_JCC@NativeCodeCache@@QAEXPAEC@Z ; NativeCodeCache::X86Emit_JCC

; 1180 : }

	add	esp, 4
	cmp	ebp, esp
	call	__RTC_CheckEsp
	mov	esp, ebp
	pop	ebp
	ret	4
?X86Emit_JP@NativeCodeCache@@QAEXPAE@Z ENDP		; NativeCodeCache::X86Emit_JP
_TEXT	ENDS
PUBLIC	?X86Emit_JNP@NativeCodeCache@@QAEXPAE@Z		; NativeCodeCache::X86Emit_JNP
; Function compile flags: /Odtp /RTCsu
_TEXT	SEGMENT
_this$ = -4						; size = 4
_pTarget$ = 8						; size = 4
?X86Emit_JNP@NativeCodeCache@@QAEXPAE@Z PROC		; NativeCodeCache::X86Emit_JNP
; _this$ = ecx

; 1183 : {

	push	ebp
	mov	ebp, esp
	push	ecx
	mov	DWORD PTR [ebp-4], -858993460		; ccccccccH
	mov	DWORD PTR _this$[ebp], ecx

; 1184 :   X86Emit_JCC(pTarget,11);

	push	11					; 0000000bH
	mov	eax, DWORD PTR _pTarget$[ebp]
	push	eax
	mov	ecx, DWORD PTR _this$[ebp]
	call	?X86Emit_JCC@NativeCodeCache@@QAEXPAEC@Z ; NativeCodeCache::X86Emit_JCC

; 1185 : }

	add	esp, 4
	cmp	ebp, esp
	call	__RTC_CheckEsp
	mov	esp, ebp
	pop	ebp
	ret	4
?X86Emit_JNP@NativeCodeCache@@QAEXPAE@Z ENDP		; NativeCodeCache::X86Emit_JNP
_TEXT	ENDS
PUBLIC	?X86Emit_JL@NativeCodeCache@@QAEXPAE@Z		; NativeCodeCache::X86Emit_JL
; Function compile flags: /Odtp /RTCsu
_TEXT	SEGMENT
_this$ = -4						; size = 4
_pTarget$ = 8						; size = 4
?X86Emit_JL@NativeCodeCache@@QAEXPAE@Z PROC		; NativeCodeCache::X86Emit_JL
; _this$ = ecx

; 1188 : {

	push	ebp
	mov	ebp, esp
	push	ecx
	mov	DWORD PTR [ebp-4], -858993460		; ccccccccH
	mov	DWORD PTR _this$[ebp], ecx

; 1189 :   X86Emit_JCC(pTarget,12);

	push	12					; 0000000cH
	mov	eax, DWORD PTR _pTarget$[ebp]
	push	eax
	mov	ecx, DWORD PTR _this$[ebp]
	call	?X86Emit_JCC@NativeCodeCache@@QAEXPAEC@Z ; NativeCodeCache::X86Emit_JCC

; 1190 : }

	add	esp, 4
	cmp	ebp, esp
	call	__RTC_CheckEsp
	mov	esp, ebp
	pop	ebp
	ret	4
?X86Emit_JL@NativeCodeCache@@QAEXPAE@Z ENDP		; NativeCodeCache::X86Emit_JL
_TEXT	ENDS
PUBLIC	?X86Emit_JNL@NativeCodeCache@@QAEXPAE@Z		; NativeCodeCache::X86Emit_JNL
; Function compile flags: /Odtp /RTCsu
_TEXT	SEGMENT
_this$ = -4						; size = 4
_pTarget$ = 8						; size = 4
?X86Emit_JNL@NativeCodeCache@@QAEXPAE@Z PROC		; NativeCodeCache::X86Emit_JNL
; _this$ = ecx

; 1193 : {

	push	ebp
	mov	ebp, esp
	push	ecx
	mov	DWORD PTR [ebp-4], -858993460		; ccccccccH
	mov	DWORD PTR _this$[ebp], ecx

; 1194 :   X86Emit_JCC(pTarget,13);

	push	13					; 0000000dH
	mov	eax, DWORD PTR _pTarget$[ebp]
	push	eax
	mov	ecx, DWORD PTR _this$[ebp]
	call	?X86Emit_JCC@NativeCodeCache@@QAEXPAEC@Z ; NativeCodeCache::X86Emit_JCC

; 1195 : }

	add	esp, 4
	cmp	ebp, esp
	call	__RTC_CheckEsp
	mov	esp, ebp
	pop	ebp
	ret	4
?X86Emit_JNL@NativeCodeCache@@QAEXPAE@Z ENDP		; NativeCodeCache::X86Emit_JNL
_TEXT	ENDS
PUBLIC	?X86Emit_JLE@NativeCodeCache@@QAEXPAE@Z		; NativeCodeCache::X86Emit_JLE
; Function compile flags: /Odtp /RTCsu
_TEXT	SEGMENT
_this$ = -4						; size = 4
_pTarget$ = 8						; size = 4
?X86Emit_JLE@NativeCodeCache@@QAEXPAE@Z PROC		; NativeCodeCache::X86Emit_JLE
; _this$ = ecx

; 1198 : {

	push	ebp
	mov	ebp, esp
	push	ecx
	mov	DWORD PTR [ebp-4], -858993460		; ccccccccH
	mov	DWORD PTR _this$[ebp], ecx

; 1199 :   X86Emit_JCC(pTarget,14);

	push	14					; 0000000eH
	mov	eax, DWORD PTR _pTarget$[ebp]
	push	eax
	mov	ecx, DWORD PTR _this$[ebp]
	call	?X86Emit_JCC@NativeCodeCache@@QAEXPAEC@Z ; NativeCodeCache::X86Emit_JCC

; 1200 : }

	add	esp, 4
	cmp	ebp, esp
	call	__RTC_CheckEsp
	mov	esp, ebp
	pop	ebp
	ret	4
?X86Emit_JLE@NativeCodeCache@@QAEXPAE@Z ENDP		; NativeCodeCache::X86Emit_JLE
_TEXT	ENDS
PUBLIC	?X86Emit_JNLE@NativeCodeCache@@QAEXPAE@Z	; NativeCodeCache::X86Emit_JNLE
; Function compile flags: /Odtp /RTCsu
_TEXT	SEGMENT
_this$ = -4						; size = 4
_pTarget$ = 8						; size = 4
?X86Emit_JNLE@NativeCodeCache@@QAEXPAE@Z PROC		; NativeCodeCache::X86Emit_JNLE
; _this$ = ecx

; 1203 : {

	push	ebp
	mov	ebp, esp
	push	ecx
	mov	DWORD PTR [ebp-4], -858993460		; ccccccccH
	mov	DWORD PTR _this$[ebp], ecx

; 1204 :   X86Emit_JCC(pTarget,15);

	push	15					; 0000000fH
	mov	eax, DWORD PTR _pTarget$[ebp]
	push	eax
	mov	ecx, DWORD PTR _this$[ebp]
	call	?X86Emit_JCC@NativeCodeCache@@QAEXPAEC@Z ; NativeCodeCache::X86Emit_JCC

; 1205 : }

	add	esp, 4
	cmp	ebp, esp
	call	__RTC_CheckEsp
	mov	esp, ebp
	pop	ebp
	ret	4
?X86Emit_JNLE@NativeCodeCache@@QAEXPAE@Z ENDP		; NativeCodeCache::X86Emit_JNLE
_TEXT	ENDS
PUBLIC	?X86Emit_TESTRR@NativeCodeCache@@QAEXW4x86Reg@@0@Z ; NativeCodeCache::X86Emit_TESTRR
; Function compile flags: /Odtp /RTCsu
_TEXT	SEGMENT
_this$ = -4						; size = 4
_regDest$ = 8						; size = 4
_regSrc$ = 12						; size = 4
?X86Emit_TESTRR@NativeCodeCache@@QAEXW4x86Reg@@0@Z PROC	; NativeCodeCache::X86Emit_TESTRR
; _this$ = ecx

; 1208 : {

	push	ebp
	mov	ebp, esp
	push	ecx
	mov	DWORD PTR [ebp-4], -858993460		; ccccccccH
	mov	DWORD PTR _this$[ebp], ecx

; 1209 :   //OP r8, reg8, OP r16, reg16 or OP r32, reg32
; 1210 :   if(regSrc < x86Reg_ax)

	cmp	DWORD PTR _regSrc$[ebp], 8
	jge	SHORT $LN4@X86Emit_TE

; 1211 :   {
; 1212 :     //r8, r8
; 1213 :     *pEmitLoc++ = 0x84;

	mov	eax, DWORD PTR _this$[ebp]
	mov	ecx, DWORD PTR [eax+4]
	mov	BYTE PTR [ecx], 132			; 00000084H
	mov	edx, DWORD PTR _this$[ebp]
	mov	eax, DWORD PTR [edx+4]
	add	eax, 1
	mov	ecx, DWORD PTR _this$[ebp]
	mov	DWORD PTR [ecx+4], eax

; 1214 :     X86Emit_ModRegRM(x86ModType_reg,(x86ModReg)(regSrc & 0x07),(regDest & 0x07));

	push	0
	push	0
	push	4
	mov	edx, DWORD PTR _regDest$[ebp]
	and	edx, 7
	push	edx
	mov	eax, DWORD PTR _regSrc$[ebp]
	and	eax, 7
	push	eax
	push	3
	mov	ecx, DWORD PTR _this$[ebp]
	call	?X86Emit_ModRegRM@NativeCodeCache@@QAEXW4x86ModType@@W4x86ModReg@@IW4x86IndexReg@@W4x86ScaleVal@@H@Z ; NativeCodeCache::X86Emit_ModRegRM
	jmp	$LN5@X86Emit_TE
$LN4@X86Emit_TE:

; 1215 :   }
; 1216 :   else if(regSrc < x86Reg_eax)

	cmp	DWORD PTR _regSrc$[ebp], 16		; 00000010H
	jge	SHORT $LN2@X86Emit_TE

; 1217 :   {
; 1218 :     //r16, r16
; 1219 :     *pEmitLoc++ = 0x66;

	mov	ecx, DWORD PTR _this$[ebp]
	mov	edx, DWORD PTR [ecx+4]
	mov	BYTE PTR [edx], 102			; 00000066H
	mov	eax, DWORD PTR _this$[ebp]
	mov	ecx, DWORD PTR [eax+4]
	add	ecx, 1
	mov	edx, DWORD PTR _this$[ebp]
	mov	DWORD PTR [edx+4], ecx

; 1220 :     *pEmitLoc++ = 0x85;

	mov	eax, DWORD PTR _this$[ebp]
	mov	ecx, DWORD PTR [eax+4]
	mov	BYTE PTR [ecx], 133			; 00000085H
	mov	edx, DWORD PTR _this$[ebp]
	mov	eax, DWORD PTR [edx+4]
	add	eax, 1
	mov	ecx, DWORD PTR _this$[ebp]
	mov	DWORD PTR [ecx+4], eax

; 1221 :     X86Emit_ModRegRM(x86ModType_reg,(x86ModReg)(regSrc & 0x07),(regDest & 0x07));

	push	0
	push	0
	push	4
	mov	edx, DWORD PTR _regDest$[ebp]
	and	edx, 7
	push	edx
	mov	eax, DWORD PTR _regSrc$[ebp]
	and	eax, 7
	push	eax
	push	3
	mov	ecx, DWORD PTR _this$[ebp]
	call	?X86Emit_ModRegRM@NativeCodeCache@@QAEXW4x86ModType@@W4x86ModReg@@IW4x86IndexReg@@W4x86ScaleVal@@H@Z ; NativeCodeCache::X86Emit_ModRegRM

; 1222 :   }
; 1223 :   else

	jmp	SHORT $LN5@X86Emit_TE
$LN2@X86Emit_TE:

; 1224 :   {
; 1225 :     //r32, r32
; 1226 :     *pEmitLoc++ = 0x85;

	mov	ecx, DWORD PTR _this$[ebp]
	mov	edx, DWORD PTR [ecx+4]
	mov	BYTE PTR [edx], 133			; 00000085H
	mov	eax, DWORD PTR _this$[ebp]
	mov	ecx, DWORD PTR [eax+4]
	add	ecx, 1
	mov	edx, DWORD PTR _this$[ebp]
	mov	DWORD PTR [edx+4], ecx

; 1227 :     X86Emit_ModRegRM(x86ModType_reg,(x86ModReg)(regSrc & 0x07),(regDest & 0x07));

	push	0
	push	0
	push	4
	mov	eax, DWORD PTR _regDest$[ebp]
	and	eax, 7
	push	eax
	mov	ecx, DWORD PTR _regSrc$[ebp]
	and	ecx, 7
	push	ecx
	push	3
	mov	ecx, DWORD PTR _this$[ebp]
	call	?X86Emit_ModRegRM@NativeCodeCache@@QAEXW4x86ModType@@W4x86ModReg@@IW4x86IndexReg@@W4x86ScaleVal@@H@Z ; NativeCodeCache::X86Emit_ModRegRM
$LN5@X86Emit_TE:

; 1228 :   }
; 1229 : }

	add	esp, 4
	cmp	ebp, esp
	call	__RTC_CheckEsp
	mov	esp, ebp
	pop	ebp
	ret	8
?X86Emit_TESTRR@NativeCodeCache@@QAEXW4x86Reg@@0@Z ENDP	; NativeCodeCache::X86Emit_TESTRR
_TEXT	ENDS
PUBLIC	?X86Emit_TESTRM@NativeCodeCache@@QAEXW4x86Reg@@IW4x86IndexReg@@W4x86ScaleVal@@H@Z ; NativeCodeCache::X86Emit_TESTRM
; Function compile flags: /Odtp /RTCsu
_TEXT	SEGMENT
_this$ = -4						; size = 4
_regSrc$ = 8						; size = 4
_base$ = 12						; size = 4
_index$ = 16						; size = 4
_scale$ = 20						; size = 4
_disp$ = 24						; size = 4
?X86Emit_TESTRM@NativeCodeCache@@QAEXW4x86Reg@@IW4x86IndexReg@@W4x86ScaleVal@@H@Z PROC ; NativeCodeCache::X86Emit_TESTRM
; _this$ = ecx

; 1232 : {

	push	ebp
	mov	ebp, esp
	push	ecx
	mov	DWORD PTR [ebp-4], -858993460		; ccccccccH
	mov	DWORD PTR _this$[ebp], ecx

; 1233 :   //OP m8, reg8, OP m16, reg16 or OP m32, reg32
; 1234 : 
; 1235 :   if(regSrc < x86Reg_ax)

	cmp	DWORD PTR _regSrc$[ebp], 8
	jge	SHORT $LN4@X86Emit_TE@2

; 1236 :   {
; 1237 :     //m8, r8
; 1238 :     *pEmitLoc++ = 0x84;

	mov	eax, DWORD PTR _this$[ebp]
	mov	ecx, DWORD PTR [eax+4]
	mov	BYTE PTR [ecx], 132			; 00000084H
	mov	edx, DWORD PTR _this$[ebp]
	mov	eax, DWORD PTR [edx+4]
	add	eax, 1
	mov	ecx, DWORD PTR _this$[ebp]
	mov	DWORD PTR [ecx+4], eax

; 1239 :     X86Emit_ModRegRM(x86ModType_mem,(x86ModReg)(regSrc & 0x07),base,index,scale,disp);

	mov	edx, DWORD PTR _disp$[ebp]
	push	edx
	mov	eax, DWORD PTR _scale$[ebp]
	push	eax
	mov	ecx, DWORD PTR _index$[ebp]
	push	ecx
	mov	edx, DWORD PTR _base$[ebp]
	push	edx
	mov	eax, DWORD PTR _regSrc$[ebp]
	and	eax, 7
	push	eax
	push	0
	mov	ecx, DWORD PTR _this$[ebp]
	call	?X86Emit_ModRegRM@NativeCodeCache@@QAEXW4x86ModType@@W4x86ModReg@@IW4x86IndexReg@@W4x86ScaleVal@@H@Z ; NativeCodeCache::X86Emit_ModRegRM
	jmp	$LN5@X86Emit_TE@2
$LN4@X86Emit_TE@2:

; 1240 :   }
; 1241 :   else if(regSrc < x86Reg_eax)

	cmp	DWORD PTR _regSrc$[ebp], 16		; 00000010H
	jge	SHORT $LN2@X86Emit_TE@2

; 1242 :   {
; 1243 :     //m16, r16
; 1244 :     *pEmitLoc++ = 0x66;

	mov	ecx, DWORD PTR _this$[ebp]
	mov	edx, DWORD PTR [ecx+4]
	mov	BYTE PTR [edx], 102			; 00000066H
	mov	eax, DWORD PTR _this$[ebp]
	mov	ecx, DWORD PTR [eax+4]
	add	ecx, 1
	mov	edx, DWORD PTR _this$[ebp]
	mov	DWORD PTR [edx+4], ecx

; 1245 :     *pEmitLoc++ = 0x85;

	mov	eax, DWORD PTR _this$[ebp]
	mov	ecx, DWORD PTR [eax+4]
	mov	BYTE PTR [ecx], 133			; 00000085H
	mov	edx, DWORD PTR _this$[ebp]
	mov	eax, DWORD PTR [edx+4]
	add	eax, 1
	mov	ecx, DWORD PTR _this$[ebp]
	mov	DWORD PTR [ecx+4], eax

; 1246 :     X86Emit_ModRegRM(x86ModType_mem,(x86ModReg)(regSrc & 0x07),base,index,scale,disp);

	mov	edx, DWORD PTR _disp$[ebp]
	push	edx
	mov	eax, DWORD PTR _scale$[ebp]
	push	eax
	mov	ecx, DWORD PTR _index$[ebp]
	push	ecx
	mov	edx, DWORD PTR _base$[ebp]
	push	edx
	mov	eax, DWORD PTR _regSrc$[ebp]
	and	eax, 7
	push	eax
	push	0
	mov	ecx, DWORD PTR _this$[ebp]
	call	?X86Emit_ModRegRM@NativeCodeCache@@QAEXW4x86ModType@@W4x86ModReg@@IW4x86IndexReg@@W4x86ScaleVal@@H@Z ; NativeCodeCache::X86Emit_ModRegRM

; 1247 :   }
; 1248 :   else

	jmp	SHORT $LN5@X86Emit_TE@2
$LN2@X86Emit_TE@2:

; 1249 :   {
; 1250 :     //m32, r32
; 1251 :     *pEmitLoc++ = 0x85;

	mov	ecx, DWORD PTR _this$[ebp]
	mov	edx, DWORD PTR [ecx+4]
	mov	BYTE PTR [edx], 133			; 00000085H
	mov	eax, DWORD PTR _this$[ebp]
	mov	ecx, DWORD PTR [eax+4]
	add	ecx, 1
	mov	edx, DWORD PTR _this$[ebp]
	mov	DWORD PTR [edx+4], ecx

; 1252 :     X86Emit_ModRegRM(x86ModType_mem,(x86ModReg)(regSrc & 0x07),base,index,scale,disp);

	mov	eax, DWORD PTR _disp$[ebp]
	push	eax
	mov	ecx, DWORD PTR _scale$[ebp]
	push	ecx
	mov	edx, DWORD PTR _index$[ebp]
	push	edx
	mov	eax, DWORD PTR _base$[ebp]
	push	eax
	mov	ecx, DWORD PTR _regSrc$[ebp]
	and	ecx, 7
	push	ecx
	push	0
	mov	ecx, DWORD PTR _this$[ebp]
	call	?X86Emit_ModRegRM@NativeCodeCache@@QAEXW4x86ModType@@W4x86ModReg@@IW4x86IndexReg@@W4x86ScaleVal@@H@Z ; NativeCodeCache::X86Emit_ModRegRM
$LN5@X86Emit_TE@2:

; 1253 :   }
; 1254 : }

	add	esp, 4
	cmp	ebp, esp
	call	__RTC_CheckEsp
	mov	esp, ebp
	pop	ebp
	ret	20					; 00000014H
?X86Emit_TESTRM@NativeCodeCache@@QAEXW4x86Reg@@IW4x86IndexReg@@W4x86ScaleVal@@H@Z ENDP ; NativeCodeCache::X86Emit_TESTRM
_TEXT	ENDS
PUBLIC	?X86Emit_XCHGRM@NativeCodeCache@@QAEXW4x86Reg@@IW4x86IndexReg@@W4x86ScaleVal@@H@Z ; NativeCodeCache::X86Emit_XCHGRM
; Function compile flags: /Odtp /RTCsu
_TEXT	SEGMENT
_this$ = -4						; size = 4
_regSrc$ = 8						; size = 4
_base$ = 12						; size = 4
_index$ = 16						; size = 4
_scale$ = 20						; size = 4
_disp$ = 24						; size = 4
?X86Emit_XCHGRM@NativeCodeCache@@QAEXW4x86Reg@@IW4x86IndexReg@@W4x86ScaleVal@@H@Z PROC ; NativeCodeCache::X86Emit_XCHGRM
; _this$ = ecx

; 1257 : {

	push	ebp
	mov	ebp, esp
	push	ecx
	mov	DWORD PTR [ebp-4], -858993460		; ccccccccH
	mov	DWORD PTR _this$[ebp], ecx

; 1258 :   //OP m8, reg8, OP m16, reg16 or OP m32, reg32
; 1259 : 
; 1260 :   if(regSrc < x86Reg_ax)

	cmp	DWORD PTR _regSrc$[ebp], 8
	jge	SHORT $LN4@X86Emit_XC

; 1261 :   {
; 1262 :     //m8, r8
; 1263 :     *pEmitLoc++ = 0x86;

	mov	eax, DWORD PTR _this$[ebp]
	mov	ecx, DWORD PTR [eax+4]
	mov	BYTE PTR [ecx], 134			; 00000086H
	mov	edx, DWORD PTR _this$[ebp]
	mov	eax, DWORD PTR [edx+4]
	add	eax, 1
	mov	ecx, DWORD PTR _this$[ebp]
	mov	DWORD PTR [ecx+4], eax

; 1264 :     X86Emit_ModRegRM(x86ModType_mem,(x86ModReg)(regSrc & 0x07),base,index,scale,disp);

	mov	edx, DWORD PTR _disp$[ebp]
	push	edx
	mov	eax, DWORD PTR _scale$[ebp]
	push	eax
	mov	ecx, DWORD PTR _index$[ebp]
	push	ecx
	mov	edx, DWORD PTR _base$[ebp]
	push	edx
	mov	eax, DWORD PTR _regSrc$[ebp]
	and	eax, 7
	push	eax
	push	0
	mov	ecx, DWORD PTR _this$[ebp]
	call	?X86Emit_ModRegRM@NativeCodeCache@@QAEXW4x86ModType@@W4x86ModReg@@IW4x86IndexReg@@W4x86ScaleVal@@H@Z ; NativeCodeCache::X86Emit_ModRegRM
	jmp	$LN5@X86Emit_XC
$LN4@X86Emit_XC:

; 1265 :   }
; 1266 :   else if(regSrc < x86Reg_eax)

	cmp	DWORD PTR _regSrc$[ebp], 16		; 00000010H
	jge	SHORT $LN2@X86Emit_XC

; 1267 :   {
; 1268 :     //m16, r16
; 1269 :     *pEmitLoc++ = 0x66;

	mov	ecx, DWORD PTR _this$[ebp]
	mov	edx, DWORD PTR [ecx+4]
	mov	BYTE PTR [edx], 102			; 00000066H
	mov	eax, DWORD PTR _this$[ebp]
	mov	ecx, DWORD PTR [eax+4]
	add	ecx, 1
	mov	edx, DWORD PTR _this$[ebp]
	mov	DWORD PTR [edx+4], ecx

; 1270 :     *pEmitLoc++ = 0x87;

	mov	eax, DWORD PTR _this$[ebp]
	mov	ecx, DWORD PTR [eax+4]
	mov	BYTE PTR [ecx], 135			; 00000087H
	mov	edx, DWORD PTR _this$[ebp]
	mov	eax, DWORD PTR [edx+4]
	add	eax, 1
	mov	ecx, DWORD PTR _this$[ebp]
	mov	DWORD PTR [ecx+4], eax

; 1271 :     X86Emit_ModRegRM(x86ModType_mem,(x86ModReg)(regSrc & 0x07),base,index,scale,disp);

	mov	edx, DWORD PTR _disp$[ebp]
	push	edx
	mov	eax, DWORD PTR _scale$[ebp]
	push	eax
	mov	ecx, DWORD PTR _index$[ebp]
	push	ecx
	mov	edx, DWORD PTR _base$[ebp]
	push	edx
	mov	eax, DWORD PTR _regSrc$[ebp]
	and	eax, 7
	push	eax
	push	0
	mov	ecx, DWORD PTR _this$[ebp]
	call	?X86Emit_ModRegRM@NativeCodeCache@@QAEXW4x86ModType@@W4x86ModReg@@IW4x86IndexReg@@W4x86ScaleVal@@H@Z ; NativeCodeCache::X86Emit_ModRegRM

; 1272 :   }
; 1273 :   else

	jmp	SHORT $LN5@X86Emit_XC
$LN2@X86Emit_XC:

; 1274 :   {
; 1275 :     //m32, r32
; 1276 :     *pEmitLoc++ = 0x87;

	mov	ecx, DWORD PTR _this$[ebp]
	mov	edx, DWORD PTR [ecx+4]
	mov	BYTE PTR [edx], 135			; 00000087H
	mov	eax, DWORD PTR _this$[ebp]
	mov	ecx, DWORD PTR [eax+4]
	add	ecx, 1
	mov	edx, DWORD PTR _this$[ebp]
	mov	DWORD PTR [edx+4], ecx

; 1277 :     X86Emit_ModRegRM(x86ModType_mem,(x86ModReg)(regSrc & 0x07),base,index,scale,disp);

	mov	eax, DWORD PTR _disp$[ebp]
	push	eax
	mov	ecx, DWORD PTR _scale$[ebp]
	push	ecx
	mov	edx, DWORD PTR _index$[ebp]
	push	edx
	mov	eax, DWORD PTR _base$[ebp]
	push	eax
	mov	ecx, DWORD PTR _regSrc$[ebp]
	and	ecx, 7
	push	ecx
	push	0
	mov	ecx, DWORD PTR _this$[ebp]
	call	?X86Emit_ModRegRM@NativeCodeCache@@QAEXW4x86ModType@@W4x86ModReg@@IW4x86IndexReg@@W4x86ScaleVal@@H@Z ; NativeCodeCache::X86Emit_ModRegRM
$LN5@X86Emit_XC:

; 1278 :   }
; 1279 : }

	add	esp, 4
	cmp	ebp, esp
	call	__RTC_CheckEsp
	mov	esp, ebp
	pop	ebp
	ret	20					; 00000014H
?X86Emit_XCHGRM@NativeCodeCache@@QAEXW4x86Reg@@IW4x86IndexReg@@W4x86ScaleVal@@H@Z ENDP ; NativeCodeCache::X86Emit_XCHGRM
_TEXT	ENDS
PUBLIC	?X86Emit_MOVRR@NativeCodeCache@@QAEXW4x86Reg@@0@Z ; NativeCodeCache::X86Emit_MOVRR
; Function compile flags: /Odtp /RTCsu
_TEXT	SEGMENT
_this$ = -4						; size = 4
_regDest$ = 8						; size = 4
_regSrc$ = 12						; size = 4
?X86Emit_MOVRR@NativeCodeCache@@QAEXW4x86Reg@@0@Z PROC	; NativeCodeCache::X86Emit_MOVRR
; _this$ = ecx

; 1282 : {

	push	ebp
	mov	ebp, esp
	push	ecx
	mov	DWORD PTR [ebp-4], -858993460		; ccccccccH
	mov	DWORD PTR _this$[ebp], ecx

; 1283 :   X86Emit_Group1RR(regDest,regSrc,17);

	push	17					; 00000011H
	mov	eax, DWORD PTR _regSrc$[ebp]
	push	eax
	mov	ecx, DWORD PTR _regDest$[ebp]
	push	ecx
	mov	ecx, DWORD PTR _this$[ebp]
	call	?X86Emit_Group1RR@NativeCodeCache@@QAEXW4x86Reg@@0E@Z ; NativeCodeCache::X86Emit_Group1RR

; 1284 : }

	add	esp, 4
	cmp	ebp, esp
	call	__RTC_CheckEsp
	mov	esp, ebp
	pop	ebp
	ret	8
?X86Emit_MOVRR@NativeCodeCache@@QAEXW4x86Reg@@0@Z ENDP	; NativeCodeCache::X86Emit_MOVRR
_TEXT	ENDS
PUBLIC	?X86Emit_LEA@NativeCodeCache@@QAEXW4x86Reg@@IW4x86IndexReg@@W4x86ScaleVal@@H@Z ; NativeCodeCache::X86Emit_LEA
; Function compile flags: /Odtp /RTCsu
_TEXT	SEGMENT
_this$ = -4						; size = 4
_regDest$ = 8						; size = 4
_base$ = 12						; size = 4
_index$ = 16						; size = 4
_scale$ = 20						; size = 4
_disp$ = 24						; size = 4
?X86Emit_LEA@NativeCodeCache@@QAEXW4x86Reg@@IW4x86IndexReg@@W4x86ScaleVal@@H@Z PROC ; NativeCodeCache::X86Emit_LEA
; _this$ = ecx

; 1287 : {

	push	ebp
	mov	ebp, esp
	push	ecx
	mov	DWORD PTR [ebp-4], -858993460		; ccccccccH
	mov	DWORD PTR _this$[ebp], ecx

; 1288 :   if(regDest < x86Reg_eax)

	cmp	DWORD PTR _regDest$[ebp], 16		; 00000010H
	jge	SHORT $LN1@X86Emit_LE

; 1289 :   {
; 1290 :     *pEmitLoc++ = 0x66;

	mov	eax, DWORD PTR _this$[ebp]
	mov	ecx, DWORD PTR [eax+4]
	mov	BYTE PTR [ecx], 102			; 00000066H
	mov	edx, DWORD PTR _this$[ebp]
	mov	eax, DWORD PTR [edx+4]
	add	eax, 1
	mov	ecx, DWORD PTR _this$[ebp]
	mov	DWORD PTR [ecx+4], eax
$LN1@X86Emit_LE:

; 1291 :   }
; 1292 : 
; 1293 :   *pEmitLoc++ = 0x8D;

	mov	edx, DWORD PTR _this$[ebp]
	mov	eax, DWORD PTR [edx+4]
	mov	BYTE PTR [eax], 141			; 0000008dH
	mov	ecx, DWORD PTR _this$[ebp]
	mov	edx, DWORD PTR [ecx+4]
	add	edx, 1
	mov	eax, DWORD PTR _this$[ebp]
	mov	DWORD PTR [eax+4], edx

; 1294 :   X86Emit_ModRegRM(x86ModType_mem,(x86ModReg)(regDest & 0x07),base,index,scale,disp);

	mov	ecx, DWORD PTR _disp$[ebp]
	push	ecx
	mov	edx, DWORD PTR _scale$[ebp]
	push	edx
	mov	eax, DWORD PTR _index$[ebp]
	push	eax
	mov	ecx, DWORD PTR _base$[ebp]
	push	ecx
	mov	edx, DWORD PTR _regDest$[ebp]
	and	edx, 7
	push	edx
	push	0
	mov	ecx, DWORD PTR _this$[ebp]
	call	?X86Emit_ModRegRM@NativeCodeCache@@QAEXW4x86ModType@@W4x86ModReg@@IW4x86IndexReg@@W4x86ScaleVal@@H@Z ; NativeCodeCache::X86Emit_ModRegRM

; 1295 : }

	add	esp, 4
	cmp	ebp, esp
	call	__RTC_CheckEsp
	mov	esp, ebp
	pop	ebp
	ret	20					; 00000014H
?X86Emit_LEA@NativeCodeCache@@QAEXW4x86Reg@@IW4x86IndexReg@@W4x86ScaleVal@@H@Z ENDP ; NativeCodeCache::X86Emit_LEA
_TEXT	ENDS
PUBLIC	?X86Emit_POPM@NativeCodeCache@@QAEXW4x86MemPtr@@IW4x86IndexReg@@W4x86ScaleVal@@H@Z ; NativeCodeCache::X86Emit_POPM
; Function compile flags: /Odtp /RTCsu
_TEXT	SEGMENT
_this$ = -4						; size = 4
_ptrType$ = 8						; size = 4
_base$ = 12						; size = 4
_index$ = 16						; size = 4
_scale$ = 20						; size = 4
_disp$ = 24						; size = 4
?X86Emit_POPM@NativeCodeCache@@QAEXW4x86MemPtr@@IW4x86IndexReg@@W4x86ScaleVal@@H@Z PROC ; NativeCodeCache::X86Emit_POPM
; _this$ = ecx

; 1298 : {

	push	ebp
	mov	ebp, esp
	push	ecx
	mov	DWORD PTR [ebp-4], -858993460		; ccccccccH
	mov	DWORD PTR _this$[ebp], ecx

; 1299 :   if(ptrType == x86MemPtr_word)

	cmp	DWORD PTR _ptrType$[ebp], 1
	jne	SHORT $LN1@X86Emit_PO@2

; 1300 :   {
; 1301 :     *pEmitLoc++ = 0x66;

	mov	eax, DWORD PTR _this$[ebp]
	mov	ecx, DWORD PTR [eax+4]
	mov	BYTE PTR [ecx], 102			; 00000066H
	mov	edx, DWORD PTR _this$[ebp]
	mov	eax, DWORD PTR [edx+4]
	add	eax, 1
	mov	ecx, DWORD PTR _this$[ebp]
	mov	DWORD PTR [ecx+4], eax
$LN1@X86Emit_PO@2:

; 1302 :   }
; 1303 : 
; 1304 :   *pEmitLoc++ = 0x8F;

	mov	edx, DWORD PTR _this$[ebp]
	mov	eax, DWORD PTR [edx+4]
	mov	BYTE PTR [eax], 143			; 0000008fH
	mov	ecx, DWORD PTR _this$[ebp]
	mov	edx, DWORD PTR [ecx+4]
	add	edx, 1
	mov	eax, DWORD PTR _this$[ebp]
	mov	DWORD PTR [eax+4], edx

; 1305 :   X86Emit_ModRegRM(x86ModType_mem,(x86ModReg)0,base,index,scale,disp);

	mov	ecx, DWORD PTR _disp$[ebp]
	push	ecx
	mov	edx, DWORD PTR _scale$[ebp]
	push	edx
	mov	eax, DWORD PTR _index$[ebp]
	push	eax
	mov	ecx, DWORD PTR _base$[ebp]
	push	ecx
	push	0
	push	0
	mov	ecx, DWORD PTR _this$[ebp]
	call	?X86Emit_ModRegRM@NativeCodeCache@@QAEXW4x86ModType@@W4x86ModReg@@IW4x86IndexReg@@W4x86ScaleVal@@H@Z ; NativeCodeCache::X86Emit_ModRegRM

; 1306 : }

	add	esp, 4
	cmp	ebp, esp
	call	__RTC_CheckEsp
	mov	esp, ebp
	pop	ebp
	ret	20					; 00000014H
?X86Emit_POPM@NativeCodeCache@@QAEXW4x86MemPtr@@IW4x86IndexReg@@W4x86ScaleVal@@H@Z ENDP ; NativeCodeCache::X86Emit_POPM
_TEXT	ENDS
PUBLIC	?X86Emit_NOP@NativeCodeCache@@QAEXXZ		; NativeCodeCache::X86Emit_NOP
; Function compile flags: /Odtp /RTCsu
_TEXT	SEGMENT
_this$ = -4						; size = 4
?X86Emit_NOP@NativeCodeCache@@QAEXXZ PROC		; NativeCodeCache::X86Emit_NOP
; _this$ = ecx

; 1309 : {

	push	ebp
	mov	ebp, esp
	push	ecx
	mov	DWORD PTR [ebp-4], -858993460		; ccccccccH
	mov	DWORD PTR _this$[ebp], ecx

; 1310 :   //Alias for XCHG rAX, rAX
; 1311 :   *pEmitLoc++ = 0x90;

	mov	eax, DWORD PTR _this$[ebp]
	mov	ecx, DWORD PTR [eax+4]
	mov	BYTE PTR [ecx], 144			; 00000090H
	mov	edx, DWORD PTR _this$[ebp]
	mov	eax, DWORD PTR [edx+4]
	add	eax, 1
	mov	ecx, DWORD PTR _this$[ebp]
	mov	DWORD PTR [ecx+4], eax

; 1312 : }

	mov	esp, ebp
	pop	ebp
	ret	0
?X86Emit_NOP@NativeCodeCache@@QAEXXZ ENDP		; NativeCodeCache::X86Emit_NOP
_TEXT	ENDS
PUBLIC	?X86Emit_XCHGRR@NativeCodeCache@@QAEXW4x86Reg@@0@Z ; NativeCodeCache::X86Emit_XCHGRR
; Function compile flags: /Odtp /RTCsu
_TEXT	SEGMENT
_this$ = -4						; size = 4
_reg1$ = 8						; size = 4
_reg2$ = 12						; size = 4
?X86Emit_XCHGRR@NativeCodeCache@@QAEXW4x86Reg@@0@Z PROC	; NativeCodeCache::X86Emit_XCHGRR
; _this$ = ecx

; 1315 : {

	push	ebp
	mov	ebp, esp
	push	ecx
	mov	DWORD PTR [ebp-4], -858993460		; ccccccccH
	mov	DWORD PTR _this$[ebp], ecx

; 1316 :   if((reg2 == x86Reg_eax) || (reg2 == x86Reg_ax))

	cmp	DWORD PTR _reg2$[ebp], 16		; 00000010H
	je	SHORT $LN11@X86Emit_XC@2
	cmp	DWORD PTR _reg2$[ebp], 8
	jne	SHORT $LN12@X86Emit_XC@2
$LN11@X86Emit_XC@2:

; 1317 :   {
; 1318 :     //r32, eax or r16, ax
; 1319 :     if(reg2 == x86Reg_ax)

	cmp	DWORD PTR _reg2$[ebp], 8
	jne	SHORT $LN10@X86Emit_XC@2

; 1320 :     {
; 1321 :       *pEmitLoc++ = 0x66;

	mov	eax, DWORD PTR _this$[ebp]
	mov	ecx, DWORD PTR [eax+4]
	mov	BYTE PTR [ecx], 102			; 00000066H
	mov	edx, DWORD PTR _this$[ebp]
	mov	eax, DWORD PTR [edx+4]
	add	eax, 1
	mov	ecx, DWORD PTR _this$[ebp]
	mov	DWORD PTR [ecx+4], eax
$LN10@X86Emit_XC@2:

; 1322 :     }
; 1323 :     *pEmitLoc++ = 0x90 + (reg1 & 0x07);

	mov	edx, DWORD PTR _reg1$[ebp]
	and	edx, 7
	add	edx, 144				; 00000090H
	mov	eax, DWORD PTR _this$[ebp]
	mov	ecx, DWORD PTR [eax+4]
	mov	BYTE PTR [ecx], dl
	mov	edx, DWORD PTR _this$[ebp]
	mov	eax, DWORD PTR [edx+4]
	add	eax, 1
	mov	ecx, DWORD PTR _this$[ebp]
	mov	DWORD PTR [ecx+4], eax
	jmp	$LN13@X86Emit_XC@2
$LN12@X86Emit_XC@2:

; 1324 :   }
; 1325 :   else if((reg1 == x86Reg_eax) || (reg1 == x86Reg_ax))

	cmp	DWORD PTR _reg1$[ebp], 16		; 00000010H
	je	SHORT $LN7@X86Emit_XC@2
	cmp	DWORD PTR _reg1$[ebp], 8
	jne	SHORT $LN8@X86Emit_XC@2
$LN7@X86Emit_XC@2:

; 1326 :   {
; 1327 :     //eax, r32 or ax, r16
; 1328 :     if(reg1 == x86Reg_ax)

	cmp	DWORD PTR _reg1$[ebp], 8
	jne	SHORT $LN6@X86Emit_XC@2

; 1329 :     {
; 1330 :       *pEmitLoc++ = 0x66;

	mov	edx, DWORD PTR _this$[ebp]
	mov	eax, DWORD PTR [edx+4]
	mov	BYTE PTR [eax], 102			; 00000066H
	mov	ecx, DWORD PTR _this$[ebp]
	mov	edx, DWORD PTR [ecx+4]
	add	edx, 1
	mov	eax, DWORD PTR _this$[ebp]
	mov	DWORD PTR [eax+4], edx
$LN6@X86Emit_XC@2:

; 1331 :     }
; 1332 :     *pEmitLoc++ = 0x90 + (reg2 & 0x07);

	mov	ecx, DWORD PTR _reg2$[ebp]
	and	ecx, 7
	add	ecx, 144				; 00000090H
	mov	edx, DWORD PTR _this$[ebp]
	mov	eax, DWORD PTR [edx+4]
	mov	BYTE PTR [eax], cl
	mov	ecx, DWORD PTR _this$[ebp]
	mov	edx, DWORD PTR [ecx+4]
	add	edx, 1
	mov	eax, DWORD PTR _this$[ebp]
	mov	DWORD PTR [eax+4], edx

; 1333 :   }
; 1334 :   else

	jmp	$LN13@X86Emit_XC@2
$LN8@X86Emit_XC@2:

; 1335 :   {
; 1336 :     if(reg1 < x86Reg_ax)

	cmp	DWORD PTR _reg1$[ebp], 8
	jge	SHORT $LN4@X86Emit_XC@2

; 1337 :     {
; 1338 :       //r8, r8
; 1339 :       *pEmitLoc++ = 86;

	mov	ecx, DWORD PTR _this$[ebp]
	mov	edx, DWORD PTR [ecx+4]
	mov	BYTE PTR [edx], 86			; 00000056H
	mov	eax, DWORD PTR _this$[ebp]
	mov	ecx, DWORD PTR [eax+4]
	add	ecx, 1
	mov	edx, DWORD PTR _this$[ebp]
	mov	DWORD PTR [edx+4], ecx

; 1340 :       X86Emit_ModRegRM(x86ModType_reg,(x86ModReg)(reg2 & 0x07),(reg1 & 0x07));

	push	0
	push	0
	push	4
	mov	eax, DWORD PTR _reg1$[ebp]
	and	eax, 7
	push	eax
	mov	ecx, DWORD PTR _reg2$[ebp]
	and	ecx, 7
	push	ecx
	push	3
	mov	ecx, DWORD PTR _this$[ebp]
	call	?X86Emit_ModRegRM@NativeCodeCache@@QAEXW4x86ModType@@W4x86ModReg@@IW4x86IndexReg@@W4x86ScaleVal@@H@Z ; NativeCodeCache::X86Emit_ModRegRM
	jmp	$LN13@X86Emit_XC@2
$LN4@X86Emit_XC@2:

; 1341 :     }
; 1342 :     else if(reg1 < x86Reg_eax)

	cmp	DWORD PTR _reg1$[ebp], 16		; 00000010H
	jge	SHORT $LN2@X86Emit_XC@2

; 1343 :     {
; 1344 :       //r16, r16
; 1345 :       *pEmitLoc++ = 0x66;

	mov	edx, DWORD PTR _this$[ebp]
	mov	eax, DWORD PTR [edx+4]
	mov	BYTE PTR [eax], 102			; 00000066H
	mov	ecx, DWORD PTR _this$[ebp]
	mov	edx, DWORD PTR [ecx+4]
	add	edx, 1
	mov	eax, DWORD PTR _this$[ebp]
	mov	DWORD PTR [eax+4], edx

; 1346 :       *pEmitLoc++ = 87;

	mov	ecx, DWORD PTR _this$[ebp]
	mov	edx, DWORD PTR [ecx+4]
	mov	BYTE PTR [edx], 87			; 00000057H
	mov	eax, DWORD PTR _this$[ebp]
	mov	ecx, DWORD PTR [eax+4]
	add	ecx, 1
	mov	edx, DWORD PTR _this$[ebp]
	mov	DWORD PTR [edx+4], ecx

; 1347 :       X86Emit_ModRegRM(x86ModType_reg,(x86ModReg)(reg2 & 0x07),(reg1 & 0x07));

	push	0
	push	0
	push	4
	mov	eax, DWORD PTR _reg1$[ebp]
	and	eax, 7
	push	eax
	mov	ecx, DWORD PTR _reg2$[ebp]
	and	ecx, 7
	push	ecx
	push	3
	mov	ecx, DWORD PTR _this$[ebp]
	call	?X86Emit_ModRegRM@NativeCodeCache@@QAEXW4x86ModType@@W4x86ModReg@@IW4x86IndexReg@@W4x86ScaleVal@@H@Z ; NativeCodeCache::X86Emit_ModRegRM

; 1348 :     }
; 1349 :     else

	jmp	SHORT $LN13@X86Emit_XC@2
$LN2@X86Emit_XC@2:

; 1350 :     {
; 1351 :       //r32, r32
; 1352 :       *pEmitLoc++ = 87;

	mov	edx, DWORD PTR _this$[ebp]
	mov	eax, DWORD PTR [edx+4]
	mov	BYTE PTR [eax], 87			; 00000057H
	mov	ecx, DWORD PTR _this$[ebp]
	mov	edx, DWORD PTR [ecx+4]
	add	edx, 1
	mov	eax, DWORD PTR _this$[ebp]
	mov	DWORD PTR [eax+4], edx

; 1353 :       X86Emit_ModRegRM(x86ModType_reg,(x86ModReg)(reg2 & 0x07),(reg1 & 0x07));

	push	0
	push	0
	push	4
	mov	ecx, DWORD PTR _reg1$[ebp]
	and	ecx, 7
	push	ecx
	mov	edx, DWORD PTR _reg2$[ebp]
	and	edx, 7
	push	edx
	push	3
	mov	ecx, DWORD PTR _this$[ebp]
	call	?X86Emit_ModRegRM@NativeCodeCache@@QAEXW4x86ModType@@W4x86ModReg@@IW4x86IndexReg@@W4x86ScaleVal@@H@Z ; NativeCodeCache::X86Emit_ModRegRM
$LN13@X86Emit_XC@2:

; 1354 :     }
; 1355 :   
; 1356 :   }
; 1357 : }

	add	esp, 4
	cmp	ebp, esp
	call	__RTC_CheckEsp
	mov	esp, ebp
	pop	ebp
	ret	8
?X86Emit_XCHGRR@NativeCodeCache@@QAEXW4x86Reg@@0@Z ENDP	; NativeCodeCache::X86Emit_XCHGRR
_TEXT	ENDS
PUBLIC	?X86Emit_CBW@NativeCodeCache@@QAEXXZ		; NativeCodeCache::X86Emit_CBW
; Function compile flags: /Odtp /RTCsu
_TEXT	SEGMENT
_this$ = -4						; size = 4
?X86Emit_CBW@NativeCodeCache@@QAEXXZ PROC		; NativeCodeCache::X86Emit_CBW
; _this$ = ecx

; 1360 : {

	push	ebp
	mov	ebp, esp
	push	ecx
	mov	DWORD PTR [ebp-4], -858993460		; ccccccccH
	mov	DWORD PTR _this$[ebp], ecx

; 1361 :   *pEmitLoc++ = 0x66;

	mov	eax, DWORD PTR _this$[ebp]
	mov	ecx, DWORD PTR [eax+4]
	mov	BYTE PTR [ecx], 102			; 00000066H
	mov	edx, DWORD PTR _this$[ebp]
	mov	eax, DWORD PTR [edx+4]
	add	eax, 1
	mov	ecx, DWORD PTR _this$[ebp]
	mov	DWORD PTR [ecx+4], eax

; 1362 :   *pEmitLoc++ = 0x98;

	mov	edx, DWORD PTR _this$[ebp]
	mov	eax, DWORD PTR [edx+4]
	mov	BYTE PTR [eax], 152			; 00000098H
	mov	ecx, DWORD PTR _this$[ebp]
	mov	edx, DWORD PTR [ecx+4]
	add	edx, 1
	mov	eax, DWORD PTR _this$[ebp]
	mov	DWORD PTR [eax+4], edx

; 1363 : }

	mov	esp, ebp
	pop	ebp
	ret	0
?X86Emit_CBW@NativeCodeCache@@QAEXXZ ENDP		; NativeCodeCache::X86Emit_CBW
_TEXT	ENDS
PUBLIC	?X86Emit_CWDE@NativeCodeCache@@QAEXXZ		; NativeCodeCache::X86Emit_CWDE
; Function compile flags: /Odtp /RTCsu
_TEXT	SEGMENT
_this$ = -4						; size = 4
?X86Emit_CWDE@NativeCodeCache@@QAEXXZ PROC		; NativeCodeCache::X86Emit_CWDE
; _this$ = ecx

; 1366 : {

	push	ebp
	mov	ebp, esp
	push	ecx
	mov	DWORD PTR [ebp-4], -858993460		; ccccccccH
	mov	DWORD PTR _this$[ebp], ecx

; 1367 :   *pEmitLoc++ = 0x98;

	mov	eax, DWORD PTR _this$[ebp]
	mov	ecx, DWORD PTR [eax+4]
	mov	BYTE PTR [ecx], 152			; 00000098H
	mov	edx, DWORD PTR _this$[ebp]
	mov	eax, DWORD PTR [edx+4]
	add	eax, 1
	mov	ecx, DWORD PTR _this$[ebp]
	mov	DWORD PTR [ecx+4], eax

; 1368 : }

	mov	esp, ebp
	pop	ebp
	ret	0
?X86Emit_CWDE@NativeCodeCache@@QAEXXZ ENDP		; NativeCodeCache::X86Emit_CWDE
_TEXT	ENDS
PUBLIC	?X86Emit_CWD@NativeCodeCache@@QAEXXZ		; NativeCodeCache::X86Emit_CWD
; Function compile flags: /Odtp /RTCsu
_TEXT	SEGMENT
_this$ = -4						; size = 4
?X86Emit_CWD@NativeCodeCache@@QAEXXZ PROC		; NativeCodeCache::X86Emit_CWD
; _this$ = ecx

; 1371 : {

	push	ebp
	mov	ebp, esp
	push	ecx
	mov	DWORD PTR [ebp-4], -858993460		; ccccccccH
	mov	DWORD PTR _this$[ebp], ecx

; 1372 :   *pEmitLoc++ = 0x66;

	mov	eax, DWORD PTR _this$[ebp]
	mov	ecx, DWORD PTR [eax+4]
	mov	BYTE PTR [ecx], 102			; 00000066H
	mov	edx, DWORD PTR _this$[ebp]
	mov	eax, DWORD PTR [edx+4]
	add	eax, 1
	mov	ecx, DWORD PTR _this$[ebp]
	mov	DWORD PTR [ecx+4], eax

; 1373 :   *pEmitLoc++ = 0x99;

	mov	edx, DWORD PTR _this$[ebp]
	mov	eax, DWORD PTR [edx+4]
	mov	BYTE PTR [eax], 153			; 00000099H
	mov	ecx, DWORD PTR _this$[ebp]
	mov	edx, DWORD PTR [ecx+4]
	add	edx, 1
	mov	eax, DWORD PTR _this$[ebp]
	mov	DWORD PTR [eax+4], edx

; 1374 : }

	mov	esp, ebp
	pop	ebp
	ret	0
?X86Emit_CWD@NativeCodeCache@@QAEXXZ ENDP		; NativeCodeCache::X86Emit_CWD
_TEXT	ENDS
PUBLIC	?X86Emit_CDQ@NativeCodeCache@@QAEXXZ		; NativeCodeCache::X86Emit_CDQ
; Function compile flags: /Odtp /RTCsu
_TEXT	SEGMENT
_this$ = -4						; size = 4
?X86Emit_CDQ@NativeCodeCache@@QAEXXZ PROC		; NativeCodeCache::X86Emit_CDQ
; _this$ = ecx

; 1377 : {

	push	ebp
	mov	ebp, esp
	push	ecx
	mov	DWORD PTR [ebp-4], -858993460		; ccccccccH
	mov	DWORD PTR _this$[ebp], ecx

; 1378 :   *pEmitLoc++ = 0x99;

	mov	eax, DWORD PTR _this$[ebp]
	mov	ecx, DWORD PTR [eax+4]
	mov	BYTE PTR [ecx], 153			; 00000099H
	mov	edx, DWORD PTR _this$[ebp]
	mov	eax, DWORD PTR [edx+4]
	add	eax, 1
	mov	ecx, DWORD PTR _this$[ebp]
	mov	DWORD PTR [ecx+4], eax

; 1379 : }

	mov	esp, ebp
	pop	ebp
	ret	0
?X86Emit_CDQ@NativeCodeCache@@QAEXXZ ENDP		; NativeCodeCache::X86Emit_CDQ
_TEXT	ENDS
PUBLIC	?X86Emit_CALLI@NativeCodeCache@@QAEXIG@Z	; NativeCodeCache::X86Emit_CALLI
; Function compile flags: /Odtp /RTCsu
_TEXT	SEGMENT
_this$ = -4						; size = 4
_offset$ = 8						; size = 4
_seg$ = 12						; size = 2
?X86Emit_CALLI@NativeCodeCache@@QAEXIG@Z PROC		; NativeCodeCache::X86Emit_CALLI
; _this$ = ecx

; 1382 : {

	push	ebp
	mov	ebp, esp
	push	ecx
	mov	DWORD PTR [ebp-4], -858993460		; ccccccccH
	mov	DWORD PTR _this$[ebp], ecx

; 1383 :   offset -= (uint32)(pEmitLoc + 5);

	mov	eax, DWORD PTR _this$[ebp]
	mov	ecx, DWORD PTR [eax+4]
	add	ecx, 5
	mov	edx, DWORD PTR _offset$[ebp]
	sub	edx, ecx
	mov	DWORD PTR _offset$[ebp], edx

; 1384 : 
; 1385 :   if(seg == 0)

	movzx	eax, WORD PTR _seg$[ebp]
	test	eax, eax
	jne	SHORT $LN2@X86Emit_CA

; 1386 :   {
; 1387 :     //CALL imm32
; 1388 :     *pEmitLoc++ = 0xE8;

	mov	ecx, DWORD PTR _this$[ebp]
	mov	edx, DWORD PTR [ecx+4]
	mov	BYTE PTR [edx], 232			; 000000e8H
	mov	eax, DWORD PTR _this$[ebp]
	mov	ecx, DWORD PTR [eax+4]
	add	ecx, 1
	mov	edx, DWORD PTR _this$[ebp]
	mov	DWORD PTR [edx+4], ecx

; 1389 :     *((uint32 *)pEmitLoc) = offset;

	mov	eax, DWORD PTR _this$[ebp]
	mov	ecx, DWORD PTR [eax+4]
	mov	edx, DWORD PTR _offset$[ebp]
	mov	DWORD PTR [ecx], edx

; 1390 :     pEmitLoc += sizeof(int32);

	mov	eax, DWORD PTR _this$[ebp]
	mov	ecx, DWORD PTR [eax+4]
	add	ecx, 4
	mov	edx, DWORD PTR _this$[ebp]
	mov	DWORD PTR [edx+4], ecx

; 1391 : 
; 1392 :   }
; 1393 :   else

	jmp	SHORT $LN3@X86Emit_CA
$LN2@X86Emit_CA:

; 1394 :   {
; 1395 :     //CALL imm:imm32
; 1396 :     *pEmitLoc++ = 0x9A;

	mov	eax, DWORD PTR _this$[ebp]
	mov	ecx, DWORD PTR [eax+4]
	mov	BYTE PTR [ecx], 154			; 0000009aH
	mov	edx, DWORD PTR _this$[ebp]
	mov	eax, DWORD PTR [edx+4]
	add	eax, 1
	mov	ecx, DWORD PTR _this$[ebp]
	mov	DWORD PTR [ecx+4], eax

; 1397 :     *((uint32 *)pEmitLoc) = offset;

	mov	edx, DWORD PTR _this$[ebp]
	mov	eax, DWORD PTR [edx+4]
	mov	ecx, DWORD PTR _offset$[ebp]
	mov	DWORD PTR [eax], ecx

; 1398 :     pEmitLoc += sizeof(int32);

	mov	edx, DWORD PTR _this$[ebp]
	mov	eax, DWORD PTR [edx+4]
	add	eax, 4
	mov	ecx, DWORD PTR _this$[ebp]
	mov	DWORD PTR [ecx+4], eax

; 1399 :     *((uint16 *)pEmitLoc) = seg;

	mov	edx, DWORD PTR _this$[ebp]
	mov	eax, DWORD PTR [edx+4]
	mov	cx, WORD PTR _seg$[ebp]
	mov	WORD PTR [eax], cx

; 1400 :     pEmitLoc += sizeof(int16);

	mov	edx, DWORD PTR _this$[ebp]
	mov	eax, DWORD PTR [edx+4]
	add	eax, 2
	mov	ecx, DWORD PTR _this$[ebp]
	mov	DWORD PTR [ecx+4], eax
$LN3@X86Emit_CA:

; 1401 :   }
; 1402 : }

	mov	esp, ebp
	pop	ebp
	ret	8
?X86Emit_CALLI@NativeCodeCache@@QAEXIG@Z ENDP		; NativeCodeCache::X86Emit_CALLI
_TEXT	ENDS
PUBLIC	?X86Emit_JMPI@NativeCodeCache@@QAEXPAEG@Z	; NativeCodeCache::X86Emit_JMPI
; Function compile flags: /Odtp /RTCsu
_TEXT	SEGMENT
_offsetNear$ = -12					; size = 4
_offset$ = -8						; size = 4
_this$ = -4						; size = 4
_target$ = 8						; size = 4
_seg$ = 12						; size = 2
?X86Emit_JMPI@NativeCodeCache@@QAEXPAEG@Z PROC		; NativeCodeCache::X86Emit_JMPI
; _this$ = ecx

; 1405 : {

	push	ebp
	mov	ebp, esp
	sub	esp, 12					; 0000000cH
	mov	DWORD PTR [ebp-12], -858993460		; ccccccccH
	mov	DWORD PTR [ebp-8], -858993460		; ccccccccH
	mov	DWORD PTR [ebp-4], -858993460		; ccccccccH
	mov	DWORD PTR _this$[ebp], ecx

; 1406 :   int32 offset = target - (pEmitLoc + 2);

	mov	eax, DWORD PTR _this$[ebp]
	mov	ecx, DWORD PTR [eax+4]
	add	ecx, 2
	mov	edx, DWORD PTR _target$[ebp]
	sub	edx, ecx
	mov	DWORD PTR _offset$[ebp], edx

; 1407 :   int32 offsetNear = target - (pEmitLoc + 5);

	mov	eax, DWORD PTR _this$[ebp]
	mov	ecx, DWORD PTR [eax+4]
	add	ecx, 5
	mov	edx, DWORD PTR _target$[ebp]
	sub	edx, ecx
	mov	DWORD PTR _offsetNear$[ebp], edx

; 1408 : 
; 1409 :   if(seg == 0)

	movzx	eax, WORD PTR _seg$[ebp]
	test	eax, eax
	jne	SHORT $LN4@X86Emit_JM

; 1410 :   {
; 1411 :     if((offset >= -128) && (offset < 128))

	cmp	DWORD PTR _offset$[ebp], -128		; ffffff80H
	jl	SHORT $LN3@X86Emit_JM
	cmp	DWORD PTR _offset$[ebp], 128		; 00000080H
	jge	SHORT $LN3@X86Emit_JM

; 1412 :     {
; 1413 :       *pEmitLoc++ = 0xEB;

	mov	ecx, DWORD PTR _this$[ebp]
	mov	edx, DWORD PTR [ecx+4]
	mov	BYTE PTR [edx], 235			; 000000ebH
	mov	eax, DWORD PTR _this$[ebp]
	mov	ecx, DWORD PTR [eax+4]
	add	ecx, 1
	mov	edx, DWORD PTR _this$[ebp]
	mov	DWORD PTR [edx+4], ecx

; 1414 :       *pEmitLoc++ = (int8)offset;

	mov	eax, DWORD PTR _this$[ebp]
	mov	ecx, DWORD PTR [eax+4]
	mov	dl, BYTE PTR _offset$[ebp]
	mov	BYTE PTR [ecx], dl
	mov	eax, DWORD PTR _this$[ebp]
	mov	ecx, DWORD PTR [eax+4]
	add	ecx, 1
	mov	edx, DWORD PTR _this$[ebp]
	mov	DWORD PTR [edx+4], ecx

; 1415 :     }
; 1416 :     else

	jmp	SHORT $LN2@X86Emit_JM
$LN3@X86Emit_JM:

; 1417 :     {
; 1418 :       *pEmitLoc++ = 0xE9;

	mov	eax, DWORD PTR _this$[ebp]
	mov	ecx, DWORD PTR [eax+4]
	mov	BYTE PTR [ecx], 233			; 000000e9H
	mov	edx, DWORD PTR _this$[ebp]
	mov	eax, DWORD PTR [edx+4]
	add	eax, 1
	mov	ecx, DWORD PTR _this$[ebp]
	mov	DWORD PTR [ecx+4], eax

; 1419 :       *((int32 *)pEmitLoc) = offsetNear;

	mov	edx, DWORD PTR _this$[ebp]
	mov	eax, DWORD PTR [edx+4]
	mov	ecx, DWORD PTR _offsetNear$[ebp]
	mov	DWORD PTR [eax], ecx

; 1420 :       pEmitLoc += sizeof(int32);

	mov	edx, DWORD PTR _this$[ebp]
	mov	eax, DWORD PTR [edx+4]
	add	eax, 4
	mov	ecx, DWORD PTR _this$[ebp]
	mov	DWORD PTR [ecx+4], eax
$LN2@X86Emit_JM:

; 1421 :     }
; 1422 :   }
; 1423 :   else

	jmp	SHORT $LN5@X86Emit_JM
$LN4@X86Emit_JM:

; 1424 :   {
; 1425 :     //JMP imm:imm32
; 1426 :     *pEmitLoc++ = 0xEA;

	mov	edx, DWORD PTR _this$[ebp]
	mov	eax, DWORD PTR [edx+4]
	mov	BYTE PTR [eax], 234			; 000000eaH
	mov	ecx, DWORD PTR _this$[ebp]
	mov	edx, DWORD PTR [ecx+4]
	add	edx, 1
	mov	eax, DWORD PTR _this$[ebp]
	mov	DWORD PTR [eax+4], edx

; 1427 :     *((uint32 *)pEmitLoc) = offset;

	mov	ecx, DWORD PTR _this$[ebp]
	mov	edx, DWORD PTR [ecx+4]
	mov	eax, DWORD PTR _offset$[ebp]
	mov	DWORD PTR [edx], eax

; 1428 :     pEmitLoc += sizeof(uint32);

	mov	ecx, DWORD PTR _this$[ebp]
	mov	edx, DWORD PTR [ecx+4]
	add	edx, 4
	mov	eax, DWORD PTR _this$[ebp]
	mov	DWORD PTR [eax+4], edx

; 1429 :     *((uint16 *)pEmitLoc) = seg;

	mov	ecx, DWORD PTR _this$[ebp]
	mov	edx, DWORD PTR [ecx+4]
	mov	ax, WORD PTR _seg$[ebp]
	mov	WORD PTR [edx], ax

; 1430 :     pEmitLoc += sizeof(uint16);

	mov	ecx, DWORD PTR _this$[ebp]
	mov	edx, DWORD PTR [ecx+4]
	add	edx, 2
	mov	eax, DWORD PTR _this$[ebp]
	mov	DWORD PTR [eax+4], edx
$LN5@X86Emit_JM:

; 1431 :   }
; 1432 : }

	mov	esp, ebp
	pop	ebp
	ret	8
?X86Emit_JMPI@NativeCodeCache@@QAEXPAEG@Z ENDP		; NativeCodeCache::X86Emit_JMPI
_TEXT	ENDS
PUBLIC	?X86Emit_JMPI_Label@NativeCodeCache@@QAEXPAVPatchManager@@I@Z ; NativeCodeCache::X86Emit_JMPI_Label
; Function compile flags: /Odtp /RTCsu
