 Nuance

 Timestamp is 469d4bc1 (Tue Jul 17 18:07:45 2007)

 Preferred load address is 00400000

 Start         Length     Name                   Class
 0001:00000000 0010e24bH .text                   CODE
 0001:0010e250 000019bcH .text$x                 CODE
 0001:0010fc10 00001023H .text$yc                CODE
 0001:00110c40 0000103aH .text$yd                CODE
 0002:00000000 00000104H .CRT$XCA                DATA
 0002:00000104 00000104H .CRT$XCC                DATA
 0002:00000208 00000104H .CRT$XCZ                DATA
 0002:0000030c 00000104H .CRT$XIA                DATA
 0002:00000410 00000118H .CRT$XIC                DATA
 0002:00000528 00000104H .CRT$XIY                DATA
 0002:0000062c 00000104H .CRT$XIZ                DATA
 0002:00000730 00000104H .CRT$XPA                DATA
 0002:00000834 00000109H .CRT$XPX                DATA
 0002:00000940 00000104H .CRT$XPXA               DATA
 0002:00000a44 00000104H .CRT$XPZ                DATA
 0002:00000b48 00000104H .CRT$XTA                DATA
 0002:00000c4c 00000104H .CRT$XTZ                DATA
 0002:00000d50 00015642H .rdata                  DATA
 0002:00016394 0000014bH .rdata$debug            DATA
 0002:000164e0 000006c5H .rdata$r                DATA
 0002:00016bb0 00000229H .rdata$sxdata           DATA
 0002:00016ddc 00000104H .rtc$IAA                DATA
 0002:00016ee0 00000241H .rtc$IMZ                DATA
 0002:00017124 00000104H .rtc$IZZ                DATA
 0002:00017228 00000104H .rtc$TAA                DATA
 0002:0001732c 00000241H .rtc$TMZ                DATA
 0002:00017570 00000104H .rtc$TZZ                DATA
 0002:00017678 000022c4H .xdata$x                DATA
 0002:0001993c 00000000H .edata                  DATA
 0003:00000000 000048c0H .data                   DATA
 0003:000048c0 00005430H .bss                    DATA
 0004:00000000 000000a0H .idata$2                DATA
 0004:000000a0 00000014H .idata$3                DATA
 0004:000000b4 00000530H .idata$4                DATA
 0004:000005e4 00000530H .idata$5                DATA
 0004:00000b14 000011bfH .idata$6                DATA
 0005:00000000 000003a9H .rsrc$01                DATA
 0005:000003b0 0002cca6H .rsrc$02                DATA

  Address         Publics by Value              Rva+Base       Lib:Object

 0000:00000000       __except_list              00000000     <absolute>
 0000:0000003e       ___safe_se_handler_count   0000003e     <absolute>
 0000:00000000       ___ImageBase               00400000     <linker-defined>
 0001:00004b10       ?AudioMute@@YAXPAVMPE@@@Z  00405b10 f   audio.obj
 0001:00004b30       ?AudioReset@@YAXPAVMPE@@@Z 00405b30 f   audio.obj
 0001:00004b60       ?AudioQuerySampleRates@@YAXPAVMPE@@@Z 00405b60 f   audio.obj
 0001:00004b80       ?AudioSetSampleRate@@YAXPAVMPE@@@Z 00405b80 f   audio.obj
 0001:00004cc0       ?AudioQueryChannelMode@@YAXPAVMPE@@@Z 00405cc0 f   audio.obj
 0001:00004ce0       ?AudioSetChannelMode@@YAXPAVMPE@@@Z 00405ce0 f   audio.obj
 0001:00004d80       ?AudioSetDMABuffer@@YAXPAVMPE@@@Z 00405d80 f   audio.obj
 0001:00004e90       ?BDMA_Type12_Write_0@@YAXPAVMPE@@IIIII@Z 00405e90 f   bdma_type12.obj
 0001:00005590       ?BDMA_Type12_Write_1@@YAXPAVMPE@@IIIII@Z 00406590 f   bdma_type12.obj
 0001:000055a0       ?BDMA_Type12_Write_2@@YAXPAVMPE@@IIIII@Z 004065a0 f   bdma_type12.obj
 0001:000055b0       ?BDMA_Type12_Write_3@@YAXPAVMPE@@IIIII@Z 004065b0 f   bdma_type12.obj
 0001:000055c0       ?BDMA_Type12_Write_4@@YAXPAVMPE@@IIIII@Z 004065c0 f   bdma_type12.obj
 0001:000055d0       ?BDMA_Type12_Write_5@@YAXPAVMPE@@IIIII@Z 004065d0 f   bdma_type12.obj
 0001:000055e0       ?BDMA_Type12_Write_6@@YAXPAVMPE@@IIIII@Z 004065e0 f   bdma_type12.obj
 0001:000055f0       ?BDMA_Type12_Write_7@@YAXPAVMPE@@IIIII@Z 004065f0 f   bdma_type12.obj
 0001:00005600       ?BDMA_Type12_Read_0@@YAXPAVMPE@@IIIII@Z 00406600 f   bdma_type12.obj
 0001:00005aa0       ?BDMA_Type12_Read_1@@YAXPAVMPE@@IIIII@Z 00406aa0 f   bdma_type12.obj
 0001:00005ab0       ?BDMA_Type12_Read_2@@YAXPAVMPE@@IIIII@Z 00406ab0 f   bdma_type12.obj
 0001:00005ac0       ?BDMA_Type12_Read_3@@YAXPAVMPE@@IIIII@Z 00406ac0 f   bdma_type12.obj
 0001:00005ad0       ?BDMA_Type12_Read_4@@YAXPAVMPE@@IIIII@Z 00406ad0 f   bdma_type12.obj
 0001:00005ae0       ?BDMA_Type12_Read_5@@YAXPAVMPE@@IIIII@Z 00406ae0 f   bdma_type12.obj
 0001:00005af0       ?BDMA_Type12_Read_6@@YAXPAVMPE@@IIIII@Z 00406af0 f   bdma_type12.obj
 0001:00005b00       ?BDMA_Type12_Read_7@@YAXPAVMPE@@IIIII@Z 00406b00 f   bdma_type12.obj
 0001:00005e30       ?BDMA_Type5_Write_0@@YAXPAVMPE@@IIIII@Z 00406e30 f   bdma_type5.obj
 0001:000065f0       ?BDMA_Type5_Write_1@@YAXPAVMPE@@IIIII@Z 004075f0 f   bdma_type5.obj
 0001:00006600       ?BDMA_Type5_Write_2@@YAXPAVMPE@@IIIII@Z 00407600 f   bdma_type5.obj
 0001:00006610       ?BDMA_Type5_Write_3@@YAXPAVMPE@@IIIII@Z 00407610 f   bdma_type5.obj
 0001:00006620       ?BDMA_Type5_Write_4@@YAXPAVMPE@@IIIII@Z 00407620 f   bdma_type5.obj
 0001:00006630       ?BDMA_Type5_Write_5@@YAXPAVMPE@@IIIII@Z 00407630 f   bdma_type5.obj
 0001:00006640       ?BDMA_Type5_Write_6@@YAXPAVMPE@@IIIII@Z 00407640 f   bdma_type5.obj
 0001:00006650       ?BDMA_Type5_Write_7@@YAXPAVMPE@@IIIII@Z 00407650 f   bdma_type5.obj
 0001:00006660       ?BDMA_Type5_Read_0@@YAXPAVMPE@@IIIII@Z 00407660 f   bdma_type5.obj
 0001:00006b00       ?BDMA_Type5_Read_1@@YAXPAVMPE@@IIIII@Z 00407b00 f   bdma_type5.obj
 0001:00006b10       ?BDMA_Type5_Read_2@@YAXPAVMPE@@IIIII@Z 00407b10 f   bdma_type5.obj
 0001:00006b20       ?BDMA_Type5_Read_3@@YAXPAVMPE@@IIIII@Z 00407b20 f   bdma_type5.obj
 0001:00006b30       ?BDMA_Type5_Read_4@@YAXPAVMPE@@IIIII@Z 00407b30 f   bdma_type5.obj
 0001:00006b40       ?BDMA_Type5_Read_5@@YAXPAVMPE@@IIIII@Z 00407b40 f   bdma_type5.obj
 0001:00006b50       ?BDMA_Type5_Read_6@@YAXPAVMPE@@IIIII@Z 00407b50 f   bdma_type5.obj
 0001:00006b60       ?BDMA_Type5_Read_7@@YAXPAVMPE@@IIIII@Z 00407b60 f   bdma_type5.obj
 0001:00006ec0       ?BDMA_Type8_Write_0@@YAXPAVMPE@@IIIII@Z 00407ec0 f   bdma_type8.obj
 0001:00007380       ?BDMA_Type8_Write_1@@YAXPAVMPE@@IIIII@Z 00408380 f   bdma_type8.obj
 0001:00007390       ?BDMA_Type8_Write_2@@YAXPAVMPE@@IIIII@Z 00408390 f   bdma_type8.obj
 0001:000073a0       ?BDMA_Type8_Write_3@@YAXPAVMPE@@IIIII@Z 004083a0 f   bdma_type8.obj
 0001:000073b0       ?BDMA_Type8_Write_4@@YAXPAVMPE@@IIIII@Z 004083b0 f   bdma_type8.obj
 0001:000073c0       ?BDMA_Type8_Write_5@@YAXPAVMPE@@IIIII@Z 004083c0 f   bdma_type8.obj
 0001:000073d0       ?BDMA_Type8_Write_6@@YAXPAVMPE@@IIIII@Z 004083d0 f   bdma_type8.obj
 0001:000073e0       ?BDMA_Type8_Write_7@@YAXPAVMPE@@IIIII@Z 004083e0 f   bdma_type8.obj
 0001:000073f0       ?BDMA_Type8_Read_0@@YAXPAVMPE@@IIIII@Z 004083f0 f   bdma_type8.obj
 0001:00007400       ?BDMA_Type8_Read_1@@YAXPAVMPE@@IIIII@Z 00408400 f   bdma_type8.obj
 0001:00007410       ?BDMA_Type8_Read_2@@YAXPAVMPE@@IIIII@Z 00408410 f   bdma_type8.obj
 0001:00007420       ?BDMA_Type8_Read_3@@YAXPAVMPE@@IIIII@Z 00408420 f   bdma_type8.obj
 0001:00007430       ?BDMA_Type8_Read_4@@YAXPAVMPE@@IIIII@Z 00408430 f   bdma_type8.obj
 0001:00007440       ?BDMA_Type8_Read_5@@YAXPAVMPE@@IIIII@Z 00408440 f   bdma_type8.obj
 0001:00007450       ?BDMA_Type8_Read_6@@YAXPAVMPE@@IIIII@Z 00408450 f   bdma_type8.obj
 0001:00007460       ?BDMA_Type8_Read_7@@YAXPAVMPE@@IIIII@Z 00408460 f   bdma_type8.obj
 0001:000075d0       ?BDMA_Type9_Write_0@@YAXPAVMPE@@IIIII@Z 004085d0 f   bdma_type9.obj
 0001:00007d00       ?BDMA_Type9_Write_1@@YAXPAVMPE@@IIIII@Z 00408d00 f   bdma_type9.obj
 0001:00007d10       ?BDMA_Type9_Write_2@@YAXPAVMPE@@IIIII@Z 00408d10 f   bdma_type9.obj
 0001:00007d20       ?BDMA_Type9_Write_3@@YAXPAVMPE@@IIIII@Z 00408d20 f   bdma_type9.obj
 0001:00007d30       ?BDMA_Type9_Write_4@@YAXPAVMPE@@IIIII@Z 00408d30 f   bdma_type9.obj
 0001:00007d40       ?BDMA_Type9_Write_5@@YAXPAVMPE@@IIIII@Z 00408d40 f   bdma_type9.obj
 0001:00007d50       ?BDMA_Type9_Write_6@@YAXPAVMPE@@IIIII@Z 00408d50 f   bdma_type9.obj
 0001:00007d60       ?BDMA_Type9_Write_7@@YAXPAVMPE@@IIIII@Z 00408d60 f   bdma_type9.obj
 0001:00007d70       ?BDMA_Type9_Read_0@@YAXPAVMPE@@IIIII@Z 00408d70 f   bdma_type9.obj
 0001:00007d80       ?BDMA_Type9_Read_1@@YAXPAVMPE@@IIIII@Z 00408d80 f   bdma_type9.obj
 0001:00007d90       ?BDMA_Type9_Read_2@@YAXPAVMPE@@IIIII@Z 00408d90 f   bdma_type9.obj
 0001:00007da0       ?BDMA_Type9_Read_3@@YAXPAVMPE@@IIIII@Z 00408da0 f   bdma_type9.obj
 0001:00007db0       ?BDMA_Type9_Read_4@@YAXPAVMPE@@IIIII@Z 00408db0 f   bdma_type9.obj
 0001:00007dc0       ?BDMA_Type9_Read_5@@YAXPAVMPE@@IIIII@Z 00408dc0 f   bdma_type9.obj
 0001:00007dd0       ?BDMA_Type9_Read_6@@YAXPAVMPE@@IIIII@Z 00408dd0 f   bdma_type9.obj
 0001:00007de0       ?BDMA_Type9_Read_7@@YAXPAVMPE@@IIIII@Z 00408de0 f   bdma_type9.obj
 0001:00007ff0       ?UnimplementedFileHandler@@YAXPAVMPE@@@Z 00408ff0 f   bios.obj
 0001:00008000       ?UnimplementedMediaHandler@@YAXPAVMPE@@@Z 00409000 f   bios.obj
 0001:00008030       ?UnimplementedCacheHandler@@YAXPAVMPE@@@Z 00409030 f   bios.obj
 0001:00008040       ?UnimplementedCommHandler@@YAXPAVMPE@@@Z 00409040 f   bios.obj
 0001:00008070       ?NullBiosHandler@@YAXPAVMPE@@@Z 00409070 f   bios.obj
 0001:00008080       ?AssemblyBiosHandler@@YAXPAVMPE@@@Z 00409080 f   bios.obj
 0001:00008090       ?SetISRExitHook@@YAXPAVMPE@@@Z 00409090 f   bios.obj
 0001:00008110       ?InstallCommHandler@@YA_NPAVMPE@@IPAI1@Z 00409110 f   bios.obj
 0001:000082b0       ?IntGetVector@@YAXPAVMPE@@@Z 004092b0 f   bios.obj
 0001:00008320       ?IntSetVector@@YAXPAVMPE@@@Z 00409320 f   bios.obj
 0001:000084b0       ?BiosExit@@YAXPAVMPE@@@Z   004094b0 f   bios.obj
 0001:000084e0       ?PatchJumptable@@YAIII@Z   004094e0 f   bios.obj
 0001:00008660       ?PatchJumptable@@YAXPAVMPE@@@Z 00409660 f   bios.obj
 0001:000086b0       ?BiosGetInfo@@YAXPAVMPE@@@Z 004096b0 f   bios.obj
 0001:000086c0       ?BiosPauseMsg@@YAXPAVMPE@@@Z 004096c0 f   bios.obj
 0001:00008730       ?BiosPoll@@YAXPAVMPE@@@Z   00409730 f   bios.obj
 0001:00008740       ?InitBios@@YAXPAVMPE@@@Z   00409740 f   bios.obj
 0001:00008a80       ?KPrintf@@YAXPAVMPE@@@Z    00409a80 f   bios.obj
 0001:00008de0       ?Halt@MPE@@QAEXXZ          00409de0 f i bios.obj
 0001:00008e10       ?SwapWordBytes@@YIXPAG@Z   00409e10 f   byteswap.obj
 0001:00008e40       ?SwapScalarBytes@@YIXPAI@Z 00409e40 f   byteswap.obj
 0001:00008e70       ?SwapShortVectorBytes@@YIXPAG@Z 00409e70 f   byteswap.obj
 0001:00008ec0       ?SwapVectorBytes@@YIXPAI@Z 00409ec0 f   byteswap.obj
 0001:00008f40       ?LoadCoffFile@MPE@@QAE_NPAD_NH@Z 00409f40 f   coff.obj
 0001:00009710       ?DoCommBusController@@YAXXZ 0040a710 f   comm.obj
 0001:00009d70       ?TriggerInterrupt@MPE@@QAEXI@Z 0040ad70 f i comm.obj
 0001:00009dc0       ?DecodeInstruction_ALU16@MPE@@QAEXPAEPAVInstructionCacheEntry@@PAI@Z 0040adc0 f   DecodeALU.obj
 0001:0000a7c0       ?DecodeInstruction_ALU32@MPE@@QAEXPAEPAVInstructionCacheEntry@@PAI@Z 0040b7c0 f   DecodeALU.obj
 0001:0000e390       ?DecodeInstruction_ECU16@MPE@@QAEXPAEPAVInstructionCacheEntry@@PAI@Z 0040f390 f   DecodeECU.obj
 0001:0000e870       ?DecodeInstruction_ECU32@MPE@@QAEXPAEPAVInstructionCacheEntry@@PAI@Z 0040f870 f   DecodeECU.obj
 0001:0000f210       ?DecodeInstruction_MEM16@MPE@@QAEXPAEPAVInstructionCacheEntry@@PAI@Z 00410210 f   DecodeMEM.obj
 0001:0000f9a0       ?DecodeInstruction_MEM32@MPE@@QAEXPAEPAVInstructionCacheEntry@@PAI@Z 004109a0 f   DecodeMEM.obj
 0001:00011690       ?GetControlRegisterInputDependencies@MPE@@QAEIIAA_N@Z 00412690 f   DecodeMEM.obj
 0001:000118d0       ?GetControlRegisterOutputDependencies@MPE@@QAEIIAA_N@Z 004128d0 f   DecodeMEM.obj
 0001:00012390       ?DecodeInstruction_MUL16@MPE@@QAEXPAEPAVInstructionCacheEntry@@PAI@Z 00413390 f   DecodeMUL.obj
 0001:00012520       ?DecodeInstruction_MUL32@MPE@@QAEXPAEPAVInstructionCacheEntry@@PAI@Z 00413520 f   DecodeMUL.obj
 0001:000134a0       ?DecodeInstruction_RCU16@MPE@@QAEXPAEPAVInstructionCacheEntry@@PAI@Z 004144a0 f   DecodeRCU.obj
 0001:00013bb0       ?UnimplementedBilinearDMAHandler@@YAXPAVMPE@@IIIII@Z 00414bb0 f   dma.obj
 0001:00013bc0       ?DMALinear@@YAXPAVMPE@@III@Z 00414bc0 f   dma.obj
 0001:00014710       ?DMALinear@@YAXPAVMPE@@@Z  00415710 f   dma.obj
 0001:00014790       ?DMABiLinear@@YAXPAVMPE@@IIIII@Z 00415790 f   dma.obj
 0001:00016180       ?DMABiLinear@@YAXPAVMPE@@@Z 00417180 f   dma.obj
 0001:00016230       ?DMADo@@YAXPAVMPE@@@Z      00417230 f   dma.obj
 0001:000164a0       ?DMAWait@@YAXPAVMPE@@@Z    004174a0 f   dma.obj
 0001:00016ef0       ?Emit_ABS@@YAXPAVEmitterVariables@@AAVNuance@@@Z 00417ef0 f   EmitALU.obj
 0001:00017280       ?Emit_BITSScalar@@YAXPAVEmitterVariables@@AAVNuance@@@Z 00418280 f   EmitALU.obj
 0001:00017500       ?Emit_BITSImmediate@@YAXPAVEmitterVariables@@AAVNuance@@@Z 00418500 f   EmitALU.obj
 0001:00017730       ?Emit_BTST@@YAXPAVEmitterVariables@@AAVNuance@@@Z 00418730 f   EmitALU.obj
 0001:000178c0       ?Emit_BUTT@@YAXPAVEmitterVariables@@AAVNuance@@@Z 004188c0 f   EmitALU.obj
 0001:00017be0       ?Emit_COPY@@YAXPAVEmitterVariables@@AAVNuance@@@Z 00418be0 f   EmitALU.obj
 0001:00017e00       ?Emit_MSB@@YAXPAVEmitterVariables@@AAVNuance@@@Z 00418e00 f   EmitALU.obj
 0001:000181f0       ?Emit_SAT@@YAXPAVEmitterVariables@@AAVNuance@@@Z 004191f0 f   EmitALU.obj
 0001:00018470       ?Emit_ADD_SV@@YAXPAVEmitterVariables@@AAVNuance@@@Z 00419470 f   EmitALU.obj
 0001:00018900       ?Emit_ADD_P@@YAXPAVEmitterVariables@@AAVNuance@@@Z 00419900 f   EmitALU.obj
 0001:00018ba0       ?Emit_SUB_SV@@YAXPAVEmitterVariables@@AAVNuance@@@Z 00419ba0 f   EmitALU.obj
 0001:000190c0       ?Emit_SUB_P@@YAXPAVEmitterVariables@@AAVNuance@@@Z 0041a0c0 f   EmitALU.obj
 0001:000193d0       ?Emit_ANDScalar@@YAXPAVEmitterVariables@@AAVNuance@@@Z 0041a3d0 f   EmitALU.obj
 0001:00019620       ?Emit_ANDImmediate@@YAXPAVEmitterVariables@@AAVNuance@@@Z 0041a620 f   EmitALU.obj
 0001:00019840       ?Emit_ANDImmediateShiftScalar@@YAXPAVEmitterVariables@@AAVNuance@@@Z 0041a840 f   EmitALU.obj
 0001:00019b60       ?Emit_ANDScalarShiftScalar@@YAXPAVEmitterVariables@@AAVNuance@@@Z 0041ab60 f   EmitALU.obj
 0001:00019eb0       ?Emit_ANDScalarRotateScalar@@YAXPAVEmitterVariables@@AAVNuance@@@Z 0041aeb0 f   EmitALU.obj
 0001:0001a200       ?Emit_ANDScalarShiftLeftImmediate@@YAXPAVEmitterVariables@@AAVNuance@@@Z 0041b200 f   EmitALU.obj
 0001:0001a440       ?Emit_ANDScalarShiftRightImmediate@@YAXPAVEmitterVariables@@AAVNuance@@@Z 0041b440 f   EmitALU.obj
 0001:0001a680       ?Emit_FTSTImmediate@@YAXPAVEmitterVariables@@AAVNuance@@@Z 0041b680 f   EmitALU.obj
 0001:0001a890       ?Emit_FTSTScalar@@YAXPAVEmitterVariables@@AAVNuance@@@Z 0041b890 f   EmitALU.obj
 0001:0001aaa0       ?Emit_FTSTImmediateShiftScalar@@YAXPAVEmitterVariables@@AAVNuance@@@Z 0041baa0 f   EmitALU.obj
 0001:0001ada0       ?Emit_FTSTScalarShiftScalar@@YAXPAVEmitterVariables@@AAVNuance@@@Z 0041bda0 f   EmitALU.obj
 0001:0001b0d0       ?Emit_FTSTScalarRotateScalar@@YAXPAVEmitterVariables@@AAVNuance@@@Z 0041c0d0 f   EmitALU.obj
 0001:0001b400       ?Emit_FTSTScalarShiftLeftImmediate@@YAXPAVEmitterVariables@@AAVNuance@@@Z 0041c400 f   EmitALU.obj
 0001:0001b620       ?Emit_FTSTScalarShiftRightImmediate@@YAXPAVEmitterVariables@@AAVNuance@@@Z 0041c620 f   EmitALU.obj
 0001:0001b840       ?Emit_ORImmediate@@YAXPAVEmitterVariables@@AAVNuance@@@Z 0041c840 f   EmitALU.obj
 0001:0001ba60       ?Emit_ORScalar@@YAXPAVEmitterVariables@@AAVNuance@@@Z 0041ca60 f   EmitALU.obj
 0001:0001bcb0       ?Emit_ORImmediateShiftScalar@@YAXPAVEmitterVariables@@AAVNuance@@@Z 0041ccb0 f   EmitALU.obj
 0001:0001bfd0       ?Emit_ORScalarShiftScalar@@YAXPAVEmitterVariables@@AAVNuance@@@Z 0041cfd0 f   EmitALU.obj
 0001:0001c320       ?Emit_ORScalarRotateScalar@@YAXPAVEmitterVariables@@AAVNuance@@@Z 0041d320 f   EmitALU.obj
 0001:0001c670       ?Emit_ORScalarShiftLeftImmediate@@YAXPAVEmitterVariables@@AAVNuance@@@Z 0041d670 f   EmitALU.obj
 0001:0001c8b0       ?Emit_ORScalarShiftRightImmediate@@YAXPAVEmitterVariables@@AAVNuance@@@Z 0041d8b0 f   EmitALU.obj
 0001:0001caf0       ?Emit_EORImmediate@@YAXPAVEmitterVariables@@AAVNuance@@@Z 0041daf0 f   EmitALU.obj
 0001:0001cd10       ?Emit_EORScalar@@YAXPAVEmitterVariables@@AAVNuance@@@Z 0041dd10 f   EmitALU.obj
 0001:0001cf60       ?Emit_EORImmediateShiftScalar@@YAXPAVEmitterVariables@@AAVNuance@@@Z 0041df60 f   EmitALU.obj
 0001:0001d280       ?Emit_EORScalarShiftScalar@@YAXPAVEmitterVariables@@AAVNuance@@@Z 0041e280 f   EmitALU.obj
 0001:0001d5d0       ?Emit_EORScalarRotateScalar@@YAXPAVEmitterVariables@@AAVNuance@@@Z 0041e5d0 f   EmitALU.obj
 0001:0001d920       ?Emit_EORScalarShiftLeftImmediate@@YAXPAVEmitterVariables@@AAVNuance@@@Z 0041e920 f   EmitALU.obj
 0001:0001db60       ?Emit_EORScalarShiftRightImmediate@@YAXPAVEmitterVariables@@AAVNuance@@@Z 0041eb60 f   EmitALU.obj
 0001:0001dda0       ?Emit_ADDImmediate@@YAXPAVEmitterVariables@@AAVNuance@@@Z 0041eda0 f   EmitALU.obj
 0001:0001e030       ?Emit_ADDScalar@@YAXPAVEmitterVariables@@AAVNuance@@@Z 0041f030 f   EmitALU.obj
 0001:0001e2f0       ?Emit_ADDScalarShiftLeftImmediate@@YAXPAVEmitterVariables@@AAVNuance@@@Z 0041f2f0 f   EmitALU.obj
 0001:0001e5c0       ?Emit_ADDScalarShiftRightImmediate@@YAXPAVEmitterVariables@@AAVNuance@@@Z 0041f5c0 f   EmitALU.obj
 0001:0001e890       ?Emit_SUBImmediate@@YAXPAVEmitterVariables@@AAVNuance@@@Z 0041f890 f   EmitALU.obj
 0001:0001eb20       ?Emit_SUBScalar@@YAXPAVEmitterVariables@@AAVNuance@@@Z 0041fb20 f   EmitALU.obj
 0001:0001ede0       ?Emit_SUBImmediateReverse@@YAXPAVEmitterVariables@@AAVNuance@@@Z 0041fde0 f   EmitALU.obj
 0001:0001f070       ?Emit_SUBScalarShiftLeftImmediate@@YAXPAVEmitterVariables@@AAVNuance@@@Z 00420070 f   EmitALU.obj
 0001:0001f340       ?Emit_SUBScalarShiftRightImmediate@@YAXPAVEmitterVariables@@AAVNuance@@@Z 00420340 f   EmitALU.obj
 0001:0001f610       ?Emit_CMPImmediate@@YAXPAVEmitterVariables@@AAVNuance@@@Z 00420610 f   EmitALU.obj
 0001:0001f880       ?Emit_CMPScalar@@YAXPAVEmitterVariables@@AAVNuance@@@Z 00420880 f   EmitALU.obj
 0001:0001fb10       ?Emit_CMPImmediateReverse@@YAXPAVEmitterVariables@@AAVNuance@@@Z 00420b10 f   EmitALU.obj
 0001:0001fd80       ?Emit_CMPScalarShiftLeftImmediate@@YAXPAVEmitterVariables@@AAVNuance@@@Z 00420d80 f   EmitALU.obj
 0001:00020030       ?Emit_CMPScalarShiftRightImmediate@@YAXPAVEmitterVariables@@AAVNuance@@@Z 00421030 f   EmitALU.obj
 0001:000202e0       ?Emit_ROT@@YAXPAVEmitterVariables@@AAVNuance@@@Z 004212e0 f   EmitALU.obj
 0001:00020600       ?Emit_ROL@@YAXPAVEmitterVariables@@AAVNuance@@@Z 00421600 f   EmitALU.obj
 0001:00020810       ?Emit_ROR@@YAXPAVEmitterVariables@@AAVNuance@@@Z 00421810 f   EmitALU.obj
 0001:00020a20       ?Emit_AS@@YAXPAVEmitterVariables@@AAVNuance@@@Z 00421a20 f   EmitALU.obj
 0001:00020df0       ?Emit_ASL@@YAXPAVEmitterVariables@@AAVNuance@@@Z 00421df0 f   EmitALU.obj
 0001:00021060       ?Emit_ASR@@YAXPAVEmitterVariables@@AAVNuance@@@Z 00422060 f   EmitALU.obj
 0001:000212d0       ?Emit_LS@@YAXPAVEmitterVariables@@AAVNuance@@@Z 004222d0 f   EmitALU.obj
 0001:000216a0       ?Emit_LSR@@YAXPAVEmitterVariables@@AAVNuance@@@Z 004226a0 f   EmitALU.obj
 0001:00021910       ?Emit_ADDWCImmediate@@YAXPAVEmitterVariables@@AAVNuance@@@Z 00422910 f   EmitALU.obj
 0001:00021bd0       ?Emit_ADDWCScalar@@YAXPAVEmitterVariables@@AAVNuance@@@Z 00422bd0 f   EmitALU.obj
 0001:00021ec0       ?Emit_ADDWCScalarShiftLeftImmediate@@YAXPAVEmitterVariables@@AAVNuance@@@Z 00422ec0 f   EmitALU.obj
 0001:000221c0       ?Emit_ADDWCScalarShiftRightImmediate@@YAXPAVEmitterVariables@@AAVNuance@@@Z 004231c0 f   EmitALU.obj
 0001:000224c0       ?Emit_SUBWCImmediate@@YAXPAVEmitterVariables@@AAVNuance@@@Z 004234c0 f   EmitALU.obj
 0001:00022780       ?Emit_SUBWCImmediateReverse@@YAXPAVEmitterVariables@@AAVNuance@@@Z 00423780 f   EmitALU.obj
 0001:00022a40       ?Emit_SUBWCScalar@@YAXPAVEmitterVariables@@AAVNuance@@@Z 00423a40 f   EmitALU.obj
 0001:00022d30       ?Emit_SUBWCScalarShiftLeftImmediate@@YAXPAVEmitterVariables@@AAVNuance@@@Z 00423d30 f   EmitALU.obj
 0001:00023030       ?Emit_SUBWCScalarShiftRightImmediate@@YAXPAVEmitterVariables@@AAVNuance@@@Z 00424030 f   EmitALU.obj
 0001:00023330       ?Emit_CMPWCImmediate@@YAXPAVEmitterVariables@@AAVNuance@@@Z 00424330 f   EmitALU.obj
 0001:000235d0       ?Emit_CMPWCImmediateReverse@@YAXPAVEmitterVariables@@AAVNuance@@@Z 004245d0 f   EmitALU.obj
 0001:00023870       ?Emit_CMPWCScalar@@YAXPAVEmitterVariables@@AAVNuance@@@Z 00424870 f   EmitALU.obj
 0001:00023b40       ?Emit_CMPWCScalarShiftLeftImmediate@@YAXPAVEmitterVariables@@AAVNuance@@@Z 00424b40 f   EmitALU.obj
 0001:00023e20       ?Emit_CMPWCScalarShiftRightImmediate@@YAXPAVEmitterVariables@@AAVNuance@@@Z 00424e20 f   EmitALU.obj
 0001:00027580       ?GetScalarRegReadBaseReg@@YA?AW4x86BaseReg@@PAVEmitterVariables@@I@Z 00428580 f i EmitALU.obj
 0001:000275b0       ?GetScalarRegWriteBaseReg@@YA?AW4x86BaseReg@@PAVEmitterVariables@@I@Z 004285b0 f i EmitALU.obj
 0001:000275c0       ?GetMiscRegReadBaseReg@@YA?AW4x86BaseReg@@PAVEmitterVariables@@I@Z 004285c0 f i EmitALU.obj
 0001:00027620       ?GetMiscRegWriteBaseReg@@YA?AW4x86BaseReg@@PAVEmitterVariables@@I@Z 00428620 f i EmitALU.obj
 0001:00027630       ?GetMiscRegEmitDisp@@YAHPAVEmitterVariables@@I@Z 00428630 f i EmitALU.obj
 0001:00027640       ?GetScalarRegEmitDisp@@YAHPAVEmitterVariables@@I@Z 00428640 f i EmitALU.obj
 0001:00027660       ?Reset@PatchManager@@QAEXXZ 00428660 f i EmitALU.obj
 0001:000276a0       ?SetLabelPointer@PatchManager@@QAEXIPAE@Z 004286a0 f i EmitALU.obj
 0001:000276f0       ?GetEmitLoc@EmitterVariables@@QAEPAEXZ 004286f0 f i EmitALU.obj
 0001:00027710       ?EmitConditionCheck@@YAXPAVEmitterVariables@@III@Z 00428710 f   EmitECU.obj
 0001:00027e80       ?Emit_BRAAlways@@YAXPAVEmitterVariables@@AAVNuance@@@Z 00428e80 f   EmitECU.obj
 0001:00027fa0       ?Emit_BRAAlways_NOP@@YAXPAVEmitterVariables@@AAVNuance@@@Z 00428fa0 f   EmitECU.obj
 0001:000280d0       ?Emit_BRAConditional@@YAXPAVEmitterVariables@@AAVNuance@@@Z 004290d0 f   EmitECU.obj
 0001:00028210       ?Emit_BRAConditional_NOP@@YAXPAVEmitterVariables@@AAVNuance@@@Z 00429210 f   EmitECU.obj
 0001:00028350       ?Emit_JMPAlwaysIndirect@@YAXPAVEmitterVariables@@AAVNuance@@@Z 00429350 f   EmitECU.obj
 0001:00028490       ?Emit_JMPAlwaysIndirect_NOP@@YAXPAVEmitterVariables@@AAVNuance@@@Z 00429490 f   EmitECU.obj
 0001:000285d0       ?Emit_JMPConditionalIndirect@@YAXPAVEmitterVariables@@AAVNuance@@@Z 004295d0 f   EmitECU.obj
 0001:00028740       ?Emit_JMPConditionalIndirect_NOP@@YAXPAVEmitterVariables@@AAVNuance@@@Z 00429740 f   EmitECU.obj
 0001:000288c0       ?Emit_JSRAlways@@YAXPAVEmitterVariables@@AAVNuance@@@Z 004298c0 f   EmitECU.obj
 0001:00028a00       ?Emit_JSRAlways_NOP@@YAXPAVEmitterVariables@@AAVNuance@@@Z 00429a00 f   EmitECU.obj
 0001:00028b50       ?Emit_JSRConditional@@YAXPAVEmitterVariables@@AAVNuance@@@Z 00429b50 f   EmitECU.obj
 0001:00028cd0       ?Emit_JSRConditional_NOP@@YAXPAVEmitterVariables@@AAVNuance@@@Z 00429cd0 f   EmitECU.obj
 0001:00028e60       ?Emit_JSRAlwaysIndirect@@YAXPAVEmitterVariables@@AAVNuance@@@Z 00429e60 f   EmitECU.obj
 0001:00028fe0       ?Emit_JSRAlwaysIndirect_NOP@@YAXPAVEmitterVariables@@AAVNuance@@@Z 00429fe0 f   EmitECU.obj
 0001:00029170       ?Emit_JSRConditionalIndirect@@YAXPAVEmitterVariables@@AAVNuance@@@Z 0042a170 f   EmitECU.obj
 0001:00029330       ?Emit_JSRConditionalIndirect_NOP@@YAXPAVEmitterVariables@@AAVNuance@@@Z 0042a330 f   EmitECU.obj
 0001:00029500       ?Emit_RTSAlways@@YAXPAVEmitterVariables@@AAVNuance@@@Z 0042a500 f   EmitECU.obj
 0001:00029630       ?Emit_RTSAlways_NOP@@YAXPAVEmitterVariables@@AAVNuance@@@Z 0042a630 f   EmitECU.obj
 0001:00029770       ?Emit_RTSConditional@@YAXPAVEmitterVariables@@AAVNuance@@@Z 0042a770 f   EmitECU.obj
 0001:000298e0       ?Emit_RTSConditional_NOP@@YAXPAVEmitterVariables@@AAVNuance@@@Z 0042a8e0 f   EmitECU.obj
 0001:00029a60       ?Emit_RTI1Conditional@@YAXPAVEmitterVariables@@AAVNuance@@@Z 0042aa60 f   EmitECU.obj
 0001:00029c00       ?Emit_RTI1Conditional_NOP@@YAXPAVEmitterVariables@@AAVNuance@@@Z 0042ac00 f   EmitECU.obj
 0001:00029da0       ?Emit_RTI2Conditional@@YAXPAVEmitterVariables@@AAVNuance@@@Z 0042ada0 f   EmitECU.obj
 0001:00029f40       ?Emit_RTI2Conditional_NOP@@YAXPAVEmitterVariables@@AAVNuance@@@Z 0042af40 f   EmitECU.obj
 0001:0002ab60       ?Emit_Mirror@@YAXPAVEmitterVariables@@AAVNuance@@@Z 0042bb60 f   EmitMEM.obj
 0001:0002add0       ?Emit_MV_SImmediate@@YAXPAVEmitterVariables@@AAVNuance@@@Z 0042bdd0 f   EmitMEM.obj
 0001:0002ae60       ?Emit_MV_SScalar@@YAXPAVEmitterVariables@@AAVNuance@@@Z 0042be60 f   EmitMEM.obj
 0001:0002af30       ?Emit_MV_V@@YAXPAVEmitterVariables@@AAVNuance@@@Z 0042bf30 f   EmitMEM.obj
 0001:0002b170       ?Emit_LoadByteAbsolute@@YAXPAVEmitterVariables@@AAVNuance@@@Z 0042c170 f   EmitMEM.obj
 0001:0002b220       ?Emit_LoadByteLinear@@YAXPAVEmitterVariables@@AAVNuance@@@Z 0042c220 f   EmitMEM.obj
 0001:0002b4c0       ?Emit_LoadByteBilinearXY@@YAXPAVEmitterVariables@@AAVNuance@@@Z 0042c4c0 f   EmitMEM.obj
 0001:0002b7a0       ?Emit_LoadByteBilinearUV@@YAXPAVEmitterVariables@@AAVNuance@@@Z 0042c7a0 f   EmitMEM.obj
 0001:0002ba80       ?Emit_LoadWordAbsolute@@YAXPAVEmitterVariables@@AAVNuance@@@Z 0042ca80 f   EmitMEM.obj
 0001:0002bb30       ?Emit_LoadWordLinear@@YAXPAVEmitterVariables@@AAVNuance@@@Z 0042cb30 f   EmitMEM.obj
 0001:0002bde0       ?Emit_LoadWordBilinearXY@@YAXPAVEmitterVariables@@AAVNuance@@@Z 0042cde0 f   EmitMEM.obj
 0001:0002c0d0       ?Emit_LoadWordBilinearUV@@YAXPAVEmitterVariables@@AAVNuance@@@Z 0042d0d0 f   EmitMEM.obj
 0001:0002c3c0       ?Emit_LoadScalarAbsolute@@YAXPAVEmitterVariables@@AAVNuance@@@Z 0042d3c0 f   EmitMEM.obj
 0001:0002c470       ?Emit_LoadScalarControlRegisterAbsolute@@YAXPAVEmitterVariables@@AAVNuance@@@Z 0042d470 f   EmitMEM.obj
 0001:0002c510       ?Emit_LoadScalarLinear@@YAXPAVEmitterVariables@@AAVNuance@@@Z 0042d510 f   EmitMEM.obj
 0001:0002c720       ?Emit_LoadScalarBilinearXY@@YAXPAVEmitterVariables@@AAVNuance@@@Z 0042d720 f   EmitMEM.obj
 0001:0002c980       ?Emit_LoadScalarBilinearUV@@YAXPAVEmitterVariables@@AAVNuance@@@Z 0042d980 f   EmitMEM.obj
 0001:0002cbe0       ?Emit_LoadShortVectorAbsolute@@YAXPAVEmitterVariables@@AAVNuance@@@Z 0042dbe0 f   EmitMEM.obj
 0001:0002cda0       ?Emit_LoadShortVectorLinear@@YAXPAVEmitterVariables@@AAVNuance@@@Z 0042dda0 f   EmitMEM.obj
 0001:0002cff0       ?Emit_LoadShortVectorBilinearXY@@YAXPAVEmitterVariables@@AAVNuance@@@Z 0042dff0 f   EmitMEM.obj
 0001:0002d360       ?Emit_LoadShortVectorBilinearUV@@YAXPAVEmitterVariables@@AAVNuance@@@Z 0042e360 f   EmitMEM.obj
 0001:0002d6d0       ?Emit_LoadVectorAbsolute@@YAXPAVEmitterVariables@@AAVNuance@@@Z 0042e6d0 f   EmitMEM.obj
 0001:0002d840       ?Emit_LoadVectorLinear@@YAXPAVEmitterVariables@@AAVNuance@@@Z 0042e840 f   EmitMEM.obj
 0001:0002db20       ?Emit_LoadVectorBilinearXY@@YAXPAVEmitterVariables@@AAVNuance@@@Z 0042eb20 f   EmitMEM.obj
 0001:0002de30       ?Emit_LoadVectorBilinearUV@@YAXPAVEmitterVariables@@AAVNuance@@@Z 0042ee30 f   EmitMEM.obj
 0001:0002e140       ?Emit_LoadPixelAbsolute@@YAXPAVEmitterVariables@@AAVNuance@@@Z 0042f140 f   EmitMEM.obj
 0001:0002e260       ?Emit_LoadPixelZAbsolute@@YAXPAVEmitterVariables@@AAVNuance@@@Z 0042f260 f   EmitMEM.obj
 0001:0002e380       ?Emit_LoadPixelLinear@@YAXPAVEmitterVariables@@AAVNuance@@@Z 0042f380 f   EmitMEM.obj
 0001:0002e550       ?Emit_LoadPixelZLinear@@YAXPAVEmitterVariables@@AAVNuance@@@Z 0042f550 f   EmitMEM.obj
 0001:0002e720       ?Emit_LoadPixelBilinearUV@@YAXPAVEmitterVariables@@AAVNuance@@@Z 0042f720 f   EmitMEM.obj
 0001:0002e9d0       ?Emit_LoadPixelZBilinearUV@@YAXPAVEmitterVariables@@AAVNuance@@@Z 0042f9d0 f   EmitMEM.obj
 0001:0002ec80       ?Emit_LoadPixelBilinearXY@@YAXPAVEmitterVariables@@AAVNuance@@@Z 0042fc80 f   EmitMEM.obj
 0001:0002ef30       ?Emit_LoadPixelZBilinearXY@@YAXPAVEmitterVariables@@AAVNuance@@@Z 0042ff30 f   EmitMEM.obj
 0001:0002f1e0       ?Emit_StoreScalarImmediate@@YAXPAVEmitterVariables@@AAVNuance@@@Z 004301e0 f   EmitMEM.obj
 0001:0002f270       ?Emit_StoreScalarControlRegisterImmediate@@YAXPAVEmitterVariables@@AAVNuance@@@Z 00430270 f   EmitMEM.obj
 0001:0002f2c0       ?Emit_StoreScalarControlRegisterAbsolute@@YAXPAVEmitterVariables@@AAVNuance@@@Z 004302c0 f   EmitMEM.obj
 0001:0002f350       ?Emit_StoreScalarAbsolute@@YAXPAVEmitterVariables@@AAVNuance@@@Z 00430350 f   EmitMEM.obj
 0001:0002f3f0       ?Emit_StoreScalarLinear@@YAXPAVEmitterVariables@@AAVNuance@@@Z 004303f0 f   EmitMEM.obj
 0001:0002f600       ?Emit_StoreScalarBilinearXY@@YAXPAVEmitterVariables@@AAVNuance@@@Z 00430600 f   EmitMEM.obj
 0001:0002f860       ?Emit_StoreScalarBilinearUV@@YAXPAVEmitterVariables@@AAVNuance@@@Z 00430860 f   EmitMEM.obj
 0001:0002fac0       ?Emit_StoreShortVectorAbsolute@@YAXPAVEmitterVariables@@AAVNuance@@@Z 00430ac0 f   EmitMEM.obj
 0001:0002fc70       ?Emit_StoreShortVectorLinear@@YAXPAVEmitterVariables@@AAVNuance@@@Z 00430c70 f   EmitMEM.obj
 0001:0002fec0       ?Emit_StoreShortVectorBilinearXY@@YAXPAVEmitterVariables@@AAVNuance@@@Z 00430ec0 f   EmitMEM.obj
 0001:00030210       ?Emit_StoreShortVectorBilinearUV@@YAXPAVEmitterVariables@@AAVNuance@@@Z 00431210 f   EmitMEM.obj
 0001:00030560       ?Emit_StoreVectorAbsolute@@YAXPAVEmitterVariables@@AAVNuance@@@Z 00431560 f   EmitMEM.obj
 0001:00030710       ?Emit_StoreVectorLinear@@YAXPAVEmitterVariables@@AAVNuance@@@Z 00431710 f   EmitMEM.obj
 0001:00030a10       ?Emit_StorePixelAbsolute@@YAXPAVEmitterVariables@@AAVNuance@@@Z 00431a10 f   EmitMEM.obj
 0001:00030b30       ?Emit_StoreVectorBilinearXY@@YAXPAVEmitterVariables@@AAVNuance@@@Z 00431b30 f   EmitMEM.obj
 0001:00030e80       ?Emit_StoreVectorBilinearUV@@YAXPAVEmitterVariables@@AAVNuance@@@Z 00431e80 f   EmitMEM.obj
 0001:000311d0       ?Emit_StorePixelZAbsolute@@YAXPAVEmitterVariables@@AAVNuance@@@Z 004321d0 f   EmitMEM.obj
 0001:000312f0       ?Emit_StorePixelLinear@@YAXPAVEmitterVariables@@AAVNuance@@@Z 004322f0 f   EmitMEM.obj
 0001:00031490       ?Emit_StorePixelZLinear@@YAXPAVEmitterVariables@@AAVNuance@@@Z 00432490 f   EmitMEM.obj
 0001:000316e0       ?Emit_StorePixelBilinearUV@@YAXPAVEmitterVariables@@AAVNuance@@@Z 004326e0 f   EmitMEM.obj
 0001:00031960       ?Emit_StorePixelZBilinearUV@@YAXPAVEmitterVariables@@AAVNuance@@@Z 00432960 f   EmitMEM.obj
 0001:00031be0       ?Emit_StorePixelBilinearXY@@YAXPAVEmitterVariables@@AAVNuance@@@Z 00432be0 f   EmitMEM.obj
 0001:00031e60       ?Emit_StorePixelZBilinearXY@@YAXPAVEmitterVariables@@AAVNuance@@@Z 00432e60 f   EmitMEM.obj
 0001:000320e0       ?Emit_PushVector@@YAXPAVEmitterVariables@@AAVNuance@@@Z 004330e0 f   EmitMEM.obj
 0001:000322f0       ?Emit_PushVectorRz@@YAXPAVEmitterVariables@@AAVNuance@@@Z 004332f0 f   EmitMEM.obj
 0001:00032510       ?Emit_PushScalarRzi1@@YAXPAVEmitterVariables@@AAVNuance@@@Z 00433510 f   EmitMEM.obj
 0001:00032740       ?Emit_PushScalarRzi2@@YAXPAVEmitterVariables@@AAVNuance@@@Z 00433740 f   EmitMEM.obj
 0001:00032970       ?Emit_PopVector@@YAXPAVEmitterVariables@@AAVNuance@@@Z 00433970 f   EmitMEM.obj
 0001:00032b50       ?Emit_PopVectorRz@@YAXPAVEmitterVariables@@AAVNuance@@@Z 00433b50 f   EmitMEM.obj
 0001:00032d40       ?Emit_PopScalarRzi1@@YAXPAVEmitterVariables@@AAVNuance@@@Z 00433d40 f   EmitMEM.obj
 0001:00032f80       ?Emit_PopScalarRzi2@@YAXPAVEmitterVariables@@AAVNuance@@@Z 00433f80 f   EmitMEM.obj
 0001:000331c0       ?EmitControlRegisterLoad@@YAXPAVEmitterVariables@@IW4x86Reg@@@Z 004341c0 f   EmitMEM.obj
 0001:00033810       ?EmitControlRegisterStore@@YAXPAVEmitterVariables@@IW4x86Reg@@@Z 00434810 f   EmitMEM.obj
 0001:00034170       ?EmitControlRegisterStoreImmediate@@YAXPAVEmitterVariables@@II@Z 00435170 f   EmitMEM.obj
 0001:00036fa0       ?GetEmitPointer@NativeCodeCache@@QAEPAEXZ 00437fa0 f i EmitMEM.obj
 0001:00036fc0       ?GetBasePointer@FlashEEPROM@@QAEPAEXZ 00437fc0 f i EmitMEM.obj
 0001:00036fe0       ?Emit_NOP@@YAXPAVEmitterVariables@@AAVNuance@@@Z 00437fe0 f   EmitMisc.obj
 0001:00036ff0       ?Emit_ExitBlock@@YAXPAVEmitterVariables@@@Z 00437ff0 f   EmitMisc.obj
 0001:00037030       ?Emit_SaveRegs@@YAXPAVEmitterVariables@@AAVNuance@@@Z 00438030 f   EmitMisc.obj
 0001:000372d0       ?Emit_StoreScalarRegisterConstant@@YAXPAVEmitterVariables@@AAVNuance@@@Z 004382d0 f   EmitMisc.obj
 0001:000373e0       ?Emit_StoreMiscRegisterConstant@@YAXPAVEmitterVariables@@AAVNuance@@@Z 004383e0 f   EmitMisc.obj
 0001:00037680       ?Emit_ADDM@@YAXPAVEmitterVariables@@AAVNuance@@@Z 00438680 f   EmitMUL.obj
 0001:000377a0       ?Emit_ADDMImmediate@@YAXPAVEmitterVariables@@AAVNuance@@@Z 004387a0 f   EmitMUL.obj
 0001:00037880       ?Emit_SUBM@@YAXPAVEmitterVariables@@AAVNuance@@@Z 00438880 f   EmitMUL.obj
 0001:000379c0       ?Emit_SUBMImmediateReverse@@YAXPAVEmitterVariables@@AAVNuance@@@Z 004389c0 f   EmitMUL.obj
 0001:00037aa0       ?Emit_MULScalarShiftAcshift@@YAXPAVEmitterVariables@@AAVNuance@@@Z 00438aa0 f   EmitMUL.obj
 0001:00037fb0       ?Emit_MULScalarShiftRightImmediate@@YAXPAVEmitterVariables@@AAVNuance@@@Z 00438fb0 f   EmitMUL.obj
 0001:00038250       ?Emit_MULScalarShiftLeftImmediate@@YAXPAVEmitterVariables@@AAVNuance@@@Z 00439250 f   EmitMUL.obj
 0001:000384f0       ?Emit_MULImmediateShiftAcshift@@YAXPAVEmitterVariables@@AAVNuance@@@Z 004394f0 f   EmitMUL.obj
 0001:000389c0       ?Emit_MULScalarShiftScalar@@YAXPAVEmitterVariables@@AAVNuance@@@Z 004399c0 f   EmitMUL.obj
 0001:00038ed0       ?Emit_MULImmediateShiftScalar@@YAXPAVEmitterVariables@@AAVNuance@@@Z 00439ed0 f   EmitMUL.obj
 0001:000393e0       ?Emit_MULImmediateShiftRightImmediate@@YAXPAVEmitterVariables@@AAVNuance@@@Z 0043a3e0 f   EmitMUL.obj
 0001:00039650       ?Emit_MULImmediateShiftLeftImmediate@@YAXPAVEmitterVariables@@AAVNuance@@@Z 0043a650 f   EmitMUL.obj
 0001:000398d0       ?Emit_MUL_SVImmediateShiftImmediate@@YAXPAVEmitterVariables@@AAVNuance@@@Z 0043a8d0 f   EmitMUL.obj
 0001:00039b60       ?Emit_MUL_SVScalarShiftImmediate@@YAXPAVEmitterVariables@@AAVNuance@@@Z 0043ab60 f   EmitMUL.obj
 0001:00039e30       ?Emit_MUL_SVScalarShiftSvshift@@YAXPAVEmitterVariables@@AAVNuance@@@Z 0043ae30 f   EmitMUL.obj
 0001:0003a160       ?Emit_MUL_SVRuShiftImmediate@@YAXPAVEmitterVariables@@AAVNuance@@@Z 0043b160 f   EmitMUL.obj
 0001:0003a4a0       ?Emit_MUL_SVRuShiftSvshift@@YAXPAVEmitterVariables@@AAVNuance@@@Z 0043b4a0 f   EmitMUL.obj
 0001:0003a840       ?Emit_MUL_SVRvShiftImmediate@@YAXPAVEmitterVariables@@AAVNuance@@@Z 0043b840 f   EmitMUL.obj
 0001:0003ab80       ?Emit_MUL_SVRvShiftSvshift@@YAXPAVEmitterVariables@@AAVNuance@@@Z 0043bb80 f   EmitMUL.obj
 0001:0003af20       ?Emit_MUL_SVVectorShiftImmediate@@YAXPAVEmitterVariables@@AAVNuance@@@Z 0043bf20 f   EmitMUL.obj
 0001:0003b320       ?Emit_MUL_SVVectorShiftSvshift@@YAXPAVEmitterVariables@@AAVNuance@@@Z 0043c320 f   EmitMUL.obj
 0001:0003b740       ?Emit_MUL_PImmediateShiftImmediate@@YAXPAVEmitterVariables@@AAVNuance@@@Z 0043c740 f   EmitMUL.obj
 0001:0003b960       ?Emit_MUL_PScalarShiftImmediate@@YAXPAVEmitterVariables@@AAVNuance@@@Z 0043c960 f   EmitMUL.obj
 0001:0003bbb0       ?Emit_MUL_PScalarShiftSvshift@@YAXPAVEmitterVariables@@AAVNuance@@@Z 0043cbb0 f   EmitMUL.obj
 0001:0003be50       ?Emit_MUL_PRuShiftImmediate@@YAXPAVEmitterVariables@@AAVNuance@@@Z 0043ce50 f   EmitMUL.obj
 0001:0003c110       ?Emit_MUL_PRuShiftSvshift@@YAXPAVEmitterVariables@@AAVNuance@@@Z 0043d110 f   EmitMUL.obj
 0001:0003c420       ?Emit_MUL_PRvShiftImmediate@@YAXPAVEmitterVariables@@AAVNuance@@@Z 0043d420 f   EmitMUL.obj
 0001:0003c6e0       ?Emit_MUL_PRvShiftSvshift@@YAXPAVEmitterVariables@@AAVNuance@@@Z 0043d6e0 f   EmitMUL.obj
 0001:0003ca00       ?Emit_MUL_PVectorShiftImmediate@@YAXPAVEmitterVariables@@AAVNuance@@@Z 0043da00 f   EmitMUL.obj
 0001:0003ccf0       ?Emit_MUL_PVectorShiftSvshift@@YAXPAVEmitterVariables@@AAVNuance@@@Z 0043dcf0 f   EmitMUL.obj
 0001:0003d010       ?Emit_DOTPScalarShiftImmediate@@YAXPAVEmitterVariables@@AAVNuance@@@Z 0043e010 f   EmitMUL.obj
 0001:0003d280       ?Emit_DOTPScalarShiftSvshift@@YAXPAVEmitterVariables@@AAVNuance@@@Z 0043e280 f   EmitMUL.obj
 0001:0003d550       ?Emit_DOTPVectorShiftImmediate@@YAXPAVEmitterVariables@@AAVNuance@@@Z 0043e550 f   EmitMUL.obj
 0001:0003d890       ?Emit_DOTPVectorShiftSvshift@@YAXPAVEmitterVariables@@AAVNuance@@@Z 0043e890 f   EmitMUL.obj
 0001:0003f5a0       ?Emit_DECRc0@@YAXPAVEmitterVariables@@AAVNuance@@@Z 004405a0 f   EmitRCU.obj
 0001:0003f720       ?Emit_DECRc1@@YAXPAVEmitterVariables@@AAVNuance@@@Z 00440720 f   EmitRCU.obj
 0001:0003f8a0       ?Emit_DECBoth@@YAXPAVEmitterVariables@@AAVNuance@@@Z 004408a0 f   EmitRCU.obj
 0001:0003f990       ?Emit_DEC@@YAXPAVEmitterVariables@@AAVNuance@@@Z 00440990 f   EmitRCU.obj
 0001:0003f9e0       ?Emit_ADDRImmediateOnly@@YAXPAVEmitterVariables@@AAVNuance@@@Z 004409e0 f   EmitRCU.obj
 0001:0003faa0       ?Emit_ADDRImmediate@@YAXPAVEmitterVariables@@AAVNuance@@@Z 00440aa0 f   EmitRCU.obj
 0001:0003fad0       ?Emit_ADDRScalarOnly@@YAXPAVEmitterVariables@@AAVNuance@@@Z 00440ad0 f   EmitRCU.obj
 0001:0003fbd0       ?Emit_ADDRScalar@@YAXPAVEmitterVariables@@AAVNuance@@@Z 00440bd0 f   EmitRCU.obj
 0001:0003fc00       ?Emit_MVRImmediateOnly@@YAXPAVEmitterVariables@@AAVNuance@@@Z 00440c00 f   EmitRCU.obj
 0001:0003fc90       ?Emit_MVRImmediate@@YAXPAVEmitterVariables@@AAVNuance@@@Z 00440c90 f   EmitRCU.obj
 0001:0003fcc0       ?Emit_MVRScalarOnly@@YAXPAVEmitterVariables@@AAVNuance@@@Z 00440cc0 f   EmitRCU.obj
 0001:0003fd90       ?Emit_MVRScalar@@YAXPAVEmitterVariables@@AAVNuance@@@Z 00440d90 f   EmitRCU.obj
 0001:0003fdc0       ?Emit_RangeOnly@@YAXPAVEmitterVariables@@AAVNuance@@@Z 00440dc0 f   EmitRCU.obj
 0001:000401a0       ?Emit_Range@@YAXPAVEmitterVariables@@AAVNuance@@@Z 004411a0 f   EmitRCU.obj
 0001:000401d0       ?Emit_ModuloOnly@@YAXPAVEmitterVariables@@AAVNuance@@@Z 004411d0 f   EmitRCU.obj
 0001:00040270       ?Emit_Modulo@@YAXPAVEmitterVariables@@AAVNuance@@@Z 00441270 f   EmitRCU.obj
 0001:000405e0       ?Execute_ABS@@YAXAAVMPE@@AAVInstructionCacheEntry@@AAVNuance@@@Z 004415e0 f   ExecuteALU.obj
 0001:00040690       ?Execute_BITSScalar@@YAXAAVMPE@@AAVInstructionCacheEntry@@AAVNuance@@@Z 00441690 f   ExecuteALU.obj
 0001:00040730       ?Execute_BITSImmediate@@YAXAAVMPE@@AAVInstructionCacheEntry@@AAVNuance@@@Z 00441730 f   ExecuteALU.obj
 0001:000407c0       ?Execute_BTST@@YAXAAVMPE@@AAVInstructionCacheEntry@@AAVNuance@@@Z 004417c0 f   ExecuteALU.obj
 0001:00040810       ?Execute_BUTT@@YAXAAVMPE@@AAVInstructionCacheEntry@@AAVNuance@@@Z 00441810 f   ExecuteALU.obj
 0001:00040980       ?Execute_COPY@@YAXAAVMPE@@AAVInstructionCacheEntry@@AAVNuance@@@Z 00441980 f   ExecuteALU.obj
 0001:00040a00       ?Execute_MSB@@YAXAAVMPE@@AAVInstructionCacheEntry@@AAVNuance@@@Z 00441a00 f   ExecuteALU.obj
 0001:00040b30       ?Execute_SAT@@YAXAAVMPE@@AAVInstructionCacheEntry@@AAVNuance@@@Z 00441b30 f   ExecuteALU.obj
 0001:00040c20       ?Execute_AS@@YAXAAVMPE@@AAVInstructionCacheEntry@@AAVNuance@@@Z 00441c20 f   ExecuteALU.obj
 0001:00040d90       ?Execute_ASL@@YAXAAVMPE@@AAVInstructionCacheEntry@@AAVNuance@@@Z 00441d90 f   ExecuteALU.obj
 0001:00040e50       ?Execute_ASR@@YAXAAVMPE@@AAVInstructionCacheEntry@@AAVNuance@@@Z 00441e50 f   ExecuteALU.obj
 0001:00040f00       ?Execute_LS@@YAXAAVMPE@@AAVInstructionCacheEntry@@AAVNuance@@@Z 00441f00 f   ExecuteALU.obj
 0001:00041070       ?Execute_LSR@@YAXAAVMPE@@AAVInstructionCacheEntry@@AAVNuance@@@Z 00442070 f   ExecuteALU.obj
 0001:00041120       ?Execute_ROT@@YAXAAVMPE@@AAVInstructionCacheEntry@@AAVNuance@@@Z 00442120 f   ExecuteALU.obj
 0001:00041260       ?Execute_ROL@@YAXAAVMPE@@AAVInstructionCacheEntry@@AAVNuance@@@Z 00442260 f   ExecuteALU.obj
 0001:00041310       ?Execute_ROR@@YAXAAVMPE@@AAVInstructionCacheEntry@@AAVNuance@@@Z 00442310 f   ExecuteALU.obj
 0001:000413c0       ?Execute_ADD_P@@YAXAAVMPE@@AAVInstructionCacheEntry@@AAVNuance@@@Z 004423c0 f   ExecuteALU.obj
 0001:00041490       ?Execute_SUB_P@@YAXAAVMPE@@AAVInstructionCacheEntry@@AAVNuance@@@Z 00442490 f   ExecuteALU.obj
 0001:00041560       ?Execute_ADD_SV@@YAXAAVMPE@@AAVInstructionCacheEntry@@AAVNuance@@@Z 00442560 f   ExecuteALU.obj
 0001:00041660       ?Execute_SUB_SV@@YAXAAVMPE@@AAVInstructionCacheEntry@@AAVNuance@@@Z 00442660 f   ExecuteALU.obj
 0001:00041760       ?Execute_ADDImmediate@@YAXAAVMPE@@AAVInstructionCacheEntry@@AAVNuance@@@Z 00442760 f   ExecuteALU.obj
 0001:000418a0       ?Execute_ADDScalar@@YAXAAVMPE@@AAVInstructionCacheEntry@@AAVNuance@@@Z 004428a0 f   ExecuteALU.obj
 0001:000419f0       ?Execute_ADDScalarShiftRightImmediate@@YAXAAVMPE@@AAVInstructionCacheEntry@@AAVNuance@@@Z 004429f0 f   ExecuteALU.obj
 0001:00041b40       ?Execute_ADDScalarShiftLeftImmediate@@YAXAAVMPE@@AAVInstructionCacheEntry@@AAVNuance@@@Z 00442b40 f   ExecuteALU.obj
 0001:00041c90       ?Execute_SUBImmediate@@YAXAAVMPE@@AAVInstructionCacheEntry@@AAVNuance@@@Z 00442c90 f   ExecuteALU.obj
 0001:00041dd0       ?Execute_SUBImmediateReverse@@YAXAAVMPE@@AAVInstructionCacheEntry@@AAVNuance@@@Z 00442dd0 f   ExecuteALU.obj
 0001:00041f10       ?Execute_SUBScalar@@YAXAAVMPE@@AAVInstructionCacheEntry@@AAVNuance@@@Z 00442f10 f   ExecuteALU.obj
 0001:00042060       ?Execute_SUBScalarShiftRightImmediate@@YAXAAVMPE@@AAVInstructionCacheEntry@@AAVNuance@@@Z 00443060 f   ExecuteALU.obj
 0001:000421b0       ?Execute_SUBScalarShiftLeftImmediate@@YAXAAVMPE@@AAVInstructionCacheEntry@@AAVNuance@@@Z 004431b0 f   ExecuteALU.obj
 0001:00042300       ?Execute_CMPImmediate@@YAXAAVMPE@@AAVInstructionCacheEntry@@AAVNuance@@@Z 00443300 f   ExecuteALU.obj
 0001:00042430       ?Execute_CMPImmediateReverse@@YAXAAVMPE@@AAVInstructionCacheEntry@@AAVNuance@@@Z 00443430 f   ExecuteALU.obj
 0001:00042560       ?Execute_CMPScalar@@YAXAAVMPE@@AAVInstructionCacheEntry@@AAVNuance@@@Z 00443560 f   ExecuteALU.obj
 0001:000426a0       ?Execute_CMPScalarShiftRightImmediate@@YAXAAVMPE@@AAVInstructionCacheEntry@@AAVNuance@@@Z 004436a0 f   ExecuteALU.obj
 0001:000427e0       ?Execute_CMPScalarShiftLeftImmediate@@YAXAAVMPE@@AAVInstructionCacheEntry@@AAVNuance@@@Z 004437e0 f   ExecuteALU.obj
 0001:00042920       ?Execute_ANDImmediate@@YAXAAVMPE@@AAVInstructionCacheEntry@@AAVNuance@@@Z 00443920 f   ExecuteALU.obj
 0001:000429c0       ?Execute_ANDScalar@@YAXAAVMPE@@AAVInstructionCacheEntry@@AAVNuance@@@Z 004439c0 f   ExecuteALU.obj
 0001:00042a70       ?Execute_ANDImmediateShiftScalar@@YAXAAVMPE@@AAVInstructionCacheEntry@@AAVNuance@@@Z 00443a70 f   ExecuteALU.obj
 0001:00042b50       ?Execute_ANDScalarShiftRightImmediate@@YAXAAVMPE@@AAVInstructionCacheEntry@@AAVNuance@@@Z 00443b50 f   ExecuteALU.obj
 0001:00042c10       ?Execute_ANDScalarShiftLeftImmediate@@YAXAAVMPE@@AAVInstructionCacheEntry@@AAVNuance@@@Z 00443c10 f   ExecuteALU.obj
 0001:00042cd0       ?Execute_ANDScalarShiftScalar@@YAXAAVMPE@@AAVInstructionCacheEntry@@AAVNuance@@@Z 00443cd0 f   ExecuteALU.obj
 0001:00042dc0       ?Execute_ANDScalarRotateScalar@@YAXAAVMPE@@AAVInstructionCacheEntry@@AAVNuance@@@Z 00443dc0 f   ExecuteALU.obj
 0001:00042ec0       ?Execute_FTSTImmediate@@YAXAAVMPE@@AAVInstructionCacheEntry@@AAVNuance@@@Z 00443ec0 f   ExecuteALU.obj
 0001:00042f50       ?Execute_FTSTScalar@@YAXAAVMPE@@AAVInstructionCacheEntry@@AAVNuance@@@Z 00443f50 f   ExecuteALU.obj
 0001:00042ff0       ?Execute_FTSTImmediateShiftScalar@@YAXAAVMPE@@AAVInstructionCacheEntry@@AAVNuance@@@Z 00443ff0 f   ExecuteALU.obj
 0001:000430c0       ?Execute_FTSTScalarShiftRightImmediate@@YAXAAVMPE@@AAVInstructionCacheEntry@@AAVNuance@@@Z 004440c0 f   ExecuteALU.obj
 0001:00043170       ?Execute_FTSTScalarShiftLeftImmediate@@YAXAAVMPE@@AAVInstructionCacheEntry@@AAVNuance@@@Z 00444170 f   ExecuteALU.obj
 0001:00043220       ?Execute_FTSTScalarShiftScalar@@YAXAAVMPE@@AAVInstructionCacheEntry@@AAVNuance@@@Z 00444220 f   ExecuteALU.obj
 0001:00043300       ?Execute_FTSTScalarRotateScalar@@YAXAAVMPE@@AAVInstructionCacheEntry@@AAVNuance@@@Z 00444300 f   ExecuteALU.obj
 0001:000433f0       ?Execute_ORImmediate@@YAXAAVMPE@@AAVInstructionCacheEntry@@AAVNuance@@@Z 004443f0 f   ExecuteALU.obj
 0001:00043490       ?Execute_ORScalar@@YAXAAVMPE@@AAVInstructionCacheEntry@@AAVNuance@@@Z 00444490 f   ExecuteALU.obj
 0001:00043540       ?Execute_ORImmediateShiftScalar@@YAXAAVMPE@@AAVInstructionCacheEntry@@AAVNuance@@@Z 00444540 f   ExecuteALU.obj
 0001:00043620       ?Execute_ORScalarShiftRightImmediate@@YAXAAVMPE@@AAVInstructionCacheEntry@@AAVNuance@@@Z 00444620 f   ExecuteALU.obj
 0001:000436e0       ?Execute_ORScalarShiftLeftImmediate@@YAXAAVMPE@@AAVInstructionCacheEntry@@AAVNuance@@@Z 004446e0 f   ExecuteALU.obj
 0001:000437a0       ?Execute_ORScalarShiftScalar@@YAXAAVMPE@@AAVInstructionCacheEntry@@AAVNuance@@@Z 004447a0 f   ExecuteALU.obj
 0001:00043890       ?Execute_ORScalarRotateScalar@@YAXAAVMPE@@AAVInstructionCacheEntry@@AAVNuance@@@Z 00444890 f   ExecuteALU.obj
 0001:00043990       ?Execute_EORImmediate@@YAXAAVMPE@@AAVInstructionCacheEntry@@AAVNuance@@@Z 00444990 f   ExecuteALU.obj
 0001:00043a30       ?Execute_EORScalar@@YAXAAVMPE@@AAVInstructionCacheEntry@@AAVNuance@@@Z 00444a30 f   ExecuteALU.obj
 0001:00043ae0       ?Execute_EORImmediateShiftScalar@@YAXAAVMPE@@AAVInstructionCacheEntry@@AAVNuance@@@Z 00444ae0 f   ExecuteALU.obj
 0001:00043bc0       ?Execute_EORScalarShiftRightImmediate@@YAXAAVMPE@@AAVInstructionCacheEntry@@AAVNuance@@@Z 00444bc0 f   ExecuteALU.obj
 0001:00043c80       ?Execute_EORScalarShiftLeftImmediate@@YAXAAVMPE@@AAVInstructionCacheEntry@@AAVNuance@@@Z 00444c80 f   ExecuteALU.obj
 0001:00043d40       ?Execute_EORScalarShiftScalar@@YAXAAVMPE@@AAVInstructionCacheEntry@@AAVNuance@@@Z 00444d40 f   ExecuteALU.obj
 0001:00043e30       ?Execute_EORScalarRotateScalar@@YAXAAVMPE@@AAVInstructionCacheEntry@@AAVNuance@@@Z 00444e30 f   ExecuteALU.obj
 0001:00043f30       ?Execute_ADDWCImmediate@@YAXAAVMPE@@AAVInstructionCacheEntry@@AAVNuance@@@Z 00444f30 f   ExecuteALU.obj
 0001:00044090       ?Execute_ADDWCScalar@@YAXAAVMPE@@AAVInstructionCacheEntry@@AAVNuance@@@Z 00445090 f   ExecuteALU.obj
 0001:000441f0       ?Execute_ADDWCScalarShiftRightImmediate@@YAXAAVMPE@@AAVInstructionCacheEntry@@AAVNuance@@@Z 004451f0 f   ExecuteALU.obj
 0001:00044360       ?Execute_ADDWCScalarShiftLeftImmediate@@YAXAAVMPE@@AAVInstructionCacheEntry@@AAVNuance@@@Z 00445360 f   ExecuteALU.obj
 0001:000444d0       ?Execute_SUBWCImmediate@@YAXAAVMPE@@AAVInstructionCacheEntry@@AAVNuance@@@Z 004454d0 f   ExecuteALU.obj
 0001:00044630       ?Execute_SUBWCImmediateReverse@@YAXAAVMPE@@AAVInstructionCacheEntry@@AAVNuance@@@Z 00445630 f   ExecuteALU.obj
 0001:00044790       ?Execute_SUBWCScalar@@YAXAAVMPE@@AAVInstructionCacheEntry@@AAVNuance@@@Z 00445790 f   ExecuteALU.obj
 0001:000448f0       ?Execute_SUBWCScalarShiftRightImmediate@@YAXAAVMPE@@AAVInstructionCacheEntry@@AAVNuance@@@Z 004458f0 f   ExecuteALU.obj
 0001:00044a60       ?Execute_SUBWCScalarShiftLeftImmediate@@YAXAAVMPE@@AAVInstructionCacheEntry@@AAVNuance@@@Z 00445a60 f   ExecuteALU.obj
 0001:00044bd0       ?Execute_CMPWCImmediate@@YAXAAVMPE@@AAVInstructionCacheEntry@@AAVNuance@@@Z 00445bd0 f   ExecuteALU.obj
 0001:00044d20       ?Execute_CMPWCImmediateReverse@@YAXAAVMPE@@AAVInstructionCacheEntry@@AAVNuance@@@Z 00445d20 f   ExecuteALU.obj
 0001:00044e70       ?Execute_CMPWCScalar@@YAXAAVMPE@@AAVInstructionCacheEntry@@AAVNuance@@@Z 00445e70 f   ExecuteALU.obj
 0001:00044fc0       ?Execute_CMPWCScalarShiftRightImmediate@@YAXAAVMPE@@AAVInstructionCacheEntry@@AAVNuance@@@Z 00445fc0 f   ExecuteALU.obj
 0001:00045120       ?Execute_CMPWCScalarShiftLeftImmediate@@YAXAAVMPE@@AAVInstructionCacheEntry@@AAVNuance@@@Z 00446120 f   ExecuteALU.obj
 0001:000465a0       ?Execute_ECU_NOP@@YAXAAVMPE@@AAVInstructionCacheEntry@@AAVNuance@@@Z 004475a0 f   ExecuteECU.obj
 0001:000465b0       ?Execute_Halt@@YAXAAVMPE@@AAVInstructionCacheEntry@@AAVNuance@@@Z 004475b0 f   ExecuteECU.obj
 0001:00046630       ?Execute_BRAAlways@@YAXAAVMPE@@AAVInstructionCacheEntry@@AAVNuance@@@Z 00447630 f   ExecuteECU.obj
 0001:00046660       ?Execute_BRAAlways_NOP@@YAXAAVMPE@@AAVInstructionCacheEntry@@AAVNuance@@@Z 00447660 f   ExecuteECU.obj
 0001:00046690       ?Execute_BRAConditional@@YAXAAVMPE@@AAVInstructionCacheEntry@@AAVNuance@@@Z 00447690 f   ExecuteECU.obj
 0001:000466e0       ?Execute_BRAConditional_NOP@@YAXAAVMPE@@AAVInstructionCacheEntry@@AAVNuance@@@Z 004476e0 f   ExecuteECU.obj
 0001:00046730       ?Execute_JMPAlwaysIndirect@@YAXAAVMPE@@AAVInstructionCacheEntry@@AAVNuance@@@Z 00447730 f   ExecuteECU.obj
 0001:00046770       ?Execute_JMPAlwaysIndirect_NOP@@YAXAAVMPE@@AAVInstructionCacheEntry@@AAVNuance@@@Z 00447770 f   ExecuteECU.obj
 0001:000467b0       ?Execute_JMPConditionalIndirect@@YAXAAVMPE@@AAVInstructionCacheEntry@@AAVNuance@@@Z 004477b0 f   ExecuteECU.obj
 0001:00046810       ?Execute_JMPConditionalIndirect_NOP@@YAXAAVMPE@@AAVInstructionCacheEntry@@AAVNuance@@@Z 00447810 f   ExecuteECU.obj
 0001:00046870       ?Execute_JSRAlways@@YAXAAVMPE@@AAVInstructionCacheEntry@@AAVNuance@@@Z 00447870 f   ExecuteECU.obj
 0001:000468b0       ?Execute_JSRAlways_NOP@@YAXAAVMPE@@AAVInstructionCacheEntry@@AAVNuance@@@Z 004478b0 f   ExecuteECU.obj
 0001:000468f0       ?Execute_JSRConditional@@YAXAAVMPE@@AAVInstructionCacheEntry@@AAVNuance@@@Z 004478f0 f   ExecuteECU.obj
 0001:00046950       ?Execute_JSRConditional_NOP@@YAXAAVMPE@@AAVInstructionCacheEntry@@AAVNuance@@@Z 00447950 f   ExecuteECU.obj
 0001:000469b0       ?Execute_JSRAlwaysIndirect@@YAXAAVMPE@@AAVInstructionCacheEntry@@AAVNuance@@@Z 004479b0 f   ExecuteECU.obj
 0001:00046a00       ?Execute_JSRAlwaysIndirect_NOP@@YAXAAVMPE@@AAVInstructionCacheEntry@@AAVNuance@@@Z 00447a00 f   ExecuteECU.obj
 0001:00046a50       ?Execute_JSRConditionalIndirect@@YAXAAVMPE@@AAVInstructionCacheEntry@@AAVNuance@@@Z 00447a50 f   ExecuteECU.obj
 0001:00046ac0       ?Execute_JSRConditionalIndirect_NOP@@YAXAAVMPE@@AAVInstructionCacheEntry@@AAVNuance@@@Z 00447ac0 f   ExecuteECU.obj
 0001:00046b30       ?Execute_RTSAlways@@YAXAAVMPE@@AAVInstructionCacheEntry@@AAVNuance@@@Z 00447b30 f   ExecuteECU.obj
 0001:00046b60       ?Execute_RTSAlways_NOP@@YAXAAVMPE@@AAVInstructionCacheEntry@@AAVNuance@@@Z 00447b60 f   ExecuteECU.obj
 0001:00046b90       ?Execute_RTSConditional@@YAXAAVMPE@@AAVInstructionCacheEntry@@AAVNuance@@@Z 00447b90 f   ExecuteECU.obj
 0001:00046be0       ?Execute_RTSConditional_NOP@@YAXAAVMPE@@AAVInstructionCacheEntry@@AAVNuance@@@Z 00447be0 f   ExecuteECU.obj
 0001:00046c30       ?Execute_RTI1Conditional@@YAXAAVMPE@@AAVInstructionCacheEntry@@AAVNuance@@@Z 00447c30 f   ExecuteECU.obj
 0001:00046ca0       ?Execute_RTI1Conditional_NOP@@YAXAAVMPE@@AAVInstructionCacheEntry@@AAVNuance@@@Z 00447ca0 f   ExecuteECU.obj
 0001:00046d10       ?Execute_RTI2Conditional@@YAXAAVMPE@@AAVInstructionCacheEntry@@AAVNuance@@@Z 00447d10 f   ExecuteECU.obj
 0001:00046d80       ?Execute_RTI2Conditional_NOP@@YAXAAVMPE@@AAVInstructionCacheEntry@@AAVNuance@@@Z 00447d80 f   ExecuteECU.obj
 0001:00047050       ?GetBilinearAddress@@YAXXZ 00448050 f   ExecuteMEM.obj
 0001:000471f0       ?Execute_Mirror@@YAXAAVMPE@@AAVInstructionCacheEntry@@AAVNuance@@@Z 004481f0 f   ExecuteMEM.obj
 0001:000472a0       ?Execute_MV_SImmediate@@YAXAAVMPE@@AAVInstructionCacheEntry@@AAVNuance@@@Z 004482a0 f   ExecuteMEM.obj
 0001:000472c0       ?Execute_MV_SScalar@@YAXAAVMPE@@AAVInstructionCacheEntry@@AAVNuance@@@Z 004482c0 f   ExecuteMEM.obj
 0001:000472f0       ?Execute_MV_V@@YAXAAVMPE@@AAVInstructionCacheEntry@@AAVNuance@@@Z 004482f0 f   ExecuteMEM.obj
 0001:00047380       ?Execute_PopVector@@YAXAAVMPE@@AAVInstructionCacheEntry@@AAVNuance@@@Z 00448380 f   ExecuteMEM.obj
 0001:00047470       ?Execute_PopVectorRz@@YAXAAVMPE@@AAVInstructionCacheEntry@@AAVNuance@@@Z 00448470 f   ExecuteMEM.obj
 0001:00047570       ?Execute_PopScalarRzi1@@YAXAAVMPE@@AAVInstructionCacheEntry@@AAVNuance@@@Z 00448570 f   ExecuteMEM.obj
 0001:00047660       ?Execute_PopScalarRzi2@@YAXAAVMPE@@AAVInstructionCacheEntry@@AAVNuance@@@Z 00448660 f   ExecuteMEM.obj
 0001:00047750       ?Execute_PushVector@@YAXAAVMPE@@AAVInstructionCacheEntry@@AAVNuance@@@Z 00448750 f   ExecuteMEM.obj
 0001:00047850       ?Execute_PushVectorRz@@YAXAAVMPE@@AAVInstructionCacheEntry@@AAVNuance@@@Z 00448850 f   ExecuteMEM.obj
 0001:00047950       ?Execute_PushScalarRzi1@@YAXAAVMPE@@AAVInstructionCacheEntry@@AAVNuance@@@Z 00448950 f   ExecuteMEM.obj
 0001:00047a40       ?Execute_PushScalarRzi2@@YAXAAVMPE@@AAVInstructionCacheEntry@@AAVNuance@@@Z 00448a40 f   ExecuteMEM.obj
 0001:00047b30       ?Execute_LoadScalarControlRegisterAbsolute@@YAXAAVMPE@@AAVInstructionCacheEntry@@AAVNuance@@@Z 00448b30 f   ExecuteMEM.obj
 0001:00047b70       ?Execute_LoadByteAbsolute@@YAXAAVMPE@@AAVInstructionCacheEntry@@AAVNuance@@@Z 00448b70 f   ExecuteMEM.obj
 0001:00047bb0       ?Execute_LoadWordAbsolute@@YAXAAVMPE@@AAVInstructionCacheEntry@@AAVNuance@@@Z 00448bb0 f   ExecuteMEM.obj
 0001:00047bf0       ?Execute_LoadScalarAbsolute@@YAXAAVMPE@@AAVInstructionCacheEntry@@AAVNuance@@@Z 00448bf0 f   ExecuteMEM.obj
 0001:00047c70       ?Execute_LoadScalarLinear@@YAXAAVMPE@@AAVInstructionCacheEntry@@AAVNuance@@@Z 00448c70 f   ExecuteMEM.obj
 0001:00047d60       ?Execute_LoadVectorAbsolute@@YAXAAVMPE@@AAVInstructionCacheEntry@@AAVNuance@@@Z 00448d60 f   ExecuteMEM.obj
 0001:00047dd0       ?Execute_LoadVectorControlRegisterAbsolute@@YAXAAVMPE@@AAVInstructionCacheEntry@@AAVNuance@@@Z 00448dd0 f   ExecuteMEM.obj
 0001:00047e90       ?LoadPixelAbsolute@@YAXXZ  00448e90 f   ExecuteMEM.obj
 0001:000480e0       ?Execute_LoadPixelAbsolute@@YAXAAVMPE@@AAVInstructionCacheEntry@@AAVNuance@@@Z 004490e0 f   ExecuteMEM.obj
 0001:000483f0       ?LoadPixelZAbsolute@@YAXXZ 004493f0 f   ExecuteMEM.obj
 0001:00048700       ?Execute_LoadPixelZAbsolute@@YAXAAVMPE@@AAVInstructionCacheEntry@@AAVNuance@@@Z 00449700 f   ExecuteMEM.obj
 0001:00048af0       ?Execute_LoadByteLinear@@YAXAAVMPE@@AAVInstructionCacheEntry@@AAVNuance@@@Z 00449af0 f   ExecuteMEM.obj
 0001:00048b60       ?Execute_LoadByteBilinearUV@@YAXAAVMPE@@AAVInstructionCacheEntry@@AAVNuance@@@Z 00449b60 f   ExecuteMEM.obj
 0001:00048c70       ?Execute_LoadByteBilinearXY@@YAXAAVMPE@@AAVInstructionCacheEntry@@AAVNuance@@@Z 00449c70 f   ExecuteMEM.obj
 0001:00048d80       ?Execute_LoadWordLinear@@YAXAAVMPE@@AAVInstructionCacheEntry@@AAVNuance@@@Z 00449d80 f   ExecuteMEM.obj
 0001:00048e10       ?Execute_LoadWordBilinearUV@@YAXAAVMPE@@AAVInstructionCacheEntry@@AAVNuance@@@Z 00449e10 f   ExecuteMEM.obj
 0001:00048f20       ?Execute_LoadWordBilinearXY@@YAXAAVMPE@@AAVInstructionCacheEntry@@AAVNuance@@@Z 00449f20 f   ExecuteMEM.obj
 0001:00049030       ?Execute_LoadScalarBilinearUV@@YAXAAVMPE@@AAVInstructionCacheEntry@@AAVNuance@@@Z 0044a030 f   ExecuteMEM.obj
 0001:00049140       ?Execute_LoadScalarBilinearXY@@YAXAAVMPE@@AAVInstructionCacheEntry@@AAVNuance@@@Z 0044a140 f   ExecuteMEM.obj
 0001:00049250       ?Execute_LoadShortVectorAbsolute@@YAXAAVMPE@@AAVInstructionCacheEntry@@AAVNuance@@@Z 0044a250 f   ExecuteMEM.obj
 0001:00049360       ?Execute_LoadShortVectorLinear@@YAXAAVMPE@@AAVInstructionCacheEntry@@AAVNuance@@@Z 0044a360 f   ExecuteMEM.obj
 0001:00049480       ?Execute_LoadShortVectorBilinearUV@@YAXAAVMPE@@AAVInstructionCacheEntry@@AAVNuance@@@Z 0044a480 f   ExecuteMEM.obj
 0001:00049590       ?Execute_LoadShortVectorBilinearXY@@YAXAAVMPE@@AAVInstructionCacheEntry@@AAVNuance@@@Z 0044a590 f   ExecuteMEM.obj
 0001:00049690       ?Execute_LoadVectorLinear@@YAXAAVMPE@@AAVInstructionCacheEntry@@AAVNuance@@@Z 0044a690 f   ExecuteMEM.obj
 0001:000497b0       ?Execute_LoadVectorBilinearUV@@YAXAAVMPE@@AAVInstructionCacheEntry@@AAVNuance@@@Z 0044a7b0 f   ExecuteMEM.obj
 0001:000498c0       ?Execute_LoadVectorBilinearXY@@YAXAAVMPE@@AAVInstructionCacheEntry@@AAVNuance@@@Z 0044a8c0 f   ExecuteMEM.obj
 0001:000499d0       ?Execute_LoadPixelLinear@@YAXAAVMPE@@AAVInstructionCacheEntry@@AAVNuance@@@Z 0044a9d0 f   ExecuteMEM.obj
 0001:00049a90       ?Execute_LoadPixelBilinearUV@@YAXAAVMPE@@AAVInstructionCacheEntry@@AAVNuance@@@Z 0044aa90 f   ExecuteMEM.obj
 0001:00049bd0       ?Execute_LoadPixelBilinearXY@@YAXAAVMPE@@AAVInstructionCacheEntry@@AAVNuance@@@Z 0044abd0 f   ExecuteMEM.obj
 0001:00049d10       ?Execute_LoadPixelZLinear@@YAXAAVMPE@@AAVInstructionCacheEntry@@AAVNuance@@@Z 0044ad10 f   ExecuteMEM.obj
 0001:00049dd0       ?Execute_LoadPixelZBilinearUV@@YAXAAVMPE@@AAVInstructionCacheEntry@@AAVNuance@@@Z 0044add0 f   ExecuteMEM.obj
 0001:00049ee0       ?Execute_LoadPixelZBilinearXY@@YAXAAVMPE@@AAVInstructionCacheEntry@@AAVNuance@@@Z 0044aee0 f   ExecuteMEM.obj
 0001:00049ff0       ?Execute_StoreScalarImmediate@@YAXAAVMPE@@AAVInstructionCacheEntry@@AAVNuance@@@Z 0044aff0 f   ExecuteMEM.obj
 0001:0004a030       ?Execute_StoreScalarAbsolute@@YAXAAVMPE@@AAVInstructionCacheEntry@@AAVNuance@@@Z 0044b030 f   ExecuteMEM.obj
 0001:0004a070       ?Execute_StoreScalarControlRegisterImmediate@@YAXAAVMPE@@AAVInstructionCacheEntry@@AAVNuance@@@Z 0044b070 f   ExecuteMEM.obj
 0001:0004a0b0       ?Execute_StoreScalarLinear@@YAXAAVMPE@@AAVInstructionCacheEntry@@AAVNuance@@@Z 0044b0b0 f   ExecuteMEM.obj
 0001:0004a180       ?Execute_StoreScalarBilinearUV@@YAXAAVMPE@@AAVInstructionCacheEntry@@AAVNuance@@@Z 0044b180 f   ExecuteMEM.obj
 0001:0004a290       ?Execute_StoreScalarBilinearXY@@YAXAAVMPE@@AAVInstructionCacheEntry@@AAVNuance@@@Z 0044b290 f   ExecuteMEM.obj
 0001:0004a3a0       ?Execute_StoreScalarControlRegisterAbsolute@@YAXAAVMPE@@AAVInstructionCacheEntry@@AAVNuance@@@Z 0044b3a0 f   ExecuteMEM.obj
 0001:0004a3f0       ?Execute_StoreVectorControlRegisterAbsolute@@YAXAAVMPE@@AAVInstructionCacheEntry@@AAVNuance@@@Z 0044b3f0 f   ExecuteMEM.obj
 0001:0004a490       ?StorePixelAbsolute@@YAXXZ 0044b490 f   ExecuteMEM.obj
 0001:0004a6b0       ?Execute_StorePixelAbsolute@@YAXAAVMPE@@AAVInstructionCacheEntry@@AAVNuance@@@Z 0044b6b0 f   ExecuteMEM.obj
 0001:0004a980       ?StorePixelZAbsolute@@YAXXZ 0044b980 f   ExecuteMEM.obj
 0001:0004ace0       ?Execute_StorePixelZAbsolute@@YAXAAVMPE@@AAVInstructionCacheEntry@@AAVNuance@@@Z 0044bce0 f   ExecuteMEM.obj
 0001:0004b140       ?Execute_StoreShortVectorAbsolute@@YAXAAVMPE@@AAVInstructionCacheEntry@@AAVNuance@@@Z 0044c140 f   ExecuteMEM.obj
 0001:0004b1d0       ?Execute_StoreShortVectorLinear@@YAXAAVMPE@@AAVInstructionCacheEntry@@AAVNuance@@@Z 0044c1d0 f   ExecuteMEM.obj
 0001:0004b280       ?Execute_StoreShortVectorBilinearUV@@YAXAAVMPE@@AAVInstructionCacheEntry@@AAVNuance@@@Z 0044c280 f   ExecuteMEM.obj
 0001:0004b390       ?Execute_StoreShortVectorBilinearXY@@YAXAAVMPE@@AAVInstructionCacheEntry@@AAVNuance@@@Z 0044c390 f   ExecuteMEM.obj
 0001:0004b4a0       ?Execute_StoreVectorAbsolute@@YAXAAVMPE@@AAVInstructionCacheEntry@@AAVNuance@@@Z 0044c4a0 f   ExecuteMEM.obj
 0001:0004b530       ?Execute_StoreVectorLinear@@YAXAAVMPE@@AAVInstructionCacheEntry@@AAVNuance@@@Z 0044c530 f   ExecuteMEM.obj
 0001:0004b660       ?Execute_StoreVectorBilinearUV@@YAXAAVMPE@@AAVInstructionCacheEntry@@AAVNuance@@@Z 0044c660 f   ExecuteMEM.obj
 0001:0004b770       ?Execute_StoreVectorBilinearXY@@YAXAAVMPE@@AAVInstructionCacheEntry@@AAVNuance@@@Z 0044c770 f   ExecuteMEM.obj
 0001:0004b880       ?Execute_StorePixelLinear@@YAXAAVMPE@@AAVInstructionCacheEntry@@AAVNuance@@@Z 0044c880 f   ExecuteMEM.obj
 0001:0004b940       ?Execute_StorePixelBilinearUV@@YAXAAVMPE@@AAVInstructionCacheEntry@@AAVNuance@@@Z 0044c940 f   ExecuteMEM.obj
 0001:0004ba50       ?Execute_StorePixelBilinearXY@@YAXAAVMPE@@AAVInstructionCacheEntry@@AAVNuance@@@Z 0044ca50 f   ExecuteMEM.obj
 0001:0004bb60       ?Execute_StorePixelZLinear@@YAXAAVMPE@@AAVInstructionCacheEntry@@AAVNuance@@@Z 0044cb60 f   ExecuteMEM.obj
 0001:0004bc20       ?Execute_StorePixelZBilinearUV@@YAXAAVMPE@@AAVInstructionCacheEntry@@AAVNuance@@@Z 0044cc20 f   ExecuteMEM.obj
 0001:0004bd30       ?Execute_StorePixelZBilinearXY@@YAXAAVMPE@@AAVInstructionCacheEntry@@AAVNuance@@@Z 0044cd30 f   ExecuteMEM.obj
 0001:0004d1b0       ?CalculateBilinearAddress@@YAXAAVMPE@@PAIIII@Z 0044e1b0 f i ExecuteMEM.obj
 0001:0004d2f0       ?GetPointerToMemoryBank@MPE@@QAEPAEI@Z 0044e2f0 f i ExecuteMEM.obj
 0001:0004d330       ?SaturateColorComponents@@YAXPAI00_N@Z 0044e330 f i ExecuteMEM.obj
 0001:0004d5f0       ?Execute_CheckECUSkipCounter@@YAXAAVMPE@@AAVInstructionCacheEntry@@AAVNuance@@@Z 0044e5f0 f   ExecuteMisc.obj
 0001:0004d630       ?Execute_SaveFlags@@YAXAAVMPE@@AAVInstructionCacheEntry@@AAVNuance@@@Z 0044e630 f   ExecuteMisc.obj
 0001:0004d660       ?Execute_SaveRegs@@YAXAAVMPE@@AAVInstructionCacheEntry@@AAVNuance@@@Z 0044e660 f   ExecuteMisc.obj
 0001:0004d7e0       ?Execute_StoreScalarRegisterConstant@@YAXAAVMPE@@AAVInstructionCacheEntry@@AAVNuance@@@Z 0044e7e0 f   ExecuteMisc.obj
 0001:0004d840       ?Execute_StoreMiscRegisterConstant@@YAXAAVMPE@@AAVInstructionCacheEntry@@AAVNuance@@@Z 0044e840 f   ExecuteMisc.obj
 0001:0004daf0       ?Execute_ADDM@@YAXAAVMPE@@AAVInstructionCacheEntry@@AAVNuance@@@Z 0044eaf0 f   ExecuteMUL.obj
 0001:0004db30       ?Execute_ADDMImmediate@@YAXAAVMPE@@AAVInstructionCacheEntry@@AAVNuance@@@Z 0044eb30 f   ExecuteMUL.obj
 0001:0004db60       ?Execute_SUBM@@YAXAAVMPE@@AAVInstructionCacheEntry@@AAVNuance@@@Z 0044eb60 f   ExecuteMUL.obj
 0001:0004dba0       ?Execute_SUBMImmediateReverse@@YAXAAVMPE@@AAVInstructionCacheEntry@@AAVNuance@@@Z 0044eba0 f   ExecuteMUL.obj
 0001:0004dbd0       ?Execute_MULScalarShiftAcshift@@YAXAAVMPE@@AAVInstructionCacheEntry@@AAVNuance@@@Z 0044ebd0 f   ExecuteMUL.obj
 0001:0004dd40       ?Execute_MULScalarShiftRightImmediate@@YAXAAVMPE@@AAVInstructionCacheEntry@@AAVNuance@@@Z 0044ed40 f   ExecuteMUL.obj
 0001:0004de80       ?Execute_MULScalarShiftLeftImmediate@@YAXAAVMPE@@AAVInstructionCacheEntry@@AAVNuance@@@Z 0044ee80 f   ExecuteMUL.obj
 0001:0004dfc0       ?Execute_MULImmediateShiftAcshift@@YAXAAVMPE@@AAVInstructionCacheEntry@@AAVNuance@@@Z 0044efc0 f   ExecuteMUL.obj
 0001:0004e130       ?Execute_MULScalarShiftScalar@@YAXAAVMPE@@AAVInstructionCacheEntry@@AAVNuance@@@Z 0044f130 f   ExecuteMUL.obj
 0001:0004e2b0       ?Execute_MULImmediateShiftScalar@@YAXAAVMPE@@AAVInstructionCacheEntry@@AAVNuance@@@Z 0044f2b0 f   ExecuteMUL.obj
 0001:0004e420       ?Execute_MULImmediateShiftRightImmediate@@YAXAAVMPE@@AAVInstructionCacheEntry@@AAVNuance@@@Z 0044f420 f   ExecuteMUL.obj
 0001:0004e550       ?Execute_MULImmediateShiftLeftImmediate@@YAXAAVMPE@@AAVInstructionCacheEntry@@AAVNuance@@@Z 0044f550 f   ExecuteMUL.obj
 0001:0004e680       ?Execute_MUL_SVImmediateShiftImmediate@@YAXAAVMPE@@AAVInstructionCacheEntry@@AAVNuance@@@Z 0044f680 f   ExecuteMUL.obj
 0001:0004e760       ?Execute_MUL_SVScalarShiftImmediate@@YAXAAVMPE@@AAVInstructionCacheEntry@@AAVNuance@@@Z 0044f760 f   ExecuteMUL.obj
 0001:0004e840       ?Execute_MUL_SVScalarShiftSvshift@@YAXAAVMPE@@AAVInstructionCacheEntry@@AAVNuance@@@Z 0044f840 f   ExecuteMUL.obj
 0001:0004e920       ?Execute_MUL_SVRuShiftImmediate@@YAXAAVMPE@@AAVInstructionCacheEntry@@AAVNuance@@@Z 0044f920 f   ExecuteMUL.obj
 0001:0004ea10       ?Execute_MUL_SVRuShiftSvshift@@YAXAAVMPE@@AAVInstructionCacheEntry@@AAVNuance@@@Z 0044fa10 f   ExecuteMUL.obj
 0001:0004eb00       ?Execute_MUL_SVRvShiftImmediate@@YAXAAVMPE@@AAVInstructionCacheEntry@@AAVNuance@@@Z 0044fb00 f   ExecuteMUL.obj
 0001:0004ebf0       ?Execute_MUL_SVRvShiftSvshift@@YAXAAVMPE@@AAVInstructionCacheEntry@@AAVNuance@@@Z 0044fbf0 f   ExecuteMUL.obj
 0001:0004ece0       ?Execute_MUL_SVVectorShiftImmediate@@YAXAAVMPE@@AAVInstructionCacheEntry@@AAVNuance@@@Z 0044fce0 f   ExecuteMUL.obj
 0001:0004ee50       ?Execute_MUL_SVVectorShiftSvshift@@YAXAAVMPE@@AAVInstructionCacheEntry@@AAVNuance@@@Z 0044fe50 f   ExecuteMUL.obj
 0001:0004efb0       ?Execute_MUL_PImmediateShiftImmediate@@YAXAAVMPE@@AAVInstructionCacheEntry@@AAVNuance@@@Z 0044ffb0 f   ExecuteMUL.obj
 0001:0004f060       ?Execute_MUL_PScalarShiftImmediate@@YAXAAVMPE@@AAVInstructionCacheEntry@@AAVNuance@@@Z 00450060 f   ExecuteMUL.obj
 0001:0004f120       ?Execute_MUL_PScalarShiftSvshift@@YAXAAVMPE@@AAVInstructionCacheEntry@@AAVNuance@@@Z 00450120 f   ExecuteMUL.obj
 0001:0004f1e0       ?Execute_MUL_PRuShiftImmediate@@YAXAAVMPE@@AAVInstructionCacheEntry@@AAVNuance@@@Z 004501e0 f   ExecuteMUL.obj
 0001:0004f2b0       ?Execute_MUL_PRuShiftSvshift@@YAXAAVMPE@@AAVInstructionCacheEntry@@AAVNuance@@@Z 004502b0 f   ExecuteMUL.obj
 0001:0004f380       ?Execute_MUL_PRvShiftImmediate@@YAXAAVMPE@@AAVInstructionCacheEntry@@AAVNuance@@@Z 00450380 f   ExecuteMUL.obj
 0001:0004f450       ?Execute_MUL_PRvShiftSvshift@@YAXAAVMPE@@AAVInstructionCacheEntry@@AAVNuance@@@Z 00450450 f   ExecuteMUL.obj
 0001:0004f520       ?Execute_MUL_PVectorShiftImmediate@@YAXAAVMPE@@AAVInstructionCacheEntry@@AAVNuance@@@Z 00450520 f   ExecuteMUL.obj
 0001:0004f650       ?Execute_MUL_PVectorShiftSvshift@@YAXAAVMPE@@AAVInstructionCacheEntry@@AAVNuance@@@Z 00450650 f   ExecuteMUL.obj
 0001:0004f780       ?Execute_DOTPScalarShiftImmediate@@YAXAAVMPE@@AAVInstructionCacheEntry@@AAVNuance@@@Z 00450780 f   ExecuteMUL.obj
 0001:0004f890       ?Execute_DOTPScalarShiftSvshift@@YAXAAVMPE@@AAVInstructionCacheEntry@@AAVNuance@@@Z 00450890 f   ExecuteMUL.obj
 0001:0004f990       ?Execute_DOTPVectorShiftImmediate@@YAXAAVMPE@@AAVInstructionCacheEntry@@AAVNuance@@@Z 00450990 f   ExecuteMUL.obj
 0001:0004fae0       ?Execute_DOTPVectorShiftSvshift@@YAXAAVMPE@@AAVInstructionCacheEntry@@AAVNuance@@@Z 00450ae0 f   ExecuteMUL.obj
 0001:00050490       ?Execute_DECRc0@@YAXAAVMPE@@AAVInstructionCacheEntry@@AAVNuance@@@Z 00451490 f   ExecuteRCU.obj
 0001:000504f0       ?Execute_DECRc1@@YAXAAVMPE@@AAVInstructionCacheEntry@@AAVNuance@@@Z 004514f0 f   ExecuteRCU.obj
 0001:00050550       ?Execute_DECBoth@@YAXAAVMPE@@AAVInstructionCacheEntry@@AAVNuance@@@Z 00451550 f   ExecuteRCU.obj
 0001:000505f0       ?Execute_ADDRImmediateOnly@@YAXAAVMPE@@AAVInstructionCacheEntry@@AAVNuance@@@Z 004515f0 f   ExecuteRCU.obj
 0001:00050620       ?Execute_ADDRImmediate@@YAXAAVMPE@@AAVInstructionCacheEntry@@AAVNuance@@@Z 00451620 f   ExecuteRCU.obj
 0001:00050710       ?Execute_ADDRScalarOnly@@YAXAAVMPE@@AAVInstructionCacheEntry@@AAVNuance@@@Z 00451710 f   ExecuteRCU.obj
 0001:00050750       ?Execute_ADDRScalar@@YAXAAVMPE@@AAVInstructionCacheEntry@@AAVNuance@@@Z 00451750 f   ExecuteRCU.obj
 0001:00050850       ?Execute_MVRImmediateOnly@@YAXAAVMPE@@AAVInstructionCacheEntry@@AAVNuance@@@Z 00451850 f   ExecuteRCU.obj
 0001:00050870       ?Execute_MVRImmediate@@YAXAAVMPE@@AAVInstructionCacheEntry@@AAVNuance@@@Z 00451870 f   ExecuteRCU.obj
 0001:00050950       ?Execute_MVRScalarOnly@@YAXAAVMPE@@AAVInstructionCacheEntry@@AAVNuance@@@Z 00451950 f   ExecuteRCU.obj
 0001:00050980       ?Execute_MVRScalar@@YAXAAVMPE@@AAVInstructionCacheEntry@@AAVNuance@@@Z 00451980 f   ExecuteRCU.obj
 0001:00050a70       ?Execute_RangeOnly@@YAXAAVMPE@@AAVInstructionCacheEntry@@AAVNuance@@@Z 00451a70 f   ExecuteRCU.obj
 0001:00050bf0       ?Execute_Range@@YAXAAVMPE@@AAVInstructionCacheEntry@@AAVNuance@@@Z 00451bf0 f   ExecuteRCU.obj
 0001:00050e30       ?Execute_ModuloOnly@@YAXAAVMPE@@AAVInstructionCacheEntry@@AAVNuance@@@Z 00451e30 f   ExecuteRCU.obj
 0001:00050fe0       ?Execute_Modulo@@YAXAAVMPE@@AAVInstructionCacheEntry@@AAVNuance@@@Z 00451fe0 f   ExecuteRCU.obj
 0001:000515c0       ?ConvertFlags@@YAII@Z      004525c0 f   file.obj
 0001:00051640       ?FindFileDescriptorIndex@@YAHH@Z 00452640 f   file.obj
 0001:00051690       ?ConvertIFMT@@YAII@Z       00452690 f   file.obj
 0001:00051730       ?IsValidFileDescriptor@@YA_NH@Z 00452730 f   file.obj
 0001:00051780       ?ConvertSeparatorCharacters@@YAXPAD@Z 00452780 f   file.obj
 0001:000517c0       ?FileOpen@@YAXPAVMPE@@@Z   004527c0 f   file.obj
 0001:000519b0       ?FileClose@@YAXPAVMPE@@@Z  004529b0 f   file.obj
 0001:00051a70       ?FileRead@@YAXPAVMPE@@@Z   00452a70 f   file.obj
 0001:00051b60       ?FileWrite@@YAXPAVMPE@@@Z  00452b60 f   file.obj
 0001:00051c80       ?FileIoctl@@YAXPAVMPE@@@Z  00452c80 f   file.obj
 0001:00051cf0       ?FileFstat@@YAXPAVMPE@@@Z  00452cf0 f   file.obj
 0001:00052010       ?FileStat@@YAXPAVMPE@@@Z   00453010 f   file.obj
 0001:00052090       ?FileIsatty@@YAXPAVMPE@@@Z 00453090 f   file.obj
 0001:00052100       ?FileLseek@@YAXPAVMPE@@@Z  00453100 f   file.obj
 0001:000521d0       ?FileLink@@YAXPAVMPE@@@Z   004531d0 f   file.obj
 0001:00052240       ?FileLstat@@YAXPAVMPE@@@Z  00453240 f   file.obj
 0001:000522c0       ?FileUnlink@@YAXPAVMPE@@@Z 004532c0 f   file.obj
 0001:00052690       ?GetDVDBase@NuonEnvironment@@QAEPADXZ 00453690 f i file.obj
 0001:000526b0       ?WriteData@FlashEEPROM@@QAEXII@Z 004536b0 f   FlashEEPROM.obj
 0001:00052ae0       ?ReadData@FlashEEPROM@@QAEXIPAI@Z 00453ae0 f   FlashEEPROM.obj
 0001:00052bb0       ?ReadStatus@FlashEEPROM@@QAEIXZ 00453bb0 f   FlashEEPROM.obj
 0001:00052bd0       ?IsSectorLocked@FlashEEPROM@@QAE_NI@Z 00453bd0 f   FlashEEPROM.obj
 0001:00052c20       ?EraseChip@FlashEEPROM@@QAEXXZ 00453c20 f   FlashEEPROM.obj
 0001:00052c90       ?EraseSector@FlashEEPROM@@QAEXI@Z 00453c90 f   FlashEEPROM.obj
 0001:00052d30       ?LockSector@FlashEEPROM@@QAEXI@Z 00453d30 f   FlashEEPROM.obj
 0001:00052d80       ?LoadFromFile@FlashEEPROM@@QAEXPAD@Z 00453d80 f   FlashEEPROM.obj
 0001:00052e50       ?SaveToFile@FlashEEPROM@@QAEXPAD@Z 00453e50 f   FlashEEPROM.obj
 0001:000530f0       ??0GLWindow@@QAE@XZ        004540f0 f   GLWindow.obj
 0001:00053210       ??1GLWindow@@QAE@XZ        00454210 f   GLWindow.obj
 0001:00053230       ?MMTimerCallback@GLWindow@@KGXIIKKK@Z 00454230 f   GLWindow.obj
 0001:00053280       ?SetTimer@GLWindow@@QAE_NXZ 00454280 f   GLWindow.obj
 0001:000532f0       ?KillTimer@GLWindow@@QAE_NXZ 004542f0 f   GLWindow.obj
 0001:00053340       ?UpdateRestoreValues@GLWindow@@QAEXXZ 00454340 f   GLWindow.obj
 0001:00053440       ?OnResize@GLWindow@@IAEXHH@Z 00454440 f   GLWindow.obj
 0001:00053530       ?Close@GLWindow@@QAEXXZ    00454530 f   GLWindow.obj
 0001:00053550       ?ToggleFullscreen@GLWindow@@QAEXXZ 00454550 f   GLWindow.obj
 0001:00053590       ?ChangeScreenResolution@GLWindow@@IAE_NHHH@Z 00454590 f   GLWindow.obj
 0001:00053660       ?CreateWindowGL@GLWindow@@IAE_NXZ 00454660 f   GLWindow.obj
 0001:00054120       ?CleanUp@GLWindow@@IAEXXZ  00455120 f   GLWindow.obj
 0001:00054230       ?GLWindowProc@GLWindow@@KGJPAUHWND__@@IIJ@Z 00455230 f   GLWindow.obj
 0001:000548f0       ?RegisterWindowClass@GLWindow@@IAE_NXZ 004558f0 f   GLWindow.obj
 0001:000549e0       ?Create@GLWindow@@QAE_NXZ  004559e0 f   GLWindow.obj
 0001:00054b10       ?MessagePump@GLWindow@@QAE_NXZ 00455b10 f   GLWindow.obj
 0001:00054ba0       ?GLWindowMain@GLWindow@@KGKPAX@Z 00455ba0 f   GLWindow.obj
 0001:00055450       ??0InstructionCache@@QAE@I@Z 00456450 f   InstructionCache.obj
 0001:00055510       ??1InstructionCache@@QAE@XZ 00456510 f   InstructionCache.obj
 0001:00055580       ?Invalidate@InstructionCache@@QAEXXZ 00456580 f   InstructionCache.obj
 0001:000555d0       ?InvalidateRegion@InstructionCache@@QAEXII@Z 004565d0 f   InstructionCache.obj
 0001:00055690       ?CopyInstructionData@InstructionCacheEntry@@QAEXIPAV1@I@Z 00456690 f   InstructionCache.obj
 0001:00055860       ?ControllerInitialize@@YAXPAVMPE@@@Z 00456860 f   joystick.obj
 0001:000559c0       ?DeviceDetect@@YAXPAVMPE@@@Z 004569c0 f   joystick.obj
 0001:00055bc0       ?MediaShutdownMPE@@YAXPAVMPE@@@Z 00456bc0 f   media.obj
 0001:00055c50       ?MediaInitMPE@@YAXI@Z      00456c50 f   media.obj
 0001:00055e40       ?MediaInitMPE@@YAXPAVMPE@@@Z 00456e40 f   media.obj
 0001:00055ed0       ?FindFirstFreeHandle@@YAHXZ 00456ed0 f   media.obj
 0001:00055f20       ?MediaOpen@@YAXPAVMPE@@@Z  00456f20 f   media.obj
 0001:000560b0       ?MediaClose@@YAXPAVMPE@@@Z 004570b0 f   media.obj
 0001:00056120       ?MediaGetDevicesAvailable@@YAXPAVMPE@@@Z 00457120 f   media.obj
 0001:00056130       ?MediaGetInfo@@YAXPAVMPE@@@Z 00457130 f   media.obj
 0001:00056270       ?MediaRead@@YAXPAVMPE@@@Z  00457270 f   media.obj
 0001:000563e0       ?MediaWrite@@YAXPAVMPE@@@Z 004573e0 f   media.obj
 0001:00056570       ?MediaIoctl@@YAXPAVMPE@@@Z 00457570 f   media.obj
 0001:000566f0       ?SpinWait@@YAXPAVMPE@@@Z   004576f0 f   media.obj
 0001:00056a90       ?MemLocalScratch@@YAXPAVMPE@@@Z 00457a90 f   memory.obj
 0001:00056b00       ?MemAlloc@@YAXPAVMPE@@@Z   00457b00 f   memory.obj
 0001:00056b90       ?MemFree@@YAXPAVMPE@@@Z    00457b90 f   memory.obj
 0001:00056bd0       ?MemInit@@YAXPAVMPE@@@Z    00457bd0 f   memory.obj
 0001:00056c40       ??0MemoryManager@@QAE@II@Z 00457c40 f   MemoryManager.obj
 0001:00056cc0       ?TestForInvalidPowerOfTwo@MemoryManager@@AAE_NI@Z 00457cc0 f   MemoryManager.obj
 0001:00056cf0       ?Add@MemoryManager@@QAEXIII@Z 00457cf0 f   MemoryManager.obj
 0001:00057080       ?AddAllocatedBlock@MemoryManager@@QAEXII@Z 00458080 f   MemoryManager.obj
 0001:000571c0       ?Free@MemoryManager@@QAEXI@Z 004581c0 f   MemoryManager.obj
 0001:00057340       ?Allocate@MemoryManager@@QAEPAXII@Z 00458340 f   MemoryManager.obj
 0001:00057940       ??1?$_Vector_iterator@VFreeMemoryBlock@@V?$allocator@VFreeMemoryBlock@@@std@@@std@@QAE@XZ 00458940 f i MemoryManager.obj
 0001:00057970       ??1?$_Vector_const_iterator@VFreeMemoryBlock@@V?$allocator@VFreeMemoryBlock@@@std@@@std@@QAE@XZ 00458970 f i MemoryManager.obj
 0001:000579a0       ??1?$_Ranit@VFreeMemoryBlock@@HPBV1@ABV1@@std@@QAE@XZ 004589a0 f i MemoryManager.obj
 0001:000579d0       ??1_Iterator_base@std@@QAE@XZ 004589d0 f i MemoryManager.obj
 0001:00057a90       ?_Orphan_me@_Iterator_base@std@@QAEXXZ 00458a90 f i MemoryManager.obj
 0001:00057b50       ??1?$_Vector_iterator@VAllocatedMemoryBlock@@V?$allocator@VAllocatedMemoryBlock@@@std@@@std@@QAE@XZ 00458b50 f i MemoryManager.obj
 0001:00057b80       ??1?$_Vector_const_iterator@VAllocatedMemoryBlock@@V?$allocator@VAllocatedMemoryBlock@@@std@@@std@@QAE@XZ 00458b80 f i MemoryManager.obj
 0001:00057bb0       ??1?$_Ranit@VAllocatedMemoryBlock@@HPBV1@ABV1@@std@@QAE@XZ 00458bb0 f i MemoryManager.obj
 0001:00057be0       ?AlignAddress@MemoryManager@@AAEIII@Z 00458be0 f i MemoryManager.obj
 0001:00057c20       ??0?$vector@VFreeMemoryBlock@@V?$allocator@VFreeMemoryBlock@@@std@@@std@@QAE@XZ 00458c20 f i MemoryManager.obj
 0001:00057cb0       ??1?$vector@VFreeMemoryBlock@@V?$allocator@VFreeMemoryBlock@@@std@@@std@@QAE@XZ 00458cb0 f i MemoryManager.obj
 0001:00057d20       ?begin@?$vector@VFreeMemoryBlock@@V?$allocator@VFreeMemoryBlock@@@std@@@std@@QAE?AV?$_Vector_iterator@VFreeMemoryBlock@@V?$allocator@VFreeMemoryBlock@@@std@@@2@XZ 00458d20 f i MemoryManager.obj
 0001:00057d80       ?size@?$vector@VFreeMemoryBlock@@V?$allocator@VFreeMemoryBlock@@@std@@@std@@QBEIXZ 00458d80 f i MemoryManager.obj
 0001:00057de0       ??A?$vector@VFreeMemoryBlock@@V?$allocator@VFreeMemoryBlock@@@std@@@std@@QAEAAVFreeMemoryBlock@@I@Z 00458de0 f i MemoryManager.obj
 0001:00057f00       ?back@?$vector@VFreeMemoryBlock@@V?$allocator@VFreeMemoryBlock@@@std@@@std@@QAEAAVFreeMemoryBlock@@XZ 00458f00 f i MemoryManager.obj
 0001:00057fe0       ?push_back@?$vector@VFreeMemoryBlock@@V?$allocator@VFreeMemoryBlock@@@std@@@std@@QAEXABVFreeMemoryBlock@@@Z 00458fe0 f i MemoryManager.obj
 0001:000580c0       ?insert@?$vector@VFreeMemoryBlock@@V?$allocator@VFreeMemoryBlock@@@std@@@std@@QAE?AV?$_Vector_iterator@VFreeMemoryBlock@@V?$allocator@VFreeMemoryBlock@@@std@@@2@V32@ABVFreeMemoryBlock@@@Z 004590c0 f i MemoryManager.obj
 0001:00058240       ?erase@?$vector@VFreeMemoryBlock@@V?$allocator@VFreeMemoryBlock@@@std@@@std@@QAE?AV?$_Vector_iterator@VFreeMemoryBlock@@V?$allocator@VFreeMemoryBlock@@@std@@@2@V32@@Z 00459240 f i MemoryManager.obj
 0001:00058390       ??0?$vector@VAllocatedMemoryBlock@@V?$allocator@VAllocatedMemoryBlock@@@std@@@std@@QAE@XZ 00459390 f i MemoryManager.obj
 0001:00058420       ?begin@?$vector@VAllocatedMemoryBlock@@V?$allocator@VAllocatedMemoryBlock@@@std@@@std@@QAE?AV?$_Vector_iterator@VAllocatedMemoryBlock@@V?$allocator@VAllocatedMemoryBlock@@@std@@@2@XZ 00459420 f i MemoryManager.obj
 0001:00058480       ?size@?$vector@VAllocatedMemoryBlock@@V?$allocator@VAllocatedMemoryBlock@@@std@@@std@@QBEIXZ 00459480 f i MemoryManager.obj
 0001:000584e0       ??A?$vector@VAllocatedMemoryBlock@@V?$allocator@VAllocatedMemoryBlock@@@std@@@std@@QAEAAVAllocatedMemoryBlock@@I@Z 004594e0 f i MemoryManager.obj
 0001:00058600       ?insert@?$vector@VAllocatedMemoryBlock@@V?$allocator@VAllocatedMemoryBlock@@@std@@@std@@QAE?AV?$_Vector_iterator@VAllocatedMemoryBlock@@V?$allocator@VAllocatedMemoryBlock@@@std@@@2@V32@ABVAllocatedMemoryBlock@@@Z 00459600 f i MemoryManager.obj
 0001:00058780       ?erase@?$vector@VAllocatedMemoryBlock@@V?$allocator@VAllocatedMemoryBlock@@@std@@@std@@QAE?AV?$_Vector_iterator@VAllocatedMemoryBlock@@V?$allocator@VAllocatedMemoryBlock@@@std@@@2@V32@@Z 00459780 f i MemoryManager.obj
 0001:000588d0       ??H?$_Vector_iterator@VFreeMemoryBlock@@V?$allocator@VFreeMemoryBlock@@@std@@@std@@QBE?AV01@H@Z 004598d0 f i MemoryManager.obj
 0001:000589d0       ??H?$_Vector_iterator@VAllocatedMemoryBlock@@V?$allocator@VAllocatedMemoryBlock@@@std@@@std@@QBE?AV01@H@Z 004599d0 f i MemoryManager.obj
 0001:00058ad0       ??1?$_Vector_val@VFreeMemoryBlock@@V?$allocator@VFreeMemoryBlock@@@std@@@std@@QAE@XZ 00459ad0 f i MemoryManager.obj
 0001:00058b00       ??1_Container_base@std@@QAE@XZ 00459b00 f i MemoryManager.obj
 0001:00058b30       ?_Orphan_all@_Container_base@std@@QBEXXZ 00459b30 f i MemoryManager.obj
 0001:00058c00       ??0?$_Vector_iterator@VFreeMemoryBlock@@V?$allocator@VFreeMemoryBlock@@@std@@@std@@QAE@ABV01@@Z 00459c00 f i MemoryManager.obj
 0001:00058c40       ??1?$_Vector_val@VAllocatedMemoryBlock@@V?$allocator@VAllocatedMemoryBlock@@@std@@@std@@QAE@XZ 00459c40 f i MemoryManager.obj
 0001:00058c70       ??0?$_Vector_iterator@VAllocatedMemoryBlock@@V?$allocator@VAllocatedMemoryBlock@@@std@@@std@@QAE@ABV01@@Z 00459c70 f i MemoryManager.obj
 0001:00058cb0       ??0?$_Vector_const_iterator@VFreeMemoryBlock@@V?$allocator@VFreeMemoryBlock@@@std@@@std@@QAE@ABV01@@Z 00459cb0 f i MemoryManager.obj
 0001:00058d00       ??0?$_Vector_const_iterator@VAllocatedMemoryBlock@@V?$allocator@VAllocatedMemoryBlock@@@std@@@std@@QAE@ABV01@@Z 00459d00 f i MemoryManager.obj
 0001:00058d50       ??0?$_Ranit@VFreeMemoryBlock@@HPBV1@ABV1@@std@@QAE@ABU01@@Z 00459d50 f i MemoryManager.obj
 0001:00058d90       ??0_Iterator_base@std@@QAE@ABV01@@Z 00459d90 f i MemoryManager.obj
 0001:00058de0       ??4_Iterator_base@std@@QAEAAV01@ABV01@@Z 00459de0 f i MemoryManager.obj
 0001:00058ed0       ?_Adopt@_Iterator_base@std@@QAEXPBV_Container_base@2@@Z 00459ed0 f i MemoryManager.obj
 0001:00058fe0       ??0?$_Ranit@VAllocatedMemoryBlock@@HPBV1@ABV1@@std@@QAE@ABU01@@Z 00459fe0 f i MemoryManager.obj
 0001:00059020       ?capacity@?$vector@VFreeMemoryBlock@@V?$allocator@VFreeMemoryBlock@@@std@@@std@@QBEIXZ 0045a020 f i MemoryManager.obj
 0001:00059080       ?end@?$vector@VFreeMemoryBlock@@V?$allocator@VFreeMemoryBlock@@@std@@@std@@QAE?AV?$_Vector_iterator@VFreeMemoryBlock@@V?$allocator@VFreeMemoryBlock@@@std@@@2@XZ 0045a080 f i MemoryManager.obj
 0001:000590e0       ?_Buy@?$vector@VFreeMemoryBlock@@V?$allocator@VFreeMemoryBlock@@@std@@@std@@IAE_NI@Z 0045a0e0 f i MemoryManager.obj
 0001:000591a0       ?_Destroy@?$vector@VFreeMemoryBlock@@V?$allocator@VFreeMemoryBlock@@@std@@@std@@IAEXPAVFreeMemoryBlock@@0@Z 0045a1a0 f i MemoryManager.obj
 0001:000591f0       ?_Tidy@?$vector@VFreeMemoryBlock@@V?$allocator@VFreeMemoryBlock@@@std@@@std@@IAEXXZ 0045a1f0 f i MemoryManager.obj
 0001:000592a0       ?_Insert_n@?$vector@VFreeMemoryBlock@@V?$allocator@VFreeMemoryBlock@@@std@@@std@@IAEXV?$_Vector_iterator@VFreeMemoryBlock@@V?$allocator@VFreeMemoryBlock@@@std@@@2@IABVFreeMemoryBlock@@@Z 0045a2a0 f i MemoryManager.obj
 0001:000597c0       ?_Ufill@?$vector@VFreeMemoryBlock@@V?$allocator@VFreeMemoryBlock@@@std@@@std@@IAEPAVFreeMemoryBlock@@PAV3@IABV3@@Z 0045a7c0 f i MemoryManager.obj
 0001:00059820       ?_Orphan_range@?$vector@VFreeMemoryBlock@@V?$allocator@VFreeMemoryBlock@@@std@@@std@@IBEXPAVFreeMemoryBlock@@0@Z 0045a820 f i MemoryManager.obj
 0001:00059910       ??0?$_Vector_val@VFreeMemoryBlock@@V?$allocator@VFreeMemoryBlock@@@std@@@std@@IAE@V?$allocator@VFreeMemoryBlock@@@1@@Z 0045a910 f i MemoryManager.obj
 0001:00059960       ??0_Container_base@std@@QAE@XZ 0045a960 f i MemoryManager.obj
 0001:00059990       ??0?$allocator@VFreeMemoryBlock@@@std@@QAE@XZ 0045a990 f i MemoryManager.obj
 0001:000599b0       ?_Buy@?$vector@VAllocatedMemoryBlock@@V?$allocator@VAllocatedMemoryBlock@@@std@@@std@@IAE_NI@Z 0045a9b0 f i MemoryManager.obj
 0001:00059a70       ?_Destroy@?$vector@VAllocatedMemoryBlock@@V?$allocator@VAllocatedMemoryBlock@@@std@@@std@@IAEXPAVAllocatedMemoryBlock@@0@Z 0045aa70 f i MemoryManager.obj
 0001:00059ac0       ?_Insert_n@?$vector@VAllocatedMemoryBlock@@V?$allocator@VAllocatedMemoryBlock@@@std@@@std@@IAEXV?$_Vector_iterator@VAllocatedMemoryBlock@@V?$allocator@VAllocatedMemoryBlock@@@std@@@2@IABVAllocatedMemoryBlock@@@Z 0045aac0 f i MemoryManager.obj
 0001:00059fc0       ?_Orphan_range@?$vector@VAllocatedMemoryBlock@@V?$allocator@VAllocatedMemoryBlock@@@std@@@std@@IBEXPAVAllocatedMemoryBlock@@0@Z 0045afc0 f i MemoryManager.obj
 0001:0005a0b0       ??0?$_Vector_val@VAllocatedMemoryBlock@@V?$allocator@VAllocatedMemoryBlock@@@std@@@std@@IAE@V?$allocator@VAllocatedMemoryBlock@@@1@@Z 0045b0b0 f i MemoryManager.obj
 0001:0005a100       ??0?$allocator@VAllocatedMemoryBlock@@@std@@QAE@XZ 0045b100 f i MemoryManager.obj
 0001:0005a120       ??0?$_Vector_iterator@VFreeMemoryBlock@@V?$allocator@VFreeMemoryBlock@@@std@@@std@@QAE@PAVFreeMemoryBlock@@PBV_Container_base@1@@Z 0045b120 f i MemoryManager.obj
 0001:0005a160       ??D?$_Vector_iterator@VFreeMemoryBlock@@V?$allocator@VFreeMemoryBlock@@@std@@@std@@QBEAAVFreeMemoryBlock@@XZ 0045b160 f i MemoryManager.obj
 0001:0005a190       ??Y?$_Vector_iterator@VFreeMemoryBlock@@V?$allocator@VFreeMemoryBlock@@@std@@@std@@QAEAAV01@H@Z 0045b190 f i MemoryManager.obj
 0001:0005a1d0       ??G?$_Vector_iterator@VFreeMemoryBlock@@V?$allocator@VFreeMemoryBlock@@@std@@@std@@QBE?AV01@H@Z 0045b1d0 f i MemoryManager.obj
 0001:0005a2d0       ??G?$_Vector_iterator@VFreeMemoryBlock@@V?$allocator@VFreeMemoryBlock@@@std@@@std@@QBEHABV?$_Vector_const_iterator@VFreeMemoryBlock@@V?$allocator@VFreeMemoryBlock@@@std@@@1@@Z 0045b2d0 f i MemoryManager.obj
 0001:0005a310       ??0?$_Vector_iterator@VAllocatedMemoryBlock@@V?$allocator@VAllocatedMemoryBlock@@@std@@@std@@QAE@PAVAllocatedMemoryBlock@@PBV_Container_base@1@@Z 0045b310 f i MemoryManager.obj
 0001:0005a350       ??Y?$_Vector_iterator@VAllocatedMemoryBlock@@V?$allocator@VAllocatedMemoryBlock@@@std@@@std@@QAEAAV01@H@Z 0045b350 f i MemoryManager.obj
 0001:0005a390       ??G?$_Vector_iterator@VAllocatedMemoryBlock@@V?$allocator@VAllocatedMemoryBlock@@@std@@@std@@QBEHABV?$_Vector_const_iterator@VAllocatedMemoryBlock@@V?$allocator@VAllocatedMemoryBlock@@@std@@@1@@Z 0045b390 f i MemoryManager.obj
 0001:0005a3d0       ?max_size@?$vector@VFreeMemoryBlock@@V?$allocator@VFreeMemoryBlock@@@std@@@std@@QBEIXZ 0045b3d0 f i MemoryManager.obj
 0001:0005a400       ?_Xlen@?$vector@VFreeMemoryBlock@@V?$allocator@VFreeMemoryBlock@@@std@@@std@@KAXXZ 0045b400 f i MemoryManager.obj
 0001:0005a4b0       ??0length_error@std@@QAE@ABV?$basic_string@DU?$char_traits@D@std@@V?$allocator@D@2@@1@@Z 0045b4b0 f i MemoryManager.obj
 0001:0005a500       ??0logic_error@std@@QAE@ABV?$basic_string@DU?$char_traits@D@std@@V?$allocator@D@2@@1@@Z 0045b500 f i MemoryManager.obj
 0001:0005a590       ?what@logic_error@std@@UBEPBDXZ 0045b590 f i MemoryManager.obj
 0001:0005a5c0       ??_Elogic_error@std@@UAEPAXI@Z 0045b5c0 f i MemoryManager.obj
 0001:0005a5c0       ??_Glogic_error@std@@UAEPAXI@Z 0045b5c0 f i MemoryManager.obj
 0001:0005a610       ??1logic_error@std@@UAE@XZ 0045b610 f i MemoryManager.obj
 0001:0005a660       ??1length_error@std@@UAE@XZ 0045b660 f i MemoryManager.obj
 0001:0005a6a0       ??_Elength_error@std@@UAEPAXI@Z 0045b6a0 f i MemoryManager.obj
 0001:0005a6a0       ??_Glength_error@std@@UAEPAXI@Z 0045b6a0 f i MemoryManager.obj
 0001:0005a6f0       ??0?$basic_string@DU?$char_traits@D@std@@V?$allocator@D@2@@std@@QAE@ABV01@@Z 0045b6f0 f i MemoryManager.obj
 0001:0005a790       ??1?$basic_string@DU?$char_traits@D@std@@V?$allocator@D@2@@std@@QAE@XZ 0045b790 f i MemoryManager.obj
 0001:0005a810       ?c_str@?$basic_string@DU?$char_traits@D@std@@V?$allocator@D@2@@std@@QBEPBDXZ 0045b810 f i MemoryManager.obj
 0001:0005a840       ??1?$_String_val@DV?$allocator@D@std@@@std@@QAE@XZ 0045b840 f i MemoryManager.obj
 0001:0005a870       ??1_String_base@std@@QAE@XZ 0045b870 f i MemoryManager.obj
 0001:0005a8a0       ?assign@?$basic_string@DU?$char_traits@D@std@@V?$allocator@D@2@@std@@QAEAAV12@ABV12@II@Z 0045b8a0 f i MemoryManager.obj
 0001:0005a9b0       ?_Tidy@?$basic_string@DU?$char_traits@D@std@@V?$allocator@D@2@@std@@IAEX_NI@Z 0045b9b0 f i MemoryManager.obj
 0001:0005aa70       ?_Myptr@?$basic_string@DU?$char_traits@D@std@@V?$allocator@D@2@@std@@IBEPBDXZ 0045ba70 f i MemoryManager.obj
 0001:0005aac0       ??0?$_String_val@DV?$allocator@D@std@@@std@@QAE@ABV01@@Z 0045bac0 f i MemoryManager.obj
 0001:0005ab20       ??0_String_base@std@@QAE@XZ 0045bb20 f i MemoryManager.obj
 0001:0005ab50       ?erase@?$basic_string@DU?$char_traits@D@std@@V?$allocator@D@2@@std@@QAEAAV12@II@Z 0045bb50 f i MemoryManager.obj
 0001:0005ac30       ?size@?$basic_string@DU?$char_traits@D@std@@V?$allocator@D@2@@std@@QBEIXZ 0045bc30 f i MemoryManager.obj
 0001:0005ac50       ?_Eos@?$basic_string@DU?$char_traits@D@std@@V?$allocator@D@2@@std@@IAEXI@Z 0045bc50 f i MemoryManager.obj
 0001:0005acb0       ?assign@?$char_traits@D@std@@SAXAADABD@Z 0045bcb0 f i MemoryManager.obj
 0001:0005acd0       ?_Grow@?$basic_string@DU?$char_traits@D@std@@V?$allocator@D@2@@std@@IAE_NI_N@Z 0045bcd0 f i MemoryManager.obj
 0001:0005adb0       ?_Myptr@?$basic_string@DU?$char_traits@D@std@@V?$allocator@D@2@@std@@IAEPADXZ 0045bdb0 f i MemoryManager.obj
 0001:0005ae00       ??0?$allocator@D@std@@QAE@ABV01@@Z 0045be00 f i MemoryManager.obj
 0001:0005ae20       ?deallocate@?$allocator@D@std@@QAEXPADI@Z 0045be20 f i MemoryManager.obj
 0001:0005ae60       ??0?$allocator@VFreeMemoryBlock@@@std@@QAE@ABV01@@Z 0045be60 f i MemoryManager.obj
 0001:0005ae80       ?deallocate@?$allocator@VFreeMemoryBlock@@@std@@QAEXPAVFreeMemoryBlock@@I@Z 0045be80 f i MemoryManager.obj
 0001:0005aec0       ?allocate@?$allocator@VFreeMemoryBlock@@@std@@QAEPAVFreeMemoryBlock@@I@Z 0045bec0 f i MemoryManager.obj
 0001:0005af00       ?capacity@?$vector@VAllocatedMemoryBlock@@V?$allocator@VAllocatedMemoryBlock@@@std@@@std@@QBEIXZ 0045bf00 f i MemoryManager.obj
 0001:0005af60       ?max_size@?$vector@VAllocatedMemoryBlock@@V?$allocator@VAllocatedMemoryBlock@@@std@@@std@@QBEIXZ 0045bf60 f i MemoryManager.obj
 0001:0005af90       ?_Ufill@?$vector@VAllocatedMemoryBlock@@V?$allocator@VAllocatedMemoryBlock@@@std@@@std@@IAEPAVAllocatedMemoryBlock@@PAV3@IABV3@@Z 0045bf90 f i MemoryManager.obj
 0001:0005aff0       ?_Xlen@?$vector@VAllocatedMemoryBlock@@V?$allocator@VAllocatedMemoryBlock@@@std@@@std@@KAXXZ 0045bff0 f i MemoryManager.obj
 0001:0005b0a0       ??0?$allocator@VAllocatedMemoryBlock@@@std@@QAE@ABV01@@Z 0045c0a0 f i MemoryManager.obj
 0001:0005b0c0       ?deallocate@?$allocator@VAllocatedMemoryBlock@@@std@@QAEXPAVAllocatedMemoryBlock@@I@Z 0045c0c0 f i MemoryManager.obj
 0001:0005b100       ?allocate@?$allocator@VAllocatedMemoryBlock@@@std@@QAEPAVAllocatedMemoryBlock@@I@Z 0045c100 f i MemoryManager.obj
 0001:0005b140       ??Z?$_Vector_iterator@VFreeMemoryBlock@@V?$allocator@VFreeMemoryBlock@@@std@@@std@@QAEAAV01@H@Z 0045c140 f i MemoryManager.obj
 0001:0005b180       ??0?$_Vector_const_iterator@VFreeMemoryBlock@@V?$allocator@VFreeMemoryBlock@@@std@@@std@@QAE@PAVFreeMemoryBlock@@PBV_Container_base@1@@Z 0045c180 f i MemoryManager.obj
 0001:0005b280       ??D?$_Vector_const_iterator@VFreeMemoryBlock@@V?$allocator@VFreeMemoryBlock@@@std@@@std@@QBEABVFreeMemoryBlock@@XZ 0045c280 f i MemoryManager.obj
 0001:0005b350       ??Y?$_Vector_const_iterator@VFreeMemoryBlock@@V?$allocator@VFreeMemoryBlock@@@std@@@std@@QAEAAV01@H@Z 0045c350 f i MemoryManager.obj
 0001:0005b480       ??G?$_Vector_const_iterator@VFreeMemoryBlock@@V?$allocator@VFreeMemoryBlock@@@std@@@std@@QBEHABV01@@Z 0045c480 f i MemoryManager.obj
 0001:0005b4d0       ??0?$_Vector_const_iterator@VAllocatedMemoryBlock@@V?$allocator@VAllocatedMemoryBlock@@@std@@@std@@QAE@PAVAllocatedMemoryBlock@@PBV_Container_base@1@@Z 0045c4d0 f i MemoryManager.obj
 0001:0005b5d0       ??Y?$_Vector_const_iterator@VAllocatedMemoryBlock@@V?$allocator@VAllocatedMemoryBlock@@@std@@@std@@QAEAAV01@H@Z 0045c5d0 f i MemoryManager.obj
 0001:0005b700       ??G?$_Vector_const_iterator@VAllocatedMemoryBlock@@V?$allocator@VAllocatedMemoryBlock@@@std@@@std@@QBEHABV01@@Z 0045c700 f i MemoryManager.obj
 0001:0005b750       ??0length_error@std@@QAE@ABV01@@Z 0045c750 f i MemoryManager.obj
 0001:0005b7a0       ??0logic_error@std@@QAE@ABV01@@Z 0045c7a0 f i MemoryManager.obj
 0001:0005b840       ??0?$_Ranit@VFreeMemoryBlock@@HPBV1@ABV1@@std@@QAE@XZ 0045c840 f i MemoryManager.obj
 0001:0005b870       ??0_Iterator_base@std@@QAE@XZ 0045c870 f i MemoryManager.obj
 0001:0005b8b0       ??0?$_Ranit@VAllocatedMemoryBlock@@HPBV1@ABV1@@std@@QAE@XZ 0045c8b0 f i MemoryManager.obj
 0001:0005b8e0       ??0?$basic_string@DU?$char_traits@D@std@@V?$allocator@D@2@@std@@QAE@PBD@Z 0045c8e0 f i MemoryManager.obj
 0001:0005b990       ?max_size@?$basic_string@DU?$char_traits@D@std@@V?$allocator@D@2@@std@@QBEIXZ 0045c990 f i MemoryManager.obj
 0001:0005ba00       ?_Copy@?$basic_string@DU?$char_traits@D@std@@V?$allocator@D@2@@std@@IAEXII@Z 0045ca00 f i MemoryManager.obj
 0001:0005bc00       ?max_size@?$allocator@VFreeMemoryBlock@@@std@@QBEIXZ 0045cc00 f i MemoryManager.obj
 0001:0005bc60       ?max_size@?$allocator@VAllocatedMemoryBlock@@@std@@QBEIXZ 0045cc60 f i MemoryManager.obj
 0001:0005bcc0       ?_Compat@?$_Vector_const_iterator@VFreeMemoryBlock@@V?$allocator@VFreeMemoryBlock@@@std@@@std@@QBEXABV12@@Z 0045ccc0 f i MemoryManager.obj
 0001:0005bd70       ?_Compat@?$_Vector_const_iterator@VAllocatedMemoryBlock@@V?$allocator@VAllocatedMemoryBlock@@@std@@@std@@QBEXABV12@@Z 0045cd70 f i MemoryManager.obj
 0001:0005be20       ?assign@?$basic_string@DU?$char_traits@D@std@@V?$allocator@D@2@@std@@QAEAAV12@PBD@Z 0045ce20 f i MemoryManager.obj
 0001:0005be70       ?length@?$char_traits@D@std@@SAIPBD@Z 0045ce70 f i MemoryManager.obj
 0001:0005be90       ??0?$_String_val@DV?$allocator@D@std@@@std@@IAE@V?$allocator@D@1@@Z 0045ce90 f i MemoryManager.obj
 0001:0005bee0       ??0?$allocator@D@std@@QAE@XZ 0045cee0 f i MemoryManager.obj
 0001:0005bf00       ?allocate@?$allocator@D@std@@QAEPADI@Z 0045cf00 f i MemoryManager.obj
 0001:0005bf40       ?max_size@?$allocator@D@std@@QBEIXZ 0045cf40 f i MemoryManager.obj
 0001:0005bfa0       ?assign@?$basic_string@DU?$char_traits@D@std@@V?$allocator@D@2@@std@@QAEAAV12@PBDI@Z 0045cfa0 f i MemoryManager.obj
 0001:0005c060       ?_Inside@?$basic_string@DU?$char_traits@D@std@@V?$allocator@D@2@@std@@IAE_NPBD@Z 0045d060 f i MemoryManager.obj
 0001:0005c0e0       ??$_Debug_pointer@D@std@@YAXPBDPB_WI@Z 0045d0e0 f i MemoryManager.obj
 0001:0005c110       ??$unchecked_copy@PAVFreeMemoryBlock@@PAV1@@stdext@@YAPAVFreeMemoryBlock@@PAV1@00@Z 0045d110 f i MemoryManager.obj
 0001:0005c1b0       ??$unchecked_copy@PAVAllocatedMemoryBlock@@PAV1@@stdext@@YAPAVAllocatedMemoryBlock@@PAV1@00@Z 0045d1b0 f i MemoryManager.obj
 0001:0005c250       ??$copy_s@U?$char_traits@D@std@@@_Traits_helper@std@@YAPADPADIPBDI@Z 0045d250 f i MemoryManager.obj
 0001:0005c2a0       ??$_Destroy_range@VFreeMemoryBlock@@V?$allocator@VFreeMemoryBlock@@@std@@@std@@YAXPAVFreeMemoryBlock@@0AAV?$allocator@VFreeMemoryBlock@@@0@@Z 0045d2a0 f i MemoryManager.obj
 0001:0005c300       ??$_Umove@PAVFreeMemoryBlock@@@?$vector@VFreeMemoryBlock@@V?$allocator@VFreeMemoryBlock@@@std@@@std@@IAEPAVFreeMemoryBlock@@PAV2@00@Z 0045d300 f i MemoryManager.obj
 0001:0005c350       ??$fill@PAVFreeMemoryBlock@@V1@@std@@YAXPAVFreeMemoryBlock@@0ABV1@@Z 0045d350 f i MemoryManager.obj
 0001:0005c390       ??$_Unchecked_move_backward@PAVFreeMemoryBlock@@PAV1@@stdext@@YAPAVFreeMemoryBlock@@PAV1@00@Z 0045d390 f i MemoryManager.obj
 0001:0005c420       ??$unchecked_uninitialized_fill_n@PAVFreeMemoryBlock@@IV1@V?$allocator@VFreeMemoryBlock@@@std@@@stdext@@YAXPAVFreeMemoryBlock@@IABV1@AAV?$allocator@VFreeMemoryBlock@@@std@@@Z 0045d420 f i MemoryManager.obj
 0001:0005c490       ??$_Destroy_range@VAllocatedMemoryBlock@@V?$allocator@VAllocatedMemoryBlock@@@std@@@std@@YAXPAVAllocatedMemoryBlock@@0AAV?$allocator@VAllocatedMemoryBlock@@@0@@Z 0045d490 f i MemoryManager.obj
 0001:0005c4f0       ??$_Umove@PAVAllocatedMemoryBlock@@@?$vector@VAllocatedMemoryBlock@@V?$allocator@VAllocatedMemoryBlock@@@std@@@std@@IAEPAVAllocatedMemoryBlock@@PAV2@00@Z 0045d4f0 f i MemoryManager.obj
 0001:0005c540       ??$fill@PAVAllocatedMemoryBlock@@V1@@std@@YAXPAVAllocatedMemoryBlock@@0ABV1@@Z 0045d540 f i MemoryManager.obj
 0001:0005c580       ??$_Unchecked_move_backward@PAVAllocatedMemoryBlock@@PAV1@@stdext@@YAPAVAllocatedMemoryBlock@@PAV1@00@Z 0045d580 f i MemoryManager.obj
 0001:0005c610       ??$move_s@U?$char_traits@D@std@@@_Traits_helper@std@@YAPADPADIPBDI@Z 0045d610 f i MemoryManager.obj
 0001:0005c660       ??$_Allocate@VFreeMemoryBlock@@@std@@YAPAVFreeMemoryBlock@@IPAV1@@Z 0045d660 f i MemoryManager.obj
 0001:0005c6f0       ??0bad_alloc@std@@QAE@PBD@Z 0045d6f0 f i MemoryManager.obj
 0001:0005c740       ??1bad_alloc@std@@UAE@XZ   0045d740 f i MemoryManager.obj
 0001:0005c780       ??_Ebad_alloc@std@@UAEPAXI@Z 0045d780 f i MemoryManager.obj
 0001:0005c780       ??_Gbad_alloc@std@@UAEPAXI@Z 0045d780 f i MemoryManager.obj
 0001:0005c7d0       ??$unchecked_uninitialized_fill_n@PAVAllocatedMemoryBlock@@IV1@V?$allocator@VAllocatedMemoryBlock@@@std@@@stdext@@YAXPAVAllocatedMemoryBlock@@IABV1@AAV?$allocator@VAllocatedMemoryBlock@@@std@@@Z 0045d7d0 f i MemoryManager.obj
 0001:0005c840       ??$_Allocate@VAllocatedMemoryBlock@@@std@@YAPAVAllocatedMemoryBlock@@IPAV1@@Z 0045d840 f i MemoryManager.obj
 0001:0005c8d0       ??$_Allocate@D@std@@YAPADIPAD@Z 0045d8d0 f i MemoryManager.obj
 0001:0005c960       ??0bad_alloc@std@@QAE@ABV01@@Z 0045d960 f i MemoryManager.obj
 0001:0005c9b0       ??$_Checked_base@PAVFreeMemoryBlock@@@std@@YAPAVFreeMemoryBlock@@AAPAV1@@Z 0045d9b0 f i MemoryManager.obj
 0001:0005ca40       ??$_Iter_random@PAVFreeMemoryBlock@@PAV1@@std@@YA?AUrandom_access_iterator_tag@0@ABQAVFreeMemoryBlock@@0@Z 0045da40 f i MemoryManager.obj
 0001:0005caa0       ??$_Ptr_cat@PAVFreeMemoryBlock@@PAV1@@std@@YA?AU_Nonscalar_ptr_iterator_tag@0@AAPAVFreeMemoryBlock@@0@Z 0045daa0 f i MemoryManager.obj
 0001:0005cb00       ??$_Copy_opt@PAVFreeMemoryBlock@@PAV1@@std@@YAPAVFreeMemoryBlock@@PAV1@00Urandom_access_iterator_tag@0@U_Nonscalar_ptr_iterator_tag@0@U_Range_checked_iterator_tag@0@@Z 0045db00 f i MemoryManager.obj
 0001:0005cb90       ??$_Checked_base@PAVAllocatedMemoryBlock@@@std@@YAPAVAllocatedMemoryBlock@@AAPAV1@@Z 0045db90 f i MemoryManager.obj
 0001:0005cc20       ??$_Iter_random@PAVAllocatedMemoryBlock@@PAV1@@std@@YA?AUrandom_access_iterator_tag@0@ABQAVAllocatedMemoryBlock@@0@Z 0045dc20 f i MemoryManager.obj
 0001:0005cc80       ??$_Ptr_cat@PAVAllocatedMemoryBlock@@PAV1@@std@@YA?AU_Nonscalar_ptr_iterator_tag@0@AAPAVAllocatedMemoryBlock@@0@Z 0045dc80 f i MemoryManager.obj
 0001:0005cce0       ??$_Copy_opt@PAVAllocatedMemoryBlock@@PAV1@@std@@YAPAVAllocatedMemoryBlock@@PAV1@00Urandom_access_iterator_tag@0@U_Nonscalar_ptr_iterator_tag@0@U_Range_checked_iterator_tag@0@@Z 0045dce0 f i MemoryManager.obj
 0001:0005cd70       ??$_Char_traits_cat@U?$char_traits@D@std@@@std@@YA?AU_Secure_char_traits_tag@0@XZ 0045dd70 f i MemoryManager.obj
 0001:0005cde0       ??$copy_s@U?$char_traits@D@std@@@_Traits_helper@std@@YAPADPADIPBDIU_Secure_char_traits_tag@1@@Z 0045dde0 f i MemoryManager.obj
 0001:0005ce10       ?_Copy_s@?$char_traits@D@std@@SAPADPADIPBDI@Z 0045de10 f i MemoryManager.obj
 0001:0005ce40       ??$_Destroy_range@VFreeMemoryBlock@@V?$allocator@VFreeMemoryBlock@@@std@@@std@@YAXPAVFreeMemoryBlock@@0AAV?$allocator@VFreeMemoryBlock@@@0@U_Nonscalar_ptr_iterator_tag@0@@Z 0045de40 f i MemoryManager.obj
 0001:0005ce80       ??$_Unchecked_uninitialized_move@PAVFreeMemoryBlock@@PAV1@V?$allocator@VFreeMemoryBlock@@@std@@@stdext@@YAPAVFreeMemoryBlock@@PAV1@00AAV?$allocator@VFreeMemoryBlock@@@std@@@Z 0045de80 f i MemoryManager.obj
 0001:0005cf00       ??$_Fill@PAVFreeMemoryBlock@@V1@@std@@YAXPAVFreeMemoryBlock@@0ABV1@@Z 0045df00 f i MemoryManager.obj
 0001:0005cf70       ??$_Move_cat@PAVFreeMemoryBlock@@@std@@YA?AU_Undefined_move_tag@0@ABQAVFreeMemoryBlock@@@Z 0045df70 f i MemoryManager.obj
 0001:0005cfd0       ??$_Move_backward_opt@PAVFreeMemoryBlock@@PAV1@Urandom_access_iterator_tag@std@@U_Undefined_move_tag@3@@std@@YAPAVFreeMemoryBlock@@PAV1@00Urandom_access_iterator_tag@0@U_Undefined_move_tag@0@U_Range_checked_iterator_tag@0@@Z 0045dfd0 f i MemoryManager.obj
 0001:0005d040       ??$_Uninit_fill_n@PAVFreeMemoryBlock@@IV1@V?$allocator@VFreeMemoryBlock@@@std@@@std@@YAXPAVFreeMemoryBlock@@IABV1@AAV?$allocator@VFreeMemoryBlock@@@0@U_Nonscalar_ptr_iterator_tag@0@U_Range_checked_iterator_tag@0@@Z 0045e040 f i MemoryManager.obj
 0001:0005d130       ??$_Destroy_range@VAllocatedMemoryBlock@@V?$allocator@VAllocatedMemoryBlock@@@std@@@std@@YAXPAVAllocatedMemoryBlock@@0AAV?$allocator@VAllocatedMemoryBlock@@@0@U_Nonscalar_ptr_iterator_tag@0@@Z 0045e130 f i MemoryManager.obj
 0001:0005d170       ??$_Unchecked_uninitialized_move@PAVAllocatedMemoryBlock@@PAV1@V?$allocator@VAllocatedMemoryBlock@@@std@@@stdext@@YAPAVAllocatedMemoryBlock@@PAV1@00AAV?$allocator@VAllocatedMemoryBlock@@@std@@@Z 0045e170 f i MemoryManager.obj
 0001:0005d1f0       ??$_Fill@PAVAllocatedMemoryBlock@@V1@@std@@YAXPAVAllocatedMemoryBlock@@0ABV1@@Z 0045e1f0 f i MemoryManager.obj
 0001:0005d250       ??$_Move_cat@PAVAllocatedMemoryBlock@@@std@@YA?AU_Undefined_move_tag@0@ABQAVAllocatedMemoryBlock@@@Z 0045e250 f i MemoryManager.obj
 0001:0005d2b0       ??$_Move_backward_opt@PAVAllocatedMemoryBlock@@PAV1@Urandom_access_iterator_tag@std@@U_Undefined_move_tag@3@@std@@YAPAVAllocatedMemoryBlock@@PAV1@00Urandom_access_iterator_tag@0@U_Undefined_move_tag@0@U_Range_checked_iterator_tag@0@@Z 0045e2b0 f i MemoryManager.obj
 0001:0005d320       ??$move_s@U?$char_traits@D@std@@@_Traits_helper@std@@YAPADPADIPBDIU_Secure_char_traits_tag@1@@Z 0045e320 f i MemoryManager.obj
 0001:0005d350       ?_Move_s@?$char_traits@D@std@@SAPADPADIPBDI@Z 0045e350 f i MemoryManager.obj
 0001:0005d380       ??$_Uninit_fill_n@PAVAllocatedMemoryBlock@@IV1@V?$allocator@VAllocatedMemoryBlock@@@std@@@std@@YAXPAVAllocatedMemoryBlock@@IABV1@AAV?$allocator@VAllocatedMemoryBlock@@@0@U_Nonscalar_ptr_iterator_tag@0@U_Range_checked_iterator_tag@0@@Z 0045e380 f i MemoryManager.obj
 0001:0005d470       ?construct@?$allocator@VFreeMemoryBlock@@@std@@QAEXPAVFreeMemoryBlock@@ABV3@@Z 0045e470 f i MemoryManager.obj
 0001:0005d4b0       ?destroy@?$allocator@VFreeMemoryBlock@@@std@@QAEXPAVFreeMemoryBlock@@@Z 0045e4b0 f i MemoryManager.obj
 0001:0005d4f0       ?construct@?$allocator@VAllocatedMemoryBlock@@@std@@QAEXPAVAllocatedMemoryBlock@@ABV3@@Z 0045e4f0 f i MemoryManager.obj
 0001:0005d530       ?destroy@?$allocator@VAllocatedMemoryBlock@@@std@@QAEXPAVAllocatedMemoryBlock@@@Z 0045e530 f i MemoryManager.obj
 0001:0005d570       ??$_Checked_base@PAVFreeMemoryBlock@@@std@@YAPAVFreeMemoryBlock@@AAPAV1@U_Unchanged_checked_iterator_base_type_tag@0@@Z 0045e570 f i MemoryManager.obj
 0001:0005d580       ??$_Copy_opt@PAVFreeMemoryBlock@@PAV1@Uforward_iterator_tag@std@@@std@@YAPAVFreeMemoryBlock@@PAV1@00Uforward_iterator_tag@0@U_Nonscalar_ptr_iterator_tag@0@U_Range_checked_iterator_tag@0@@Z 0045e580 f i MemoryManager.obj
 0001:0005d600       ??$_Checked_base@PAVAllocatedMemoryBlock@@@std@@YAPAVAllocatedMemoryBlock@@AAPAV1@U_Unchanged_checked_iterator_base_type_tag@0@@Z 0045e600 f i MemoryManager.obj
 0001:0005d610       ??$_Copy_opt@PAVAllocatedMemoryBlock@@PAV1@Uforward_iterator_tag@std@@@std@@YAPAVAllocatedMemoryBlock@@PAV1@00Uforward_iterator_tag@0@U_Nonscalar_ptr_iterator_tag@0@U_Range_checked_iterator_tag@0@@Z 0045e610 f i MemoryManager.obj
 0001:0005d680       ??$_Uninit_move@PAVFreeMemoryBlock@@PAV1@V?$allocator@VFreeMemoryBlock@@@std@@U_Undefined_move_tag@3@@std@@YAPAVFreeMemoryBlock@@PAV1@00AAV?$allocator@VFreeMemoryBlock@@@0@U_Undefined_move_tag@0@U_Range_checked_iterator_tag@0@@Z 0045e680 f i MemoryManager.obj
 0001:0005d6b0       ??$_Debug_range@PAVFreeMemoryBlock@@@std@@YAXPAVFreeMemoryBlock@@0PB_WI@Z 0045e6b0 f i MemoryManager.obj
 0001:0005d710       ??$_Copy_backward_opt@PAVFreeMemoryBlock@@PAV1@@std@@YAPAVFreeMemoryBlock@@PAV1@00Urandom_access_iterator_tag@0@U_Nonscalar_ptr_iterator_tag@0@U_Range_checked_iterator_tag@0@@Z 0045e710 f i MemoryManager.obj
 0001:0005d7a0       ??$_Uninit_move@PAVAllocatedMemoryBlock@@PAV1@V?$allocator@VAllocatedMemoryBlock@@@std@@U_Undefined_move_tag@3@@std@@YAPAVAllocatedMemoryBlock@@PAV1@00AAV?$allocator@VAllocatedMemoryBlock@@@0@U_Undefined_move_tag@0@U_Range_checked_iterator_tag@0@@Z 0045e7a0 f i MemoryManager.obj
 0001:0005d7d0       ??$_Debug_range@PAVAllocatedMemoryBlock@@@std@@YAXPAVAllocatedMemoryBlock@@0PB_WI@Z 0045e7d0 f i MemoryManager.obj
 0001:0005d830       ??$_Copy_backward_opt@PAVAllocatedMemoryBlock@@PAV1@@std@@YAPAVAllocatedMemoryBlock@@PAV1@00Urandom_access_iterator_tag@0@U_Nonscalar_ptr_iterator_tag@0@U_Range_checked_iterator_tag@0@@Z 0045e830 f i MemoryManager.obj
 0001:0005d8c0       ??$_Construct@VFreeMemoryBlock@@V1@@std@@YAXPAVFreeMemoryBlock@@ABV1@@Z 0045e8c0 f i MemoryManager.obj
 0001:0005d950       ??2@YAPAXIPAX@Z            0045e950 f i MemoryManager.obj
 0001:0005d960       ??$_Destroy@VFreeMemoryBlock@@@std@@YAXPAVFreeMemoryBlock@@@Z 0045e960 f i MemoryManager.obj
 0001:0005d970       ??$_Construct@VAllocatedMemoryBlock@@V1@@std@@YAXPAVAllocatedMemoryBlock@@ABV1@@Z 0045e970 f i MemoryManager.obj
 0001:0005d9f0       ??$_Destroy@VAllocatedMemoryBlock@@@std@@YAXPAVAllocatedMemoryBlock@@@Z 0045e9f0 f i MemoryManager.obj
 0001:0005da00       ??$unchecked_uninitialized_copy@PAVFreeMemoryBlock@@PAV1@V?$allocator@VFreeMemoryBlock@@@std@@@stdext@@YAPAVFreeMemoryBlock@@PAV1@00AAV?$allocator@VFreeMemoryBlock@@@std@@@Z 0045ea00 f i MemoryManager.obj
 0001:0005da80       ??$_Iter_cat@PAVFreeMemoryBlock@@@std@@YA?AUrandom_access_iterator_tag@0@ABQAVFreeMemoryBlock@@@Z 0045ea80 f i MemoryManager.obj
 0001:0005dae0       ??$_Debug_range2@PAVFreeMemoryBlock@@@std@@YAXPAVFreeMemoryBlock@@0PB_WIUrandom_access_iterator_tag@0@@Z 0045eae0 f i MemoryManager.obj
 0001:0005db50       ??$_Copy_backward_opt@PAVFreeMemoryBlock@@PAV1@Uforward_iterator_tag@std@@@std@@YAPAVFreeMemoryBlock@@PAV1@00Uforward_iterator_tag@0@U_Nonscalar_ptr_iterator_tag@0@U_Range_checked_iterator_tag@0@@Z 0045eb50 f i MemoryManager.obj
 0001:0005dbd0       ??$unchecked_uninitialized_copy@PAVAllocatedMemoryBlock@@PAV1@V?$allocator@VAllocatedMemoryBlock@@@std@@@stdext@@YAPAVAllocatedMemoryBlock@@PAV1@00AAV?$allocator@VAllocatedMemoryBlock@@@std@@@Z 0045ebd0 f i MemoryManager.obj
 0001:0005dc50       ??$_Iter_cat@PAVAllocatedMemoryBlock@@@std@@YA?AUrandom_access_iterator_tag@0@ABQAVAllocatedMemoryBlock@@@Z 0045ec50 f i MemoryManager.obj
 0001:0005dcb0       ??$_Debug_range2@PAVAllocatedMemoryBlock@@@std@@YAXPAVAllocatedMemoryBlock@@0PB_WIUrandom_access_iterator_tag@0@@Z 0045ecb0 f i MemoryManager.obj
 0001:0005dd20       ??$_Copy_backward_opt@PAVAllocatedMemoryBlock@@PAV1@Uforward_iterator_tag@std@@@std@@YAPAVAllocatedMemoryBlock@@PAV1@00Uforward_iterator_tag@0@U_Nonscalar_ptr_iterator_tag@0@U_Range_checked_iterator_tag@0@@Z 0045ed20 f i MemoryManager.obj
 0001:0005dd90       ??$_Uninit_copy@PAVFreeMemoryBlock@@PAV1@V?$allocator@VFreeMemoryBlock@@@std@@@std@@YAPAVFreeMemoryBlock@@PAV1@00AAV?$allocator@VFreeMemoryBlock@@@0@U_Nonscalar_ptr_iterator_tag@0@U_Range_checked_iterator_tag@0@@Z 0045ed90 f i MemoryManager.obj
 0001:0005dec0       ??$_Debug_pointer@VFreeMemoryBlock@@@std@@YAXPAVFreeMemoryBlock@@PB_WI@Z 0045eec0 f i MemoryManager.obj
 0001:0005def0       ??$_Uninit_copy@PAVAllocatedMemoryBlock@@PAV1@V?$allocator@VAllocatedMemoryBlock@@@std@@@std@@YAPAVAllocatedMemoryBlock@@PAV1@00AAV?$allocator@VAllocatedMemoryBlock@@@0@U_Nonscalar_ptr_iterator_tag@0@U_Range_checked_iterator_tag@0@@Z 0045eef0 f i MemoryManager.obj
 0001:0005e020       ??$_Debug_pointer@VAllocatedMemoryBlock@@@std@@YAXPAVAllocatedMemoryBlock@@PB_WI@Z 0045f020 f i MemoryManager.obj
 0001:0005e050       ??0MPE@@QAE@I@Z            0045f050 f   mpe.obj
 0001:0005e4a0       ??1MPE@@QAE@XZ             0045f4a0 f   mpe.obj
 0001:0005e5b0       ?AllocateMPELocalMemory@MPE@@QAEXXZ 0045f5b0 f   mpe.obj
 0001:0005e600       ?FreeMPELocalMemory@MPE@@QAEXXZ 0045f600 f   mpe.obj
 0001:0005e640       ?GenerateMirrorLookupTable@MPE@@QAEXXZ 0045f640 f   mpe.obj
 0001:0005e750       ?InitializeBankTable@MPE@@QAEXPAE00@Z 0045f750 f   mpe.obj
 0001:0005e840       ?Reset@MPE@@QAEXXZ         0045f840 f   mpe.obj
 0001:0005eab0       ?LoadBinaryFile@MPE@@QAE_NPAE_N@Z 0045fab0 f   mpe.obj
 0001:0005eb60       ?DecompressPacket@MPE@@QAEXPAEPAVInstructionCacheEntry@@I@Z 0045fb60 f   mpe.obj
 0001:000602a0       ?ScheduleInstructionTriplet@MPE@@QAEXPAVInstructionCacheEntry@@I0III@Z 004612a0 f   mpe.obj
 0001:000606b0       ?ScoreInstructionTriplet@MPE@@QAEIPAVInstructionCacheEntry@@III@Z 004616b0 f   mpe.obj
 0001:00060790       ?GetInstructionTripletDependencies@MPE@@QAEXPAI0PAVInstructionCacheEntry@@III@Z 00461790 f   mpe.obj
 0001:00060860       ?ScheduleInstructionQuartet@MPE@@QAEXPAVInstructionCacheEntry@@I0@Z 00461860 f   mpe.obj
 0001:00060bc0       ?LogMemoryLocation@@YAXPAU_iobuf@@PADIPAVMPE@@@Z 00461bc0 f   mpe.obj
 0001:00060c60       ?UpdateInvalidateRegion@MPE@@QAEXII@Z 00461c60 f   mpe.obj
 0001:00060d70       ?FetchDecodeExecute@MPE@@QAE_NXZ 00461d70 f   mpe.obj
 0001:00061800       ?InitStaticICacheEntries@MPE@@QAEXXZ 00462800 f   mpe.obj
 0001:00061970       ?SaveRegisters@MPE@@QAEXXZ 00462970 f   mpe.obj
 0001:000619d0       ?ExecuteNuances@MPE@@QAEXAAVInstructionCacheEntry@@@Z 004629d0 f   mpe.obj
 0001:00061b10       ?DecodeSingleInstruction@MPE@@QAEEPAEPAVInstructionCacheEntry@@PAIAA_N@Z 00462b10 f   mpe.obj
 0001:00061d50       ?CompileNativeCodeBlock@MPE@@QAEP6AXXZIW4SuperBlockCompileType@@AA_N_N@Z 00462d50 f   mpe.obj
 0001:00061da0       ?PrintInstructionCachePacket@MPE@@QAEXPADAAVInstructionCacheEntry@@@Z 00462da0 f   mpe.obj
 0001:00061e70       ?PrintInstructionCachePacket@MPE@@QAEXPADI@Z 00462e70 f   mpe.obj
 0001:00061f90       ?ExecuteSingleStep@MPE@@QAEXXZ 00462f90 f   mpe.obj
 0001:00062fe0       ?GetEmitPointerAddress@NativeCodeCache@@QAEPAPAEXZ 00463fe0 f i mpe.obj
 0001:00063000       ?SetEmitVars@NativeCodeCache@@QAEXAAVEmitterVariables@@@Z 00464000 f i mpe.obj
 0001:00063040       ?SetOverlayLength@OverlayManager@@QAEXI@Z 00464040 f i mpe.obj
 0001:00063070       ??_GNativeCodeCache@@QAEPAXI@Z 00464070 f i mpe.obj
 0001:000630c0       ??_GInstructionCache@@QAEPAXI@Z 004640c0 f i mpe.obj
 0001:00063110       ??_GSuperBlock@@QAEPAXI@Z  00464110 f i mpe.obj
 0001:00063160       ?GetPacketDelta@MPE@@QAEIPAEI@Z 00464160 f i mpe.obj
 0001:00063310       ?ChooseInstructionPairOrdering@MPE@@QAE_NPAVInstructionCacheEntry@@II@Z 00464310 f i mpe.obj
 0001:00063460       ?FindInstructionCacheEntry@InstructionCache@@QAEPAVInstructionCacheEntry@@IAAI@Z 00464460 f i mpe.obj
 0001:000634f0       ?SetEntryValid@InstructionCache@@QAEXI@Z 004644f0 f i mpe.obj
 0001:00063570       ?ClearCompiledStates@InstructionCache@@QAEXXZ 00464570 f i mpe.obj
 0001:000635f0       ?IsBeyondThreshold@NativeCodeCache@@QAE_NXZ 004645f0 f i mpe.obj
 0001:00063630       ?GetUsedCodeBufferSize@NativeCodeCache@@QAEIXZ 00464630 f i mpe.obj
 0001:00063660       ?GetOverlayMask@OverlayManager@@QAEIXZ 00464660 f i mpe.obj
 0001:00063690       ?InvalidateICacheRegion@MPE@@QAEXII@Z 00464690 f i mpe.obj
 0001:000636f0       ?ResetMPEFlags@@YAXPAVMPE@@@Z 004646f0 f   mpe_alloc.obj
 0001:00063760       ?MPEAlloc@@YAXPAVMPE@@@Z   00464760 f   mpe_alloc.obj
 0001:00063840       ?MPEAllocSpecific@@YAXPAVMPE@@@Z 00464840 f   mpe_alloc.obj
 0001:000638a0       ?MPEFree@@YAXPAVMPE@@@Z    004648a0 f   mpe_alloc.obj
 0001:00063900       ?MPEStatus@@YAXPAVMPE@@@Z  00464900 f   mpe_alloc.obj
 0001:00063930       ?MPEsAvailable@@YAXPAVMPE@@@Z 00464930 f   mpe_alloc.obj
 0001:000639a0       ?MPERun@@YAXPAVMPE@@@Z     004649a0 f   mpe_alloc.obj
 0001:00063b20       ?MPERunThread@@YAXPAVMPE@@@Z 00464b20 f   mpe_alloc.obj
 0001:00063cd0       ?MPEStop@@YAXPAVMPE@@@Z    00464cd0 f   mpe_alloc.obj
 0001:00063d10       ?MPELoad@@YAXPAVMPE@@@Z    00464d10 f   mpe_alloc.obj
 0001:00063e30       ?MPEReadRegister@@YAXPAVMPE@@@Z 00464e30 f   mpe_alloc.obj
 0001:00063f90       ?MPEWriteRegister@@YAXPAVMPE@@@Z 00464f90 f   mpe_alloc.obj
 0001:00064250       ?Go@MPE@@QAEXXZ            00465250 f i mpe_alloc.obj
 0001:00064280       ?GetPointerToMemory@MPE@@QAEPAXXZ 00465280 f i mpe_alloc.obj
 0001:000642b0       ?ReadControlRegister@MPE@@QAEIIPAVInstructionCacheEntry@@@Z 004652b0 f   MPEControlRegisters.obj
 0001:000648c0       ?WriteControlRegister@MPE@@QAEXII@Z 004658c0 f   MPEControlRegisters.obj
 0001:00065ce0       ?InvalidateICache@MPE@@QAEXXZ 00466ce0 f i MPEControlRegisters.obj
 0001:00065d30       ??0NativeCodeCache@@QAE@III@Z 00466d30 f   nativecodecache.obj
 0001:00065fd0       ??1NativeCodeCache@@QAE@XZ 00466fd0 f   nativecodecache.obj
 0001:00066080       ?FindNativeCodeCacheEntry@NativeCodeCache@@QAEPAVNativeCodeCacheEntry@@I@Z 00467080 f   nativecodecache.obj
 0001:000660e0       ?ReleaseBuffer@NativeCodeCache@@QAE_NP6AXXZIIIIIW4SuperBlockCompileType@@II@Z 004670e0 f   nativecodecache.obj
 0001:000661f0       ?Flush@NativeCodeCache@@QAEXXZ 004671f0 f   nativecodecache.obj
 0001:00066230       ?FlushRegion@NativeCodeCache@@QAEXII@Z 00467230 f   nativecodecache.obj
 0001:00066270       ?X86Emit_ModRegRM@NativeCodeCache@@QAEXW4x86ModType@@W4x86ModReg@@IW4x86IndexReg@@W4x86ScaleVal@@H@Z 00467270 f   nativecodecache.obj
 0001:00066500       ?X86Emit_Group1RR@NativeCodeCache@@QAEXW4x86Reg@@0E@Z 00467500 f   nativecodecache.obj
 0001:00066610       ?X86Emit_Group1RM@NativeCodeCache@@QAEXW4x86Reg@@IW4x86IndexReg@@W4x86ScaleVal@@HE@Z 00467610 f   nativecodecache.obj
 0001:00066720       ?X86Emit_Group1MR@NativeCodeCache@@QAEXW4x86Reg@@IW4x86IndexReg@@W4x86ScaleVal@@HE@Z 00467720 f   nativecodecache.obj
 0001:00066840       ?X86Emit_Group1IR@NativeCodeCache@@QAEXHW4x86Reg@@E@Z 00467840 f   nativecodecache.obj
 0001:00066b40       ?X86Emit_Group1IM@NativeCodeCache@@QAEXHW4x86MemPtr@@IW4x86IndexReg@@W4x86ScaleVal@@HE@Z 00467b40 f   nativecodecache.obj
 0001:00066d60       ?X86Emit_Group2IR@NativeCodeCache@@QAEXW4x86Reg@@EE@Z 00467d60 f   nativecodecache.obj
 0001:00066f60       ?X86Emit_Group2IM@NativeCodeCache@@QAEXW4x86MemPtr@@EIW4x86IndexReg@@W4x86ScaleVal@@HE@Z 00467f60 f   nativecodecache.obj
 0001:00067170       ?X86Emit_Group2RR@NativeCodeCache@@QAEXW4x86Reg@@E@Z 00468170 f   nativecodecache.obj
 0001:00067260       ?X86Emit_Group2RM@NativeCodeCache@@QAEXW4x86MemPtr@@IW4x86IndexReg@@W4x86ScaleVal@@HE@Z 00468260 f   nativecodecache.obj
 0001:00067350       ?X86Emit_ADDRR@NativeCodeCache@@QAEXW4x86Reg@@0@Z 00468350 f   nativecodecache.obj
 0001:00067380       ?X86Emit_ADDRM@NativeCodeCache@@QAEXW4x86Reg@@IW4x86IndexReg@@W4x86ScaleVal@@H@Z 00468380 f   nativecodecache.obj
 0001:000673c0       ?X86Emit_ADDMR@NativeCodeCache@@QAEXW4x86Reg@@IW4x86IndexReg@@W4x86ScaleVal@@H@Z 004683c0 f   nativecodecache.obj
 0001:00067400       ?X86Emit_ADDIR@NativeCodeCache@@QAEXHW4x86Reg@@@Z 00468400 f   nativecodecache.obj
 0001:00067430       ?X86Emit_ADDIM@NativeCodeCache@@QAEXHW4x86MemPtr@@IW4x86IndexReg@@W4x86ScaleVal@@H@Z 00468430 f   nativecodecache.obj
 0001:00067470       ?X86Emit_PUSHES@NativeCodeCache@@QAEXXZ 00468470 f   nativecodecache.obj
 0001:000674a0       ?X86Emit_POPES@NativeCodeCache@@QAEXXZ 004684a0 f   nativecodecache.obj
 0001:000674d0       ?X86Emit_ORRR@NativeCodeCache@@QAEXW4x86Reg@@0@Z 004684d0 f   nativecodecache.obj
 0001:00067500       ?X86Emit_ORRM@NativeCodeCache@@QAEXW4x86Reg@@IW4x86IndexReg@@W4x86ScaleVal@@H@Z 00468500 f   nativecodecache.obj
 0001:00067540       ?X86Emit_ORMR@NativeCodeCache@@QAEXW4x86Reg@@IW4x86IndexReg@@W4x86ScaleVal@@H@Z 00468540 f   nativecodecache.obj
 0001:00067580       ?X86Emit_ORIR@NativeCodeCache@@QAEXHW4x86Reg@@@Z 00468580 f   nativecodecache.obj
 0001:000675b0       ?X86Emit_ORIM@NativeCodeCache@@QAEXHW4x86MemPtr@@IW4x86IndexReg@@W4x86ScaleVal@@H@Z 004685b0 f   nativecodecache.obj
 0001:000675f0       ?X86Emit_PUSHCS@NativeCodeCache@@QAEXXZ 004685f0 f   nativecodecache.obj
 0001:00067620       ?X86Emit_ADCRR@NativeCodeCache@@QAEXW4x86Reg@@0@Z 00468620 f   nativecodecache.obj
 0001:00067650       ?X86Emit_ADCRM@NativeCodeCache@@QAEXW4x86Reg@@IW4x86IndexReg@@W4x86ScaleVal@@H@Z 00468650 f   nativecodecache.obj
 0001:00067690       ?X86Emit_ADCMR@NativeCodeCache@@QAEXW4x86Reg@@IW4x86IndexReg@@W4x86ScaleVal@@H@Z 00468690 f   nativecodecache.obj
 0001:000676d0       ?X86Emit_ADCIR@NativeCodeCache@@QAEXHW4x86Reg@@@Z 004686d0 f   nativecodecache.obj
 0001:00067700       ?X86Emit_ADCIM@NativeCodeCache@@QAEXHW4x86MemPtr@@IW4x86IndexReg@@W4x86ScaleVal@@H@Z 00468700 f   nativecodecache.obj
 0001:00067740       ?X86Emit_PUSHSS@NativeCodeCache@@QAEXXZ 00468740 f   nativecodecache.obj
 0001:00067770       ?X86Emit_POPSS@NativeCodeCache@@QAEXXZ 00468770 f   nativecodecache.obj
 0001:000677a0       ?X86Emit_SBBRR@NativeCodeCache@@QAEXW4x86Reg@@0@Z 004687a0 f   nativecodecache.obj
 0001:000677d0       ?X86Emit_SBBRM@NativeCodeCache@@QAEXW4x86Reg@@IW4x86IndexReg@@W4x86ScaleVal@@H@Z 004687d0 f   nativecodecache.obj
 0001:00067810       ?X86Emit_SBBMR@NativeCodeCache@@QAEXW4x86Reg@@IW4x86IndexReg@@W4x86ScaleVal@@H@Z 00468810 f   nativecodecache.obj
 0001:00067850       ?X86Emit_SBBIR@NativeCodeCache@@QAEXHW4x86Reg@@@Z 00468850 f   nativecodecache.obj
 0001:00067880       ?X86Emit_SBBIM@NativeCodeCache@@QAEXHW4x86MemPtr@@IW4x86IndexReg@@W4x86ScaleVal@@H@Z 00468880 f   nativecodecache.obj
 0001:000678c0       ?X86Emit_PUSHDS@NativeCodeCache@@QAEXXZ 004688c0 f   nativecodecache.obj
 0001:000678f0       ?X86Emit_POPDS@NativeCodeCache@@QAEXXZ 004688f0 f   nativecodecache.obj
 0001:00067920       ?X86Emit_ANDRR@NativeCodeCache@@QAEXW4x86Reg@@0@Z 00468920 f   nativecodecache.obj
 0001:00067950       ?X86Emit_ANDRM@NativeCodeCache@@QAEXW4x86Reg@@IW4x86IndexReg@@W4x86ScaleVal@@H@Z 00468950 f   nativecodecache.obj
 0001:00067990       ?X86Emit_ANDMR@NativeCodeCache@@QAEXW4x86Reg@@IW4x86IndexReg@@W4x86ScaleVal@@H@Z 00468990 f   nativecodecache.obj
 0001:000679d0       ?X86Emit_ANDIR@NativeCodeCache@@QAEXHW4x86Reg@@@Z 004689d0 f   nativecodecache.obj
 0001:00067a00       ?X86Emit_ANDIM@NativeCodeCache@@QAEXHW4x86MemPtr@@IW4x86IndexReg@@W4x86ScaleVal@@H@Z 00468a00 f   nativecodecache.obj
 0001:00067a40       ?X86Emit_ES@NativeCodeCache@@QAEXXZ 00468a40 f   nativecodecache.obj
 0001:00067a70       ?X86Emit_DAA@NativeCodeCache@@QAEXXZ 00468a70 f   nativecodecache.obj
 0001:00067aa0       ?X86Emit_SUBRR@NativeCodeCache@@QAEXW4x86Reg@@0@Z 00468aa0 f   nativecodecache.obj
 0001:00067ad0       ?X86Emit_SUBRM@NativeCodeCache@@QAEXW4x86Reg@@IW4x86IndexReg@@W4x86ScaleVal@@H@Z 00468ad0 f   nativecodecache.obj
 0001:00067b10       ?X86Emit_SUBMR@NativeCodeCache@@QAEXW4x86Reg@@IW4x86IndexReg@@W4x86ScaleVal@@H@Z 00468b10 f   nativecodecache.obj
 0001:00067b50       ?X86Emit_SUBIR@NativeCodeCache@@QAEXHW4x86Reg@@@Z 00468b50 f   nativecodecache.obj
 0001:00067b80       ?X86Emit_SUBIM@NativeCodeCache@@QAEXHW4x86MemPtr@@IW4x86IndexReg@@W4x86ScaleVal@@H@Z 00468b80 f   nativecodecache.obj
 0001:00067bc0       ?X86Emit_CS@NativeCodeCache@@QAEXXZ 00468bc0 f   nativecodecache.obj
 0001:00067bf0       ?X86Emit_DAS@NativeCodeCache@@QAEXXZ 00468bf0 f   nativecodecache.obj
 0001:00067c20       ?X86Emit_XORRR@NativeCodeCache@@QAEXW4x86Reg@@0@Z 00468c20 f   nativecodecache.obj
 0001:00067c50       ?X86Emit_XORRM@NativeCodeCache@@QAEXW4x86Reg@@IW4x86IndexReg@@W4x86ScaleVal@@H@Z 00468c50 f   nativecodecache.obj
 0001:00067c90       ?X86Emit_XORMR@NativeCodeCache@@QAEXW4x86Reg@@IW4x86IndexReg@@W4x86ScaleVal@@H@Z 00468c90 f   nativecodecache.obj
 0001:00067cd0       ?X86Emit_XORIR@NativeCodeCache@@QAEXHW4x86Reg@@@Z 00468cd0 f   nativecodecache.obj
 0001:00067d00       ?X86Emit_XORIM@NativeCodeCache@@QAEXHW4x86MemPtr@@IW4x86IndexReg@@W4x86ScaleVal@@H@Z 00468d00 f   nativecodecache.obj
 0001:00067d40       ?X86Emit_SS@NativeCodeCache@@QAEXXZ 00468d40 f   nativecodecache.obj
 0001:00067d70       ?X86Emit_AAA@NativeCodeCache@@QAEXXZ 00468d70 f   nativecodecache.obj
 0001:00067da0       ?X86Emit_CMPRR@NativeCodeCache@@QAEXW4x86Reg@@0@Z 00468da0 f   nativecodecache.obj
 0001:00067dd0       ?X86Emit_CMPRM@NativeCodeCache@@QAEXW4x86Reg@@IW4x86IndexReg@@W4x86ScaleVal@@H@Z 00468dd0 f   nativecodecache.obj
 0001:00067e10       ?X86Emit_CMPMR@NativeCodeCache@@QAEXW4x86Reg@@IW4x86IndexReg@@W4x86ScaleVal@@H@Z 00468e10 f   nativecodecache.obj
 0001:00067e50       ?X86Emit_CMPIR@NativeCodeCache@@QAEXHW4x86Reg@@@Z 00468e50 f   nativecodecache.obj
 0001:00067e80       ?X86Emit_CMPIM@NativeCodeCache@@QAEXHW4x86MemPtr@@IW4x86IndexReg@@W4x86ScaleVal@@H@Z 00468e80 f   nativecodecache.obj
 0001:00067ec0       ?X86Emit_DS@NativeCodeCache@@QAEXXZ 00468ec0 f   nativecodecache.obj
 0001:00067ef0       ?X86Emit_AAS@NativeCodeCache@@QAEXXZ 00468ef0 f   nativecodecache.obj
 0001:00067f20       ?X86Emit_INCR@NativeCodeCache@@QAEXW4x86Reg@@@Z 00468f20 f   nativecodecache.obj
 0001:00067fe0       ?X86Emit_DECR@NativeCodeCache@@QAEXW4x86Reg@@@Z 00468fe0 f   nativecodecache.obj
 0001:000680a0       ?X86Emit_PUSHR@NativeCodeCache@@QAEXW4x86Reg@@@Z 004690a0 f   nativecodecache.obj
 0001:00068100       ?X86Emit_POPR@NativeCodeCache@@QAEXW4x86Reg@@@Z 00469100 f   nativecodecache.obj
 0001:00068160       ?X86Emit_PUSHAW@NativeCodeCache@@QAEXXZ 00469160 f   nativecodecache.obj
 0001:000681b0       ?X86Emit_PUSHAD@NativeCodeCache@@QAEXXZ 004691b0 f   nativecodecache.obj
 0001:000681e0       ?X86Emit_POPAW@NativeCodeCache@@QAEXXZ 004691e0 f   nativecodecache.obj
 0001:00068230       ?X86Emit_POPAD@NativeCodeCache@@QAEXXZ 00469230 f   nativecodecache.obj
 0001:00068260       ?X86Emit_FS@NativeCodeCache@@QAEXXZ 00469260 f   nativecodecache.obj
 0001:00068290       ?X86Emit_GS@NativeCodeCache@@QAEXXZ 00469290 f   nativecodecache.obj
 0001:000682c0       ?X86Emit_OPSIZE@NativeCodeCache@@QAEXXZ 004692c0 f   nativecodecache.obj
 0001:000682f0       ?X86Emit_ADSIZE@NativeCodeCache@@QAEXXZ 004692f0 f   nativecodecache.obj
 0001:00068320       ?X86Emit_PUSHID@NativeCodeCache@@QAEXH@Z 00469320 f   nativecodecache.obj
 0001:00068370       ?X86Emit_PUSHIW@NativeCodeCache@@QAEXF@Z 00469370 f   nativecodecache.obj
 0001:000683d0       ?X86Emit_IMULMRR@NativeCodeCache@@QAEXW4x86Reg@@IW4x86IndexReg@@W4x86ScaleVal@@H@Z 004693d0 f   nativecodecache.obj
 0001:00068460       ?X86Emit_IMULRRR@NativeCodeCache@@QAEXW4x86Reg@@0@Z 00469460 f   nativecodecache.obj
 0001:000684f0       ?X86Emit_IMULIRR@NativeCodeCache@@QAEXW4x86Reg@@H0@Z 004694f0 f   nativecodecache.obj
 0001:000686b0       ?X86Emit_IMULIMR@NativeCodeCache@@QAEXW4x86Reg@@HIW4x86IndexReg@@W4x86ScaleVal@@H@Z 004696b0 f   nativecodecache.obj
 0001:00068880       ?X86Emit_PUSHIB@NativeCodeCache@@QAEXC@Z 00469880 f   nativecodecache.obj
 0001:000688d0       ?X86Emit_INSB@NativeCodeCache@@QAEXXZ 004698d0 f   nativecodecache.obj
 0001:00068900       ?X86Emit_INSW@NativeCodeCache@@QAEXXZ 00469900 f   nativecodecache.obj
 0001:00068950       ?X86Emit_INSD@NativeCodeCache@@QAEXXZ 00469950 f   nativecodecache.obj
 0001:00068980       ?X86Emit_OUTSB@NativeCodeCache@@QAEXXZ 00469980 f   nativecodecache.obj
 0001:000689b0       ?X86Emit_OUTSW@NativeCodeCache@@QAEXXZ 004699b0 f   nativecodecache.obj
 0001:00068a00       ?X86Emit_OUTSD@NativeCodeCache@@QAEXXZ 00469a00 f   nativecodecache.obj
 0001:00068a30       ?X86Emit_FEMMS@NativeCodeCache@@QAEXXZ 00469a30 f   nativecodecache.obj
 0001:00068a80       ?X86Emit_EMMS@NativeCodeCache@@QAEXXZ 00469a80 f   nativecodecache.obj
 0001:00068ad0       ?X86Emit_JCC@NativeCodeCache@@QAEXPAEC@Z 00469ad0 f   nativecodecache.obj
 0001:00068bb0       ?X86Emit_JCC_Label@NativeCodeCache@@QAEXPAVPatchManager@@CI@Z 00469bb0 f   nativecodecache.obj
 0001:00068c70       ?X86Emit_JO@NativeCodeCache@@QAEXPAE@Z 00469c70 f   nativecodecache.obj
 0001:00068ca0       ?X86Emit_JNO@NativeCodeCache@@QAEXPAE@Z 00469ca0 f   nativecodecache.obj
 0001:00068cd0       ?X86Emit_JB@NativeCodeCache@@QAEXPAE@Z 00469cd0 f   nativecodecache.obj
 0001:00068d00       ?X86Emit_JNB@NativeCodeCache@@QAEXPAE@Z 00469d00 f   nativecodecache.obj
 0001:00068d30       ?X86Emit_JZ@NativeCodeCache@@QAEXPAE@Z 00469d30 f   nativecodecache.obj
 0001:00068d60       ?X86Emit_JNZ@NativeCodeCache@@QAEXPAE@Z 00469d60 f   nativecodecache.obj
 0001:00068d90       ?X86Emit_JBE@NativeCodeCache@@QAEXPAE@Z 00469d90 f   nativecodecache.obj
 0001:00068dc0       ?X86Emit_JNBE@NativeCodeCache@@QAEXPAE@Z 00469dc0 f   nativecodecache.obj
 0001:00068df0       ?X86Emit_JS@NativeCodeCache@@QAEXPAE@Z 00469df0 f   nativecodecache.obj
 0001:00068e20       ?X86Emit_JNS@NativeCodeCache@@QAEXPAE@Z 00469e20 f   nativecodecache.obj
 0001:00068e50       ?X86Emit_JP@NativeCodeCache@@QAEXPAE@Z 00469e50 f   nativecodecache.obj
 0001:00068e80       ?X86Emit_JNP@NativeCodeCache@@QAEXPAE@Z 00469e80 f   nativecodecache.obj
 0001:00068eb0       ?X86Emit_JL@NativeCodeCache@@QAEXPAE@Z 00469eb0 f   nativecodecache.obj
 0001:00068ee0       ?X86Emit_JNL@NativeCodeCache@@QAEXPAE@Z 00469ee0 f   nativecodecache.obj
 0001:00068f10       ?X86Emit_JLE@NativeCodeCache@@QAEXPAE@Z 00469f10 f   nativecodecache.obj
 0001:00068f40       ?X86Emit_JNLE@NativeCodeCache@@QAEXPAE@Z 00469f40 f   nativecodecache.obj
 0001:00068f70       ?X86Emit_TESTRR@NativeCodeCache@@QAEXW4x86Reg@@0@Z 00469f70 f   nativecodecache.obj
 0001:00069060       ?X86Emit_TESTRM@NativeCodeCache@@QAEXW4x86Reg@@IW4x86IndexReg@@W4x86ScaleVal@@H@Z 0046a060 f   nativecodecache.obj
 0001:00069160       ?X86Emit_XCHGRM@NativeCodeCache@@QAEXW4x86Reg@@IW4x86IndexReg@@W4x86ScaleVal@@H@Z 0046a160 f   nativecodecache.obj
 0001:00069260       ?X86Emit_MOVRR@NativeCodeCache@@QAEXW4x86Reg@@0@Z 0046a260 f   nativecodecache.obj
 0001:00069290       ?X86Emit_LEA@NativeCodeCache@@QAEXW4x86Reg@@IW4x86IndexReg@@W4x86ScaleVal@@H@Z 0046a290 f   nativecodecache.obj
 0001:00069310       ?X86Emit_POPM@NativeCodeCache@@QAEXW4x86MemPtr@@IW4x86IndexReg@@W4x86ScaleVal@@H@Z 0046a310 f   nativecodecache.obj
 0001:00069380       ?X86Emit_NOP@NativeCodeCache@@QAEXXZ 0046a380 f   nativecodecache.obj
 0001:000693b0       ?X86Emit_XCHGRR@NativeCodeCache@@QAEXW4x86Reg@@0@Z 0046a3b0 f   nativecodecache.obj
 0001:00069540       ?X86Emit_CBW@NativeCodeCache@@QAEXXZ 0046a540 f   nativecodecache.obj
 0001:00069590       ?X86Emit_CWDE@NativeCodeCache@@QAEXXZ 0046a590 f   nativecodecache.obj
 0001:000695c0       ?X86Emit_CWD@NativeCodeCache@@QAEXXZ 0046a5c0 f   nativecodecache.obj
 0001:00069610       ?X86Emit_CDQ@NativeCodeCache@@QAEXXZ 0046a610 f   nativecodecache.obj
 0001:00069640       ?X86Emit_CALLI@NativeCodeCache@@QAEXIG@Z 0046a640 f   nativecodecache.obj
 0001:000696f0       ?X86Emit_JMPI@NativeCodeCache@@QAEXPAEG@Z 0046a6f0 f   nativecodecache.obj
 0001:00069810       ?X86Emit_JMPI_Label@NativeCodeCache@@QAEXPAVPatchManager@@I@Z 0046a810 f   nativecodecache.obj
 0001:000698b0       ?X86Emit_WAIT@NativeCodeCache@@QAEXXZ 0046a8b0 f   nativecodecache.obj
 0001:000698e0       ?X86Emit_PUSHFW@NativeCodeCache@@QAEXXZ 0046a8e0 f   nativecodecache.obj
 0001:00069930       ?X86Emit_PUSHFD@NativeCodeCache@@QAEXXZ 0046a930 f   nativecodecache.obj
 0001:00069960       ?X86Emit_POPFW@NativeCodeCache@@QAEXXZ 0046a960 f   nativecodecache.obj
 0001:000699b0       ?X86Emit_POPFD@NativeCodeCache@@QAEXXZ 0046a9b0 f   nativecodecache.obj
 0001:000699e0       ?X86Emit_SAHF@NativeCodeCache@@QAEXXZ 0046a9e0 f   nativecodecache.obj
 0001:00069a10       ?X86Emit_LAHF@NativeCodeCache@@QAEXXZ 0046aa10 f   nativecodecache.obj
 0001:00069a40       ?X86Emit_MOVMR@NativeCodeCache@@QAEXW4x86Reg@@IW4x86IndexReg@@W4x86ScaleVal@@H@Z 0046aa40 f   nativecodecache.obj
 0001:00069b10       ?X86Emit_MOVRM@NativeCodeCache@@QAEXW4x86Reg@@IW4x86IndexReg@@W4x86ScaleVal@@H@Z 0046ab10 f   nativecodecache.obj
 0001:00069be0       ?X86Emit_MOVIR@NativeCodeCache@@QAEXHW4x86Reg@@@Z 0046abe0 f   nativecodecache.obj
 0001:00069ce0       ?X86Emit_MOVSB@NativeCodeCache@@QAEXXZ 0046ace0 f   nativecodecache.obj
 0001:00069d10       ?X86Emit_MOVSW@NativeCodeCache@@QAEXXZ 0046ad10 f   nativecodecache.obj
 0001:00069d60       ?X86Emit_MOVSD@NativeCodeCache@@QAEXXZ 0046ad60 f   nativecodecache.obj
 0001:00069d90       ?X86Emit_CMPSB@NativeCodeCache@@QAEXXZ 0046ad90 f   nativecodecache.obj
 0001:00069dc0       ?X86Emit_CMPSW@NativeCodeCache@@QAEXXZ 0046adc0 f   nativecodecache.obj
 0001:00069e10       ?X86Emit_CMPSD@NativeCodeCache@@QAEXXZ 0046ae10 f   nativecodecache.obj
 0001:00069e40       ?X86Emit_STOSB@NativeCodeCache@@QAEXXZ 0046ae40 f   nativecodecache.obj
 0001:00069e70       ?X86Emit_STOSW@NativeCodeCache@@QAEXXZ 0046ae70 f   nativecodecache.obj
 0001:00069ec0       ?X86Emit_STOSD@NativeCodeCache@@QAEXXZ 0046aec0 f   nativecodecache.obj
 0001:00069ef0       ?X86Emit_LODSB@NativeCodeCache@@QAEXXZ 0046aef0 f   nativecodecache.obj
 0001:00069f20       ?X86Emit_LODSW@NativeCodeCache@@QAEXXZ 0046af20 f   nativecodecache.obj
 0001:00069f70       ?X86Emit_LODSD@NativeCodeCache@@QAEXXZ 0046af70 f   nativecodecache.obj
 0001:00069fa0       ?X86Emit_SCASB@NativeCodeCache@@QAEXXZ 0046afa0 f   nativecodecache.obj
 0001:00069fd0       ?X86Emit_SCASW@NativeCodeCache@@QAEXXZ 0046afd0 f   nativecodecache.obj
 0001:0006a020       ?X86Emit_SCASD@NativeCodeCache@@QAEXXZ 0046b020 f   nativecodecache.obj
 0001:0006a050       ?X86Emit_ROLIR@NativeCodeCache@@QAEXW4x86Reg@@E@Z 0046b050 f   nativecodecache.obj
 0001:0006a080       ?X86Emit_RORIR@NativeCodeCache@@QAEXW4x86Reg@@E@Z 0046b080 f   nativecodecache.obj
 0001:0006a0b0       ?X86Emit_RCLIR@NativeCodeCache@@QAEXW4x86Reg@@E@Z 0046b0b0 f   nativecodecache.obj
 0001:0006a0e0       ?X86Emit_RCRIR@NativeCodeCache@@QAEXW4x86Reg@@E@Z 0046b0e0 f   nativecodecache.obj
 0001:0006a110       ?X86Emit_SHLIR@NativeCodeCache@@QAEXW4x86Reg@@E@Z 0046b110 f   nativecodecache.obj
 0001:0006a140       ?X86Emit_SHRIR@NativeCodeCache@@QAEXW4x86Reg@@E@Z 0046b140 f   nativecodecache.obj
 0001:0006a170       ?X86Emit_SALIR@NativeCodeCache@@QAEXW4x86Reg@@E@Z 0046b170 f   nativecodecache.obj
 0001:0006a1a0       ?X86Emit_SARIR@NativeCodeCache@@QAEXW4x86Reg@@E@Z 0046b1a0 f   nativecodecache.obj
 0001:0006a1d0       ?X86Emit_ROLIM@NativeCodeCache@@QAEXW4x86MemPtr@@EIW4x86IndexReg@@W4x86ScaleVal@@H@Z 0046b1d0 f   nativecodecache.obj
 0001:0006a210       ?X86Emit_RORIM@NativeCodeCache@@QAEXW4x86MemPtr@@EIW4x86IndexReg@@W4x86ScaleVal@@H@Z 0046b210 f   nativecodecache.obj
 0001:0006a250       ?X86Emit_RCLIM@NativeCodeCache@@QAEXW4x86MemPtr@@EIW4x86IndexReg@@W4x86ScaleVal@@H@Z 0046b250 f   nativecodecache.obj
 0001:0006a290       ?X86Emit_RCRIM@NativeCodeCache@@QAEXW4x86MemPtr@@EIW4x86IndexReg@@W4x86ScaleVal@@H@Z 0046b290 f   nativecodecache.obj
 0001:0006a2d0       ?X86Emit_SHLIM@NativeCodeCache@@QAEXW4x86MemPtr@@EIW4x86IndexReg@@W4x86ScaleVal@@H@Z 0046b2d0 f   nativecodecache.obj
 0001:0006a310       ?X86Emit_SHRIM@NativeCodeCache@@QAEXW4x86MemPtr@@EIW4x86IndexReg@@W4x86ScaleVal@@H@Z 0046b310 f   nativecodecache.obj
 0001:0006a350       ?X86Emit_SALIM@NativeCodeCache@@QAEXW4x86MemPtr@@EIW4x86IndexReg@@W4x86ScaleVal@@H@Z 0046b350 f   nativecodecache.obj
 0001:0006a390       ?X86Emit_SARIM@NativeCodeCache@@QAEXW4x86MemPtr@@EIW4x86IndexReg@@W4x86ScaleVal@@H@Z 0046b390 f   nativecodecache.obj
 0001:0006a3d0       ?X86Emit_ROLRM@NativeCodeCache@@QAEXW4x86MemPtr@@IW4x86IndexReg@@W4x86ScaleVal@@H@Z 0046b3d0 f   nativecodecache.obj
 0001:0006a410       ?X86Emit_RORRM@NativeCodeCache@@QAEXW4x86MemPtr@@IW4x86IndexReg@@W4x86ScaleVal@@H@Z 0046b410 f   nativecodecache.obj
 0001:0006a450       ?X86Emit_RCLRM@NativeCodeCache@@QAEXW4x86MemPtr@@IW4x86IndexReg@@W4x86ScaleVal@@H@Z 0046b450 f   nativecodecache.obj
 0001:0006a490       ?X86Emit_RCRRM@NativeCodeCache@@QAEXW4x86MemPtr@@IW4x86IndexReg@@W4x86ScaleVal@@H@Z 0046b490 f   nativecodecache.obj
 0001:0006a4d0       ?X86Emit_SHLRM@NativeCodeCache@@QAEXW4x86MemPtr@@IW4x86IndexReg@@W4x86ScaleVal@@H@Z 0046b4d0 f   nativecodecache.obj
 0001:0006a510       ?X86Emit_SHRRM@NativeCodeCache@@QAEXW4x86MemPtr@@IW4x86IndexReg@@W4x86ScaleVal@@H@Z 0046b510 f   nativecodecache.obj
 0001:0006a550       ?X86Emit_SALRM@NativeCodeCache@@QAEXW4x86MemPtr@@IW4x86IndexReg@@W4x86ScaleVal@@H@Z 0046b550 f   nativecodecache.obj
 0001:0006a590       ?X86Emit_SARRM@NativeCodeCache@@QAEXW4x86MemPtr@@IW4x86IndexReg@@W4x86ScaleVal@@H@Z 0046b590 f   nativecodecache.obj
 0001:0006a5d0       ?X86Emit_RETN@NativeCodeCache@@QAEXG@Z 0046b5d0 f   nativecodecache.obj
 0001:0006a640       ?X86Emit_MOVIM@NativeCodeCache@@QAEXHW4x86MemPtr@@IW4x86IndexReg@@W4x86ScaleVal@@H@Z 0046b640 f   nativecodecache.obj
 0001:0006a780       ?X86Emit_LEAVE@NativeCodeCache@@QAEXXZ 0046b780 f   nativecodecache.obj
 0001:0006a7b0       ?X86Emit_RETF@NativeCodeCache@@QAEXG@Z 0046b7b0 f   nativecodecache.obj
 0001:0006a820       ?X86Emit_INT3@NativeCodeCache@@QAEXXZ 0046b820 f   nativecodecache.obj
 0001:0006a850       ?X86Emit_INT@NativeCodeCache@@QAEXC@Z 0046b850 f   nativecodecache.obj
 0001:0006a8a0       ?X86Emit_INTO@NativeCodeCache@@QAEXXZ 0046b8a0 f   nativecodecache.obj
 0001:0006a8d0       ?X86Emit_IRET@NativeCodeCache@@QAEXXZ 0046b8d0 f   nativecodecache.obj
 0001:0006a900       ?X86Emit_ROLRR@NativeCodeCache@@QAEXW4x86Reg@@@Z 0046b900 f   nativecodecache.obj
 0001:0006a930       ?X86Emit_RORRR@NativeCodeCache@@QAEXW4x86Reg@@@Z 0046b930 f   nativecodecache.obj
 0001:0006a960       ?X86Emit_RCLRR@NativeCodeCache@@QAEXW4x86Reg@@@Z 0046b960 f   nativecodecache.obj
 0001:0006a990       ?X86Emit_RCRRR@NativeCodeCache@@QAEXW4x86Reg@@@Z 0046b990 f   nativecodecache.obj
 0001:0006a9c0       ?X86Emit_SHLRR@NativeCodeCache@@QAEXW4x86Reg@@@Z 0046b9c0 f   nativecodecache.obj
 0001:0006a9f0       ?X86Emit_SHRRR@NativeCodeCache@@QAEXW4x86Reg@@@Z 0046b9f0 f   nativecodecache.obj
 0001:0006aa20       ?X86Emit_SALRR@NativeCodeCache@@QAEXW4x86Reg@@@Z 0046ba20 f   nativecodecache.obj
 0001:0006aa50       ?X86Emit_SARRR@NativeCodeCache@@QAEXW4x86Reg@@@Z 0046ba50 f   nativecodecache.obj
 0001:0006aa80       ?X86Emit_AAM@NativeCodeCache@@QAEXE@Z 0046ba80 f   nativecodecache.obj
 0001:0006aad0       ?X86Emit_AAD@NativeCodeCache@@QAEXE@Z 0046bad0 f   nativecodecache.obj
 0001:0006ab20       ?X86Emit_XLAT@NativeCodeCache@@QAEXXZ 0046bb20 f   nativecodecache.obj
 0001:0006ab50       ?X86Emit_ESC0@NativeCodeCache@@QAEXXZ 0046bb50 f   nativecodecache.obj
 0001:0006ab80       ?X86Emit_ESC1@NativeCodeCache@@QAEXXZ 0046bb80 f   nativecodecache.obj
 0001:0006abb0       ?X86Emit_ESC2@NativeCodeCache@@QAEXXZ 0046bbb0 f   nativecodecache.obj
 0001:0006abe0       ?X86Emit_ESC3@NativeCodeCache@@QAEXXZ 0046bbe0 f   nativecodecache.obj
 0001:0006ac10       ?X86Emit_ESC4@NativeCodeCache@@QAEXXZ 0046bc10 f   nativecodecache.obj
 0001:0006ac40       ?X86Emit_ESC5@NativeCodeCache@@QAEXXZ 0046bc40 f   nativecodecache.obj
 0001:0006ac70       ?X86Emit_ESC6@NativeCodeCache@@QAEXXZ 0046bc70 f   nativecodecache.obj
 0001:0006aca0       ?X86Emit_ESC7@NativeCodeCache@@QAEXXZ 0046bca0 f   nativecodecache.obj
 0001:0006acd0       ?X86Emit_LOOPNE@NativeCodeCache@@QAEXPAE@Z 0046bcd0 f   nativecodecache.obj
 0001:0006ad30       ?X86Emit_LOOPNE_Label@NativeCodeCache@@QAEXPAVPatchManager@@I@Z 0046bd30 f   nativecodecache.obj
 0001:0006add0       ?X86Emit_LOOPE@NativeCodeCache@@QAEXPAE@Z 0046bdd0 f   nativecodecache.obj
 0001:0006ae30       ?X86Emit_LOOPE_Label@NativeCodeCache@@QAEXPAVPatchManager@@I@Z 0046be30 f   nativecodecache.obj
 0001:0006aed0       ?X86Emit_LOOP@NativeCodeCache@@QAEXPAE@Z 0046bed0 f   nativecodecache.obj
 0001:0006af30       ?X86Emit_LOOP_Label@NativeCodeCache@@QAEXPAVPatchManager@@I@Z 0046bf30 f   nativecodecache.obj
 0001:0006afd0       ?X86Emit_JCXZ@NativeCodeCache@@QAEXPAE@Z 0046bfd0 f   nativecodecache.obj
 0001:0006b050       ?X86Emit_JCXZ_Label@NativeCodeCache@@QAEXPAVPatchManager@@I@Z 0046c050 f   nativecodecache.obj
 0001:0006b100       ?X86Emit_JECXZ@NativeCodeCache@@QAEXPAE@Z 0046c100 f   nativecodecache.obj
 0001:0006b160       ?X86Emit_JECXZ_Label@NativeCodeCache@@QAEXPAVPatchManager@@I@Z 0046c160 f   nativecodecache.obj
 0001:0006b200       ?X86Emit_INI@NativeCodeCache@@QAEXW4x86Reg@@E@Z 0046c200 f   nativecodecache.obj
 0001:0006b2e0       ?X86Emit_OUTI@NativeCodeCache@@QAEXW4x86Reg@@E@Z 0046c2e0 f   nativecodecache.obj
 0001:0006b3c0       ?X86Emit_INR@NativeCodeCache@@QAEXW4x86Reg@@@Z 0046c3c0 f   nativecodecache.obj
 0001:0006b450       ?X86Emit_OUTR@NativeCodeCache@@QAEXW4x86Reg@@@Z 0046c450 f   nativecodecache.obj
 0001:0006b4e0       ?X86Emit_LOCK@NativeCodeCache@@QAEXXZ 0046c4e0 f   nativecodecache.obj
 0001:0006b510       ?X86Emit_INT1@NativeCodeCache@@QAEXXZ 0046c510 f   nativecodecache.obj
 0001:0006b540       ?X86Emit_REPNE@NativeCodeCache@@QAEXXZ 0046c540 f   nativecodecache.obj
 0001:0006b570       ?X86Emit_REPE@NativeCodeCache@@QAEXXZ 0046c570 f   nativecodecache.obj
 0001:0006b5a0       ?X86Emit_HLT@NativeCodeCache@@QAEXXZ 0046c5a0 f   nativecodecache.obj
 0001:0006b5d0       ?X86Emit_CMC@NativeCodeCache@@QAEXXZ 0046c5d0 f   nativecodecache.obj
 0001:0006b600       ?X86Emit_NOTR@NativeCodeCache@@QAEXW4x86Reg@@@Z 0046c600 f   nativecodecache.obj
 0001:0006b6b0       ?X86Emit_NOTM@NativeCodeCache@@QAEXW4x86MemPtr@@IW4x86IndexReg@@W4x86ScaleVal@@H@Z 0046c6b0 f   nativecodecache.obj
 0001:0006b760       ?X86Emit_IMULRR@NativeCodeCache@@QAEXW4x86Reg@@@Z 0046c760 f   nativecodecache.obj
 0001:0006b7f0       ?X86Emit_IMULMR@NativeCodeCache@@QAEXW4x86MemPtr@@IW4x86IndexReg@@W4x86ScaleVal@@H@Z 0046c7f0 f   nativecodecache.obj
 0001:0006b880       ?X86Emit_NEGR@NativeCodeCache@@QAEXW4x86Reg@@@Z 0046c880 f   nativecodecache.obj
 0001:0006b930       ?X86Emit_TESTIR@NativeCodeCache@@QAEXIW4x86Reg@@@Z 0046c930 f   nativecodecache.obj
 0001:0006bb30       ?X86Emit_TESTIM@NativeCodeCache@@QAEXIW4x86MemPtr@@IW4x86IndexReg@@W4x86ScaleVal@@H@Z 0046cb30 f   nativecodecache.obj
 0001:0006bc70       ?X86Emit_NEGM@NativeCodeCache@@QAEXW4x86MemPtr@@IW4x86IndexReg@@W4x86ScaleVal@@H@Z 0046cc70 f   nativecodecache.obj
 0001:0006bd20       ?X86Emit_CLC@NativeCodeCache@@QAEXXZ 0046cd20 f   nativecodecache.obj
 0001:0006bd50       ?X86Emit_STC@NativeCodeCache@@QAEXXZ 0046cd50 f   nativecodecache.obj
 0001:0006bd80       ?X86Emit_CLI@NativeCodeCache@@QAEXXZ 0046cd80 f   nativecodecache.obj
 0001:0006bdb0       ?X86Emit_STI@NativeCodeCache@@QAEXXZ 0046cdb0 f   nativecodecache.obj
 0001:0006bde0       ?X86Emit_CLD@NativeCodeCache@@QAEXXZ 0046cde0 f   nativecodecache.obj
 0001:0006be10       ?X86Emit_STD@NativeCodeCache@@QAEXXZ 0046ce10 f   nativecodecache.obj
 0001:0006be40       ?X86Emit_INCM@NativeCodeCache@@QAEXW4x86MemPtr@@IW4x86IndexReg@@W4x86ScaleVal@@H@Z 0046ce40 f   nativecodecache.obj
 0001:0006bef0       ?X86Emit_DECM@NativeCodeCache@@QAEXW4x86MemPtr@@IW4x86IndexReg@@W4x86ScaleVal@@H@Z 0046cef0 f   nativecodecache.obj
 0001:0006bfa0       ?X86Emit_CALLNM@NativeCodeCache@@QAEXIW4x86IndexReg@@W4x86ScaleVal@@H@Z 0046cfa0 f   nativecodecache.obj
 0001:0006c000       ?X86Emit_CALLR@NativeCodeCache@@QAEXW4x86Reg@@@Z 0046d000 f   nativecodecache.obj
 0001:0006c0a0       ?X86Emit_CALLFM@NativeCodeCache@@QAEXIW4x86IndexReg@@W4x86ScaleVal@@H@Z 0046d0a0 f   nativecodecache.obj
 0001:0006c100       ?X86Emit_JMPR@NativeCodeCache@@QAEXW4x86Reg@@@Z 0046d100 f   nativecodecache.obj
 0001:0006c1a0       ?X86Emit_JMPNM@NativeCodeCache@@QAEXIW4x86IndexReg@@W4x86ScaleVal@@H@Z 0046d1a0 f   nativecodecache.obj
 0001:0006c200       ?X86Emit_JMPFM@NativeCodeCache@@QAEXIW4x86IndexReg@@W4x86ScaleVal@@H@Z 0046d200 f   nativecodecache.obj
 0001:0006c260       ?X86Emit_PUSHM@NativeCodeCache@@QAEXW4x86MemPtr@@IW4x86IndexReg@@W4x86ScaleVal@@H@Z 0046d260 f   nativecodecache.obj
 0001:0006c2d0       ?X86Emit_INVD@NativeCodeCache@@QAEXW4x86Reg@@@Z 0046d2d0 f   nativecodecache.obj
 0001:0006c320       ?X86Emit_WBINVD@NativeCodeCache@@QAEXW4x86Reg@@@Z 0046d320 f   nativecodecache.obj
 0001:0006c370       ?X86Emit_UD1@NativeCodeCache@@QAEXW4x86Reg@@@Z 0046d370 f   nativecodecache.obj
 0001:0006c3c0       ?X86Emit_BSWAP@NativeCodeCache@@QAEXW4x86Reg@@@Z 0046d3c0 f   nativecodecache.obj
 0001:0006c410       ?X86Emit_SETOR@NativeCodeCache@@QAEXW4x86Reg@@@Z 0046d410 f   nativecodecache.obj
 0001:0006c480       ?X86Emit_SETOM@NativeCodeCache@@QAEXIW4x86IndexReg@@W4x86ScaleVal@@H@Z 0046d480 f   nativecodecache.obj
 0001:0006c4f0       ?X86Emit_SETNOR@NativeCodeCache@@QAEXW4x86Reg@@@Z 0046d4f0 f   nativecodecache.obj
 0001:0006c560       ?X86Emit_SETNOM@NativeCodeCache@@QAEXIW4x86IndexReg@@W4x86ScaleVal@@H@Z 0046d560 f   nativecodecache.obj
 0001:0006c5d0       ?X86Emit_SETBR@NativeCodeCache@@QAEXW4x86Reg@@@Z 0046d5d0 f   nativecodecache.obj
 0001:0006c640       ?X86Emit_SETBM@NativeCodeCache@@QAEXIW4x86IndexReg@@W4x86ScaleVal@@H@Z 0046d640 f   nativecodecache.obj
 0001:0006c6b0       ?X86Emit_SETNBR@NativeCodeCache@@QAEXW4x86Reg@@@Z 0046d6b0 f   nativecodecache.obj
 0001:0006c720       ?X86Emit_SETNBM@NativeCodeCache@@QAEXIW4x86IndexReg@@W4x86ScaleVal@@H@Z 0046d720 f   nativecodecache.obj
 0001:0006c790       ?X86Emit_SETZR@NativeCodeCache@@QAEXW4x86Reg@@@Z 0046d790 f   nativecodecache.obj
 0001:0006c800       ?X86Emit_SETZM@NativeCodeCache@@QAEXIW4x86IndexReg@@W4x86ScaleVal@@H@Z 0046d800 f   nativecodecache.obj
 0001:0006c870       ?X86Emit_SETNZR@NativeCodeCache@@QAEXW4x86Reg@@@Z 0046d870 f   nativecodecache.obj
 0001:0006c8e0       ?X86Emit_SETNZM@NativeCodeCache@@QAEXIW4x86IndexReg@@W4x86ScaleVal@@H@Z 0046d8e0 f   nativecodecache.obj
 0001:0006c950       ?X86Emit_SETBER@NativeCodeCache@@QAEXW4x86Reg@@@Z 0046d950 f   nativecodecache.obj
 0001:0006c9c0       ?X86Emit_SETBEM@NativeCodeCache@@QAEXIW4x86IndexReg@@W4x86ScaleVal@@H@Z 0046d9c0 f   nativecodecache.obj
 0001:0006ca30       ?X86Emit_SETNBER@NativeCodeCache@@QAEXW4x86Reg@@@Z 0046da30 f   nativecodecache.obj
 0001:0006caa0       ?X86Emit_SETNBEM@NativeCodeCache@@QAEXIW4x86IndexReg@@W4x86ScaleVal@@H@Z 0046daa0 f   nativecodecache.obj
 0001:0006cb10       ?X86Emit_SETSR@NativeCodeCache@@QAEXW4x86Reg@@@Z 0046db10 f   nativecodecache.obj
 0001:0006cb80       ?X86Emit_SETSM@NativeCodeCache@@QAEXIW4x86IndexReg@@W4x86ScaleVal@@H@Z 0046db80 f   nativecodecache.obj
 0001:0006cbf0       ?X86Emit_SETNSR@NativeCodeCache@@QAEXW4x86Reg@@@Z 0046dbf0 f   nativecodecache.obj
 0001:0006cc60       ?X86Emit_SETNSM@NativeCodeCache@@QAEXIW4x86IndexReg@@W4x86ScaleVal@@H@Z 0046dc60 f   nativecodecache.obj
 0001:0006ccd0       ?X86Emit_SETPR@NativeCodeCache@@QAEXW4x86Reg@@@Z 0046dcd0 f   nativecodecache.obj
 0001:0006cd40       ?X86Emit_SETPM@NativeCodeCache@@QAEXIW4x86IndexReg@@W4x86ScaleVal@@H@Z 0046dd40 f   nativecodecache.obj
 0001:0006cdb0       ?X86Emit_SETNPR@NativeCodeCache@@QAEXW4x86Reg@@@Z 0046ddb0 f   nativecodecache.obj
 0001:0006ce20       ?X86Emit_SETNPM@NativeCodeCache@@QAEXIW4x86IndexReg@@W4x86ScaleVal@@H@Z 0046de20 f   nativecodecache.obj
 0001:0006ce90       ?X86Emit_SETLR@NativeCodeCache@@QAEXW4x86Reg@@@Z 0046de90 f   nativecodecache.obj
 0001:0006cf00       ?X86Emit_SETLM@NativeCodeCache@@QAEXIW4x86IndexReg@@W4x86ScaleVal@@H@Z 0046df00 f   nativecodecache.obj
 0001:0006cf70       ?X86Emit_SETNLR@NativeCodeCache@@QAEXW4x86Reg@@@Z 0046df70 f   nativecodecache.obj
 0001:0006cfe0       ?X86Emit_SETNLM@NativeCodeCache@@QAEXIW4x86IndexReg@@W4x86ScaleVal@@H@Z 0046dfe0 f   nativecodecache.obj
 0001:0006d050       ?X86Emit_SETLER@NativeCodeCache@@QAEXW4x86Reg@@@Z 0046e050 f   nativecodecache.obj
 0001:0006d0c0       ?X86Emit_SETLEM@NativeCodeCache@@QAEXIW4x86IndexReg@@W4x86ScaleVal@@H@Z 0046e0c0 f   nativecodecache.obj
 0001:0006d130       ?X86Emit_SETNLER@NativeCodeCache@@QAEXW4x86Reg@@@Z 0046e130 f   nativecodecache.obj
 0001:0006d1a0       ?X86Emit_SETNLEM@NativeCodeCache@@QAEXIW4x86IndexReg@@W4x86ScaleVal@@H@Z 0046e1a0 f   nativecodecache.obj
 0001:0006d210       ?X86Emit_CMOVORR@NativeCodeCache@@QAEXW4x86Reg@@I@Z 0046e210 f   nativecodecache.obj
 0001:0006d2a0       ?X86Emit_CMOVOMR@NativeCodeCache@@QAEXW4x86Reg@@IW4x86IndexReg@@W4x86ScaleVal@@H@Z 0046e2a0 f   nativecodecache.obj
 0001:0006d330       ?X86Emit_CMOVNORR@NativeCodeCache@@QAEXW4x86Reg@@I@Z 0046e330 f   nativecodecache.obj
 0001:0006d3c0       ?X86Emit_CMOVNOMR@NativeCodeCache@@QAEXW4x86Reg@@IW4x86IndexReg@@W4x86ScaleVal@@H@Z 0046e3c0 f   nativecodecache.obj
 0001:0006d450       ?X86Emit_CMOVBRR@NativeCodeCache@@QAEXW4x86Reg@@I@Z 0046e450 f   nativecodecache.obj
 0001:0006d4e0       ?X86Emit_CMOVBMR@NativeCodeCache@@QAEXW4x86Reg@@IW4x86IndexReg@@W4x86ScaleVal@@H@Z 0046e4e0 f   nativecodecache.obj
 0001:0006d570       ?X86Emit_CMOVNBRR@NativeCodeCache@@QAEXW4x86Reg@@I@Z 0046e570 f   nativecodecache.obj
 0001:0006d600       ?X86Emit_CMOVNBMR@NativeCodeCache@@QAEXW4x86Reg@@IW4x86IndexReg@@W4x86ScaleVal@@H@Z 0046e600 f   nativecodecache.obj
 0001:0006d690       ?X86Emit_CMOVZRR@NativeCodeCache@@QAEXW4x86Reg@@I@Z 0046e690 f   nativecodecache.obj
 0001:0006d720       ?X86Emit_CMOVZMR@NativeCodeCache@@QAEXW4x86Reg@@IW4x86IndexReg@@W4x86ScaleVal@@H@Z 0046e720 f   nativecodecache.obj
 0001:0006d7b0       ?X86Emit_CMOVNZRR@NativeCodeCache@@QAEXW4x86Reg@@I@Z 0046e7b0 f   nativecodecache.obj
 0001:0006d840       ?X86Emit_CMOVNZMR@NativeCodeCache@@QAEXW4x86Reg@@IW4x86IndexReg@@W4x86ScaleVal@@H@Z 0046e840 f   nativecodecache.obj
 0001:0006d8d0       ?X86Emit_CMOVBERR@NativeCodeCache@@QAEXW4x86Reg@@I@Z 0046e8d0 f   nativecodecache.obj
 0001:0006d960       ?X86Emit_CMOVBEMR@NativeCodeCache@@QAEXW4x86Reg@@IW4x86IndexReg@@W4x86ScaleVal@@H@Z 0046e960 f   nativecodecache.obj
 0001:0006d9f0       ?X86Emit_CMOVNBERR@NativeCodeCache@@QAEXW4x86Reg@@I@Z 0046e9f0 f   nativecodecache.obj
 0001:0006da80       ?X86Emit_CMOVNBEMR@NativeCodeCache@@QAEXW4x86Reg@@IW4x86IndexReg@@W4x86ScaleVal@@H@Z 0046ea80 f   nativecodecache.obj
 0001:0006db10       ?X86Emit_CMOVSRR@NativeCodeCache@@QAEXW4x86Reg@@I@Z 0046eb10 f   nativecodecache.obj
 0001:0006dba0       ?X86Emit_CMOVSMR@NativeCodeCache@@QAEXW4x86Reg@@IW4x86IndexReg@@W4x86ScaleVal@@H@Z 0046eba0 f   nativecodecache.obj
 0001:0006dc30       ?X86Emit_CMOVNSRR@NativeCodeCache@@QAEXW4x86Reg@@I@Z 0046ec30 f   nativecodecache.obj
 0001:0006dcc0       ?X86Emit_CMOVNSMR@NativeCodeCache@@QAEXW4x86Reg@@IW4x86IndexReg@@W4x86ScaleVal@@H@Z 0046ecc0 f   nativecodecache.obj
 0001:0006dd50       ?X86Emit_CMOVPRR@NativeCodeCache@@QAEXW4x86Reg@@I@Z 0046ed50 f   nativecodecache.obj
 0001:0006dde0       ?X86Emit_CMOVPMR@NativeCodeCache@@QAEXW4x86Reg@@IW4x86IndexReg@@W4x86ScaleVal@@H@Z 0046ede0 f   nativecodecache.obj
 0001:0006de70       ?X86Emit_CMOVNPRR@NativeCodeCache@@QAEXW4x86Reg@@I@Z 0046ee70 f   nativecodecache.obj
 0001:0006df00       ?X86Emit_CMOVNPMR@NativeCodeCache@@QAEXW4x86Reg@@IW4x86IndexReg@@W4x86ScaleVal@@H@Z 0046ef00 f   nativecodecache.obj
 0001:0006df90       ?X86Emit_CMOVLRR@NativeCodeCache@@QAEXW4x86Reg@@I@Z 0046ef90 f   nativecodecache.obj
 0001:0006e020       ?X86Emit_CMOVLMR@NativeCodeCache@@QAEXW4x86Reg@@IW4x86IndexReg@@W4x86ScaleVal@@H@Z 0046f020 f   nativecodecache.obj
 0001:0006e0b0       ?X86Emit_CMOVNLRR@NativeCodeCache@@QAEXW4x86Reg@@I@Z 0046f0b0 f   nativecodecache.obj
 0001:0006e140       ?X86Emit_CMOVNLMR@NativeCodeCache@@QAEXW4x86Reg@@IW4x86IndexReg@@W4x86ScaleVal@@H@Z 0046f140 f   nativecodecache.obj
 0001:0006e1d0       ?X86Emit_CMOVLERR@NativeCodeCache@@QAEXW4x86Reg@@I@Z 0046f1d0 f   nativecodecache.obj
 0001:0006e260       ?X86Emit_CMOVLEMR@NativeCodeCache@@QAEXW4x86Reg@@IW4x86IndexReg@@W4x86ScaleVal@@H@Z 0046f260 f   nativecodecache.obj
 0001:0006e2f0       ?X86Emit_CMOVNLERR@NativeCodeCache@@QAEXW4x86Reg@@I@Z 0046f2f0 f   nativecodecache.obj
 0001:0006e380       ?X86Emit_CMOVNLEMR@NativeCodeCache@@QAEXW4x86Reg@@IW4x86IndexReg@@W4x86ScaleVal@@H@Z 0046f380 f   nativecodecache.obj
 0001:0006e410       ?X86Emit_MOVQRR@NativeCodeCache@@QAEXW4x86Reg@@0@Z 0046f410 f   nativecodecache.obj
 0001:0006e4d0       ?X86Emit_MOVQMR@NativeCodeCache@@QAEXW4x86Reg@@IW4x86IndexReg@@W4x86ScaleVal@@H@Z 0046f4d0 f   nativecodecache.obj
 0001:0006e590       ?X86Emit_MOVQRM@NativeCodeCache@@QAEXW4x86Reg@@IW4x86IndexReg@@W4x86ScaleVal@@H@Z 0046f590 f   nativecodecache.obj
 0001:0006e650       ?X86Emit_SHLDIRR@NativeCodeCache@@QAEXW4x86Reg@@0E@Z 0046f650 f   nativecodecache.obj
 0001:0006e700       ?X86Emit_SHLDRRR@NativeCodeCache@@QAEXW4x86Reg@@0@Z 0046f700 f   nativecodecache.obj
 0001:0006e790       ?X86Emit_SHLDIMR@NativeCodeCache@@QAEXW4x86Reg@@W4x86MemPtr@@EIW4x86IndexReg@@W4x86ScaleVal@@H@Z 0046f790 f   nativecodecache.obj
 0001:0006e840       ?X86Emit_SHLDRMR@NativeCodeCache@@QAEXW4x86Reg@@W4x86MemPtr@@IW4x86IndexReg@@W4x86ScaleVal@@H@Z 0046f840 f   nativecodecache.obj
 0001:0006e8d0       ?X86Emit_SHRDIRR@NativeCodeCache@@QAEXW4x86Reg@@0E@Z 0046f8d0 f   nativecodecache.obj
 0001:0006e980       ?X86Emit_SHRDRRR@NativeCodeCache@@QAEXW4x86Reg@@0@Z 0046f980 f   nativecodecache.obj
 0001:0006ea10       ?X86Emit_SHRDIMR@NativeCodeCache@@QAEXW4x86Reg@@W4x86MemPtr@@EIW4x86IndexReg@@W4x86ScaleVal@@H@Z 0046fa10 f   nativecodecache.obj
 0001:0006eac0       ?X86Emit_SHRDRMR@NativeCodeCache@@QAEXW4x86Reg@@W4x86MemPtr@@IW4x86IndexReg@@W4x86ScaleVal@@H@Z 0046fac0 f   nativecodecache.obj
 0001:0006eb50       ?X86Emit_MOVZXRR@NativeCodeCache@@QAEXW4x86Reg@@I@Z 0046fb50 f   nativecodecache.obj
 0001:0006ec00       ?X86Emit_MOVZXMR@NativeCodeCache@@QAEXW4x86Reg@@W4x86MemPtr@@IW4x86IndexReg@@W4x86ScaleVal@@H@Z 0046fc00 f   nativecodecache.obj
 0001:0006ecb0       ?X86Emit_MOVSXRR@NativeCodeCache@@QAEXW4x86Reg@@I@Z 0046fcb0 f   nativecodecache.obj
 0001:0006ed60       ?X86Emit_MOVSXMR@NativeCodeCache@@QAEXW4x86Reg@@W4x86MemPtr@@IW4x86IndexReg@@W4x86ScaleVal@@H@Z 0046fd60 f   nativecodecache.obj
 0001:0006ee10       ?X86Emit_PANDRR@NativeCodeCache@@QAEXW4x86Reg@@0@Z 0046fe10 f   nativecodecache.obj
 0001:0006eed0       ?X86Emit_PANDMR@NativeCodeCache@@QAEXW4x86Reg@@IW4x86IndexReg@@W4x86ScaleVal@@H@Z 0046fed0 f   nativecodecache.obj
 0001:0006ef90       ?X86Emit_PANDRM@NativeCodeCache@@QAEXW4x86Reg@@IW4x86IndexReg@@W4x86ScaleVal@@H@Z 0046ff90 f   nativecodecache.obj
 0001:0006f050       ?X86Emit_PANDBRR@NativeCodeCache@@QAEXW4x86Reg@@0@Z 00470050 f   nativecodecache.obj
 0001:0006f110       ?X86Emit_PANDNMR@NativeCodeCache@@QAEXW4x86Reg@@IW4x86IndexReg@@W4x86ScaleVal@@H@Z 00470110 f   nativecodecache.obj
 0001:0006f1d0       ?X86Emit_PANDNRM@NativeCodeCache@@QAEXW4x86Reg@@IW4x86IndexReg@@W4x86ScaleVal@@H@Z 004701d0 f   nativecodecache.obj
 0001:0006f290       ?X86Emit_PSUBDRR@NativeCodeCache@@QAEXW4x86Reg@@0@Z 00470290 f   nativecodecache.obj
 0001:0006f350       ?X86Emit_PSUBDMR@NativeCodeCache@@QAEXW4x86Reg@@IW4x86IndexReg@@W4x86ScaleVal@@H@Z 00470350 f   nativecodecache.obj
 0001:0006f410       ?X86Emit_PSUBDRM@NativeCodeCache@@QAEXW4x86Reg@@IW4x86IndexReg@@W4x86ScaleVal@@H@Z 00470410 f   nativecodecache.obj
 0001:0006f4d0       ?X86Emit_PADDRR@NativeCodeCache@@QAEXW4x86Reg@@0@Z 004704d0 f   nativecodecache.obj
 0001:0006f590       ?X86Emit_PADDMR@NativeCodeCache@@QAEXW4x86Reg@@IW4x86IndexReg@@W4x86ScaleVal@@H@Z 00470590 f   nativecodecache.obj
 0001:0006f650       ?X86Emit_PADDRM@NativeCodeCache@@QAEXW4x86Reg@@IW4x86IndexReg@@W4x86ScaleVal@@H@Z 00470650 f   nativecodecache.obj
 0001:00071d90       ??0PatchManager@@QAE@XZ    00472d90 f i nativecodecache.obj
 0001:00071dd0       ??_GPageMap@@QAEPAXI@Z     00472dd0 f i nativecodecache.obj
 0001:00071e20       ?AddPatch@PatchManager@@QAEXPAEW4PatchType@@0I@Z 00472e20 f i nativecodecache.obj
 0001:00071ec0       ?GetLabelPointer@PatchManager@@QAEPAEI@Z 00472ec0 f i nativecodecache.obj
 0001:00071ef0       ?GetMPERunStatus@@YA_NI@Z  00472ef0 f   NuanceMain.obj
 0001:00071f20       ?SetMPERunStatus@@YAXI_N@Z 00472f20 f   NuanceMain.obj
 0001:00071f90       ?UpdateStatusWindowDisplay@@YAXXZ 00472f90 f   NuanceMain.obj
 0001:000733e0       ?UpdateControlPanelDisplay@@YAXXZ 004743e0 f   NuanceMain.obj
 0001:00073660       ?OnMPELEDDoubleClick@@YAXI@Z 00474660 f   NuanceMain.obj
 0001:00073760       ?ExecuteSingleStep@@YAXXZ  00474760 f   NuanceMain.obj
 0001:000737c0       ?StatusWindowDialogProc@@YGHPAUHWND__@@IIJ@Z 004747c0 f   NuanceMain.obj
 0001:000739f0       ?ControlPanelDialogProc@@YGHPAUHWND__@@IIJ@Z 004749f0 f   NuanceMain.obj
 0001:00073ee0       ?SplashScreenDialogProc@@YGHPAUHWND__@@IIJ@Z 00474ee0 f   NuanceMain.obj
 0001:00073f30       ?OnDisplayPaint@@YA_NIJ@Z  00474f30 f   NuanceMain.obj
 0001:00073f90       ?OnDisplayResize@@YA_NGG@Z 00474f90 f   NuanceMain.obj
 0001:000740d0       ?OnDisplayTimer@@YAXI@Z    004750d0 f   NuanceMain.obj
 0001:00074120       ?OnDisplayKeyDown@@YA_NFI@Z 00475120 f   NuanceMain.obj
 0001:000742c0       ?OnDisplayKeyUp@@YA_NFI@Z  004752c0 f   NuanceMain.obj
 0001:00074480       ?CheckForInvalidCommStatus@@YA_NPAVMPE@@@Z 00475480 f   NuanceMain.obj
 0001:00074590       _WinMain@16                00475590 f   NuanceMain.obj
 0001:00074e70       ?NuanceStart@@YAXHQAPAD@Z  00475e70 f   NuanceMain.obj
 0001:00075a60       ?GetOverlaysInUse@OverlayManager@@QAEIXZ 00476a60 f i NuanceMain.obj
 0001:00075a80       ??_GNuonEnvironment@@QAEPAXI@Z 00476a80 f i NuanceMain.obj
 0001:00075ad0       ??_GGLWindow@@QAEPAXI@Z    00476ad0 f i NuanceMain.obj
 0001:00075b20       ?TriggerAudioInterrupt@NuonEnvironment@@QAEXXZ 00476b20 f   NuonEnvironment.obj
 0001:00075b90       ?TriggerVideoInterrupt@NuonEnvironment@@QAEXXZ 00476b90 f   NuonEnvironment.obj
 0001:00075bf0       ?InitAudio@NuonEnvironment@@QAEXXZ 00476bf0 f   NuonEnvironment.obj
 0001:00075ca0       ?CloseAudio@NuonEnvironment@@QAEXXZ 00476ca0 f   NuonEnvironment.obj
 0001:00075d10       ?MuteAudio@NuonEnvironment@@QAEXI@Z 00476d10 f   NuonEnvironment.obj
 0001:00075d60       ?SetAudioPlaybackRate@NuonEnvironment@@QAEXI@Z 00476d60 f   NuonEnvironment.obj
 0001:00075de0       ?RestartAudio@NuonEnvironment@@QAEXXZ 00476de0 f   NuonEnvironment.obj
 0001:00075e10       ?StopAudio@NuonEnvironment@@QAEXXZ 00476e10 f   NuonEnvironment.obj
 0001:00075e50       ?SetAudioVolume@NuonEnvironment@@QAEXI@Z 00476e50 f   NuonEnvironment.obj
 0001:00075ea0       ?GetPointerToMemory@NuonEnvironment@@QAEPAXPAVMPE@@I_N@Z 00476ea0 f   NuonEnvironment.obj
 0001:000760e0       ?WriteFile@NuonEnvironment@@QAEXPAVMPE@@III@Z 004770e0 f   NuonEnvironment.obj
 0001:00076150       ??0NuonEnvironment@@QAE@XZ 00477150 f   NuonEnvironment.obj
 0001:000764e0       ?GetBufferSize@NuonEnvironment@@QAEII@Z 004774e0 f   NuonEnvironment.obj
 0001:00076530       ?InitBios@NuonEnvironment@@QAEXXZ 00477530 f   NuonEnvironment.obj
 0001:00076560       ??1NuonEnvironment@@QAE@XZ 00477560 f   NuonEnvironment.obj
 0001:000766c0       ?ReplaceNewline@@YAXPADDI@Z 004776c0 f   NuonEnvironment.obj
 0001:00076710       ?SetDVDBaseFromFileName@NuonEnvironment@@QAEXPAD@Z 00477710 f   NuonEnvironment.obj
 0001:000767f0       ?ReadConfigLine@NuonEnvironment@@AAE?AW4ConfigTokenType@@PAU_iobuf@@PAD@Z 004777f0 f   NuonEnvironment.obj
 0001:000768b0       ?LoadConfigFile@NuonEnvironment@@AAE_NPAD@Z 004778b0 f   NuonEnvironment.obj
 0001:000772e0       ?StreamCallback@AudioCallbacks@@SGCPAUFSOUND_STREAM@@PAXHH@Z 004782e0 f i NuonEnvironment.obj
 0001:00077470       ?ConvertNuonAudioData@AudioCallbacks@@SAXPAE0I@Z 00478470 f i NuonEnvironment.obj
 0001:00077500       ??0VideoOptions@@QAE@XZ    00478500 f i NuonEnvironment.obj
 0001:00077530       ??0CompilerOptions@@QAE@XZ 00478530 f i NuonEnvironment.obj
 0001:00077580       ??0FlashEEPROM@@QAE@XZ     00478580 f i NuonEnvironment.obj
 0001:00077620       ?Reset@FlashEEPROM@@QAEXXZ 00478620 f i NuonEnvironment.obj
 0001:000776a0       ??_GMPE@@QAEPAXI@Z         004786a0 f i NuonEnvironment.obj
 0001:000776f0       ??_GFlashEEPROM@@QAEPAXI@Z 004786f0 f i NuonEnvironment.obj
 0001:00077740       ??1FlashEEPROM@@QAE@XZ     00478740 f i NuonEnvironment.obj
 0001:000777a0       ??0NuonMemoryManager@@QAE@XZ 004787a0 f   NuonMemoryManager.obj
 0001:00077890       ??1NuonMemoryManager@@QAE@XZ 00478890 f   NuonMemoryManager.obj
 0001:00077920       ?Alloc@NuonMemoryManager@@QAEIIII@Z 00478920 f   NuonMemoryManager.obj
 0001:00077b50       ?Free@NuonMemoryManager@@QAEXI@Z 00478b50 f   NuonMemoryManager.obj
 0001:00077bc0       ?Init@NuonMemoryManager@@QAEXXZ 00478bc0 f   NuonMemoryManager.obj
 0001:00077d90       ??_GMemoryManager@@QAEPAXI@Z 00478d90 f i NuonMemoryManager.obj
 0001:00077de0       ??1MemoryManager@@QAE@XZ   00478de0 f i NuonMemoryManager.obj
 0001:00077e60       ?Reset@MemoryManager@@QAEXXZ 00478e60 f i NuonMemoryManager.obj
 0001:00077ea0       ?clear@?$vector@VFreeMemoryBlock@@V?$allocator@VFreeMemoryBlock@@@std@@@std@@QAEXXZ 00478ea0 f i NuonMemoryManager.obj
 0001:00077f70       ??1?$vector@VAllocatedMemoryBlock@@V?$allocator@VAllocatedMemoryBlock@@@std@@@std@@QAE@XZ 00478f70 f i NuonMemoryManager.obj
 0001:00077fe0       ?clear@?$vector@VAllocatedMemoryBlock@@V?$allocator@VAllocatedMemoryBlock@@@std@@@std@@QAEXXZ 00478fe0 f i NuonMemoryManager.obj
 0001:000780b0       ?erase@?$vector@VFreeMemoryBlock@@V?$allocator@VFreeMemoryBlock@@@std@@@std@@QAE?AV?$_Vector_iterator@VFreeMemoryBlock@@V?$allocator@VFreeMemoryBlock@@@std@@@2@V32@0@Z 004790b0 f i NuonMemoryManager.obj
 0001:00078240       ?end@?$vector@VAllocatedMemoryBlock@@V?$allocator@VAllocatedMemoryBlock@@@std@@@std@@QAE?AV?$_Vector_iterator@VAllocatedMemoryBlock@@V?$allocator@VAllocatedMemoryBlock@@@std@@@2@XZ 00479240 f i NuonMemoryManager.obj
 0001:000782a0       ?erase@?$vector@VAllocatedMemoryBlock@@V?$allocator@VAllocatedMemoryBlock@@@std@@@std@@QAE?AV?$_Vector_iterator@VAllocatedMemoryBlock@@V?$allocator@VAllocatedMemoryBlock@@@std@@@2@V32@0@Z 004792a0 f i NuonMemoryManager.obj
 0001:00078430       ?_Tidy@?$vector@VAllocatedMemoryBlock@@V?$allocator@VAllocatedMemoryBlock@@@std@@@std@@IAEXXZ 00479430 f i NuonMemoryManager.obj
 0001:000784e0       ??9?$_Vector_const_iterator@VFreeMemoryBlock@@V?$allocator@VFreeMemoryBlock@@@std@@@std@@QBE_NABV01@@Z 004794e0 f i NuonMemoryManager.obj
 0001:00078530       ??M?$_Vector_const_iterator@VFreeMemoryBlock@@V?$allocator@VFreeMemoryBlock@@@std@@@std@@QBE_NABV01@@Z 00479530 f i NuonMemoryManager.obj
 0001:00078580       ??9?$_Vector_const_iterator@VAllocatedMemoryBlock@@V?$allocator@VAllocatedMemoryBlock@@@std@@@std@@QBE_NABV01@@Z 00479580 f i NuonMemoryManager.obj
 0001:000785d0       ??M?$_Vector_const_iterator@VAllocatedMemoryBlock@@V?$allocator@VAllocatedMemoryBlock@@@std@@@std@@QBE_NABV01@@Z 004795d0 f i NuonMemoryManager.obj
 0001:00078620       ??8?$_Vector_const_iterator@VFreeMemoryBlock@@V?$allocator@VFreeMemoryBlock@@@std@@@std@@QBE_NABV01@@Z 00479620 f i NuonMemoryManager.obj
 0001:00078670       ??8?$_Vector_const_iterator@VAllocatedMemoryBlock@@V?$allocator@VAllocatedMemoryBlock@@@std@@@std@@QBE_NABV01@@Z 00479670 f i NuonMemoryManager.obj
 0001:000786c0       ?LoadNuonRomFile@MPE@@QAE_NPAD@Z 004796c0 f   nuonrom.obj
 0001:00078af0       ??0OverlayManager@@QAE@XZ  00479af0 f   OverlayManager.obj
 0001:00078c10       ?Hash@OverlayManager@@QAEIPAI@Z 00479c10 f   OverlayManager.obj
 0001:00078cf0       ?FindOverlay@OverlayManager@@QAEIPAIAA_N@Z 00479cf0 f   OverlayManager.obj
 0001:00078ea0       ??0PageMap@@QAE@XZ         00479ea0 f   PageMap.obj
 0001:00078ef0       ??1PageMap@@QAE@XZ         00479ef0 f   PageMap.obj
 0001:00078fb0       ?AllocateEntry@PageMap@@QAEPAVNativeCodeCacheEntry@@I@Z 00479fb0 f   PageMap.obj
 0001:00078ff0       ?UpdateEntry@PageMap@@QAEXIAAVNativeCodeCacheEntry@@@Z 00479ff0 f   PageMap.obj
 0001:00079030       ?AllocatePage@PageMap@@QAEPAVNativeCodeCacheEntry@@I@Z 0047a030 f   PageMap.obj
 0001:00079150       ?FindEntry@PageMap@@QAEPAVNativeCodeCacheEntry@@I@Z 0047a150 f   PageMap.obj
 0001:000791d0       ?InvalidateEntry@PageMap@@QAEXI@Z 0047a1d0 f   PageMap.obj
 0001:00079250       ?Invalidate@PageMap@@QAEIXZ 0047a250 f   PageMap.obj
 0001:00079320       ?InvalidateRegion@PageMap@@QAEXII@Z 0047a320 f   PageMap.obj
 0001:000794b0       ?ApplyPatches@PatchManager@@QAEXXZ 0047a4b0 f   PatchManager.obj
 0001:00079650       ?GetTimeDeltaMs@@YANXZ     0047a650 f   PerformanceTimer.obj
 0001:000796c0       ?StartPerformanceTimer@@YAXXZ 0047a6c0 f   PerformanceTimer.obj
 0001:000796f0       ?StopPerformanceTimer@@YAXXZ 0047a6f0 f   PerformanceTimer.obj
 0001:00079720       ?GetPerformanceTimerOverheadMs@@YANXZ 0047a720 f   PerformanceTimer.obj
 0001:00079820       ?API_EnterPE@@YAXPAVMPE@@@Z 0047a820 f   PresentationEngine.obj
 0001:00079830       ?API_NDK@@YAXPAVMPE@@@Z    0047a830 f   PresentationEngine.obj
 0001:00079840       ?API_DVD@@YAXPAVMPE@@@Z    0047a840 f   PresentationEngine.obj
 0001:00079850       ?API_FindDiskType@@YAXPAVMPE@@@Z 0047a850 f   PresentationEngine.obj
 0001:00079860       ?API_IsPresenting@@YAXPAVMPE@@@Z 0047a860 f   PresentationEngine.obj
 0001:00079870       ?API_GetFieldCounter@@YAXPAVMPE@@@Z 0047a870 f   PresentationEngine.obj
 0001:000798f0       ?API_IsNDK@@YAXPAVMPE@@@Z  0047a8f0 f   PresentationEngine.obj
 0001:00079900       ?API_IsDVD@@YAXPAVMPE@@@Z  0047a900 f   PresentationEngine.obj
 0001:00079910       ?API_StepOneFrame@@YAXPAVMPE@@@Z 0047a910 f   PresentationEngine.obj
 0001:00079920       ?API_AUDIOStreamSelect@@YAXPAVMPE@@@Z 0047a920 f   PresentationEngine.obj
 0001:00079930       ?API_ForwardSpeed@@YAXPAVMPE@@@Z 0047a930 f   PresentationEngine.obj
 0001:00079940       ?API_PresentVOB@@YAXPAVMPE@@@Z 0047a940 f   PresentationEngine.obj
 0001:00079950       ?API_StartCellStill@@YAXPAVMPE@@@Z 0047a950 f   PresentationEngine.obj
 0001:00079960       ?API_CellStillDone@@YAXPAVMPE@@@Z 0047a960 f   PresentationEngine.obj
 0001:00079970       ?API_PresentCell@@YAXPAVMPE@@@Z 0047a970 f   PresentationEngine.obj
 0001:00079980       ?API_CellReadDone@@YAXPAVMPE@@@Z 0047a980 f   PresentationEngine.obj
 0001:00079990       ?API_ProgramChange@@YAXPAVMPE@@@Z 0047a990 f   PresentationEngine.obj
 0001:000799a0       ?API_SetAngle@@YAXPAVMPE@@@Z 0047a9a0 f   PresentationEngine.obj
 0001:000799b0       ?InitDVDJumpTable@@YAXXZ   0047a9b0 f   PresentationEngine.obj
 0001:00079a10       ?CallPEHandler@@YAXPAVMPE@@I@Z 0047aa10 f   PresentationEngine.obj
 0001:00079be0       ?GetBtstSrc1@@YAII@Z       0047abe0 f   PrintALU.obj
 0001:00079c20       ?Print_ABS@@YAIPADAAVNuance@@_N@Z 0047ac20 f   PrintALU.obj
 0001:00079cf0       ?Print_BITSScalar@@YAIPADAAVNuance@@_N@Z 0047acf0 f   PrintALU.obj
 0001:00079dd0       ?Print_BITSImmediate@@YAIPADAAVNuance@@_N@Z 0047add0 f   PrintALU.obj
 0001:00079eb0       ?Print_BTST@@YAIPADAAVNuance@@_N@Z 0047aeb0 f   PrintALU.obj
 0001:00079f90       ?Print_BUTT@@YAIPADAAVNuance@@_N@Z 0047af90 f   PrintALU.obj
 0001:0007a070       ?Print_COPY@@YAIPADAAVNuance@@_N@Z 0047b070 f   PrintALU.obj
 0001:0007a150       ?Print_MSB@@YAIPADAAVNuance@@_N@Z 0047b150 f   PrintALU.obj
 0001:0007a230       ?Print_SAT@@YAIPADAAVNuance@@_N@Z 0047b230 f   PrintALU.obj
 0001:0007a310       ?Print_AS@@YAIPADAAVNuance@@_N@Z 0047b310 f   PrintALU.obj
 0001:0007a3f0       ?Print_ASL@@YAIPADAAVNuance@@_N@Z 0047b3f0 f   PrintALU.obj
 0001:0007a4d0       ?Print_ASR@@YAIPADAAVNuance@@_N@Z 0047b4d0 f   PrintALU.obj
 0001:0007a5b0       ?Print_LS@@YAIPADAAVNuance@@_N@Z 0047b5b0 f   PrintALU.obj
 0001:0007a690       ?Print_LSR@@YAIPADAAVNuance@@_N@Z 0047b690 f   PrintALU.obj
 0001:0007a770       ?Print_ROT@@YAIPADAAVNuance@@_N@Z 0047b770 f   PrintALU.obj
 0001:0007a850       ?Print_ROL@@YAIPADAAVNuance@@_N@Z 0047b850 f   PrintALU.obj
 0001:0007a930       ?Print_ROR@@YAIPADAAVNuance@@_N@Z 0047b930 f   PrintALU.obj
 0001:0007aa10       ?Print_ADD_P@@YAIPADAAVNuance@@_N@Z 0047ba10 f   PrintALU.obj
 0001:0007ab00       ?Print_SUB_P@@YAIPADAAVNuance@@_N@Z 0047bb00 f   PrintALU.obj
 0001:0007abf0       ?Print_ADD_SV@@YAIPADAAVNuance@@_N@Z 0047bbf0 f   PrintALU.obj
 0001:0007ace0       ?Print_SUB_SV@@YAIPADAAVNuance@@_N@Z 0047bce0 f   PrintALU.obj
 0001:0007add0       ?Print_ADDImmediate@@YAIPADAAVNuance@@_N@Z 0047bdd0 f   PrintALU.obj
 0001:0007aeb0       ?Print_ADDScalar@@YAIPADAAVNuance@@_N@Z 0047beb0 f   PrintALU.obj
 0001:0007af90       ?Print_ADDScalarShiftRightImmediate@@YAIPADAAVNuance@@_N@Z 0047bf90 f   PrintALU.obj
 0001:0007b070       ?Print_ADDScalarShiftLeftImmediate@@YAIPADAAVNuance@@_N@Z 0047c070 f   PrintALU.obj
 0001:0007b150       ?Print_SUBImmediate@@YAIPADAAVNuance@@_N@Z 0047c150 f   PrintALU.obj
 0001:0007b230       ?Print_SUBImmediateReverse@@YAIPADAAVNuance@@_N@Z 0047c230 f   PrintALU.obj
 0001:0007b310       ?Print_SUBScalar@@YAIPADAAVNuance@@_N@Z 0047c310 f   PrintALU.obj
 0001:0007b3f0       ?Print_SUBScalarShiftRightImmediate@@YAIPADAAVNuance@@_N@Z 0047c3f0 f   PrintALU.obj
 0001:0007b4d0       ?Print_SUBScalarShiftLeftImmediate@@YAIPADAAVNuance@@_N@Z 0047c4d0 f   PrintALU.obj
 0001:0007b5b0       ?Print_CMPImmediate@@YAIPADAAVNuance@@_N@Z 0047c5b0 f   PrintALU.obj
 0001:0007b690       ?Print_CMPImmediateReverse@@YAIPADAAVNuance@@_N@Z 0047c690 f   PrintALU.obj
 0001:0007b770       ?Print_CMPScalar@@YAIPADAAVNuance@@_N@Z 0047c770 f   PrintALU.obj
 0001:0007b850       ?Print_CMPScalarShiftRightImmediate@@YAIPADAAVNuance@@_N@Z 0047c850 f   PrintALU.obj
 0001:0007b930       ?Print_CMPScalarShiftLeftImmediate@@YAIPADAAVNuance@@_N@Z 0047c930 f   PrintALU.obj
 0001:0007ba10       ?Print_ANDImmediate@@YAIPADAAVNuance@@_N@Z 0047ca10 f   PrintALU.obj
 0001:0007baf0       ?Print_ANDScalar@@YAIPADAAVNuance@@_N@Z 0047caf0 f   PrintALU.obj
 0001:0007bbd0       ?Print_ANDImmediateShiftScalar@@YAIPADAAVNuance@@_N@Z 0047cbd0 f   PrintALU.obj
 0001:0007bcb0       ?Print_ANDScalarShiftRightImmediate@@YAIPADAAVNuance@@_N@Z 0047ccb0 f   PrintALU.obj
 0001:0007bd90       ?Print_ANDScalarShiftLeftImmediate@@YAIPADAAVNuance@@_N@Z 0047cd90 f   PrintALU.obj
 0001:0007be70       ?Print_ANDScalarShiftScalar@@YAIPADAAVNuance@@_N@Z 0047ce70 f   PrintALU.obj
 0001:0007bf50       ?Print_ANDScalarRotateScalar@@YAIPADAAVNuance@@_N@Z 0047cf50 f   PrintALU.obj
 0001:0007c030       ?Print_FTSTImmediate@@YAIPADAAVNuance@@_N@Z 0047d030 f   PrintALU.obj
 0001:0007c110       ?Print_FTSTScalar@@YAIPADAAVNuance@@_N@Z 0047d110 f   PrintALU.obj
 0001:0007c1f0       ?Print_FTSTImmediateShiftScalar@@YAIPADAAVNuance@@_N@Z 0047d1f0 f   PrintALU.obj
 0001:0007c2d0       ?Print_FTSTScalarShiftRightImmediate@@YAIPADAAVNuance@@_N@Z 0047d2d0 f   PrintALU.obj
 0001:0007c3b0       ?Print_FTSTScalarShiftLeftImmediate@@YAIPADAAVNuance@@_N@Z 0047d3b0 f   PrintALU.obj
 0001:0007c490       ?Print_FTSTScalarShiftScalar@@YAIPADAAVNuance@@_N@Z 0047d490 f   PrintALU.obj
 0001:0007c570       ?Print_FTSTScalarRotateScalar@@YAIPADAAVNuance@@_N@Z 0047d570 f   PrintALU.obj
 0001:0007c650       ?Print_ORImmediate@@YAIPADAAVNuance@@_N@Z 0047d650 f   PrintALU.obj
 0001:0007c730       ?Print_ORScalar@@YAIPADAAVNuance@@_N@Z 0047d730 f   PrintALU.obj
 0001:0007c810       ?Print_ORImmediateShiftScalar@@YAIPADAAVNuance@@_N@Z 0047d810 f   PrintALU.obj
 0001:0007c8f0       ?Print_ORScalarShiftRightImmediate@@YAIPADAAVNuance@@_N@Z 0047d8f0 f   PrintALU.obj
 0001:0007c9d0       ?Print_ORScalarShiftLeftImmediate@@YAIPADAAVNuance@@_N@Z 0047d9d0 f   PrintALU.obj
 0001:0007cab0       ?Print_ORScalarShiftScalar@@YAIPADAAVNuance@@_N@Z 0047dab0 f   PrintALU.obj
 0001:0007cb90       ?Print_ORScalarRotateScalar@@YAIPADAAVNuance@@_N@Z 0047db90 f   PrintALU.obj
 0001:0007cc70       ?Print_EORImmediate@@YAIPADAAVNuance@@_N@Z 0047dc70 f   PrintALU.obj
 0001:0007cd50       ?Print_EORScalar@@YAIPADAAVNuance@@_N@Z 0047dd50 f   PrintALU.obj
 0001:0007ce30       ?Print_EORImmediateShiftScalar@@YAIPADAAVNuance@@_N@Z 0047de30 f   PrintALU.obj
 0001:0007cf10       ?Print_EORScalarShiftRightImmediate@@YAIPADAAVNuance@@_N@Z 0047df10 f   PrintALU.obj
 0001:0007cff0       ?Print_EORScalarShiftLeftImmediate@@YAIPADAAVNuance@@_N@Z 0047dff0 f   PrintALU.obj
 0001:0007d0d0       ?Print_EORScalarShiftScalar@@YAIPADAAVNuance@@_N@Z 0047e0d0 f   PrintALU.obj
 0001:0007d1b0       ?Print_EORScalarRotateScalar@@YAIPADAAVNuance@@_N@Z 0047e1b0 f   PrintALU.obj
 0001:0007d290       ?Print_ADDWCImmediate@@YAIPADAAVNuance@@_N@Z 0047e290 f   PrintALU.obj
 0001:0007d370       ?Print_ADDWCScalar@@YAIPADAAVNuance@@_N@Z 0047e370 f   PrintALU.obj
 0001:0007d450       ?Print_ADDWCScalarShiftRightImmediate@@YAIPADAAVNuance@@_N@Z 0047e450 f   PrintALU.obj
 0001:0007d530       ?Print_ADDWCScalarShiftLeftImmediate@@YAIPADAAVNuance@@_N@Z 0047e530 f   PrintALU.obj
 0001:0007d610       ?Print_SUBWCImmediate@@YAIPADAAVNuance@@_N@Z 0047e610 f   PrintALU.obj
 0001:0007d6f0       ?Print_SUBWCImmediateReverse@@YAIPADAAVNuance@@_N@Z 0047e6f0 f   PrintALU.obj
 0001:0007d7d0       ?Print_SUBWCScalar@@YAIPADAAVNuance@@_N@Z 0047e7d0 f   PrintALU.obj
 0001:0007d8b0       ?Print_SUBWCScalarShiftRightImmediate@@YAIPADAAVNuance@@_N@Z 0047e8b0 f   PrintALU.obj
 0001:0007d990       ?Print_SUBWCScalarShiftLeftImmediate@@YAIPADAAVNuance@@_N@Z 0047e990 f   PrintALU.obj
 0001:0007da70       ?Print_CMPWCImmediate@@YAIPADAAVNuance@@_N@Z 0047ea70 f   PrintALU.obj
 0001:0007db50       ?Print_CMPWCImmediateReverse@@YAIPADAAVNuance@@_N@Z 0047eb50 f   PrintALU.obj
 0001:0007dc30       ?Print_CMPWCScalar@@YAIPADAAVNuance@@_N@Z 0047ec30 f   PrintALU.obj
 0001:0007dd10       ?Print_CMPWCScalarShiftRightImmediate@@YAIPADAAVNuance@@_N@Z 0047ed10 f   PrintALU.obj
 0001:0007ddf0       ?Print_CMPWCScalarShiftLeftImmediate@@YAIPADAAVNuance@@_N@Z 0047edf0 f   PrintALU.obj
 0001:0007ef90       ?GetConditionCode@@YAPADI@Z 0047ff90 f   PrintECU.obj
 0001:0007f150       ?Print_ECU_NOP@@YAIPADAAVNuance@@_N@Z 00480150 f   PrintECU.obj
 0001:0007f200       ?Print_Halt@@YAIPADAAVNuance@@_N@Z 00480200 f   PrintECU.obj
 0001:0007f2b0       ?Print_BRAAlways@@YAIPADAAVNuance@@_N@Z 004802b0 f   PrintECU.obj
 0001:0007f380       ?Print_BRAAlways_NOP@@YAIPADAAVNuance@@_N@Z 00480380 f   PrintECU.obj
 0001:0007f450       ?Print_BRAConditional@@YAIPADAAVNuance@@_N@Z 00480450 f   PrintECU.obj
 0001:0007f530       ?Print_BRAConditional_NOP@@YAIPADAAVNuance@@_N@Z 00480530 f   PrintECU.obj
 0001:0007f610       ?Print_JMPAlwaysIndirect@@YAIPADAAVNuance@@_N@Z 00480610 f   PrintECU.obj
 0001:0007f6e0       ?Print_JMPAlwaysIndirect_NOP@@YAIPADAAVNuance@@_N@Z 004806e0 f   PrintECU.obj
 0001:0007f7b0       ?Print_JMPConditionalIndirect@@YAIPADAAVNuance@@_N@Z 004807b0 f   PrintECU.obj
 0001:0007f890       ?Print_JMPConditionalIndirect_NOP@@YAIPADAAVNuance@@_N@Z 00480890 f   PrintECU.obj
 0001:0007f970       ?Print_JSRAlways@@YAIPADAAVNuance@@_N@Z 00480970 f   PrintECU.obj
 0001:0007fa50       ?Print_JSRAlways_NOP@@YAIPADAAVNuance@@_N@Z 00480a50 f   PrintECU.obj
 0001:0007fb30       ?Print_JSRConditional@@YAIPADAAVNuance@@_N@Z 00480b30 f   PrintECU.obj
 0001:0007fc20       ?Print_JSRConditional_NOP@@YAIPADAAVNuance@@_N@Z 00480c20 f   PrintECU.obj
 0001:0007fd10       ?Print_JSRAlwaysIndirect@@YAIPADAAVNuance@@_N@Z 00480d10 f   PrintECU.obj
 0001:0007fdf0       ?Print_JSRAlwaysIndirect_NOP@@YAIPADAAVNuance@@_N@Z 00480df0 f   PrintECU.obj
 0001:0007fed0       ?Print_JSRConditionalIndirect@@YAIPADAAVNuance@@_N@Z 00480ed0 f   PrintECU.obj
 0001:0007ffc0       ?Print_JSRConditionalIndirect_NOP@@YAIPADAAVNuance@@_N@Z 00480fc0 f   PrintECU.obj
 0001:000800b0       ?Print_RTSAlways@@YAIPADAAVNuance@@_N@Z 004810b0 f   PrintECU.obj
 0001:00080160       ?Print_RTSAlways_NOP@@YAIPADAAVNuance@@_N@Z 00481160 f   PrintECU.obj
 0001:00080220       ?Print_RTSConditional@@YAIPADAAVNuance@@_N@Z 00481220 f   PrintECU.obj
 0001:00080300       ?Print_RTSConditional_NOP@@YAIPADAAVNuance@@_N@Z 00481300 f   PrintECU.obj
 0001:000803e0       ?Print_RTI1Conditional@@YAIPADAAVNuance@@_N@Z 004813e0 f   PrintECU.obj
 0001:000804c0       ?Print_RTI1Conditional_NOP@@YAIPADAAVNuance@@_N@Z 004814c0 f   PrintECU.obj
 0001:000805a0       ?Print_RTI2Conditional@@YAIPADAAVNuance@@_N@Z 004815a0 f   PrintECU.obj
 0001:00080680       ?Print_RTI2Conditional_NOP@@YAIPADAAVNuance@@_N@Z 00481680 f   PrintECU.obj
 0001:00080d50       ?GetControlRegister@@YAPADI@Z 00481d50 f   PrintMEM.obj
 0001:00081860       ?Print_Mirror@@YAIPADAAVNuance@@_N@Z 00482860 f   PrintMEM.obj
 0001:00081940       ?Print_MV_SImmediate@@YAIPADAAVNuance@@_N@Z 00482940 f   PrintMEM.obj
 0001:00081a20       ?Print_MV_SScalar@@YAIPADAAVNuance@@_N@Z 00482a20 f   PrintMEM.obj
 0001:00081b00       ?Print_MV_V@@YAIPADAAVNuance@@_N@Z 00482b00 f   PrintMEM.obj
 0001:00081be0       ?Print_PopVector@@YAIPADAAVNuance@@_N@Z 00482be0 f   PrintMEM.obj
 0001:00081cc0       ?Print_PopVectorRz@@YAIPADAAVNuance@@_N@Z 00482cc0 f   PrintMEM.obj
 0001:00081da0       ?Print_PopScalarRzi1@@YAIPADAAVNuance@@_N@Z 00482da0 f   PrintMEM.obj
 0001:00081e70       ?Print_PopScalarRzi2@@YAIPADAAVNuance@@_N@Z 00482e70 f   PrintMEM.obj
 0001:00081f40       ?Print_PushVector@@YAIPADAAVNuance@@_N@Z 00482f40 f   PrintMEM.obj
 0001:00082020       ?Print_PushVectorRz@@YAIPADAAVNuance@@_N@Z 00483020 f   PrintMEM.obj
 0001:00082100       ?Print_PushScalarRzi1@@YAIPADAAVNuance@@_N@Z 00483100 f   PrintMEM.obj
 0001:000821d0       ?Print_PushScalarRzi2@@YAIPADAAVNuance@@_N@Z 004831d0 f   PrintMEM.obj
 0001:000822a0       ?Print_LoadScalarControlRegisterAbsolute@@YAIPADAAVNuance@@_N@Z 004832a0 f   PrintMEM.obj
 0001:00082390       ?Print_LoadByteAbsolute@@YAIPADAAVNuance@@_N@Z 00483390 f   PrintMEM.obj
 0001:00082470       ?Print_LoadWordAbsolute@@YAIPADAAVNuance@@_N@Z 00483470 f   PrintMEM.obj
 0001:00082550       ?Print_LoadScalarAbsolute@@YAIPADAAVNuance@@_N@Z 00483550 f   PrintMEM.obj
 0001:00082630       ?Print_LoadScalarLinear@@YAIPADAAVNuance@@_N@Z 00483630 f   PrintMEM.obj
 0001:00082710       ?Print_LoadVectorAbsolute@@YAIPADAAVNuance@@_N@Z 00483710 f   PrintMEM.obj
 0001:000827f0       ?Print_LoadVectorControlRegisterAbsolute@@YAIPADAAVNuance@@_N@Z 004837f0 f   PrintMEM.obj
 0001:000828e0       ?Print_LoadPixelAbsolute@@YAIPADAAVNuance@@_N@Z 004838e0 f   PrintMEM.obj
 0001:000829c0       ?Print_LoadPixelZAbsolute@@YAIPADAAVNuance@@_N@Z 004839c0 f   PrintMEM.obj
 0001:00082aa0       ?Print_LoadByteLinear@@YAIPADAAVNuance@@_N@Z 00483aa0 f   PrintMEM.obj
 0001:00082b80       ?Print_LoadByteBilinearUV@@YAIPADAAVNuance@@_N@Z 00483b80 f   PrintMEM.obj
 0001:00082c50       ?Print_LoadByteBilinearXY@@YAIPADAAVNuance@@_N@Z 00483c50 f   PrintMEM.obj
 0001:00082d20       ?Print_LoadWordLinear@@YAIPADAAVNuance@@_N@Z 00483d20 f   PrintMEM.obj
 0001:00082e00       ?Print_LoadWordBilinearUV@@YAIPADAAVNuance@@_N@Z 00483e00 f   PrintMEM.obj
 0001:00082ed0       ?Print_LoadWordBilinearXY@@YAIPADAAVNuance@@_N@Z 00483ed0 f   PrintMEM.obj
 0001:00082fa0       ?Print_LoadScalarBilinearUV@@YAIPADAAVNuance@@_N@Z 00483fa0 f   PrintMEM.obj
 0001:00083070       ?Print_LoadScalarBilinearXY@@YAIPADAAVNuance@@_N@Z 00484070 f   PrintMEM.obj
 0001:00083140       ?Print_LoadShortVectorAbsolute@@YAIPADAAVNuance@@_N@Z 00484140 f   PrintMEM.obj
 0001:00083220       ?Print_LoadShortVectorLinear@@YAIPADAAVNuance@@_N@Z 00484220 f   PrintMEM.obj
 0001:00083300       ?Print_LoadShortVectorBilinearUV@@YAIPADAAVNuance@@_N@Z 00484300 f   PrintMEM.obj
 0001:000833e0       ?Print_LoadShortVectorBilinearXY@@YAIPADAAVNuance@@_N@Z 004843e0 f   PrintMEM.obj
 0001:000834c0       ?Print_LoadVectorLinear@@YAIPADAAVNuance@@_N@Z 004844c0 f   PrintMEM.obj
 0001:000835a0       ?Print_LoadVectorBilinearUV@@YAIPADAAVNuance@@_N@Z 004845a0 f   PrintMEM.obj
 0001:00083680       ?Print_LoadVectorBilinearXY@@YAIPADAAVNuance@@_N@Z 00484680 f   PrintMEM.obj
 0001:00083760       ?Print_LoadPixelLinear@@YAIPADAAVNuance@@_N@Z 00484760 f   PrintMEM.obj
 0001:00083840       ?Print_LoadPixelBilinearUV@@YAIPADAAVNuance@@_N@Z 00484840 f   PrintMEM.obj
 0001:00083920       ?Print_LoadPixelBilinearXY@@YAIPADAAVNuance@@_N@Z 00484920 f   PrintMEM.obj
 0001:00083a00       ?Print_LoadPixelZLinear@@YAIPADAAVNuance@@_N@Z 00484a00 f   PrintMEM.obj
 0001:00083ae0       ?Print_LoadPixelZBilinearUV@@YAIPADAAVNuance@@_N@Z 00484ae0 f   PrintMEM.obj
 0001:00083bc0       ?Print_LoadPixelZBilinearXY@@YAIPADAAVNuance@@_N@Z 00484bc0 f   PrintMEM.obj
 0001:00083ca0       ?Print_StoreScalarImmediate@@YAIPADAAVNuance@@_N@Z 00484ca0 f   PrintMEM.obj
 0001:00083d80       ?Print_StoreScalarAbsolute@@YAIPADAAVNuance@@_N@Z 00484d80 f   PrintMEM.obj
 0001:00083e60       ?Print_StoreScalarControlRegisterImmediate@@YAIPADAAVNuance@@_N@Z 00484e60 f   PrintMEM.obj
 0001:00083f50       ?Print_StoreScalarLinear@@YAIPADAAVNuance@@_N@Z 00484f50 f   PrintMEM.obj
 0001:00084030       ?Print_StoreScalarBilinearUV@@YAIPADAAVNuance@@_N@Z 00485030 f   PrintMEM.obj
 0001:00084100       ?Print_StoreScalarBilinearXY@@YAIPADAAVNuance@@_N@Z 00485100 f   PrintMEM.obj
 0001:000841d0       ?Print_StoreScalarControlRegisterAbsolute@@YAIPADAAVNuance@@_N@Z 004851d0 f   PrintMEM.obj
 0001:000842c0       ?Print_StoreVectorControlRegisterAbsolute@@YAIPADAAVNuance@@_N@Z 004852c0 f   PrintMEM.obj
 0001:000843b0       ?Print_StorePixelAbsolute@@YAIPADAAVNuance@@_N@Z 004853b0 f   PrintMEM.obj
 0001:00084490       ?Print_StorePixelZAbsolute@@YAIPADAAVNuance@@_N@Z 00485490 f   PrintMEM.obj
 0001:00084570       ?Print_StoreShortVectorAbsolute@@YAIPADAAVNuance@@_N@Z 00485570 f   PrintMEM.obj
 0001:00084650       ?Print_StoreShortVectorLinear@@YAIPADAAVNuance@@_N@Z 00485650 f   PrintMEM.obj
 0001:00084730       ?Print_StoreShortVectorBilinearUV@@YAIPADAAVNuance@@_N@Z 00485730 f   PrintMEM.obj
 0001:00084810       ?Print_StoreShortVectorBilinearXY@@YAIPADAAVNuance@@_N@Z 00485810 f   PrintMEM.obj
 0001:000848f0       ?Print_StoreVectorAbsolute@@YAIPADAAVNuance@@_N@Z 004858f0 f   PrintMEM.obj
 0001:000849d0       ?Print_StoreVectorLinear@@YAIPADAAVNuance@@_N@Z 004859d0 f   PrintMEM.obj
 0001:00084ab0       ?Print_StoreVectorBilinearUV@@YAIPADAAVNuance@@_N@Z 00485ab0 f   PrintMEM.obj
 0001:00084b90       ?Print_StoreVectorBilinearXY@@YAIPADAAVNuance@@_N@Z 00485b90 f   PrintMEM.obj
 0001:00084c70       ?Print_StorePixelLinear@@YAIPADAAVNuance@@_N@Z 00485c70 f   PrintMEM.obj
 0001:00084d50       ?Print_StorePixelBilinearUV@@YAIPADAAVNuance@@_N@Z 00485d50 f   PrintMEM.obj
 0001:00084e30       ?Print_StorePixelBilinearXY@@YAIPADAAVNuance@@_N@Z 00485e30 f   PrintMEM.obj
 0001:00084f10       ?Print_StorePixelZLinear@@YAIPADAAVNuance@@_N@Z 00485f10 f   PrintMEM.obj
 0001:00084ff0       ?Print_StorePixelZBilinearUV@@YAIPADAAVNuance@@_N@Z 00485ff0 f   PrintMEM.obj
 0001:000850d0       ?Print_StorePixelZBilinearXY@@YAIPADAAVNuance@@_N@Z 004860d0 f   PrintMEM.obj
 0001:000851b0       ?Print_StoreScalarRegisterConstant@@YAIPADAAVNuance@@_N@Z 004861b0 f   PrintMEM.obj
 0001:000852a0       ?GetMiscConstantRegister@@YAPADI@Z 004862a0 f   PrintMEM.obj
 0001:00085380       ?Print_StoreMiscRegisterConstant@@YAIPADAAVNuance@@_N@Z 00486380 f   PrintMEM.obj
 0001:00086670       ?Print_PacketStart@@YAIPADAAVNuance@@_N@Z 00487670 f   PrintMisc.obj
 0001:00086740       ?Print_PacketEnd@@YAIPADAAVNuance@@_N@Z 00487740 f   PrintMisc.obj
 0001:00086810       ?Print_CheckECUSkipCounter@@YAIPADAAVNuance@@_N@Z 00487810 f   PrintMisc.obj
 0001:000868e0       ?Print_SaveFlags@@YAIPADAAVNuance@@_N@Z 004878e0 f   PrintMisc.obj
 0001:000869b0       ?Print_SaveRegs@@YAIPADAAVNuance@@_N@Z 004879b0 f   PrintMisc.obj
 0001:00086b80       ?GetImmediateShift@@YAPADI@Z 00487b80 f   PrintMUL.obj
 0001:00086be0       ?Print_ADDMImmediate@@YAIPADAAVNuance@@_N@Z 00487be0 f   PrintMUL.obj
 0001:00086cc0       ?Print_ADDM@@YAIPADAAVNuance@@_N@Z 00487cc0 f   PrintMUL.obj
 0001:00086da0       ?Print_SUBMImmediateReverse@@YAIPADAAVNuance@@_N@Z 00487da0 f   PrintMUL.obj
 0001:00086e80       ?Print_SUBM@@YAIPADAAVNuance@@_N@Z 00487e80 f   PrintMUL.obj
 0001:00086f60       ?Print_MULScalarShiftAcshift@@YAIPADAAVNuance@@_N@Z 00487f60 f   PrintMUL.obj
 0001:00087040       ?Print_MULScalarShiftRightImmediate@@YAIPADAAVNuance@@_N@Z 00488040 f   PrintMUL.obj
 0001:00087130       ?Print_MULScalarShiftLeftImmediate@@YAIPADAAVNuance@@_N@Z 00488130 f   PrintMUL.obj
 0001:00087220       ?Print_MULImmediateShiftAcshift@@YAIPADAAVNuance@@_N@Z 00488220 f   PrintMUL.obj
 0001:00087300       ?Print_MULScalarShiftScalar@@YAIPADAAVNuance@@_N@Z 00488300 f   PrintMUL.obj
 0001:000873f0       ?Print_MULImmediateShiftScalar@@YAIPADAAVNuance@@_N@Z 004883f0 f   PrintMUL.obj
 0001:000874e0       ?Print_MULImmediateShiftRightImmediate@@YAIPADAAVNuance@@_N@Z 004884e0 f   PrintMUL.obj
 0001:000875d0       ?Print_MULImmediateShiftLeftImmediate@@YAIPADAAVNuance@@_N@Z 004885d0 f   PrintMUL.obj
 0001:000876c0       ?Print_MUL_SVImmediateShiftImmediate@@YAIPADAAVNuance@@_N@Z 004886c0 f   PrintMUL.obj
 0001:000877c0       ?Print_MUL_SVScalarShiftImmediate@@YAIPADAAVNuance@@_N@Z 004887c0 f   PrintMUL.obj
 0001:000878c0       ?Print_MUL_SVScalarShiftSvshift@@YAIPADAAVNuance@@_N@Z 004888c0 f   PrintMUL.obj
 0001:000879b0       ?Print_MUL_SVRuShiftImmediate@@YAIPADAAVNuance@@_N@Z 004889b0 f   PrintMUL.obj
 0001:00087aa0       ?Print_MUL_SVRuShiftSvshift@@YAIPADAAVNuance@@_N@Z 00488aa0 f   PrintMUL.obj
 0001:00087b80       ?Print_MUL_SVRvShiftImmediate@@YAIPADAAVNuance@@_N@Z 00488b80 f   PrintMUL.obj
 0001:00087c70       ?Print_MUL_SVRvShiftSvshift@@YAIPADAAVNuance@@_N@Z 00488c70 f   PrintMUL.obj
 0001:00087d50       ?Print_MUL_SVVectorShiftImmediate@@YAIPADAAVNuance@@_N@Z 00488d50 f   PrintMUL.obj
 0001:00087e50       ?Print_MUL_SVVectorShiftSvshift@@YAIPADAAVNuance@@_N@Z 00488e50 f   PrintMUL.obj
 0001:00087f40       ?Print_MUL_PImmediateShiftImmediate@@YAIPADAAVNuance@@_N@Z 00488f40 f   PrintMUL.obj
 0001:00088040       ?Print_MUL_PScalarShiftImmediate@@YAIPADAAVNuance@@_N@Z 00489040 f   PrintMUL.obj
 0001:00088140       ?Print_MUL_PScalarShiftSvshift@@YAIPADAAVNuance@@_N@Z 00489140 f   PrintMUL.obj
 0001:00088230       ?Print_MUL_PRuShiftImmediate@@YAIPADAAVNuance@@_N@Z 00489230 f   PrintMUL.obj
 0001:00088320       ?Print_MUL_PRuShiftSvshift@@YAIPADAAVNuance@@_N@Z 00489320 f   PrintMUL.obj
 0001:00088400       ?Print_MUL_PRvShiftImmediate@@YAIPADAAVNuance@@_N@Z 00489400 f   PrintMUL.obj
 0001:000884f0       ?Print_MUL_PRvShiftSvshift@@YAIPADAAVNuance@@_N@Z 004894f0 f   PrintMUL.obj
 0001:000885d0       ?Print_MUL_PVectorShiftImmediate@@YAIPADAAVNuance@@_N@Z 004895d0 f   PrintMUL.obj
 0001:000886d0       ?Print_MUL_PVectorShiftSvshift@@YAIPADAAVNuance@@_N@Z 004896d0 f   PrintMUL.obj
 0001:000887c0       ?Print_DOTPScalarShiftImmediate@@YAIPADAAVNuance@@_N@Z 004897c0 f   PrintMUL.obj
 0001:000888b0       ?Print_DOTPScalarShiftSvshift@@YAIPADAAVNuance@@_N@Z 004898b0 f   PrintMUL.obj
 0001:00088990       ?Print_DOTPVectorShiftImmediate@@YAIPADAAVNuance@@_N@Z 00489990 f   PrintMUL.obj
 0001:00088a90       ?Print_DOTPVectorShiftSvshift@@YAIPADAAVNuance@@_N@Z 00489a90 f   PrintMUL.obj
 0001:00089380       ?GetIndexRegister@@YAPADI@Z 0048a380 f   PrintRCU.obj
 0001:000893e0       ?Print_DEC@@YAIPADAAVNuance@@_N@Z 0048a3e0 f   PrintRCU.obj
 0001:000895e0       ?Print_ADDRImmediate@@YAIPADAAVNuance@@_N@Z 0048a5e0 f   PrintRCU.obj
 0001:000896d0       ?Print_ADDRScalar@@YAIPADAAVNuance@@_N@Z 0048a6d0 f   PrintRCU.obj
 0001:000897c0       ?Print_MVRImmediate@@YAIPADAAVNuance@@_N@Z 0048a7c0 f   PrintRCU.obj
 0001:000898b0       ?Print_MVRScalar@@YAIPADAAVNuance@@_N@Z 0048a8b0 f   PrintRCU.obj
 0001:000899a0       ?Print_Range@@YAIPADAAVNuance@@_N@Z 0048a9a0 f   PrintRCU.obj
 0001:00089a80       ?Print_Modulo@@YAIPADAAVNuance@@_N@Z 0048aa80 f   PrintRCU.obj
 0001:00089d60       ?PropagateConstants_ABS@@YAXAAVSuperBlockConstants@@@Z 0048ad60 f   PropagateConstants_ALU.obj
 0001:00089ec0       ?PropagateConstants_BITSImmediate@@YAXAAVSuperBlockConstants@@@Z 0048aec0 f   PropagateConstants_ALU.obj
 0001:00089ff0       ?PropagateConstants_BITSScalar@@YAXAAVSuperBlockConstants@@@Z 0048aff0 f   PropagateConstants_ALU.obj
 0001:0008a0d0       ?PropagateConstants_BTST@@YAXAAVSuperBlockConstants@@@Z 0048b0d0 f   PropagateConstants_ALU.obj
 0001:0008a1e0       ?PropagateConstants_BUTT@@YAXAAVSuperBlockConstants@@@Z 0048b1e0 f   PropagateConstants_ALU.obj
 0001:0008a260       ?PropagateConstants_COPY@@YAXAAVSuperBlockConstants@@@Z 0048b260 f   PropagateConstants_ALU.obj
 0001:0008a380       ?PropagateConstants_MSB@@YAXAAVSuperBlockConstants@@@Z 0048b380 f   PropagateConstants_ALU.obj
 0001:0008a540       ?PropagateConstants_SAT@@YAXAAVSuperBlockConstants@@@Z 0048b540 f   PropagateConstants_ALU.obj
 0001:0008a6a0       ?PropagateConstants_ASL@@YAXAAVSuperBlockConstants@@@Z 0048b6a0 f   PropagateConstants_ALU.obj
 0001:0008a810       ?PropagateConstants_ASR@@YAXAAVSuperBlockConstants@@@Z 0048b810 f   PropagateConstants_ALU.obj
 0001:0008a960       ?PropagateConstants_AS@@YAXAAVSuperBlockConstants@@@Z 0048b960 f   PropagateConstants_ALU.obj
 0001:0008aab0       ?PropagateConstants_LSR@@YAXAAVSuperBlockConstants@@@Z 0048bab0 f   PropagateConstants_ALU.obj
 0001:0008ac00       ?PropagateConstants_LS@@YAXAAVSuperBlockConstants@@@Z 0048bc00 f   PropagateConstants_ALU.obj
 0001:0008ad50       ?PropagateConstants_ROL@@YAXAAVSuperBlockConstants@@@Z 0048bd50 f   PropagateConstants_ALU.obj
 0001:0008ae90       ?PropagateConstants_ROR@@YAXAAVSuperBlockConstants@@@Z 0048be90 f   PropagateConstants_ALU.obj
 0001:0008afd0       ?PropagateConstants_ROT@@YAXAAVSuperBlockConstants@@@Z 0048bfd0 f   PropagateConstants_ALU.obj
 0001:0008b110       ?PropagateConstants_ADD_P@@YAXAAVSuperBlockConstants@@@Z 0048c110 f   PropagateConstants_ALU.obj
 0001:0008b150       ?PropagateConstants_SUB_P@@YAXAAVSuperBlockConstants@@@Z 0048c150 f   PropagateConstants_ALU.obj
 0001:0008b200       ?PropagateConstants_ADD_SV@@YAXAAVSuperBlockConstants@@@Z 0048c200 f   PropagateConstants_ALU.obj
 0001:0008b240       ?PropagateConstants_SUB_SV@@YAXAAVSuperBlockConstants@@@Z 0048c240 f   PropagateConstants_ALU.obj
 0001:0008b300       ?PropagateConstants_ADDImmediate@@YAXAAVSuperBlockConstants@@@Z 0048c300 f   PropagateConstants_ALU.obj
 0001:0008b4d0       ?PropagateConstants_ADDScalar@@YAXAAVSuperBlockConstants@@@Z 0048c4d0 f   PropagateConstants_ALU.obj
 0001:0008b5c0       ?PropagateConstants_ADDScalarShiftRightImmediate@@YAXAAVSuperBlockConstants@@@Z 0048c5c0 f   PropagateConstants_ALU.obj
 0001:0008b6d0       ?PropagateConstants_ADDScalarShiftLeftImmediate@@YAXAAVSuperBlockConstants@@@Z 0048c6d0 f   PropagateConstants_ALU.obj
 0001:0008b7e0       ?PropagateConstants_SUBImmediate@@YAXAAVSuperBlockConstants@@@Z 0048c7e0 f   PropagateConstants_ALU.obj
 0001:0008b9b0       ?PropagateConstants_SUBImmediateReverse@@YAXAAVSuperBlockConstants@@@Z 0048c9b0 f   PropagateConstants_ALU.obj
 0001:0008bb80       ?PropagateConstants_SUBScalar@@YAXAAVSuperBlockConstants@@@Z 0048cb80 f   PropagateConstants_ALU.obj
 0001:0008bd60       ?PropagateConstants_SUBScalarShiftRightImmediate@@YAXAAVSuperBlockConstants@@@Z 0048cd60 f   PropagateConstants_ALU.obj
 0001:0008be70       ?PropagateConstants_SUBScalarShiftLeftImmediate@@YAXAAVSuperBlockConstants@@@Z 0048ce70 f   PropagateConstants_ALU.obj
 0001:0008bf80       ?PropagateConstants_CMPImmediate@@YAXAAVSuperBlockConstants@@@Z 0048cf80 f   PropagateConstants_ALU.obj
 0001:0008c140       ?PropagateConstants_CMPImmediateReverse@@YAXAAVSuperBlockConstants@@@Z 0048d140 f   PropagateConstants_ALU.obj
 0001:0008c300       ?PropagateConstants_CMPScalar@@YAXAAVSuperBlockConstants@@@Z 0048d300 f   PropagateConstants_ALU.obj
 0001:0008c460       ?PropagateConstants_CMPScalarShiftRightImmediate@@YAXAAVSuperBlockConstants@@@Z 0048d460 f   PropagateConstants_ALU.obj
 0001:0008c560       ?PropagateConstants_CMPScalarShiftLeftImmediate@@YAXAAVSuperBlockConstants@@@Z 0048d560 f   PropagateConstants_ALU.obj
 0001:0008c660       ?PropagateConstants_ANDImmediate@@YAXAAVSuperBlockConstants@@@Z 0048d660 f   PropagateConstants_ALU.obj
 0001:0008c7a0       ?PropagateConstants_ANDScalar@@YAXAAVSuperBlockConstants@@@Z 0048d7a0 f   PropagateConstants_ALU.obj
 0001:0008c900       ?PropagateConstants_ANDImmediateShiftScalar@@YAXAAVSuperBlockConstants@@@Z 0048d900 f   PropagateConstants_ALU.obj
 0001:0008ca40       ?PropagateConstants_ANDScalarShiftRightImmediate@@YAXAAVSuperBlockConstants@@@Z 0048da40 f   PropagateConstants_ALU.obj
 0001:0008cb40       ?PropagateConstants_ANDScalarShiftLeftImmediate@@YAXAAVSuperBlockConstants@@@Z 0048db40 f   PropagateConstants_ALU.obj
 0001:0008cc40       ?PropagateConstants_ANDScalarShiftScalar@@YAXAAVSuperBlockConstants@@@Z 0048dc40 f   PropagateConstants_ALU.obj
 0001:0008cd50       ?PropagateConstants_ANDScalarRotateScalar@@YAXAAVSuperBlockConstants@@@Z 0048dd50 f   PropagateConstants_ALU.obj
 0001:0008ced0       ?PropagateConstants_FTSTImmediate@@YAXAAVSuperBlockConstants@@@Z 0048ded0 f   PropagateConstants_ALU.obj
 0001:0008d000       ?PropagateConstants_FTSTScalar@@YAXAAVSuperBlockConstants@@@Z 0048e000 f   PropagateConstants_ALU.obj
 0001:0008d150       ?PropagateConstants_FTSTImmediateShiftScalar@@YAXAAVSuperBlockConstants@@@Z 0048e150 f   PropagateConstants_ALU.obj
 0001:0008d280       ?PropagateConstants_FTSTScalarShiftRightImmediate@@YAXAAVSuperBlockConstants@@@Z 0048e280 f   PropagateConstants_ALU.obj
 0001:0008d380       ?PropagateConstants_FTSTScalarShiftLeftImmediate@@YAXAAVSuperBlockConstants@@@Z 0048e380 f   PropagateConstants_ALU.obj
 0001:0008d480       ?PropagateConstants_FTSTScalarShiftScalar@@YAXAAVSuperBlockConstants@@@Z 0048e480 f   PropagateConstants_ALU.obj
 0001:0008d590       ?PropagateConstants_FTSTScalarRotateScalar@@YAXAAVSuperBlockConstants@@@Z 0048e590 f   PropagateConstants_ALU.obj
 0001:0008d700       ?PropagateConstants_ORImmediate@@YAXAAVSuperBlockConstants@@@Z 0048e700 f   PropagateConstants_ALU.obj
 0001:0008d840       ?PropagateConstants_ORScalar@@YAXAAVSuperBlockConstants@@@Z 0048e840 f   PropagateConstants_ALU.obj
 0001:0008d9a0       ?PropagateConstants_ORImmediateShiftScalar@@YAXAAVSuperBlockConstants@@@Z 0048e9a0 f   PropagateConstants_ALU.obj
 0001:0008dae0       ?PropagateConstants_ORScalarShiftRightImmediate@@YAXAAVSuperBlockConstants@@@Z 0048eae0 f   PropagateConstants_ALU.obj
 0001:0008dbe0       ?PropagateConstants_ORScalarShiftLeftImmediate@@YAXAAVSuperBlockConstants@@@Z 0048ebe0 f   PropagateConstants_ALU.obj
 0001:0008dce0       ?PropagateConstants_ORScalarShiftScalar@@YAXAAVSuperBlockConstants@@@Z 0048ece0 f   PropagateConstants_ALU.obj
 0001:0008ddf0       ?PropagateConstants_ORScalarRotateScalar@@YAXAAVSuperBlockConstants@@@Z 0048edf0 f   PropagateConstants_ALU.obj
 0001:0008df70       ?PropagateConstants_EORImmediate@@YAXAAVSuperBlockConstants@@@Z 0048ef70 f   PropagateConstants_ALU.obj
 0001:0008e0b0       ?PropagateConstants_EORScalar@@YAXAAVSuperBlockConstants@@@Z 0048f0b0 f   PropagateConstants_ALU.obj
 0001:0008e290       ?PropagateConstants_EORImmediateShiftScalar@@YAXAAVSuperBlockConstants@@@Z 0048f290 f   PropagateConstants_ALU.obj
 0001:0008e3d0       ?PropagateConstants_EORScalarShiftRightImmediate@@YAXAAVSuperBlockConstants@@@Z 0048f3d0 f   PropagateConstants_ALU.obj
 0001:0008e4d0       ?PropagateConstants_EORScalarShiftLeftImmediate@@YAXAAVSuperBlockConstants@@@Z 0048f4d0 f   PropagateConstants_ALU.obj
 0001:0008e5d0       ?PropagateConstants_EORScalarShiftScalar@@YAXAAVSuperBlockConstants@@@Z 0048f5d0 f   PropagateConstants_ALU.obj
 0001:0008e6e0       ?PropagateConstants_EORScalarRotateScalar@@YAXAAVSuperBlockConstants@@@Z 0048f6e0 f   PropagateConstants_ALU.obj
 0001:0008e860       ?PropagateConstants_ADDWCImmediate@@YAXAAVSuperBlockConstants@@@Z 0048f860 f   PropagateConstants_ALU.obj
 0001:0008ea70       ?PropagateConstants_ADDWCScalar@@YAXAAVSuperBlockConstants@@@Z 0048fa70 f   PropagateConstants_ALU.obj
 0001:0008eb60       ?PropagateConstants_ADDWCScalarShiftRightImmediate@@YAXAAVSuperBlockConstants@@@Z 0048fb60 f   PropagateConstants_ALU.obj
 0001:0008ec70       ?PropagateConstants_ADDWCScalarShiftLeftImmediate@@YAXAAVSuperBlockConstants@@@Z 0048fc70 f   PropagateConstants_ALU.obj
 0001:0008ed80       ?PropagateConstants_SUBWCImmediate@@YAXAAVSuperBlockConstants@@@Z 0048fd80 f   PropagateConstants_ALU.obj
 0001:0008ef80       ?PropagateConstants_SUBWCImmediateReverse@@YAXAAVSuperBlockConstants@@@Z 0048ff80 f   PropagateConstants_ALU.obj
 0001:0008f180       ?PropagateConstants_SUBWCScalar@@YAXAAVSuperBlockConstants@@@Z 00490180 f   PropagateConstants_ALU.obj
 0001:0008f2e0       ?PropagateConstants_SUBWCScalarShiftRightImmediate@@YAXAAVSuperBlockConstants@@@Z 004902e0 f   PropagateConstants_ALU.obj
 0001:0008f3f0       ?PropagateConstants_SUBWCScalarShiftLeftImmediate@@YAXAAVSuperBlockConstants@@@Z 004903f0 f   PropagateConstants_ALU.obj
 0001:0008f500       ?PropagateConstants_CMPWCImmediate@@YAXAAVSuperBlockConstants@@@Z 00490500 f   PropagateConstants_ALU.obj
 0001:0008f700       ?PropagateConstants_CMPWCImmediateReverse@@YAXAAVSuperBlockConstants@@@Z 00490700 f   PropagateConstants_ALU.obj
 0001:0008f900       ?PropagateConstants_CMPWCScalar@@YAXAAVSuperBlockConstants@@@Z 00490900 f   PropagateConstants_ALU.obj
 0001:0008fa60       ?PropagateConstants_CMPWCScalarShiftRightImmediate@@YAXAAVSuperBlockConstants@@@Z 00490a60 f   PropagateConstants_ALU.obj
 0001:0008fb60       ?PropagateConstants_CMPWCScalarShiftLeftImmediate@@YAXAAVSuperBlockConstants@@@Z 00490b60 f   PropagateConstants_ALU.obj
 0001:00091420       ?ClearScalarInputDependency@SuperBlockConstants@@QAEXI@Z 00492420 f i PropagateConstants_ALU.obj
 0001:00091460       ?ClearScalarRegisterConstant@SuperBlockConstants@@QAEXI@Z 00492460 f i PropagateConstants_ALU.obj
 0001:000914a0       ?ClearMiscRegisterConstant@SuperBlockConstants@@QAEXI@Z 004924a0 f i PropagateConstants_ALU.obj
 0001:00091510       ?SetMiscRegisterConstant@SuperBlockConstants@@QAEXII@Z 00492510 f i PropagateConstants_ALU.obj
 0001:00091560       ?IsScalarRegisterConstant@SuperBlockConstants@@QAE_NI@Z 00492560 f i PropagateConstants_ALU.obj
 0001:000915a0       ?GetScalarRegisterConstant@SuperBlockConstants@@QAEII@Z 004925a0 f i PropagateConstants_ALU.obj
 0001:000915d0       ?SetScalarInputDependency@SuperBlockConstants@@QAEXI@Z 004925d0 f i PropagateConstants_ALU.obj
 0001:00091610       ?ClearPixelRegisterConstant@SuperBlockConstants@@QAEXI@Z 00492610 f i PropagateConstants_ALU.obj
 0001:00091650       ?SetScalarRegisterConstant@SuperBlockConstants@@QAEXII@Z 00492650 f i PropagateConstants_ALU.obj
 0001:000916a0       ?ClearShortVectorRegisterConstant@SuperBlockConstants@@QAEXI@Z 004926a0 f i PropagateConstants_ALU.obj
 0001:000916e0       ?ClearMiscInputDependency@SuperBlockConstants@@QAEXI@Z 004926e0 f i PropagateConstants_ALU.obj
 0001:00091720       ?IsMiscRegisterConstant@SuperBlockConstants@@QAE_NI@Z 00492720 f i PropagateConstants_ALU.obj
 0001:00091760       ?GetMiscRegisterConstant@SuperBlockConstants@@QAEII@Z 00492760 f i PropagateConstants_ALU.obj
 0001:00091790       ?PropagateConstants_ECU_NOP@@YAXAAVSuperBlockConstants@@@Z 00492790 f   PropagateConstants_ECU.obj
 0001:000917e0       ?PropagateConstants_Halt@@YAXAAVSuperBlockConstants@@@Z 004927e0 f   PropagateConstants_ECU.obj
 0001:00091810       ?PropagateConstants_BRAAlways@@YAXAAVSuperBlockConstants@@@Z 00492810 f   PropagateConstants_ECU.obj
 0001:00091850       ?PropagateConstants_BRAAlways_NOP@@YAXAAVSuperBlockConstants@@@Z 00492850 f   PropagateConstants_ECU.obj
 0001:00091890       ?PropagateConstants_BRAConditional@@YAXAAVSuperBlockConstants@@@Z 00492890 f   PropagateConstants_ECU.obj
 0001:00091980       ?PropagateConstants_BRAConditional_NOP@@YAXAAVSuperBlockConstants@@@Z 00492980 f   PropagateConstants_ECU.obj
 0001:00091a70       ?PropagateConstants_JMPAlwaysIndirect@@YAXAAVSuperBlockConstants@@@Z 00492a70 f   PropagateConstants_ECU.obj
 0001:00091b20       ?PropagateConstants_JMPAlwaysIndirect_NOP@@YAXAAVSuperBlockConstants@@@Z 00492b20 f   PropagateConstants_ECU.obj
 0001:00091bd0       ?PropagateConstants_JMPConditionalIndirect@@YAXAAVSuperBlockConstants@@@Z 00492bd0 f   PropagateConstants_ECU.obj
 0001:00091cc0       ?PropagateConstants_JMPConditionalIndirect_NOP@@YAXAAVSuperBlockConstants@@@Z 00492cc0 f   PropagateConstants_ECU.obj
 0001:00091db0       ?PropagateConstants_JSRAlways@@YAXAAVSuperBlockConstants@@@Z 00492db0 f   PropagateConstants_ECU.obj
 0001:00091df0       ?PropagateConstants_JSRAlways_NOP@@YAXAAVSuperBlockConstants@@@Z 00492df0 f   PropagateConstants_ECU.obj
 0001:00091e30       ?PropagateConstants_JSRConditional@@YAXAAVSuperBlockConstants@@@Z 00492e30 f   PropagateConstants_ECU.obj
 0001:00091f20       ?PropagateConstants_JSRConditional_NOP@@YAXAAVSuperBlockConstants@@@Z 00492f20 f   PropagateConstants_ECU.obj
 0001:00092010       ?PropagateConstants_JSRAlwaysIndirect@@YAXAAVSuperBlockConstants@@@Z 00493010 f   PropagateConstants_ECU.obj
 0001:000920c0       ?PropagateConstants_JSRAlwaysIndirect_NOP@@YAXAAVSuperBlockConstants@@@Z 004930c0 f   PropagateConstants_ECU.obj
 0001:00092170       ?PropagateConstants_JSRConditionalIndirect@@YAXAAVSuperBlockConstants@@@Z 00493170 f   PropagateConstants_ECU.obj
 0001:00092260       ?PropagateConstants_JSRConditionalIndirect_NOP@@YAXAAVSuperBlockConstants@@@Z 00493260 f   PropagateConstants_ECU.obj
 0001:00092350       ?PropagateConstants_RTSAlways@@YAXAAVSuperBlockConstants@@@Z 00493350 f   PropagateConstants_ECU.obj
 0001:00092380       ?PropagateConstants_RTSAlways_NOP@@YAXAAVSuperBlockConstants@@@Z 00493380 f   PropagateConstants_ECU.obj
 0001:000923b0       ?PropagateConstants_RTSConditional@@YAXAAVSuperBlockConstants@@@Z 004933b0 f   PropagateConstants_ECU.obj
 0001:00092490       ?PropagateConstants_RTSConditional_NOP@@YAXAAVSuperBlockConstants@@@Z 00493490 f   PropagateConstants_ECU.obj
 0001:00092570       ?PropagateConstants_RTI1Conditional@@YAXAAVSuperBlockConstants@@@Z 00493570 f   PropagateConstants_ECU.obj
 0001:00092650       ?PropagateConstants_RTI1Conditional_NOP@@YAXAAVSuperBlockConstants@@@Z 00493650 f   PropagateConstants_ECU.obj
 0001:00092730       ?PropagateConstants_RTI2Conditional@@YAXAAVSuperBlockConstants@@@Z 00493730 f   PropagateConstants_ECU.obj
 0001:00092810       ?PropagateConstants_RTI2Conditional_NOP@@YAXAAVSuperBlockConstants@@@Z 00493810 f   PropagateConstants_ECU.obj
 0001:00092d40       ?ClearInstructionFlags@SuperBlockConstants@@QAEXI@Z 00493d40 f i PropagateConstants_ECU.obj
 0001:00092d80       ?ClearAllScalarOutputDependencies@SuperBlockConstants@@QAEXXZ 00493d80 f i PropagateConstants_ECU.obj
 0001:00092db0       ?ClearAllScalarInputDependencies@SuperBlockConstants@@QAEXXZ 00493db0 f i PropagateConstants_ECU.obj
 0001:00092de0       ?ClearAllMiscOutputDependencies@SuperBlockConstants@@QAEXXZ 00493de0 f i PropagateConstants_ECU.obj
 0001:00092e10       ?ClearAllMiscInputDependencies@SuperBlockConstants@@QAEXXZ 00493e10 f i PropagateConstants_ECU.obj
 0001:00092e40       ?SetInstructionFlags@SuperBlockConstants@@QAEXI@Z 00493e40 f i PropagateConstants_ECU.obj
 0001:00092e80       ?PropagateConstants_UpdateFlagConstants@@YAXAAVSuperBlockConstants@@@Z 00493e80 f   PropagateConstants_MEM.obj
 0001:00093040       ?PropagateConstants_StoreScalarRegisterConstant@@YAXAAVSuperBlockConstants@@@Z 00494040 f   PropagateConstants_MEM.obj
 0001:000930a0       ?PropagateConstants_StoreMiscRegisterConstant@@YAXAAVSuperBlockConstants@@@Z 004940a0 f   PropagateConstants_MEM.obj
 0001:00093110       ?PropagateConstants_Mirror@@YAXAAVSuperBlockConstants@@@Z 00494110 f   PropagateConstants_MEM.obj
 0001:00093270       ?PropagateConstants_MV_SImmediate@@YAXAAVSuperBlockConstants@@@Z 00494270 f   PropagateConstants_MEM.obj
 0001:000932d0       ?PropagateConstants_MV_SScalar@@YAXAAVSuperBlockConstants@@@Z 004942d0 f   PropagateConstants_MEM.obj
 0001:000933a0       ?PropagateConstants_MV_V@@YAXAAVSuperBlockConstants@@@Z 004943a0 f   PropagateConstants_MEM.obj
 0001:000933e0       ?PropagateConstants_PopVector@@YAXAAVSuperBlockConstants@@@Z 004943e0 f   PropagateConstants_MEM.obj
 0001:00093430       ?PropagateConstants_PopVectorRz@@YAXAAVSuperBlockConstants@@@Z 00494430 f   PropagateConstants_MEM.obj
 0001:00093490       ?PropagateConstants_PopScalarRzi1@@YAXAAVSuperBlockConstants@@@Z 00494490 f   PropagateConstants_MEM.obj
 0001:00093500       ?PropagateConstants_PopScalarRzi2@@YAXAAVSuperBlockConstants@@@Z 00494500 f   PropagateConstants_MEM.obj
 0001:00093570       ?PropagateConstants_PushVector@@YAXAAVSuperBlockConstants@@@Z 00494570 f   PropagateConstants_MEM.obj
 0001:000935a0       ?PropagateConstants_PushVectorRz@@YAXAAVSuperBlockConstants@@@Z 004945a0 f   PropagateConstants_MEM.obj
 0001:000935d0       ?PropagateConstants_PushScalarRzi1@@YAXAAVSuperBlockConstants@@@Z 004945d0 f   PropagateConstants_MEM.obj
 0001:00093600       ?PropagateConstants_PushScalarRzi2@@YAXAAVSuperBlockConstants@@@Z 00494600 f   PropagateConstants_MEM.obj
 0001:00093630       ?PropagateConstants_LoadScalarControlRegisterAbsolute@@YAXAAVSuperBlockConstants@@@Z 00494630 f   PropagateConstants_MEM.obj
 0001:00093a10       ?PropagateConstants_LoadByteAbsolute@@YAXAAVSuperBlockConstants@@@Z 00494a10 f   PropagateConstants_MEM.obj
 0001:00093a50       ?PropagateConstants_LoadWordAbsolute@@YAXAAVSuperBlockConstants@@@Z 00494a50 f   PropagateConstants_MEM.obj
 0001:00093a90       ?PropagateConstants_LoadScalarAbsolute@@YAXAAVSuperBlockConstants@@@Z 00494a90 f   PropagateConstants_MEM.obj
 0001:00093ad0       ?PropagateConstants_LoadScalarLinear@@YAXAAVSuperBlockConstants@@@Z 00494ad0 f   PropagateConstants_MEM.obj
 0001:00093c00       ?PropagateConstants_LoadVectorAbsolute@@YAXAAVSuperBlockConstants@@@Z 00494c00 f   PropagateConstants_MEM.obj
 0001:00093c40       ?PropagateConstants_LoadVectorControlRegisterAbsolute@@YAXAAVSuperBlockConstants@@@Z 00494c40 f   PropagateConstants_MEM.obj
 0001:00093c90       ?PropagateConstants_LoadPixelAbsolute@@YAXAAVSuperBlockConstants@@@Z 00494c90 f   PropagateConstants_MEM.obj
 0001:00093cd0       ?PropagateConstants_LoadPixelZAbsolute@@YAXAAVSuperBlockConstants@@@Z 00494cd0 f   PropagateConstants_MEM.obj
 0001:00093d10       ?PropagateConstants_LoadByteLinear@@YAXAAVSuperBlockConstants@@@Z 00494d10 f   PropagateConstants_MEM.obj
 0001:00093df0       ?PropagateConstants_LoadByteBilinearUV@@YAXAAVSuperBlockConstants@@@Z 00494df0 f   PropagateConstants_MEM.obj
 0001:00093e30       ?PropagateConstants_LoadByteBilinearXY@@YAXAAVSuperBlockConstants@@@Z 00494e30 f   PropagateConstants_MEM.obj
 0001:00093e70       ?PropagateConstants_LoadWordLinear@@YAXAAVSuperBlockConstants@@@Z 00494e70 f   PropagateConstants_MEM.obj
 0001:00093f50       ?PropagateConstants_LoadWordBilinearUV@@YAXAAVSuperBlockConstants@@@Z 00494f50 f   PropagateConstants_MEM.obj
 0001:00093f90       ?PropagateConstants_LoadWordBilinearXY@@YAXAAVSuperBlockConstants@@@Z 00494f90 f   PropagateConstants_MEM.obj
 0001:00093fd0       ?PropagateConstants_LoadScalarBilinearUV@@YAXAAVSuperBlockConstants@@@Z 00494fd0 f   PropagateConstants_MEM.obj
 0001:00094010       ?PropagateConstants_LoadScalarBilinearXY@@YAXAAVSuperBlockConstants@@@Z 00495010 f   PropagateConstants_MEM.obj
 0001:00094050       ?PropagateConstants_LoadShortVectorAbsolute@@YAXAAVSuperBlockConstants@@@Z 00495050 f   PropagateConstants_MEM.obj
 0001:00094090       ?PropagateConstants_LoadShortVectorLinear@@YAXAAVSuperBlockConstants@@@Z 00495090 f   PropagateConstants_MEM.obj
 0001:00094170       ?PropagateConstants_LoadShortVectorBilinearUV@@YAXAAVSuperBlockConstants@@@Z 00495170 f   PropagateConstants_MEM.obj
 0001:000941b0       ?PropagateConstants_LoadShortVectorBilinearXY@@YAXAAVSuperBlockConstants@@@Z 004951b0 f   PropagateConstants_MEM.obj
 0001:000941f0       ?PropagateConstants_LoadVectorLinear@@YAXAAVSuperBlockConstants@@@Z 004951f0 f   PropagateConstants_MEM.obj
 0001:00094320       ?PropagateConstants_LoadVectorBilinearUV@@YAXAAVSuperBlockConstants@@@Z 00495320 f   PropagateConstants_MEM.obj
 0001:00094360       ?PropagateConstants_LoadVectorBilinearXY@@YAXAAVSuperBlockConstants@@@Z 00495360 f   PropagateConstants_MEM.obj
 0001:000943a0       ?PropagateConstants_LoadPixelLinear@@YAXAAVSuperBlockConstants@@@Z 004953a0 f   PropagateConstants_MEM.obj
 0001:00094490       ?PropagateConstants_LoadPixelBilinearUV@@YAXAAVSuperBlockConstants@@@Z 00495490 f   PropagateConstants_MEM.obj
 0001:000944d0       ?PropagateConstants_LoadPixelBilinearXY@@YAXAAVSuperBlockConstants@@@Z 004954d0 f   PropagateConstants_MEM.obj
 0001:00094510       ?PropagateConstants_LoadPixelZLinear@@YAXAAVSuperBlockConstants@@@Z 00495510 f   PropagateConstants_MEM.obj
 0001:000945f0       ?PropagateConstants_LoadPixelZBilinearUV@@YAXAAVSuperBlockConstants@@@Z 004955f0 f   PropagateConstants_MEM.obj
 0001:00094630       ?PropagateConstants_LoadPixelZBilinearXY@@YAXAAVSuperBlockConstants@@@Z 00495630 f   PropagateConstants_MEM.obj
 0001:00094670       ?PropagateConstants_StoreScalarImmediate@@YAXAAVSuperBlockConstants@@@Z 00495670 f   PropagateConstants_MEM.obj
 0001:000946a0       ?PropagateConstants_StoreScalarControlRegisterImmediate@@YAXAAVSuperBlockConstants@@@Z 004956a0 f   PropagateConstants_MEM.obj
 0001:00094970       ?PropagateConstants_StoreScalarControlRegisterAbsolute@@YAXAAVSuperBlockConstants@@@Z 00495970 f   PropagateConstants_MEM.obj
 0001:00094ba0       ?PropagateConstants_StoreScalarAbsolute@@YAXAAVSuperBlockConstants@@@Z 00495ba0 f   PropagateConstants_MEM.obj
 0001:00094c30       ?PropagateConstants_StoreScalarLinear@@YAXAAVSuperBlockConstants@@@Z 00495c30 f   PropagateConstants_MEM.obj
 0001:00094d40       ?PropagateConstants_StoreScalarBilinearUV@@YAXAAVSuperBlockConstants@@@Z 00495d40 f   PropagateConstants_MEM.obj
 0001:00094d70       ?PropagateConstants_StoreScalarBilinearXY@@YAXAAVSuperBlockConstants@@@Z 00495d70 f   PropagateConstants_MEM.obj
 0001:00094da0       ?PropagateConstants_StoreVectorControlRegisterAbsolute@@YAXAAVSuperBlockConstants@@@Z 00495da0 f   PropagateConstants_MEM.obj
 0001:00094dd0       ?PropagateConstants_StorePixelAbsolute@@YAXAAVSuperBlockConstants@@@Z 00495dd0 f   PropagateConstants_MEM.obj
 0001:00094e00       ?PropagateConstants_StorePixelZAbsolute@@YAXAAVSuperBlockConstants@@@Z 00495e00 f   PropagateConstants_MEM.obj
 0001:00094e30       ?PropagateConstants_StoreShortVectorAbsolute@@YAXAAVSuperBlockConstants@@@Z 00495e30 f   PropagateConstants_MEM.obj
 0001:00094e60       ?PropagateConstants_StoreShortVectorLinear@@YAXAAVSuperBlockConstants@@@Z 00495e60 f   PropagateConstants_MEM.obj
 0001:00094f20       ?PropagateConstants_StoreShortVectorBilinearUV@@YAXAAVSuperBlockConstants@@@Z 00495f20 f   PropagateConstants_MEM.obj
 0001:00094f50       ?PropagateConstants_StoreShortVectorBilinearXY@@YAXAAVSuperBlockConstants@@@Z 00495f50 f   PropagateConstants_MEM.obj
 0001:00094f80       ?PropagateConstants_StoreVectorAbsolute@@YAXAAVSuperBlockConstants@@@Z 00495f80 f   PropagateConstants_MEM.obj
 0001:00094fb0       ?PropagateConstants_StoreVectorLinear@@YAXAAVSuperBlockConstants@@@Z 00495fb0 f   PropagateConstants_MEM.obj
 0001:00095070       ?PropagateConstants_StoreVectorBilinearUV@@YAXAAVSuperBlockConstants@@@Z 00496070 f   PropagateConstants_MEM.obj
 0001:000950a0       ?PropagateConstants_StoreVectorBilinearXY@@YAXAAVSuperBlockConstants@@@Z 004960a0 f   PropagateConstants_MEM.obj
 0001:000950d0       ?PropagateConstants_StorePixelLinear@@YAXAAVSuperBlockConstants@@@Z 004960d0 f   PropagateConstants_MEM.obj
 0001:000951a0       ?PropagateConstants_StorePixelBilinearUV@@YAXAAVSuperBlockConstants@@@Z 004961a0 f   PropagateConstants_MEM.obj
 0001:000951d0       ?PropagateConstants_StorePixelBilinearXY@@YAXAAVSuperBlockConstants@@@Z 004961d0 f   PropagateConstants_MEM.obj
 0001:00095200       ?PropagateConstants_StorePixelZLinear@@YAXAAVSuperBlockConstants@@@Z 00496200 f   PropagateConstants_MEM.obj
 0001:000952d0       ?PropagateConstants_StorePixelZBilinearUV@@YAXAAVSuperBlockConstants@@@Z 004962d0 f   PropagateConstants_MEM.obj
 0001:00095300       ?PropagateConstants_StorePixelZBilinearXY@@YAXAAVSuperBlockConstants@@@Z 00496300 f   PropagateConstants_MEM.obj
 0001:00095c50       ?ClearVectorRegisterConstant@SuperBlockConstants@@QAEXI@Z 00496c50 f i PropagateConstants_MEM.obj
 0001:00095c90       ?PropagateConstants_ADDMImmediate@@YAXAAVSuperBlockConstants@@@Z 00496c90 f   PropagateConstants_MUL.obj
 0001:00095d70       ?PropagateConstants_ADDM@@YAXAAVSuperBlockConstants@@@Z 00496d70 f   PropagateConstants_MUL.obj
 0001:00095eb0       ?PropagateConstants_SUBMImmediateReverse@@YAXAAVSuperBlockConstants@@@Z 00496eb0 f   PropagateConstants_MUL.obj
 0001:00095f90       ?PropagateConstants_SUBM@@YAXAAVSuperBlockConstants@@@Z 00496f90 f   PropagateConstants_MUL.obj
 0001:00096140       ?PropagateConstants_MULImmediateShiftRightImmediate@@YAXAAVSuperBlockConstants@@@Z 00497140 f   PropagateConstants_MUL.obj
 0001:000962f0       ?PropagateConstants_MULImmediateShiftLeftImmediate@@YAXAAVSuperBlockConstants@@@Z 004972f0 f   PropagateConstants_MUL.obj
 0001:000964a0       ?PropagateConstants_MULScalarShiftRightImmediate@@YAXAAVSuperBlockConstants@@@Z 004974a0 f   PropagateConstants_MUL.obj
 0001:00096570       ?PropagateConstants_MULScalarShiftLeftImmediate@@YAXAAVSuperBlockConstants@@@Z 00497570 f   PropagateConstants_MUL.obj
 0001:00096640       ?PropagateConstants_MULImmediateShiftAcshift@@YAXAAVSuperBlockConstants@@@Z 00497640 f   PropagateConstants_MUL.obj
 0001:00096740       ?PropagateConstants_MULScalarShiftAcshift@@YAXAAVSuperBlockConstants@@@Z 00497740 f   PropagateConstants_MUL.obj
 0001:00096900       ?PropagateConstants_MULImmediateShiftScalar@@YAXAAVSuperBlockConstants@@@Z 00497900 f   PropagateConstants_MUL.obj
 0001:00096a30       ?PropagateConstants_MULScalarShiftScalar@@YAXAAVSuperBlockConstants@@@Z 00497a30 f   PropagateConstants_MUL.obj
 0001:00096b00       ?PropagateConstants_MUL_SVImmediateShiftImmediate@@YAXAAVSuperBlockConstants@@@Z 00497b00 f   PropagateConstants_MUL.obj
 0001:00096b40       ?PropagateConstants_MUL_SVScalarShiftImmediate@@YAXAAVSuperBlockConstants@@@Z 00497b40 f   PropagateConstants_MUL.obj
 0001:00096c10       ?PropagateConstants_MUL_SVScalarShiftSvshift@@YAXAAVSuperBlockConstants@@@Z 00497c10 f   PropagateConstants_MUL.obj
 0001:00096cc0       ?PropagateConstants_MUL_SVRuShiftImmediate@@YAXAAVSuperBlockConstants@@@Z 00497cc0 f   PropagateConstants_MUL.obj
 0001:00096d00       ?PropagateConstants_MUL_SVRuShiftSvshift@@YAXAAVSuperBlockConstants@@@Z 00497d00 f   PropagateConstants_MUL.obj
 0001:00096d90       ?PropagateConstants_MUL_SVRvShiftImmediate@@YAXAAVSuperBlockConstants@@@Z 00497d90 f   PropagateConstants_MUL.obj
 0001:00096dd0       ?PropagateConstants_MUL_SVRvShiftSvshift@@YAXAAVSuperBlockConstants@@@Z 00497dd0 f   PropagateConstants_MUL.obj
 0001:00096e60       ?PropagateConstants_MUL_SVVectorShiftImmediate@@YAXAAVSuperBlockConstants@@@Z 00497e60 f   PropagateConstants_MUL.obj
 0001:00096ea0       ?PropagateConstants_MUL_SVVectorShiftSvshift@@YAXAAVSuperBlockConstants@@@Z 00497ea0 f   PropagateConstants_MUL.obj
 0001:00096f30       ?PropagateConstants_MUL_PImmediateShiftImmediate@@YAXAAVSuperBlockConstants@@@Z 00497f30 f   PropagateConstants_MUL.obj
 0001:00096f70       ?PropagateConstants_MUL_PScalarShiftImmediate@@YAXAAVSuperBlockConstants@@@Z 00497f70 f   PropagateConstants_MUL.obj
 0001:00097040       ?PropagateConstants_MUL_PScalarShiftSvshift@@YAXAAVSuperBlockConstants@@@Z 00498040 f   PropagateConstants_MUL.obj
 0001:000970d0       ?PropagateConstants_MUL_PRuShiftImmediate@@YAXAAVSuperBlockConstants@@@Z 004980d0 f   PropagateConstants_MUL.obj
 0001:00097110       ?PropagateConstants_MUL_PRuShiftSvshift@@YAXAAVSuperBlockConstants@@@Z 00498110 f   PropagateConstants_MUL.obj
 0001:000971a0       ?PropagateConstants_MUL_PRvShiftImmediate@@YAXAAVSuperBlockConstants@@@Z 004981a0 f   PropagateConstants_MUL.obj
 0001:000971e0       ?PropagateConstants_MUL_PRvShiftSvshift@@YAXAAVSuperBlockConstants@@@Z 004981e0 f   PropagateConstants_MUL.obj
 0001:00097270       ?PropagateConstants_MUL_PVectorShiftImmediate@@YAXAAVSuperBlockConstants@@@Z 00498270 f   PropagateConstants_MUL.obj
 0001:000972b0       ?PropagateConstants_MUL_PVectorShiftSvshift@@YAXAAVSuperBlockConstants@@@Z 004982b0 f   PropagateConstants_MUL.obj
 0001:00097340       ?PropagateConstants_DOTPScalarShiftImmediate@@YAXAAVSuperBlockConstants@@@Z 00498340 f   PropagateConstants_MUL.obj
 0001:00097370       ?PropagateConstants_DOTPScalarShiftSvshift@@YAXAAVSuperBlockConstants@@@Z 00498370 f   PropagateConstants_MUL.obj
 0001:000973f0       ?PropagateConstants_DOTPVectorShiftImmediate@@YAXAAVSuperBlockConstants@@@Z 004983f0 f   PropagateConstants_MUL.obj
 0001:00097420       ?PropagateConstants_DOTPVectorShiftSvshift@@YAXAAVSuperBlockConstants@@@Z 00498420 f   PropagateConstants_MUL.obj
 0001:00097aa0       ?SetShortVectorInputDependency@SuperBlockConstants@@QAEXI@Z 00498aa0 f i PropagateConstants_MUL.obj
 0001:00097ae0       ?SetPixelInputDependency@SuperBlockConstants@@QAEXI@Z 00498ae0 f i PropagateConstants_MUL.obj
 0001:00097b20       ?PropagateConstants_DECRc0@@YAXAAVSuperBlockConstants@@@Z 00498b20 f   PropagateConstants_RCU.obj
 0001:00097c10       ?PropagateConstants_DECRc1@@YAXAAVSuperBlockConstants@@@Z 00498c10 f   PropagateConstants_RCU.obj
 0001:00097d00       ?PropagateConstants_DECBoth@@YAXAAVSuperBlockConstants@@@Z 00498d00 f   PropagateConstants_RCU.obj
 0001:00097d40       ?PropagateConstants_ADDRImmediateOnly@@YAXAAVSuperBlockConstants@@@Z 00498d40 f   PropagateConstants_RCU.obj
 0001:00097e00       ?PropagateConstants_ADDRImmediate@@YAXAAVSuperBlockConstants@@@Z 00498e00 f   PropagateConstants_RCU.obj
 0001:00097e70       ?PropagateConstants_ADDRScalarOnly@@YAXAAVSuperBlockConstants@@@Z 00498e70 f   PropagateConstants_RCU.obj
 0001:00097f20       ?PropagateConstants_ADDRScalar@@YAXAAVSuperBlockConstants@@@Z 00498f20 f   PropagateConstants_RCU.obj
 0001:00098000       ?PropagateConstants_MVRImmediateOnly@@YAXAAVSuperBlockConstants@@@Z 00499000 f   PropagateConstants_RCU.obj
 0001:00098060       ?PropagateConstants_MVRImmediate@@YAXAAVSuperBlockConstants@@@Z 00499060 f   PropagateConstants_RCU.obj
 0001:000980f0       ?PropagateConstants_MVRScalarOnly@@YAXAAVSuperBlockConstants@@@Z 004990f0 f   PropagateConstants_RCU.obj
 0001:000981a0       ?PropagateConstants_MVRScalar@@YAXAAVSuperBlockConstants@@@Z 004991a0 f   PropagateConstants_RCU.obj
 0001:00098280       ?PropagateConstants_RangeOnly@@YAXAAVSuperBlockConstants@@@Z 00499280 f   PropagateConstants_RCU.obj
 0001:000982b0       ?PropagateConstants_Range@@YAXAAVSuperBlockConstants@@@Z 004992b0 f   PropagateConstants_RCU.obj
 0001:00098310       ?PropagateConstants_ModuloOnly@@YAXAAVSuperBlockConstants@@@Z 00499310 f   PropagateConstants_RCU.obj
 0001:00098370       ?PropagateConstants_Modulo@@YAXAAVSuperBlockConstants@@@Z 00499370 f   PropagateConstants_RCU.obj
 0001:00098620       ??0ShaderProgram@@QAE@XZ   00499620 f   ShaderProgram.obj
 0001:00098670       ??1ShaderProgram@@QAE@XZ   00499670 f   ShaderProgram.obj
 0001:000986a0       ?Initialize@ShaderProgram@@QAE_NXZ 004996a0 f   ShaderProgram.obj
 0001:00098730       ?Uninitalize@ShaderProgram@@QAE_NXZ 00499730 f   ShaderProgram.obj
 0001:000987f0       ?PrintInfoLog@ShaderProgram@@QAEXHPBD@Z 004997f0 f   ShaderProgram.obj
 0001:00098920       ?InstallShaderSourceFromFile@ShaderProgram@@QAE_NPADI@Z 00499920 f   ShaderProgram.obj
 0001:00098ac0       ?InstallShaderSourceFromMemory@ShaderProgram@@QAE_NPAPADIPBHI@Z 00499ac0 f   ShaderProgram.obj
 0001:00098b80       ?CompileShader@ShaderProgram@@QAE_NI@Z 00499b80 f   ShaderProgram.obj
 0001:00098cc0       ?Link@ShaderProgram@@QAE_NXZ 00499cc0 f   ShaderProgram.obj
 0001:00098da0       ?AttachShader@ShaderProgram@@QAE_NI@Z 00499da0 f   ShaderProgram.obj
 0001:00098e80       ?DetatchShader@ShaderProgram@@QAE_NI@Z 00499e80 f   ShaderProgram.obj
 0001:00098f60       ?CompileAndLinkShaders@ShaderProgram@@QAE_NXZ 00499f60 f   ShaderProgram.obj
 0001:00099150       ?StartShaderProgram@ShaderProgram@@QAE_NXZ 0049a150 f   ShaderProgram.obj
 0001:00099190       ?StopShaderProgram@ShaderProgram@@QAE_NXZ 0049a190 f   ShaderProgram.obj
 0001:000994b0       ?IsBranchConditionCompilable@@YA_NIII@Z 0049a4b0 f   SuperBlock.obj
 0001:000995e0       ??0SuperBlock@@QAE@PAVMPE@@II@Z 0049a5e0 f   SuperBlock.obj
 0001:000997a0       ??1SuperBlock@@QAE@XZ      0049a7a0 f   SuperBlock.obj
 0001:00099840       ?GetFlagString@@YAXIPAD@Z  0049a840 f   SuperBlock.obj
 0001:00099a80       ?GetIFlagsString@@YAXPADI@Z 0049aa80 f   SuperBlock.obj
 0001:00099c90       ?EmitCodeBlock@SuperBlock@@QAE_NAAVNativeCodeCache@@W4SuperBlockCompileType@@_N@Z 0049ac90 f   SuperBlock.obj
 0001:0009a210       ?CompileBlock@SuperBlock@@QAEP6AXXZPAVMPE@@IAAVNativeCodeCache@@W4SuperBlockCompileType@@_NAA_N@Z 0049b210 f   SuperBlock.obj
 0001:0009a390       ?PerformConstantPropagation@SuperBlock@@QAEXXZ 0049b390 f   SuperBlock.obj
 0001:0009a400       ?PrintBlockToFile@SuperBlock@@QAEXW4SuperBlockCompileType@@I@Z 0049b400 f   SuperBlock.obj
 0001:0009a800       ?AddPacketToList@SuperBlock@@QAEXAAVInstructionCacheEntry@@I@Z 0049b800 f   SuperBlock.obj
 0001:0009a980       ?AddInstructionsToList@SuperBlock@@QAE_NAAVInstructionCacheEntry@@PAUPacketEntry@@I_N@Z 0049b980 f   SuperBlock.obj
 0001:0009ac40       ?PerformDeadCodeElimination@SuperBlock@@QAEIXZ 0049bc40 f   SuperBlock.obj
 0001:0009ae70       ?UpdateDependencyInfo@SuperBlock@@QAEXXZ 0049be70 f   SuperBlock.obj
 0001:0009b1e0       ?FetchSuperBlock@SuperBlock@@QAEHAAVMPE@@IAA_N@Z 0049c1e0 f   SuperBlock.obj
 0001:0009c320       ??_GSuperBlockConstants@@QAEPAXI@Z 0049d320 f i SuperBlock.obj
 0001:0009c370       ?LockBuffer@NativeCodeCache@@QAEPAEPAII@Z 0049d370 f i SuperBlock.obj
 0001:0009c3c0       ?GetAvailableCodeBufferSize@NativeCodeCache@@QAEIXZ 0049d3c0 f i SuperBlock.obj
 0001:0009c3f0       ?GetEmitVars@NativeCodeCache@@QAEPAVEmitterVariables@@XZ 0049d3f0 f i SuperBlock.obj
 0001:0009c410       ?PropagateConstants@SuperBlockConstants@@QAEXXZ 0049d410 f i SuperBlock.obj
 0001:0009c460       ?FirstInstruction@SuperBlockConstants@@QAEXXZ 0049d460 f i SuperBlock.obj
 0001:0009c4c0       ?NextInstruction@SuperBlockConstants@@QAE_NXZ 0049d4c0 f i SuperBlock.obj
 0001:0009c530       ?ClearConstants@SuperBlockConstants@@QAEXXZ 0049d530 f i SuperBlock.obj
 0001:0009c590       ?PropagateConstants_PacketStart@@YAXAAVSuperBlockConstants@@@Z 0049d590 f   SuperBlockConstants.obj
 0001:0009c5a0       ?PropagateConstants_PacketEnd@@YAXAAVSuperBlockConstants@@@Z 0049d5a0 f   SuperBlockConstants.obj
 0001:0009c5c0       ??0SuperBlockConstants@@QAE@PAVMPE@@PAVSuperBlock@@@Z 0049d5c0 f   SuperBlockConstants.obj
 0001:0009c610       ??1SuperBlockConstants@@QAE@XZ 0049d610 f   SuperBlockConstants.obj
 0001:0009c630       ?EvaluateBranchCondition@SuperBlockConstants@@QAE_NIPA_N@Z 0049d630 f   SuperBlockConstants.obj
 0001:0009d040       ?CommitConstants@SuperBlockConstants@@QAEXXZ 0049e040 f i SuperBlockConstants.obj
 0001:0009d130       ?Syscall_InterruptTriggered@@YAXPAVMPE@@@Z 0049e130 f   Syscall.obj
 0001:0009d1c0       ?Syscall_WaitForInterruptCommon@@YAXII@Z 0049e1c0 f   Syscall.obj
 0001:0009d250       ?Syscall_WaitForCommPacket@@YAXPAVMPE@@@Z 0049e250 f   Syscall.obj
 0001:0009d390       ?Syscall_WaitForInterrupt@@YAXPAVMPE@@@Z 0049e390 f   Syscall.obj
 0001:0009d3e0       ?Syscall_ClearWaitForInterrupt@@YAXPAVMPE@@@Z 0049e3e0 f   Syscall.obj
 0001:0009d400       ?ExecuteSyscall_Interrupts@@YAXPAVMPE@@I@Z 0049e400 f   Syscall.obj
 0001:0009d460       ?ExecuteSyscall@@YAXPAVMPE@@I@Z 0049e460 f   Syscall.obj
 0001:0009d5c0       ?TestConditionCode@MPE@@QAE_NI@Z 0049e5c0 f   TestConditionCode.obj
 0001:0009da90       ?SysTimer0Callback@@YGXIIHHH@Z 0049ea90 f   timer.obj
 0001:0009daf0       ?SysTimer1Callback@@YGXIIHHH@Z 0049eaf0 f   timer.obj
 0001:0009db50       ?SysTimer2Callback@@YGXIIHHH@Z 0049eb50 f   timer.obj
 0001:0009db90       ?InitializeTimingMethod@@YAXXZ 0049eb90 f   timer.obj
 0001:0009dc10       ?TimeOfDay@@YAXPAVMPE@@@Z  0049ec10 f   timer.obj
 0001:0009ddc0       ?TimeElapsed@@YAXPAVMPE@@@Z 0049edc0 f   timer.obj
 0001:0009df80       ?TimerInit@@YAXII@Z        0049ef80 f   timer.obj
 0001:0009e0f0       ?TimerInit@@YAXPAVMPE@@@Z  0049f0f0 f   timer.obj
 0001:0009e310       ?OnesCount@@YAII@Z         0049f310 f   Utility.obj
 0001:0009e390       ?CalculateTableEntries@@YAXPAEEE@Z 0049f390 f   video.obj
 0001:0009e450       ?InitializeYCrCbColorSpace@@YAXXZ 0049f450 f   video.obj
 0001:0009e520       ?InitializeColorSpaceTables@@YAXXZ 0049f520 f   video.obj
 0001:0009e5b0       ?AllocateTextureMemory@@YAPAEI_N@Z 0049f5b0 f   video.obj
 0001:0009e680       ?FreeTextureMemory@@YAXPAE_N@Z 0049f680 f   video.obj
 0001:0009e760       ?UpdateTextureStates@@YAXXZ 0049f760 f   video.obj
 0001:0009ee30       ?UpdateDisplayList@@YAXXZ  0049fe30 f   video.obj
 0001:0009f350       ?InitTextures@@YAXXZ       004a0350 f   video.obj
 0001:0009f590       ?RenderVideo_Type4@@YAXPAE0II_N@Z 004a0590 f   video.obj
 0001:0009f6d0       ?IncrementVideoFieldCounter@@YAXXZ 004a06d0 f   video.obj
 0001:0009f780       ?RenderVideo@@YAXHH@Z      004a0780 f   video.obj
 0001:000a08b0       ?UpdateBufferLengths@@YAXXZ 004a18b0 f   video.obj
 0001:000a0990       ?VidQueryConfig@@YAXPAVMPE@@@Z 004a1990 f   video.obj
 0001:000a0ac0       ?VidConfig@@YAXPAVMPE@@@Z  004a1ac0 f   video.obj
 0001:000a1470       ?VidSetup@@YAXPAVMPE@@@Z   004a2470 f   video.obj
 0001:000a18b0       ?SetVideoMode@@YAXXZ       004a28b0 f   video.obj
 0001:000a18f0       ?VidChangeBase@@YAXPAVMPE@@@Z 004a28f0 f   video.obj
 0001:000a1b00       ?VidChangeScroll@@YAXPAVMPE@@@Z 004a2b00 f   video.obj
 0001:000a1c10       ?SetDefaultColor@@YAXPAVMPE@@@Z 004a2c10 f   video.obj
 0001:000a1c50       ?VidSetCLUTRange@@YAXPAVMPE@@@Z 004a2c50 f   video.obj
 0001:000a1d90       ?VideoCleanup@@YAXXZ       004a2d90 f   video.obj
 0001:000a2c80       ?GetProgramObject@ShaderProgram@@QAEHXZ 004a3c80 f i video.obj
 0001:000a2ca0       ?UpdateTexCoords@@YAXMMPAM@Z 004a3ca0 f i video.obj
 0001:000a2cbc       _glewGetErrorString        004a3cbc f   glew32:glew32.dll
 0001:000a2cc2       _glewInit                  004a3cc2 f   glew32:glew32.dll
 0001:000a2cc8       _MessageBoxA@16            004a3cc8 f   user32:USER32.dll
 0001:000a2cce       _SendMessageA@16           004a3cce f   user32:USER32.dll
 0001:000a2cd4       _AdjustWindowRectEx@16     004a3cd4 f   user32:USER32.dll
 0001:000a2cda       _GetClientRect@8           004a3cda f   user32:USER32.dll
 0001:000a2ce0       _GetWindowRect@8           004a3ce0 f   user32:USER32.dll
 0001:000a2ce6       _PostMessageA@16           004a3ce6 f   user32:USER32.dll
 0001:000a2cec       _ChangeDisplaySettingsA@8  004a3cec f   user32:USER32.dll
 0001:000a2cf2       _ShowWindow@8              004a3cf2 f   user32:USER32.dll
 0001:000a2cf8       _ReleaseDC@8               004a3cf8 f   user32:USER32.dll
 0001:000a2cfe       _DestroyWindow@4           004a3cfe f   user32:USER32.dll
 0001:000a2d04       _GetDC@4                   004a3d04 f   user32:USER32.dll
 0001:000a2d0a       _CreateWindowExA@48        004a3d0a f   user32:USER32.dll
 0001:000a2d10       _ShowCursor@4              004a3d10 f   user32:USER32.dll
 0001:000a2d16       _UnregisterClassA@8        004a3d16 f   user32:USER32.dll
 0001:000a2d1c       _DefWindowProcA@16         004a3d1c f   user32:USER32.dll
 0001:000a2d22       _SetWindowPos@28           004a3d22 f   user32:USER32.dll
 0001:000a2d28       _EndPaint@8                004a3d28 f   user32:USER32.dll
 0001:000a2d2e       _BeginPaint@8              004a3d2e f   user32:USER32.dll
 0001:000a2d34       _SetWindowLongA@12         004a3d34 f   user32:USER32.dll
 0001:000a2d3a       _GetWindowLongA@8          004a3d3a f   user32:USER32.dll
 0001:000a2d40       _RegisterClassExA@4        004a3d40 f   user32:USER32.dll
 0001:000a2d46       _LoadCursorA@8             004a3d46 f   user32:USER32.dll
 0001:000a2d4c       _DispatchMessageA@4        004a3d4c f   user32:USER32.dll
 0001:000a2d52       _PeekMessageA@20           004a3d52 f   user32:USER32.dll
 0001:000a2d58       _WaitMessage@0             004a3d58 f   user32:USER32.dll
 0001:000a2d5e       _EnableWindow@8            004a3d5e f   user32:USER32.dll
 0001:000a2d64       _UpdateWindow@4            004a3d64 f   user32:USER32.dll
 0001:000a2d6a       _InvalidateRect@12         004a3d6a f   user32:USER32.dll
 0001:000a2d70       _IsDialogMessageA@8        004a3d70 f   user32:USER32.dll
 0001:000a2d76       _GetDlgItem@8              004a3d76 f   user32:USER32.dll
 0001:000a2d7c       _LoadBitmapA@8             004a3d7c f   user32:USER32.dll
 0001:000a2d82       _LoadIconA@8               004a3d82 f   user32:USER32.dll
 0001:000a2d88       _EndDialog@8               004a3d88 f   user32:USER32.dll
 0001:000a2d8e       _CreateDialogParamA@20     004a3d8e f   user32:USER32.dll
 0001:000a2d94       _timeSetEvent@20           004a3d94 f   winmm:WINMM.dll
 0001:000a2d9a       _timeBeginPeriod@4         004a3d9a f   winmm:WINMM.dll
 0001:000a2da0       _timeKillEvent@4           004a3da0 f   winmm:WINMM.dll
 0001:000a2da6       _timeEndPeriod@4           004a3da6 f   winmm:WINMM.dll
 0001:000a2dac       _FSOUND_Stream_Play@8      004a3dac f   fmodvc:fmod.dll
 0001:000a2db2       _FSOUND_Stream_Create@20   004a3db2 f   fmodvc:fmod.dll
 0001:000a2db8       _FSOUND_Stream_Close@4     004a3db8 f   fmodvc:fmod.dll
 0001:000a2dbe       _FSOUND_Init@12            004a3dbe f   fmodvc:fmod.dll
 0001:000a2dc4       _FSOUND_SetDriver@4        004a3dc4 f   fmodvc:fmod.dll
 0001:000a2dca       _FSOUND_Close@0            004a3dca f   fmodvc:fmod.dll
 0001:000a2dd0       _FSOUND_Stream_Stop@4      004a3dd0 f   fmodvc:fmod.dll
 0001:000a2dd6       _FSOUND_SetMute@8          004a3dd6 f   fmodvc:fmod.dll
 0001:000a2ddc       _FSOUND_SetFrequency@8     004a3ddc f   fmodvc:fmod.dll
 0001:000a2de2       _FSOUND_IsPlaying@4        004a3de2 f   fmodvc:fmod.dll
 0001:000a2de8       _FSOUND_SetVolume@8        004a3de8 f   fmodvc:fmod.dll
 0001:000a2dee       _wglDeleteContext@4        004a3dee f   opengl32:OPENGL32.dll
 0001:000a2df4       _wglMakeCurrent@8          004a3df4 f   opengl32:OPENGL32.dll
 0001:000a2dfa       _wglCreateContext@4        004a3dfa f   opengl32:OPENGL32.dll
 0001:000a2e00       _glClear@4                 004a3e00 f   opengl32:OPENGL32.dll
 0001:000a2e06       _glDisable@4               004a3e06 f   opengl32:OPENGL32.dll
 0001:000a2e0c       _glOrtho@48                004a3e0c f   opengl32:OPENGL32.dll
 0001:000a2e12       _glLoadIdentity@0          004a3e12 f   opengl32:OPENGL32.dll
 0001:000a2e18       _glMatrixMode@4            004a3e18 f   opengl32:OPENGL32.dll
 0001:000a2e1e       _glViewport@16             004a3e1e f   opengl32:OPENGL32.dll
 0001:000a2e24       _glPixelTransferf@8        004a3e24 f   opengl32:OPENGL32.dll
 0001:000a2e2a       _glLoadMatrixf@4           004a3e2a f   opengl32:OPENGL32.dll
 0001:000a2e30       _glTexEnvi@12              004a3e30 f   opengl32:OPENGL32.dll
 0001:000a2e36       _glTexParameteri@12        004a3e36 f   opengl32:OPENGL32.dll
 0001:000a2e3c       _glTexParameterfv@12       004a3e3c f   opengl32:OPENGL32.dll
 0001:000a2e42       _glTexImage2D@36           004a3e42 f   opengl32:OPENGL32.dll
 0001:000a2e48       _glBindTexture@8           004a3e48 f   opengl32:OPENGL32.dll
 0001:000a2e4e       _glEnable@4                004a3e4e f   opengl32:OPENGL32.dll
 0001:000a2e54       _glEndList@0               004a3e54 f   opengl32:OPENGL32.dll
 0001:000a2e5a       _glEnd@0                   004a3e5a f   opengl32:OPENGL32.dll
 0001:000a2e60       _glVertex2f@8              004a3e60 f   opengl32:OPENGL32.dll
 0001:000a2e66       _glBegin@4                 004a3e66 f   opengl32:OPENGL32.dll
 0001:000a2e6c       _glNewList@8               004a3e6c f   opengl32:OPENGL32.dll
 0001:000a2e72       _glGenLists@4              004a3e72 f   opengl32:OPENGL32.dll
 0001:000a2e78       _glIsList@4                004a3e78 f   opengl32:OPENGL32.dll
 0001:000a2e7e       _glGenTextures@8           004a3e7e f   opengl32:OPENGL32.dll
 0001:000a2e84       _glFlush@0                 004a3e84 f   opengl32:OPENGL32.dll
 0001:000a2e8a       _glCallList@4              004a3e8a f   opengl32:OPENGL32.dll
 0001:000a2e90       _glTexSubImage2D@36        004a3e90 f   opengl32:OPENGL32.dll
 0001:000a2e96       _glDeleteLists@8           004a3e96 f   opengl32:OPENGL32.dll
 0001:000a2e9c       _LocalFree@4               004a3e9c f   kernel32:KERNEL32.dll
 0001:000a2ea2       _FormatMessageA@28         004a3ea2 f   kernel32:KERNEL32.dll
 0001:000a2ea8       _GetLastError@0            004a3ea8 f   kernel32:KERNEL32.dll
 0001:000a2eae       _CreateThread@24           004a3eae f   kernel32:KERNEL32.dll
 0001:000a2eb4       _VirtualAlloc@16           004a3eb4 f   kernel32:KERNEL32.dll
 0001:000a2eba       _VirtualFree@12            004a3eba f   kernel32:KERNEL32.dll
 0001:000a2ec0       _LoadLibraryA@4            004a3ec0 f   kernel32:KERNEL32.dll
 0001:000a2ec6       _Sleep@4                   004a3ec6 f   kernel32:KERNEL32.dll
 0001:000a2ecc       _QueryPerformanceFrequency@4 004a3ecc f   kernel32:KERNEL32.dll
 0001:000a2ed2       _QueryPerformanceCounter@4 004a3ed2 f   kernel32:KERNEL32.dll
 0001:000a2ed8       _DescribePixelFormat@16    004a3ed8 f   gdi32:GDI32.dll
 0001:000a2ede       _GetPixelFormat@4          004a3ede f   gdi32:GDI32.dll
 0001:000a2ee4       _SetPixelFormat@12         004a3ee4 f   gdi32:GDI32.dll
 0001:000a2eea       _ChoosePixelFormat@8       004a3eea f   gdi32:GDI32.dll
 0001:000a2ef0       _GetStockObject@4          004a3ef0 f   gdi32:GDI32.dll
 0001:000a2ef6       _GetOpenFileNameA@4        004a3ef6 f   comdlg32:comdlg32.dll
 0001:000a2f00       ??_U@YAPAXI@Z              004a3f00 f   libcpmtd:newaop.obj
 0001:000a2f20       ??0_Init_locks@std@@QAE@XZ 004a3f20 f   libcpmtd:xlock.obj
 0001:000a2f70       ??1_Init_locks@std@@QAE@XZ 004a3f70 f   libcpmtd:xlock.obj
 0001:000a2fc0       ?_Init_locks_ctor@_Init_locks@std@@CAXPAV12@@Z 004a3fc0 f   libcpmtd:xlock.obj
 0001:000a3010       ?_Init_locks_dtor@_Init_locks@std@@CAXPAV12@@Z 004a4010 f   libcpmtd:xlock.obj
 0001:000a3060       ??0_Lockit@std@@QAE@XZ     004a4060 f   libcpmtd:xlock.obj
 0001:000a3090       ??0_Lockit@std@@QAE@H@Z    004a4090 f   libcpmtd:xlock.obj
 0001:000a30d0       ??1_Lockit@std@@QAE@XZ     004a40d0 f   libcpmtd:xlock.obj
 0001:000a3100       ?_Lockit_ctor@_Lockit@std@@CAXPAV12@@Z 004a4100 f   libcpmtd:xlock.obj
 0001:000a3120       ?_Lockit_ctor@_Lockit@std@@CAXPAV12@H@Z 004a4120 f   libcpmtd:xlock.obj
 0001:000a3150       ?_Lockit_dtor@_Lockit@std@@CAXPAV12@@Z 004a4150 f   libcpmtd:xlock.obj
 0001:000a3170       ?_Lockit_ctor@_Lockit@std@@SAXH@Z 004a4170 f   libcpmtd:xlock.obj
 0001:000a3190       ?_Lockit_dtor@_Lockit@std@@SAXH@Z 004a4190 f   libcpmtd:xlock.obj
 0001:000a31b0       ?_Debug_message@std@@YAXPBD0@Z 004a41b0 f   libcpmtd:stdthrow.obj
 0001:000a3220       ?_Debug_message@std@@YAXPB_W0I@Z 004a4220 f   libcpmtd:stdthrow.obj
 0001:000a3250       ?_Debug_message@std@@YAXPBG0I@Z 004a4250 f   libcpmtd:stdthrow.obj
 0001:000a3270       ?_Throw@std@@YAXABVexception@stdext@@@Z 004a4270 f   libcpmtd:stdthrow.obj
 0001:000a3290       ?_Xlen@_String_base@std@@SAXXZ 004a4290 f   libcpmtd:string.obj
 0001:000a3310       ?_Xran@_String_base@std@@SAXXZ 004a4310 f   libcpmtd:string.obj
 0001:000a3390       ??0out_of_range@std@@QAE@ABV?$basic_string@DU?$char_traits@D@std@@V?$allocator@D@2@@1@@Z 004a4390 f i libcpmtd:string.obj
 0001:000a33c0       ??1out_of_range@std@@UAE@XZ 004a43c0 f i libcpmtd:string.obj
 0001:000a33e0       ??_Gout_of_range@std@@UAEPAXI@Z 004a43e0 f i libcpmtd:string.obj
 0001:000a33e0       ??_Eout_of_range@std@@UAEPAXI@Z 004a43e0 f i libcpmtd:string.obj
 0001:000a3410       ??0out_of_range@std@@QAE@ABV01@@Z 004a4410 f i libcpmtd:string.obj
 0001:000a3440       ?_Xinvarg@_String_base@std@@SAXXZ 004a4440 f   libcpmtd:string.obj
 0001:000a34c0       ??0invalid_argument@std@@QAE@ABV?$basic_string@DU?$char_traits@D@std@@V?$allocator@D@2@@1@@Z 004a44c0 f i libcpmtd:string.obj
 0001:000a34f0       ??1invalid_argument@std@@UAE@XZ 004a44f0 f i libcpmtd:string.obj
 0001:000a3510       ??_Einvalid_argument@std@@UAEPAXI@Z 004a4510 f i libcpmtd:string.obj
 0001:000a3510       ??_Ginvalid_argument@std@@UAEPAXI@Z 004a4510 f i libcpmtd:string.obj
 0001:000a3540       ??0invalid_argument@std@@QAE@ABV01@@Z 004a4540 f i libcpmtd:string.obj
 0001:000a3570       ?allocate@?$_DebugHeapAllocator@D@std@@QAAPADIPBX@Z 004a4570 f i libcpmtd:string.obj
 0001:000a35d0       ?allocate@?$_DebugHeapAllocator@D@std@@QAEPADI@Z 004a45d0 f i libcpmtd:string.obj
 0001:000a3640       ?deallocate@?$_DebugHeapAllocator@D@std@@QAEXPADI@Z 004a4640 f i libcpmtd:string.obj
 0001:000a3660       ??0?$_DebugHeapAllocator@D@std@@QAE@XZ 004a4660 f i libcpmtd:string.obj
 0001:000a3680       ??0?$_DebugHeapAllocator@D@std@@QAE@ABV01@@Z 004a4680 f i libcpmtd:string.obj
 0001:000a36a0       ??$_DebugHeapDelete@X@std@@YAXPAX@Z 004a46a0 f i libcpmtd:string.obj
 0001:000a36c0       __Once                     004a46c0 f   libcpmtd:xmtx.obj
 0001:000a3720       __Mtxinit                  004a4720 f   libcpmtd:xmtx.obj
 0001:000a3730       __Mtxdst                   004a4730 f   libcpmtd:xmtx.obj
 0001:000a3740       __Mtxlock                  004a4740 f   libcpmtd:xmtx.obj
 0001:000a3750       __Mtxunlock                004a4750 f   libcpmtd:xmtx.obj
 0001:000a3760       ??2@YAPAXIABU_DebugHeapTag_t@std@@PADH@Z 004a4760 f   libcpmtd:xdebug.obj
 0001:000a37e0       ??0bad_alloc@std@@QAE@XZ   004a47e0 f i libcpmtd:xdebug.obj
 0001:000a3810       ??_U@YAPAXIABU_DebugHeapTag_t@std@@PADH@Z 004a4810 f   libcpmtd:xdebug.obj
 0001:000a3830       ??3@YAXPAXABU_DebugHeapTag_t@std@@PADH@Z 004a4830 f   libcpmtd:xdebug.obj
 0001:000a3850       ??_V@YAXPAXABU_DebugHeapTag_t@std@@PADH@Z 004a4850 f   libcpmtd:xdebug.obj
 0001:000a3870       ?_DebugHeapTag_func@std@@YAABU_DebugHeapTag_t@1@XZ 004a4870 f   libcpmtd:xdebug.obj
 0001:000a3880       __RTC_CheckEsp             004a4880 f   LIBCMTD:stack.obj
 0001:000a38b0       @_RTC_CheckStackVars@8     004a48b0 f   LIBCMTD:stack.obj
 0001:000a3910       @_RTC_AllocaHelper@12      004a4910 f   LIBCMTD:stack.obj
 0001:000a3940       @_RTC_CheckStackVars2@12   004a4940 f   LIBCMTD:stack.obj
 0001:000a3a20       __RTC_InitBase             004a4a20 f   LIBCMTD:init.obj
 0001:000a3a50       __RTC_Shutdown             004a4a50 f   LIBCMTD:init.obj
 0001:000a3a70       _DebuggerKnownHandle       004a4a70 f   LIBCMTD:error.obj
 0001:000a3b10       ?_RTC_Failure@@YAXPAXH@Z   004a4b10 f   LIBCMTD:error.obj
 0001:000a3e40       ?_RTC_StackFailure@@YAXPAXPBD@Z 004a4e40 f   LIBCMTD:error.obj
 0001:000a3f60       ?_RTC_AllocaFailure@@YAXPAXPAU_RTC_ALLOCA_NODE@@H@Z 004a4f60 f   LIBCMTD:error.obj
 0001:000a4120       __RTC_UninitUse            004a5120 f   LIBCMTD:error.obj
 0001:000a4230       _strcmp                    004a5230 f   LIBCMTD:strcmp.obj
 0001:000a42c0       __lrotl                    004a52c0 f   LIBCMTD:rotl.obj
 0001:000a42f0       __rotl                     004a52f0 f   LIBCMTD:rotl.obj
 0001:000a4320       __rotl64                   004a5320 f   LIBCMTD:rotl.obj
 0001:000a4370       __lrotr                    004a5370 f   LIBCMTD:rotr.obj
 0001:000a43a0       __rotr                     004a53a0 f   LIBCMTD:rotr.obj
 0001:000a43d0       __rotr64                   004a53d0 f   LIBCMTD:rotr.obj
 0001:000a4420       _sprintf                   004a5420 f   LIBCMTD:sprintf.obj
 0001:000a45a0       __sprintf_l                004a55a0 f   LIBCMTD:sprintf.obj
 0001:000a45d0       _sprintf_s                 004a55d0 f   LIBCMTD:sprintf.obj
 0001:000a4600       __sprintf_s_l              004a5600 f   LIBCMTD:sprintf.obj
 0001:000a4630       __snprintf_s               004a5630 f   LIBCMTD:sprintf.obj
 0001:000a4660       __snprintf_s_l             004a5660 f   LIBCMTD:sprintf.obj
 0001:000a4690       __sprintf_p                004a5690 f   LIBCMTD:sprintf.obj
 0001:000a46c0       __sprintf_p_l              004a56c0 f   LIBCMTD:sprintf.obj
 0001:000a46f0       __scprintf                 004a56f0 f   LIBCMTD:sprintf.obj
 0001:000a4710       __scprintf_p               004a5710 f   LIBCMTD:sprintf.obj
 0001:000a4730       __scprintf_l               004a5730 f   LIBCMTD:sprintf.obj
 0001:000a4760       __scprintf_p_l             004a5760 f   LIBCMTD:sprintf.obj
 0001:000a4790       __allmul                   004a5790 f   LIBCMTD:llmul.obj
 0001:000a47d0       __allshr                   004a57d0 f   LIBCMTD:llshr.obj
 0001:000a4800       __allshl                   004a5800 f   LIBCMTD:llshl.obj
 0001:000a4820       __dosmaperr                004a5820 f   LIBCMTD:dosmap.obj
 0001:000a4850       __get_errno_from_oserr     004a5850 f   LIBCMTD:dosmap.obj
 0001:000a48d0       __set_errno                004a58d0 f   LIBCMTD:dosmap.obj
 0001:000a4900       __get_errno                004a5900 f   LIBCMTD:dosmap.obj
 0001:000a4980       __set_doserrno             004a5980 f   LIBCMTD:dosmap.obj
 0001:000a49b0       __get_doserrno             004a59b0 f   LIBCMTD:dosmap.obj
 0001:000a4a30       __errno                    004a5a30 f   LIBCMTD:dosmap.obj
 0001:000a4a60       ___doserrno                004a5a60 f   LIBCMTD:dosmap.obj
 0001:000a4a90       _strcpy                    004a5a90 f   LIBCMTD:strcat.obj
 0001:000a4aa0       _strcat                    004a5aa0 f   LIBCMTD:strcat.obj
 0001:000a4b90       _strncmp                   004a5b90 f   LIBCMTD:strncmp.obj
 0001:000a4d00       __fstat32                  004a5d00 f   LIBCMTD:fstat.obj
 0001:000a5310       _fclose                    004a6310 f   LIBCMTD:fclose.obj
 0001:000a5420       __fclose_nolock            004a6420 f   LIBCMTD:fclose.obj
 0001:000a5520       _fgetc                     004a6520 f   LIBCMTD:fgetc.obj
 0001:000a57b0       _getc                      004a67b0 f   LIBCMTD:fgetc.obj
 0001:000a5a40       __getc_nolock              004a6a40 f   LIBCMTD:fgetc.obj
 0001:000a5aa0       _ftell                     004a6aa0 f   LIBCMTD:ftell.obj
 0001:000a5b90       __ftell_nolock             004a6b90 f   LIBCMTD:ftell.obj
 0001:000a5e60       _fseek                     004a6e60 f   LIBCMTD:fseek.obj
 0001:000a5fd0       __fseek_nolock             004a6fd0 f   LIBCMTD:fseek.obj
 0001:000a60b0       __fsopen                   004a70b0 f   LIBCMTD:fopen.obj
 0001:000a62c0       _fopen                     004a72c0 f   LIBCMTD:fopen.obj
 0001:000a62e0       _fopen_s                   004a72e0 f   LIBCMTD:fopen.obj
 0001:000a6380       _fputc                     004a7380 f   LIBCMTD:fputc.obj
 0001:000a6620       _putc                      004a7620 f   LIBCMTD:fputc.obj
 0001:000a68c0       _memset                    004a78c0 f   LIBCMTD:memset.obj
 0001:000a6940       ??2@YAPAXI@Z               004a7940 f   LIBCMTD:new.obj
 0001:000a69c0       ??3@YAXPAX@Z               004a79c0 f   LIBCMTD:dbgdel.obj
 0001:000a6ab0       _strlen                    004a7ab0 f   LIBCMTD:strlen.obj
 0001:000a6b40       ??_V@YAXPAX@Z              004a7b40 f   LIBCMTD:delete2.obj
 0001:000a6b60       _fread_s                   004a7b60 f   LIBCMTD:fread.obj
 0001:000a6c90       __fread_nolock_s           004a7c90 f   LIBCMTD:fread.obj
 0001:000a7270       _fread                     004a8270 f   LIBCMTD:fread.obj
 0001:000a7290       __fread_nolock             004a8290 f   LIBCMTD:fread.obj
 0001:000a72b0       _fwrite                    004a82b0 f   LIBCMTD:fwrite.obj
 0001:000a73c0       __fwrite_nolock            004a83c0 f   LIBCMTD:fwrite.obj
 0001:000a7790       _printf                    004a8790 f   LIBCMTD:printf.obj
 0001:000a78d0       __printf_l                 004a88d0 f   LIBCMTD:printf.obj
 0001:000a7900       __printf_s_l               004a8900 f   LIBCMTD:printf.obj
 0001:000a7930       _printf_s                  004a8930 f   LIBCMTD:printf.obj
 0001:000a7950       __printf_p_l               004a8950 f   LIBCMTD:printf.obj
 0001:000a7980       __printf_p                 004a8980 f   LIBCMTD:printf.obj
 0001:000a79a0       __set_printf_count_output  004a89a0 f   LIBCMTD:printf.obj
 0001:000a79f0       __get_printf_count_output  004a89f0 f   LIBCMTD:printf.obj
 0001:000a7a10       ?_JumpToContinuation@@YGXPAXPAUEHRegistrationNode@@@Z 004a8a10 f   LIBCMTD:trnsctrl.obj
 0001:000a7a50       ?_CallMemberFunction0@@YGXPAX0@Z 004a8a50 f   LIBCMTD:trnsctrl.obj
 0001:000a7a60       ?_CallMemberFunction1@@YGXPAX00@Z 004a8a60 f   LIBCMTD:trnsctrl.obj
 0001:000a7a70       ?_CallMemberFunction2@@YGXPAX00H@Z 004a8a70 f   LIBCMTD:trnsctrl.obj
 0001:000a7a80       ?_UnwindNestedFrames@@YGXPAUEHRegistrationNode@@PAUEHExceptionRecord@@@Z 004a8a80 f   LIBCMTD:trnsctrl.obj
 0001:000a7ae0       ___CxxFrameHandler         004a8ae0 f   LIBCMTD:trnsctrl.obj
 0001:000a7b20       ___CxxFrameHandler3        004a8b20 f   LIBCMTD:trnsctrl.obj
 0001:000a7b60       ___CxxFrameHandler2        004a8b60 f   LIBCMTD:trnsctrl.obj
 0001:000a7ba0       ___CxxLongjmpUnwind@4      004a8ba0 f   LIBCMTD:trnsctrl.obj
 0001:000a7bd0       ?_CallCatchBlock2@@YAPAXPAUEHRegistrationNode@@PBU_s_FuncInfo@@PAXHK@Z 004a8bd0 f   LIBCMTD:trnsctrl.obj
 0001:000a7c90       ?_CallSETranslator@@YAHPAUEHExceptionRecord@@PAUEHRegistrationNode@@PAX2PBU_s_FuncInfo@@H1@Z 004a8c90 f   LIBCMTD:trnsctrl.obj
 0001:000a7e30       ?_GetRangeOfTrysToCheck@@YAPBU_s_TryBlockMapEntry@@PBU_s_FuncInfo@@HHPAI1@Z 004a8e30 f   LIBCMTD:trnsctrl.obj
 0001:000a7ec0       __CreateFrameInfo          004a8ec0 f   LIBCMTD:trnsctrl.obj
 0001:000a7ef0       __IsExceptionObjectToBeDestroyed 004a8ef0 f   LIBCMTD:trnsctrl.obj
 0001:000a7f20       __FindAndUnlinkFrame       004a8f20 f   LIBCMTD:trnsctrl.obj
 0001:000a7f80       __initp_misc_invarg        004a8f80 f   LIBCMTD:invarg.obj
 0001:000a7f90       __invalid_parameter        004a8f90 f   LIBCMTD:invarg.obj
 0001:000a8000       __invoke_watson            004a9000 f   LIBCMTD:invarg.obj
 0001:000a8140       __set_invalid_parameter_handler 004a9140 f   LIBCMTD:invarg.obj
 0001:000a8180       __get_invalid_parameter_handler 004a9180 f   LIBCMTD:invarg.obj
 0001:000a81b0       ?_invalid_parameter@@YAXPBG00II@Z 004a91b0 f   LIBCMTD:invarg.obj
 0001:000a81e0       ?_invoke_watson@@YAXPBG00II@Z 004a91e0 f   LIBCMTD:invarg.obj
 0001:000a8210       __CrtSetReportHookW2       004a9210 f   LIBCMTD:dbgrptw.obj
 0001:000a8530       __CrtDbgReportW            004a9530 f   LIBCMTD:dbgrptw.obj
 0001:000a8570       __CrtDbgReportWV           004a9570 f i LIBCMTD:dbgrptw.obj
 0001:000a88b0       __invoke_watson_if_error   004a98b0 f i LIBCMTD:dbgrptw.obj
 0001:000a88e0       __invoke_watson_if_oneof   004a98e0 f i LIBCMTD:dbgrptw.obj
 0001:000a8920       ___crtMessageWindowW       004a9920 f   LIBCMTD:dbgrptw.obj
 0001:000a8d20       ?_CrtDbgReportW@@YAHHPBGH00ZZ 004a9d20 f   LIBCMTD:dbgrptw.obj
 0001:000a8d60       __CxxThrowException@8      004a9d60 f   LIBCMTD:throw.obj
 0001:000a8dc0       ?name@type_info@@QBEPBDPAU__type_info_node@@@Z 004a9dc0 f   LIBCMTD:typinfo.obj
 0001:000a8de0       ??1type_info@@UAE@XZ       004a9de0 f   LIBCMTD:typinfo.obj
 0001:000a8e00       ??_Etype_info@@UAEPAXI@Z   004a9e00 f i LIBCMTD:typinfo.obj
 0001:000a8e00       ??_Gtype_info@@UAEPAXI@Z   004a9e00 f i LIBCMTD:typinfo.obj
 0001:000a8e30       ?_name_internal_method@type_info@@QBEPBDPAU__type_info_node@@@Z 004a9e30 f   LIBCMTD:typinfo.obj
 0001:000a8e50       ?_type_info_dtor_internal_method@type_info@@QAEXXZ 004a9e50 f   LIBCMTD:typinfo.obj
 0001:000a8e70       ??8type_info@@QBE_NABV0@@Z 004a9e70 f   LIBCMTD:typinfo.obj
 0001:000a8ea0       ??9type_info@@QBE_NABV0@@Z 004a9ea0 f   LIBCMTD:typinfo.obj
 0001:000a8ed0       ?before@type_info@@QBEHABV1@@Z 004a9ed0 f   LIBCMTD:typinfo.obj
 0001:000a8f00       ?raw_name@type_info@@QBEPBDXZ 004a9f00 f   LIBCMTD:typinfo.obj
 0001:000a8f20       ??0type_info@@AAE@ABV0@@Z  004a9f20 f   LIBCMTD:typinfo.obj
 0001:000a8f40       ??4type_info@@AAEAAV0@ABV0@@Z 004a9f40 f   LIBCMTD:typinfo.obj
 0001:000a8f50       ??0exception@std@@QAE@XZ   004a9f50 f   LIBCMTD:stdexcpt.obj
 0001:000a8f80       ??_Gexception@std@@UAEPAXI@Z 004a9f80 f i LIBCMTD:stdexcpt.obj
 0001:000a8f80       ??_Eexception@std@@UAEPAXI@Z 004a9f80 f i LIBCMTD:stdexcpt.obj
 0001:000a8fb0       ??0exception@std@@QAE@ABQBD@Z 004a9fb0 f   LIBCMTD:stdexcpt.obj
 0001:000a9040       ??0exception@std@@QAE@ABQBDH@Z 004aa040 f   LIBCMTD:stdexcpt.obj
 0001:000a9070       ??0exception@std@@QAE@ABV01@@Z 004aa070 f   LIBCMTD:stdexcpt.obj
 0001:000a9110       ??4exception@std@@QAEAAV01@ABV01@@Z 004aa110 f   LIBCMTD:stdexcpt.obj
 0001:000a91b0       ??1exception@std@@UAE@XZ   004aa1b0 f   LIBCMTD:stdexcpt.obj
 0001:000a91e0       ?what@exception@std@@UBEPBDXZ 004aa1e0 f   LIBCMTD:stdexcpt.obj
 0001:000a9210       ??0bad_cast@std@@QAE@PBD@Z 004aa210 f   LIBCMTD:stdexcpt.obj
 0001:000a9240       ??_Gbad_cast@std@@UAEPAXI@Z 004aa240 f i LIBCMTD:stdexcpt.obj
 0001:000a9240       ??_Ebad_cast@std@@UAEPAXI@Z 004aa240 f i LIBCMTD:stdexcpt.obj
 0001:000a9270       ??0bad_cast@std@@QAE@ABV01@@Z 004aa270 f   LIBCMTD:stdexcpt.obj
 0001:000a92a0       ??1bad_cast@std@@UAE@XZ    004aa2a0 f   LIBCMTD:stdexcpt.obj
 0001:000a92c0       ??0bad_typeid@std@@QAE@PBD@Z 004aa2c0 f   LIBCMTD:stdexcpt.obj
 0001:000a92f0       ??_Ebad_typeid@std@@UAEPAXI@Z 004aa2f0 f i LIBCMTD:stdexcpt.obj
 0001:000a92f0       ??_Gbad_typeid@std@@UAEPAXI@Z 004aa2f0 f i LIBCMTD:stdexcpt.obj
 0001:000a9320       ??0bad_typeid@std@@QAE@ABV01@@Z 004aa320 f   LIBCMTD:stdexcpt.obj
 0001:000a9350       ??1bad_typeid@std@@UAE@XZ  004aa350 f   LIBCMTD:stdexcpt.obj
 0001:000a9370       ??0__non_rtti_object@std@@QAE@PBD@Z 004aa370 f   LIBCMTD:stdexcpt.obj
 0001:000a93a0       ??_G__non_rtti_object@std@@UAEPAXI@Z 004aa3a0 f i LIBCMTD:stdexcpt.obj
 0001:000a93a0       ??_E__non_rtti_object@std@@UAEPAXI@Z 004aa3a0 f i LIBCMTD:stdexcpt.obj
 0001:000a93d0       ??0__non_rtti_object@std@@QAE@ABV01@@Z 004aa3d0 f   LIBCMTD:stdexcpt.obj
 0001:000a9400       ??1__non_rtti_object@std@@UAE@XZ 004aa400 f   LIBCMTD:stdexcpt.obj
 0001:000a9420       _memcpy_s                  004aa420 f   LIBCMTD:memcpy_s.obj
 0001:000a95b0       _memmove_s                 004aa5b0 f   LIBCMTD:memmove_s.obj
 0001:000a9710       _fprintf                   004aa710 f   LIBCMTD:fprintf.obj
 0001:000a9a00       __fprintf_l                004aaa00 f   LIBCMTD:fprintf.obj
 0001:000a9a30       __fprintf_s_l              004aaa30 f   LIBCMTD:fprintf.obj
 0001:000a9a60       _fprintf_s                 004aaa60 f   LIBCMTD:fprintf.obj
 0001:000a9a90       __fprintf_p_l              004aaa90 f   LIBCMTD:fprintf.obj
 0001:000a9ac0       __fprintf_p                004aaac0 f   LIBCMTD:fprintf.obj
 0001:000a9af0       _memcpy                    004aaaf0 f   LIBCMTD:memcpy.obj
 0001:000a9e60       __fpmath                   004aae60 f   LIBCMTD:fpinit.obj
 0001:000a9e90       __fpclear                  004aae90 f   LIBCMTD:fpinit.obj
 0001:000a9ea0       __cfltcvt_init             004aaea0 f   LIBCMTD:fpinit.obj
 0001:000a9f10       ___setfflag                004aaf10 f   LIBCMTD:fpinit.obj
 0001:000a9f30       _vfscanf                   004aaf30 f   LIBCMTD:fscanf.obj
 0001:000aa1f0       _fscanf                    004ab1f0 f   LIBCMTD:fscanf.obj
 0001:000aa220       __fscanf_l                 004ab220 f   LIBCMTD:fscanf.obj
 0001:000aa250       _fscanf_s                  004ab250 f   LIBCMTD:fscanf.obj
 0001:000aa280       __fscanf_s_l               004ab280 f   LIBCMTD:fscanf.obj
 0001:000aa2b0       _strncpy                   004ab2b0 f   LIBCMTD:strncpy.obj
 0001:000aa3e0       _feof                      004ab3e0 f   LIBCMTD:feoferr.obj
 0001:000aa460       _ferror                    004ab460 f   LIBCMTD:feoferr.obj
 0001:000aa4e0       _sscanf                    004ab4e0 f   LIBCMTD:sscanf.obj
 0001:000aa650       __sscanf_l                 004ab650 f   LIBCMTD:sscanf.obj
 0001:000aa680       _sscanf_s                  004ab680 f   LIBCMTD:sscanf.obj
 0001:000aa6b0       __sscanf_s_l               004ab6b0 f   LIBCMTD:sscanf.obj
 0001:000aa6e0       _fflush                    004ab6e0 f   LIBCMTD:fflush.obj
 0001:000aa780       __fflush_nolock            004ab780 f   LIBCMTD:fflush.obj
 0001:000aa7e0       __flush                    004ab7e0 f   LIBCMTD:fflush.obj
 0001:000aa8a0       __flushall                 004ab8a0 f   LIBCMTD:fflush.obj
 0001:000aaa50       __time64                   004aba50 f   LIBCMTD:time64.obj
 0001:000aaab0       __get_daylight             004abab0 f   LIBCMTD:timeset.obj
 0001:000aab30       __get_dstbias              004abb30 f   LIBCMTD:timeset.obj
 0001:000aabb0       __get_timezone             004abbb0 f   LIBCMTD:timeset.obj
 0001:000aac30       __get_tzname               004abc30 f   LIBCMTD:timeset.obj
 0001:000aae00       ___daylight                004abe00 f   LIBCMTD:timeset.obj
 0001:000aae10       ___dstbias                 004abe10 f   LIBCMTD:timeset.obj
 0001:000aae20       ___timezone                004abe20 f   LIBCMTD:timeset.obj
 0001:000aae30       ___tzname                  004abe30 f   LIBCMTD:timeset.obj
 0001:000aae40       __localtime64_s            004abe40 f   LIBCMTD:loctim64.obj
 0001:000ab3c0       __localtime64              004ac3c0 f   LIBCMTD:loctim64.obj
 0001:000ab400       __ftol2_sse                004ac400 f   LIBCMTD:ftol2.obj
 0001:000ab409       __ftol2_pentium4           004ac409 f   LIBCMTD:ftol2.obj
 0001:000ab41c       __ftol2_sse_excpt          004ac41c f   LIBCMTD:ftol2.obj
 0001:000ab436       __ftol2                    004ac436 f   LIBCMTD:ftol2.obj
 0001:000ab4b0       _WinMainCRTStartup         004ac4b0 f   LIBCMTD:wincrt0.obj
 0001:000ab800       __set_osplatform           004ac800 f i LIBCMTD:wincrt0.obj
 0001:000ab810       __set_osver                004ac810 f i LIBCMTD:wincrt0.obj
 0001:000ab820       __set_winver               004ac820 f i LIBCMTD:wincrt0.obj
 0001:000ab830       __set_winmajor             004ac830 f i LIBCMTD:wincrt0.obj
 0001:000ab840       __set_winminor             004ac840 f i LIBCMTD:wincrt0.obj
 0001:000ab900       __onexit                   004ac900 f   LIBCMTD:onexit.obj
 0001:000abad0       _atexit                    004acad0 f   LIBCMTD:onexit.obj
 0001:000abaf0       ___onexitinit              004acaf0 f   LIBCMTD:onexit.obj
 0001:000abb50       _abort                     004acb50 f   LIBCMTD:abort.obj
 0001:000abc90       __set_abort_behavior       004acc90 f   LIBCMTD:abort.obj
 0001:000abcc0       _fputs                     004accc0 f   LIBCMTD:fputs.obj
 0001:000abfa0       ___iob_func                004acfa0 f   LIBCMTD:_file.obj
 0001:000abfb0       ___initstdio               004acfb0 f   LIBCMTD:_file.obj
 0001:000ac100       ___endstdio                004ad100 f   LIBCMTD:_file.obj
 0001:000ac130       __lock_file                004ad130 f   LIBCMTD:_file.obj
 0001:000ac180       __lock_file2               004ad180 f   LIBCMTD:_file.obj
 0001:000ac1c0       __unlock_file              004ad1c0 f   LIBCMTD:_file.obj
 0001:000ac210       __unlock_file2             004ad210 f   LIBCMTD:_file.obj
 0001:000ac250       @__security_check_cookie@4 004ad250 f   LIBCMTD:secchk.obj
 0001:000ac260       _malloc                    004ad260 f   LIBCMTD:dbgheap.obj
 0001:000ac290       __malloc_dbg               004ad290 f   LIBCMTD:dbgheap.obj
 0001:000ac2c0       __nh_malloc                004ad2c0 f   LIBCMTD:dbgheap.obj
 0001:000ac2e0       __nh_malloc_dbg            004ad2e0 f   LIBCMTD:dbgheap.obj
 0001:000ac350       __heap_alloc               004ad350 f   LIBCMTD:dbgheap.obj
 0001:000ac370       __heap_alloc_dbg           004ad370 f   LIBCMTD:dbgheap.obj
 0001:000ac710       _calloc                    004ad710 f   LIBCMTD:dbgheap.obj
 0001:000ac740       __calloc_dbg               004ad740 f   LIBCMTD:dbgheap.obj
 0001:000ac800       _realloc                   004ad800 f   LIBCMTD:dbgheap.obj
 0001:000ac830       __recalloc                 004ad830 f   LIBCMTD:dbgheap.obj
 0001:000ac860       __realloc_dbg              004ad860 f   LIBCMTD:dbgheap.obj
 0001:000ace90       __recalloc_dbg             004ade90 f   LIBCMTD:dbgheap.obj
 0001:000acf90       __expand                   004adf90 f   LIBCMTD:dbgheap.obj
 0001:000acfc0       __expand_dbg               004adfc0 f   LIBCMTD:dbgheap.obj
 0001:000ad0d0       _free                      004ae0d0 f   LIBCMTD:dbgheap.obj
 0001:000ad0f0       __free_nolock              004ae0f0 f   LIBCMTD:dbgheap.obj
 0001:000ad110       __free_dbg                 004ae110 f   LIBCMTD:dbgheap.obj
 0001:000ad190       __free_dbg_nolock          004ae190 f   LIBCMTD:dbgheap.obj
 0001:000ad670       __msize                    004ae670 f   LIBCMTD:dbgheap.obj
 0001:000ad690       __msize_dbg                004ae690 f   LIBCMTD:dbgheap.obj
 0001:000ad880       __CrtSetBreakAlloc         004ae880 f   LIBCMTD:dbgheap.obj
 0001:000ad8a0       __CrtSetDbgBlockType       004ae8a0 f   LIBCMTD:dbgheap.obj
 0001:000ad990       __CrtSetAllocHook          004ae990 f   LIBCMTD:dbgheap.obj
 0001:000ad9b0       __CrtGetAllocHook          004ae9b0 f   LIBCMTD:dbgheap.obj
 0001:000ada10       __CrtCheckMemory           004aea10 f   LIBCMTD:dbgheap.obj
 0001:000ade60       __CrtSetDbgFlag            004aee60 f   LIBCMTD:dbgheap.obj
 0001:000adfb0       __CrtDoForAllClientObjects 004aefb0 f   LIBCMTD:dbgheap.obj
 0001:000ae0d0       __CrtIsValidPointer        004af0d0 f   LIBCMTD:dbgheap.obj
 0001:000ae0e0       __CrtIsValidHeapPointer    004af0e0 f   LIBCMTD:dbgheap.obj
 0001:000ae1d0       __CrtIsMemoryBlock         004af1d0 f   LIBCMTD:dbgheap.obj
 0001:000ae340       __CrtReportBlockType       004af340 f   LIBCMTD:dbgheap.obj
 0001:000ae370       __CrtSetDumpClient         004af370 f   LIBCMTD:dbgheap.obj
 0001:000ae390       __CrtGetDumpClient         004af390 f   LIBCMTD:dbgheap.obj
 0001:000ae3a0       __CrtMemCheckpoint         004af3a0 f   LIBCMTD:dbgheap.obj
 0001:000ae5c0       __CrtMemDifference         004af5c0 f   LIBCMTD:dbgheap.obj
 0001:000ae7e0       __CrtMemDumpAllObjectsSince 004af7e0 f   LIBCMTD:dbgheap.obj
 0001:000ae820       ??0_LocaleUpdate@@QAE@PAUlocaleinfo_struct@@@Z 004af820 f i LIBCMTD:dbgheap.obj
 0001:000ae900       ??1_LocaleUpdate@@QAE@XZ   004af900 f i LIBCMTD:dbgheap.obj
 0001:000ae930       ?GetLocaleT@_LocaleUpdate@@QAEPAUlocaleinfo_struct@@XZ 004af930 f i LIBCMTD:dbgheap.obj
 0001:000aedf0       __CrtDumpMemoryLeaks       004afdf0 f   LIBCMTD:dbgheap.obj
 0001:000aee60       __CrtMemDumpStatistics     004afe60 f   LIBCMTD:dbgheap.obj
 0001:000aef70       __aligned_malloc           004aff70 f   LIBCMTD:dbgheap.obj
 0001:000aef90       __aligned_malloc_dbg       004aff90 f   LIBCMTD:dbgheap.obj
 0001:000aefb0       __aligned_realloc          004affb0 f   LIBCMTD:dbgheap.obj
 0001:000aefd0       __aligned_recalloc         004affd0 f   LIBCMTD:dbgheap.obj
 0001:000af000       __aligned_realloc_dbg      004b0000 f   LIBCMTD:dbgheap.obj
 0001:000af030       __aligned_recalloc_dbg     004b0030 f   LIBCMTD:dbgheap.obj
 0001:000af060       __aligned_offset_malloc    004b0060 f   LIBCMTD:dbgheap.obj
 0001:000af080       __aligned_offset_malloc_dbg 004b0080 f   LIBCMTD:dbgheap.obj
 0001:000af220       __aligned_offset_realloc   004b0220 f   LIBCMTD:dbgheap.obj
 0001:000af250       __aligned_offset_recalloc  004b0250 f   LIBCMTD:dbgheap.obj
 0001:000af280       __aligned_offset_realloc_dbg 004b0280 f   LIBCMTD:dbgheap.obj
 0001:000af550       __aligned_offset_recalloc_dbg 004b0550 f   LIBCMTD:dbgheap.obj
 0001:000af660       __aligned_free             004b0660 f   LIBCMTD:dbgheap.obj
 0001:000af680       __aligned_free_dbg         004b0680 f   LIBCMTD:dbgheap.obj
 0001:000af730       __CrtSetDebugFillThreshold 004b0730 f   LIBCMTD:dbgheap.obj
 0001:000af750       __CrtSetCheckCount         004b0750 f   LIBCMTD:dbgheap.obj
 0001:000af770       __CrtGetCheckCount         004b0770 f   LIBCMTD:dbgheap.obj
 0001:000af780       __aligned_msize            004b0780 f   LIBCMTD:dbgheap.obj
 0001:000af7a0       __aligned_msize_dbg        004b07a0 f   LIBCMTD:dbgheap.obj
 0001:000af8b0       __RTC_NumErrors            004b08b0 f   LIBCMTD:userapi.obj
 0001:000af8c0       __RTC_GetErrDesc           004b08c0 f   LIBCMTD:userapi.obj
 0001:000af8e0       __RTC_SetErrorType         004b08e0 f   LIBCMTD:userapi.obj
 0001:000af910       __RTC_SetErrorFunc         004b0910 f   LIBCMTD:userapi.obj
 0001:000af930       __RTC_SetErrorFuncW        004b0930 f   LIBCMTD:userapi.obj
 0001:000af950       ?_RTC_GetErrorFunc@@YAP6AHHPBDH00ZZPBX@Z 004b0950 f   LIBCMTD:userapi.obj
 0001:000af960       ?_RTC_GetErrorFuncW@@YAP6AHHPB_WH00ZZPBX@Z 004b0960 f   LIBCMTD:userapi.obj
 0001:000af970       __chkesp                   004b0970 f   LIBCMTD:chkesp.obj
 0001:000af9b0       __CRT_RTC_INIT             004b09b0 f   LIBCMTD:chkesp.obj
 0001:000af9c0       __CRT_RTC_INITW            004b09c0 f   LIBCMTD:chkesp.obj
 0001:000af9d0       __except_handler4          004b09d0 f   LIBCMTD:chandler4.obj
 0001:000afbf0       ?_RTC_GetSrcLine@@YAHPAEPA_WKPAH1K@Z 004b0bf0 f   LIBCMTD:pdblkup.obj
 0001:000b0080       __aullshr                  004b1080 f   LIBCMTD:ullshr.obj
 0001:000b00a0       __flsbuf                   004b10a0 f   LIBCMTD:_flsbuf.obj
 0001:000b0360       __output_l                 004b1360 f   LIBCMTD:output.obj
 0001:000b17d0       _get_int_arg               004b27d0 f i LIBCMTD:output.obj
 0001:000b17f0       _get_int64_arg             004b27f0 f i LIBCMTD:output.obj
 0001:000b1810       _get_short_arg             004b2810 f i LIBCMTD:output.obj
 0001:000b1830       __vsprintf_l               004b2830 f   LIBCMTD:vsprintf.obj
 0001:000b19a0       _vsprintf                  004b29a0 f   LIBCMTD:vsprintf.obj
 0001:000b19c0       __vscprintf_helper         004b29c0 f   LIBCMTD:vsprintf.obj
 0001:000b1a80       __vscprintf                004b2a80 f   LIBCMTD:vsprintf.obj
 0001:000b1aa0       __vscprintf_l              004b2aa0 f   LIBCMTD:vsprintf.obj
 0001:000b1ac0       __vscprintf_p              004b2ac0 f   LIBCMTD:vsprintf.obj
 0001:000b1ae0       __vscprintf_p_l            004b2ae0 f   LIBCMTD:vsprintf.obj
 0001:000b1b00       __vsnprintf_helper         004b2b00 f   LIBCMTD:vsnprnc.obj
 0001:000b1cd0       __vsnprintf_c              004b2cd0 f   LIBCMTD:vsnprnc.obj
 0001:000b1d20       __vsnprintf_c_l            004b2d20 f   LIBCMTD:vsnprnc.obj
 0001:000b1d70       __vsprintf_s_l             004b2d70 f   LIBCMTD:vsnprnc.obj
 0001:000b1fd0       _vsprintf_s                004b2fd0 f   LIBCMTD:vsnprnc.obj
 0001:000b1ff0       __vsnprintf_s_l            004b2ff0 f   LIBCMTD:vsnprnc.obj
 0001:000b2390       __vsnprintf_s              004b3390 f   LIBCMTD:vsnprnc.obj
 0001:000b23c0       __vsprintf_p               004b33c0 f   LIBCMTD:vsnprnc.obj
 0001:000b2410       __vsprintf_p_l             004b3410 f   LIBCMTD:vsnprnc.obj
 0001:000b2460       __encode_pointer           004b3460 f   LIBCMTD:tidtable.obj
 0001:000b25b0       __encoded_null             004b35b0 f   LIBCMTD:tidtable.obj
 0001:000b25c0       __decode_pointer           004b35c0 f   LIBCMTD:tidtable.obj
 0001:000b2660       ___crtTlsAlloc@4           004b3660 f   LIBCMTD:tidtable.obj
 0001:000b2670       ___fls_getvalue@4          004b3670 f   LIBCMTD:tidtable.obj
 0001:000b2690       ___get_flsindex            004b3690 f   LIBCMTD:tidtable.obj
 0001:000b26a0       ___set_flsgetvalue         004b36a0 f   LIBCMTD:tidtable.obj
 0001:000b26f0       ___fls_setvalue@8          004b36f0 f   LIBCMTD:tidtable.obj
 0001:000b2710       __mtinit                   004b3710 f   LIBCMTD:tidtable.obj
 0001:000b2920       __mtterm                   004b3920 f   LIBCMTD:tidtable.obj
 0001:000b2980       __initptd                  004b3980 f   LIBCMTD:tidtable.obj
 0001:000b2ab0       __getptd_noexit            004b3ab0 f   LIBCMTD:tidtable.obj
 0001:000b2b70       __getptd                   004b3b70 f   LIBCMTD:tidtable.obj
 0001:000b2ba0       __freefls@4                004b3ba0 f   LIBCMTD:tidtable.obj
 0001:000b2d90       __freeptd                  004b3d90 f   LIBCMTD:tidtable.obj
 0001:000b2e10       ___threadid                004b3e10 f   LIBCMTD:tidtable.obj
 0001:000b2e20       ___threadhandle            004b3e20 f   LIBCMTD:tidtable.obj
 0001:000b2e30       __alloc_osfhnd             004b3e30 f   LIBCMTD:osfinfo.obj
 0001:000b30e0       __set_osfhnd               004b40e0 f   LIBCMTD:osfinfo.obj
 0001:000b31b0       __free_osfhnd              004b41b0 f   LIBCMTD:osfinfo.obj
 0001:000b32a0       __get_osfhandle            004b42a0 f   LIBCMTD:osfinfo.obj
 0001:000b3400       __open_osfhandle           004b4400 f   LIBCMTD:osfinfo.obj
 0001:000b3630       ___lock_fhandle            004b4630 f   LIBCMTD:osfinfo.obj
 0001:000b3730       __unlock_fhandle           004b4730 f   LIBCMTD:osfinfo.obj
 0001:000b3760       ___loctotime32_t           004b4760 f   LIBCMTD:dtoxtime.obj
 0001:000b3a50       __ioinit                   004b4a50 f   LIBCMTD:ioinit.obj
 0001:000b3ed0       __ioterm                   004b4ed0 f   LIBCMTD:ioinit.obj
 0001:000b3f70       _close                     004b4f70 f   LIBCMTD:close.obj
 0001:000b3f70       __close                    004b4f70 f   LIBCMTD:close.obj
 0001:000b4180       __close_nolock             004b5180 f   LIBCMTD:close.obj
 0001:000b4250       __fileno                   004b5250 f   LIBCMTD:fileno.obj
 0001:000b42c0       __freebuf                  004b52c0 f   LIBCMTD:_freebuf.obj
 0001:000b4350       __filbuf                   004b5350 f   LIBCMTD:_filbuf.obj
 0001:000b45a0       _lseek                     004b55a0 f   LIBCMTD:lseek.obj
 0001:000b45a0       __lseek                    004b55a0 f   LIBCMTD:lseek.obj
 0001:000b47c0       __lseek_nolock             004b57c0 f   LIBCMTD:lseek.obj
 0001:000b48a0       __openfile                 004b58a0 f   LIBCMTD:_open.obj
 0001:000b4fa0       __getstream                004b5fa0 f   LIBCMTD:stream.obj
 0001:000b51f4       __local_unwind4            004b61f4 f   LIBCMTD:exsup4.obj
 0001:000b52ca       __seh_longjmp_unwind4@4    004b62ca f   LIBCMTD:exsup4.obj
 0001:000b52e6       @_EH4_CallFilterFunc@8     004b62e6 f   LIBCMTD:exsup4.obj
 0001:000b52fd       @_EH4_TransferToHandler@8  004b62fd f   LIBCMTD:exsup4.obj
 0001:000b5316       @_EH4_GlobalUnwind@4       004b6316 f   LIBCMTD:exsup4.obj
 0001:000b5330       @_EH4_LocalUnwind@16       004b6330 f   LIBCMTD:exsup4.obj
 0001:000b5350       __VEC_memzero              004b6350 f   LIBCMTD:p4_memset.obj
 0001:000b5440       __sse2_mathfcns_init       004b6440 f   LIBCMTD:mathfcns.obj
 0001:000b5460       __set_SSE2_enable          004b6460 f   LIBCMTD:mathfcns.obj
 0001:000b5480       __initp_heap_handler       004b6480 f   LIBCMTD:handler.obj
 0001:000b5490       ?_set_new_handler@@YAP6AHI@ZP6AHI@Z@Z 004b6490 f   LIBCMTD:handler.obj
 0001:000b54e0       ?_set_new_handler@@YAP6AHI@ZH@Z 004b64e0 f   LIBCMTD:handler.obj
 0001:000b5520       ?_query_new_handler@@YAP6AHI@ZXZ 004b6520 f   LIBCMTD:handler.obj
 0001:000b5540       __callnewh                 004b6540 f   LIBCMTD:handler.obj
 0001:000b5580       __mtinitlocks              004b6580 f   LIBCMTD:mlock.obj
 0001:000b5610       __mtdeletelocks            004b6610 f   LIBCMTD:mlock.obj
 0001:000b56d0       __mtinitlocknum            004b66d0 f   LIBCMTD:mlock.obj
 0001:000b5820       __lock                     004b6820 f   LIBCMTD:mlock.obj
 0001:000b5860       __unlock                   004b6860 f   LIBCMTD:mlock.obj
 0001:000b5880       __lockerr_exit             004b6880 f   LIBCMTD:mlock.obj
 0001:000b58a0       _read                      004b68a0 f   LIBCMTD:read.obj
 0001:000b58a0       __read                     004b68a0 f   LIBCMTD:read.obj
 0001:000b5b30       __read_nolock              004b6b30 f   LIBCMTD:read.obj
 0001:000b6a70       __write                    004b7a70 f   LIBCMTD:write.obj
 0001:000b6a70       _write                     004b7a70 f   LIBCMTD:write.obj
 0001:000b6c90       __write_nolock             004b7c90 f   LIBCMTD:write.obj
 0001:000b76b0       __stbuf                    004b86b0 f   LIBCMTD:_sftbuf.obj
 0001:000b7810       __ftbuf                    004b8810 f   LIBCMTD:_sftbuf.obj
 0001:000b78a0       _vprintf_helper            004b88a0 f   LIBCMTD:vprintf.obj
 0001:000b79c0       __vprintf_l                004b89c0 f   LIBCMTD:vprintf.obj
 0001:000b79e0       __vprintf_s_l              004b89e0 f   LIBCMTD:vprintf.obj
 0001:000b7a00       __vprintf_p_l              004b8a00 f   LIBCMTD:vprintf.obj
 0001:000b7a20       _vprintf                   004b8a20 f   LIBCMTD:vprintf.obj
 0001:000b7a40       _vprintf_s                 004b8a40 f   LIBCMTD:vprintf.obj
 0001:000b7a60       __vprintf_p                004b8a60 f   LIBCMTD:vprintf.obj
 0001:000b7a80       ___InternalCxxFrameHandler 004b8a80 f   LIBCMTD:frame.obj
 0001:000b8070       ??0bad_exception@std@@QAE@PBD@Z 004b9070 f i LIBCMTD:frame.obj
 0001:000b80a0       ??1bad_exception@std@@UAE@XZ 004b90a0 f i LIBCMTD:frame.obj
 0001:000b80c0       ??_Gbad_exception@std@@UAEPAXI@Z 004b90c0 f i LIBCMTD:frame.obj
 0001:000b80c0       ??_Ebad_exception@std@@UAEPAXI@Z 004b90c0 f i LIBCMTD:frame.obj
 0001:000b80f0       ??0bad_exception@std@@QAE@ABV01@@Z 004b90f0 f i LIBCMTD:frame.obj
 0001:000b82a0       ___TypeMatch               004b92a0 f   LIBCMTD:frame.obj
 0001:000b8350       ___FrameUnwindFilter       004b9350 f   LIBCMTD:frame.obj
 0001:000b83c0       ___FrameUnwindToState      004b93c0 f   LIBCMTD:frame.obj
 0001:000b8900       ___BuildCatchObjectHelper  004b9900 f   LIBCMTD:frame.obj
 0001:000b8b70       ___BuildCatchObject        004b9b70 f   LIBCMTD:frame.obj
 0001:000b8c80       ___DestructExceptionObject 004b9c80 f   LIBCMTD:frame.obj
 0001:000b8d30       ___AdjustPointer           004b9d30 f   LIBCMTD:frame.obj
 0001:000b8d80       ?__uncaught_exception@@YA_NXZ 004b9d80 f   LIBCMTD:frame.obj
 0001:000b8da0       ___CxxExceptionFilter      004b9da0 f   LIBCMTD:frame.obj
 0001:000b8f90       ___CxxRegisterExceptionObject 004b9f90 f   LIBCMTD:frame.obj
 0001:000b90c0       ___CxxDetectRethrow        004ba0c0 f   LIBCMTD:frame.obj
 0001:000b9140       ___CxxUnregisterExceptionObject 004ba140 f   LIBCMTD:frame.obj
 0001:000b92c0       ___CxxQueryExceptionSize   004ba2c0 f   LIBCMTD:frame.obj
 0001:000b92d0       ___CxxCallUnwindDtor       004ba2d0 f   LIBCMTD:frame.obj
 0001:000b9350       ___CxxCallUnwindDelDtor    004ba350 f   LIBCMTD:frame.obj
 0001:000b93d0       ___CxxCallUnwindStdDelDtor 004ba3d0 f   LIBCMTD:frame.obj
 0001:000b9450       ___CxxCallUnwindVecDtor    004ba450 f   LIBCMTD:frame.obj
 0001:000b9670       ?_is_exception_typeof@@YAHABVtype_info@@PAU_EXCEPTION_POINTERS@@@Z 004ba670 f   LIBCMTD:frame.obj
 0001:000b9750       __CallSettingFrame@12      004ba750 f   LIBCMTD:lowhelpr.obj
 0001:000b9777       __NLG_Return               004ba777     LIBCMTD:lowhelpr.obj
 0001:000b97a0       __initp_eh_hooks           004ba7a0 f   LIBCMTD:hooks.obj
 0001:000b97c0       ?terminate@@YAXXZ          004ba7c0 f   LIBCMTD:hooks.obj
 0001:000b9840       ?unexpected@@YAXXZ         004ba840 f   LIBCMTD:hooks.obj
 0001:000b9870       ?_inconsistency@@YAXXZ     004ba870 f   LIBCMTD:hooks.obj
 0001:000b9900       __CrtDefaultAllocHook      004ba900 f   LIBCMTD:dbghook.obj
 0001:000b9910       __crt_debugger_hook        004ba910 f   LIBCMTD:dbghook.obj
 0001:000b9920       __CrtDbgBreak              004ba920 f   LIBCMTD:dbgrptt.obj
 0001:000b9930       __CrtSetReportMode         004ba930 f   LIBCMTD:dbgrptt.obj
 0001:000b9a70       __CrtSetReportFile         004baa70 f   LIBCMTD:dbgrptt.obj
 0001:000b9b60       __CrtSetReportHook         004bab60 f   LIBCMTD:dbgrptt.obj
 0001:000b9b80       __CrtGetReportHook         004bab80 f   LIBCMTD:dbgrptt.obj
 0001:000b9b90       __VCrtDbgReportA           004bab90 f   LIBCMTD:dbgrptt.obj
 0001:000ba3c0       __VCrtDbgReportW           004bb3c0 f   LIBCMTD:dbgrptt.obj
 0001:000bacf0       _strcpy_s                  004bbcf0 f   LIBCMTD:strcpy_s.obj
 0001:000bafd0       _strcat_s                  004bbfd0 f   LIBCMTD:strcat_s.obj
 0001:000bb3b0       __wcstombs_l_helper        004bc3b0 f   LIBCMTD:wcstombs.obj
 0001:000bb900       __wcstombs_l               004bc900 f   LIBCMTD:wcstombs.obj
 0001:000bb920       _wcstombs                  004bc920 f   LIBCMTD:wcstombs.obj
 0001:000bb940       __wcstombs_s_l             004bc940 f   LIBCMTD:wcstombs.obj
 0001:000bbc00       _wcstombs_s                004bcc00 f   LIBCMTD:wcstombs.obj
 0001:000bbc30       __cinit                    004bcc30 f   LIBCMTD:crt0dat.obj
 0001:000bbcd0       _exit                      004bccd0 f   LIBCMTD:crt0dat.obj
 0001:000bbcf0       __exit                     004bccf0 f   LIBCMTD:crt0dat.obj
 0001:000bbd10       __cexit                    004bcd10 f   LIBCMTD:crt0dat.obj
 0001:000bbd30       __c_exit                   004bcd30 f   LIBCMTD:crt0dat.obj
 0001:000bbd50       __amsg_exit                004bcd50 f   LIBCMTD:crt0dat.obj
 0001:000bbd90       ___freeCrtMemory           004bcd90 f   LIBCMTD:crt0dat.obj
 0001:000bc050       ___crtCorExitProcess       004bd050 f   LIBCMTD:crt0dat.obj
 0001:000bc090       ___crtExitProcess          004bd090 f   LIBCMTD:crt0dat.obj
 0001:000bc0b0       __lockexit                 004bd0b0 f   LIBCMTD:crt0dat.obj
 0001:000bc0c0       __unlockexit               004bd0c0 f   LIBCMTD:crt0dat.obj
 0001:000bc0d0       __init_pointers            004bd0d0 f   LIBCMTD:crt0dat.obj
 0001:000bc190       __initterm_e               004bd190 f   LIBCMTD:crt0dat.obj
 0001:000bc1d0       __get_osplatform           004bd1d0 f   LIBCMTD:crt0dat.obj
 0001:000bc2c0       __get_osver                004bd2c0 f   LIBCMTD:crt0dat.obj
 0001:000bc3b0       __get_winver               004bd3b0 f   LIBCMTD:crt0dat.obj
 0001:000bc4a0       __get_winmajor             004bd4a0 f   LIBCMTD:crt0dat.obj
 0001:000bc590       __get_winminor             004bd590 f   LIBCMTD:crt0dat.obj
 0001:000bc680       __get_wpgmptr              004bd680 f   LIBCMTD:crt0dat.obj
 0001:000bc770       __get_pgmptr               004bd770 f   LIBCMTD:crt0dat.obj
 0001:000bc860       __alloca_probe             004bd860     LIBCMTD:chkstk.obj
 0001:000bc860       __chkstk                   004bd860 f   LIBCMTD:chkstk.obj
 0001:000bc890       __initp_misc_winsig        004bd890 f   LIBCMTD:winsig.obj
 0001:000bc8c0       _signal                    004bd8c0 f   LIBCMTD:winsig.obj
 0001:000bcd60       _raise                     004bdd60 f   LIBCMTD:winsig.obj
 0001:000bd0d0       ___get_sigabrt             004be0d0 f   LIBCMTD:winsig.obj
 0001:000bd0f0       ___fpecode                 004be0f0 f   LIBCMTD:winsig.obj
 0001:000bd100       ___pxcptinfoptrs           004be100 f   LIBCMTD:winsig.obj
 0001:000bd110       ___crtMessageBoxW          004be110 f   LIBCMTD:crtmboxw.obj
 0001:000bd3b0       __swprintf                 004be3b0 f   LIBCMTD:swprintf.obj
 0001:000bd580       ___swprintf_l              004be580 f   LIBCMTD:swprintf.obj
 0001:000bd5b0       _swprintf_s                004be5b0 f   LIBCMTD:swprintf.obj
 0001:000bd5e0       __snwprintf_s              004be5e0 f   LIBCMTD:swprintf.obj
 0001:000bd610       __swprintf_p               004be610 f   LIBCMTD:swprintf.obj
 0001:000bd640       __swprintf_s_l             004be640 f   LIBCMTD:swprintf.obj
 0001:000bd670       __snwprintf_s_l            004be670 f   LIBCMTD:swprintf.obj
 0001:000bd6a0       __swprintf_p_l             004be6a0 f   LIBCMTD:swprintf.obj
 0001:000bd6d0       __scwprintf                004be6d0 f   LIBCMTD:swprintf.obj
 0001:000bd6f0       __scwprintf_p              004be6f0 f   LIBCMTD:swprintf.obj
 0001:000bd710       __scwprintf_l              004be710 f   LIBCMTD:swprintf.obj
 0001:000bd740       __scwprintf_p_l            004be740 f   LIBCMTD:swprintf.obj
 0001:000bd770       _wcsncpy_s                 004be770 f   LIBCMTD:wcsncpy_s.obj
 0001:000bdb70       _wcslen                    004beb70 f   LIBCMTD:wcslen.obj
 0001:000bdba0       _wcscpy_s                  004beba0 f   LIBCMTD:wcscpy_s.obj
 0001:000bde80       ?_Type_info_dtor@type_info@@CAXPAV1@@Z 004bee80 f   LIBCMTD:typname.obj
 0001:000bdf90       ?_Name_base@type_info@@CAPBDPBV1@PAU__type_info_node@@@Z 004bef90 f   LIBCMTD:typname.obj
 0001:000be130       ?_Type_info_dtor_internal@type_info@@CAXPAV1@@Z 004bf130 f   LIBCMTD:typname.obj
 0001:000be240       ___unDNameHelper           004bf240 f   LIBCMTD:typname.obj
 0001:000be280       ?_Name_base_internal@type_info@@CAPBDPBV1@PAU__type_info_node@@@Z 004bf280 f   LIBCMTD:typname.obj
 0001:000be420       ___clean_type_info_names_internal 004bf420 f   LIBCMTD:typname.obj
 0001:000be4d0       _memmove                   004bf4d0 f   LIBCMTD:memmove.obj
 0001:000be840       _vfprintf_helper           004bf840 f   LIBCMTD:vfprintf.obj
 0001:000beb20       __vfprintf_l               004bfb20 f   LIBCMTD:vfprintf.obj
 0001:000beb50       __vfprintf_s_l             004bfb50 f   LIBCMTD:vfprintf.obj
 0001:000beb80       __vfprintf_p_l             004bfb80 f   LIBCMTD:vfprintf.obj
 0001:000bebb0       _vfprintf                  004bfbb0 f   LIBCMTD:vfprintf.obj
 0001:000bebd0       _vfprintf_s                004bfbd0 f   LIBCMTD:vfprintf.obj
 0001:000bebf0       __vfprintf_p               004bfbf0 f   LIBCMTD:vfprintf.obj
 0001:000bec10       __VEC_memcpy               004bfc10 f   LIBCMTD:p4_memcpy.obj
 0001:000bed90       __setdefaultprecision      004bfd90 f   LIBCMTD:fp8.obj
 0001:000bedd0       __ms_p5_test_fdiv          004bfdd0 f   LIBCMTD:testfdiv.obj
 0001:000bee20       __ms_p5_mp_test_fdiv       004bfe20 f   LIBCMTD:testfdiv.obj
 0001:000bee70       __forcdecpt                004bfe70 f   LIBCMTD:cvt.obj
 0001:000bee90       __forcdecpt_l              004bfe90 f   LIBCMTD:cvt.obj
 0001:000bef50       __cropzeros                004bff50 f   LIBCMTD:cvt.obj
 0001:000bef70       __cropzeros_l              004bff70 f   LIBCMTD:cvt.obj
 0001:000bf080       __positive                 004c0080 f   LIBCMTD:cvt.obj
 0001:000bf0b0       __fassign_l                004c00b0 f   LIBCMTD:cvt.obj
 0001:000bf100       __fassign                  004c0100 f   LIBCMTD:cvt.obj
 0001:000bf120       __cftoe_l                  004c0120 f   LIBCMTD:cvt.obj
 0001:000bf670       __cftoe                    004c0670 f   LIBCMTD:cvt.obj
 0001:000bf6a0       __cftoa_l                  004c06a0 f   LIBCMTD:cvt.obj
 0001:000bfe70       ?strrchr@@YAPADPADH@Z      004c0e70 f i LIBCMTD:cvt.obj
 0001:000bfe90       __cftoa                    004c0e90 f   LIBCMTD:cvt.obj
 0001:000bfec0       __cftof_l                  004c0ec0 f   LIBCMTD:cvt.obj
 0001:000c02d0       __cftof                    004c12d0 f   LIBCMTD:cvt.obj
 0001:000c02f0       __cftog_l                  004c12f0 f   LIBCMTD:cvt.obj
 0001:000c0520       __cftog                    004c1520 f   LIBCMTD:cvt.obj
 0001:000c0550       __cfltcvt_l                004c1550 f   LIBCMTD:cvt.obj
 0001:000c0610       __cfltcvt                  004c1610 f   LIBCMTD:cvt.obj
 0001:000c0670       __initp_misc_cfltcvt_tab   004c1670 f   LIBCMTD:cmiscdat.obj
 0001:000c06b0       __input_l                  004c16b0 f   LIBCMTD:input.obj
 0001:000c1f00       __INTRN_LOCALE_CONV        004c2f00 f i LIBCMTD:input.obj
 0001:000c2020       __input_s_l                004c3020 f   LIBCMTD:inputs.obj
 0001:000c3d20       __commit                   004c4d20 f   LIBCMTD:commit.obj
 0001:000c3f40       __aulldiv                  004c4f40 f   LIBCMTD:ulldiv.obj
 0001:000c3fb0       ___tzset                   004c4fb0 f   LIBCMTD:tzset.obj
 0001:000c4040       __tzset                    004c5040 f   LIBCMTD:tzset.obj
 0001:000c45f0       __set_daylight             004c55f0 f i LIBCMTD:tzset.obj
 0001:000c4600       __set_dstbias              004c5600 f i LIBCMTD:tzset.obj
 0001:000c4610       __set_timezone             004c5610 f i LIBCMTD:tzset.obj
 0001:000c4620       __isindst                  004c5620 f   LIBCMTD:tzset.obj
 0001:000c4c80       __gmtime64_s               004c5c80 f   LIBCMTD:gmtime64.obj
 0001:000c50d0       __gmtime64                 004c60d0 f   LIBCMTD:gmtime64.obj
 0001:000c5110       __alldiv                   004c6110 f   LIBCMTD:lldiv.obj
 0001:000c51c0       __allrem                   004c61c0 f   LIBCMTD:llrem.obj
 0001:000c5280       __gmtime32_s               004c6280 f   LIBCMTD:gmtime.obj
 0001:000c5530       ___getgmtimebuf            004c6530 f   LIBCMTD:gmtime.obj
 0001:000c55a0       __gmtime32                 004c65a0 f   LIBCMTD:gmtime.obj
 0001:000c55e0       ?__CxxUnhandledExceptionFilter@@YGJPAU_EXCEPTION_POINTERS@@@Z 004c65e0 f   LIBCMTD:unhandld.obj
 0001:000c5650       ___CxxSetUnhandledExceptionFilter 004c6650 f   LIBCMTD:unhandld.obj
 0001:000c5670       ___security_init_cookie    004c6670 f   LIBCMTD:gs_support.obj
 0001:000c5750       __initp_misc_winxfltr      004c6750 f   LIBCMTD:winxfltr.obj
 0001:000c5760       ___CppXcptFilter           004c6760 f   LIBCMTD:winxfltr.obj
 0001:000c5790       __XcptFilter               004c6790 f   LIBCMTD:winxfltr.obj
 0001:000c59c0       __wincmdln                 004c69c0 f   LIBCMTD:wincmdln.obj
 0001:000c5a90       __setenvp                  004c6a90 f   LIBCMTD:stdenvp.obj
 0001:000c5c30       __setargv                  004c6c30 f   LIBCMTD:stdargv.obj
 0001:000c5d50       __set_pgmptr               004c6d50 f i LIBCMTD:stdargv.obj
 0001:000c60c0       ___crtGetEnvironmentStringsA 004c70c0 f   LIBCMTD:a_env.obj
 0001:000c62e0       __RTC_Initialize           004c72e0 f   LIBCMTD:initsect.obj
 0001:000c6310       __RTC_Terminate            004c7310 f   LIBCMTD:initsect.obj
 0001:000c6340       ___heap_select             004c7340 f   LIBCMTD:heapinit.obj
 0001:000c63d0       __heap_init                004c73d0 f   LIBCMTD:heapinit.obj
 0001:000c6450       __heap_term                004c7450 f   LIBCMTD:heapinit.obj
 0001:000c64f0       __get_heap_handle          004c74f0 f   LIBCMTD:heapinit.obj
 0001:000c6530       __FF_MSGBANNER             004c7530 f   LIBCMTD:crt0msg.obj
 0001:000c6580       __NMSG_WRITE               004c7580 f   LIBCMTD:crt0msg.obj
 0001:000c6810       __GET_RTERRMSG             004c7810 f   LIBCMTD:crt0msg.obj
 0001:000c6850       __fcloseall                004c7850 f   LIBCMTD:closeall.obj
 0001:000c6980       ___report_gsfailure        004c7980 f   LIBCMTD:gs_report.obj
 0001:000c6a90       _V6_HeapAlloc              004c7a90 f   LIBCMTD:malloc.obj
 0001:000c6b20       __malloc_base              004c7b20 f   LIBCMTD:malloc.obj
 0001:000c6bb0       __heap_alloc_base          004c7bb0 f i LIBCMTD:malloc.obj
 0001:000c6c70       __CrtSetReportHook2        004c7c70 f   LIBCMTD:dbgrpt.obj
 0001:000c6f90       __CrtDbgReport             004c7f90 f   LIBCMTD:dbgrpt.obj
 0001:000c6fd0       __CrtDbgReportV            004c7fd0 f i LIBCMTD:dbgrpt.obj
 0001:000c7000       ___crtMessageWindowA       004c8000 f   LIBCMTD:dbgrpt.obj
 0001:000c7400       __expand_base              004c8400 f   LIBCMTD:expand.obj
 0001:000c75d0       __realloc_base             004c85d0 f   LIBCMTD:realloc.obj
 0001:000c7970       __recalloc_base            004c8970 f   LIBCMTD:realloc.obj
 0001:000c7a60       __free_base                004c8a60 f   LIBCMTD:free.obj
 0001:000c7b80       __heapchk                  004c8b80 f   LIBCMTD:heapchk.obj
 0001:000c7c50       __heapset                  004c8c50 f   LIBCMTD:heapchk.obj
 0001:000c7c60       __get_sbh_threshold        004c8c60 f   LIBCMTD:sbheap.obj
 0001:000c7cb0       __set_sbh_threshold        004c8cb0 f   LIBCMTD:sbheap.obj
 0001:000c7e40       __set_amblksiz             004c8e40 f   LIBCMTD:sbheap.obj
 0001:000c7f40       __get_amblksiz             004c8f40 f   LIBCMTD:sbheap.obj
 0001:000c8030       ___sbh_heap_init           004c9030 f   LIBCMTD:sbheap.obj
 0001:000c80a0       ___sbh_find_block          004c90a0 f   LIBCMTD:sbheap.obj
 0001:000c8100       ___sbh_verify_block        004c9100 f   LIBCMTD:sbheap.obj
 0001:000c8160       ___sbh_free_block          004c9160 f   LIBCMTD:sbheap.obj
 0001:000c8720       ___sbh_alloc_block         004c9720 f   LIBCMTD:sbheap.obj
 0001:000c8c40       ___sbh_alloc_new_region    004c9c40 f   LIBCMTD:sbheap.obj
 0001:000c8d50       ___sbh_alloc_new_group     004c9d50 f   LIBCMTD:sbheap.obj
 0001:000c8f40       ___sbh_resize_block        004c9f40 f   LIBCMTD:sbheap.obj
 0001:000c9510       ___sbh_heapmin             004ca510 f   LIBCMTD:sbheap.obj
 0001:000c9640       ___sbh_heap_check          004ca640 f   LIBCMTD:sbheap.obj
 0001:000c9b30       ___updatetmbcinfo          004cab30 f   LIBCMTD:mbctype.obj
 0001:000c9c40       __setmbcp                  004cac40 f   LIBCMTD:mbctype.obj
 0001:000c9fe0       __setmbcp_nolock           004cafe0 f   LIBCMTD:mbctype.obj
 0001:000ca7d0       __getmbcp                  004cb7d0 f   LIBCMTD:mbctype.obj
 0001:000ca840       ___initmbctable            004cb840 f   LIBCMTD:mbctype.obj
 0001:000ca870       ____setlc_active_func      004cb870 f   LIBCMTD:setlocal.obj
 0001:000ca880       ____unguarded_readlc_active_add_func 004cb880 f   LIBCMTD:setlocal.obj
 0001:000ca890       ___freetlocinfo            004cb890 f   LIBCMTD:setlocal.obj
 0001:000cab70       ___addlocaleref            004cbb70 f   LIBCMTD:setlocal.obj
 0001:000cac90       ___removelocaleref         004cbc90 f   LIBCMTD:setlocal.obj
 0001:000cadc0       ___updatetlocinfo          004cbdc0 f   LIBCMTD:setlocal.obj
 0001:000caf10       __configthreadlocale       004cbf10 f   LIBCMTD:setlocal.obj
 0001:000cb020       __locterm                  004cc020 f   LIBCMTD:setlocal.obj
 0001:000cb0b0       __free_locale              004cc0b0 f   LIBCMTD:setlocal.obj
 0001:000cb1c0       ___free_locale             004cc1c0 f   LIBCMTD:setlocal.obj
 0001:000cb1e0       __create_locale            004cc1e0 f   LIBCMTD:setlocal.obj
 0001:000cb400       ___create_locale           004cc400 f   LIBCMTD:setlocal.obj
 0001:000cb420       __get_current_locale       004cc420 f   LIBCMTD:setlocal.obj
 0001:000cb510       ___get_current_locale      004cc510 f   LIBCMTD:setlocal.obj
 0001:000cb520       _setlocale                 004cc520 f   LIBCMTD:setlocal.obj
 0001:000cc430       __expandlocale             004cd430 f   LIBCMTD:setlocal.obj
 0001:000cc6e0       ___init_dummy              004cd6e0 f   LIBCMTD:setlocal.obj
 0001:000cc6f0       __strcats                  004cd6f0 f   LIBCMTD:setlocal.obj
 0001:000cc770       ___lc_strtolc              004cd770 f   LIBCMTD:setlocal.obj
 0001:000cc970       ___lc_lctostr              004cd970 f   LIBCMTD:setlocal.obj
 0001:000cca00       __chvalidator              004cda00 f   LIBCMTD:isctype.obj
 0001:000cca50       __chvalidator_l            004cda50 f   LIBCMTD:isctype.obj
 0001:000ccb00       __isctype_l                004cdb00 f   LIBCMTD:isctype.obj
 0001:000ccc10       __isctype                  004cdc10 f   LIBCMTD:isctype.obj
 0001:000ccc50       __ValidateImageBase        004cdc50 f   LIBCMTD:pesect.obj
 0001:000cccb0       __FindPESection            004cdcb0 f   LIBCMTD:pesect.obj
 0001:000ccd30       __IsNonwritableInCurrentImage 004cdd30 f   LIBCMTD:pesect.obj
 0001:000cce40       __lseeki64                 004cde40 f   LIBCMTD:lseeki64.obj
 0001:000cd090       __lseeki64_nolock          004ce090 f   LIBCMTD:lseeki64.obj
 0001:000cd180       __getbuf                   004ce180 f   LIBCMTD:_getbuf.obj
 0001:000cd240       __isatty                   004ce240 f   LIBCMTD:isatty.obj
 0001:000cd320       __wctomb_s_l               004ce320 f   LIBCMTD:wctomb.obj
 0001:000cd620       _wctomb_s                  004ce620 f   LIBCMTD:wctomb.obj
 0001:000cd640       __wctomb_l                 004ce640 f   LIBCMTD:wctomb.obj
 0001:000cd6c0       _wctomb                    004ce6c0 f   LIBCMTD:wctomb.obj
 0001:000cd710       __isleadbyte_l             004ce710 f i LIBCMTD:_wctype.obj
 0001:000cd760       _isleadbyte                004ce760 f i LIBCMTD:_wctype.obj
 0001:000cd780       __iswalpha_l               004ce780 f i LIBCMTD:_wctype.obj
 0001:000cd7a0       _iswalpha                  004ce7a0 f i LIBCMTD:_wctype.obj
 0001:000cd7c0       __iswupper_l               004ce7c0 f i LIBCMTD:_wctype.obj
 0001:000cd7e0       _iswupper                  004ce7e0 f i LIBCMTD:_wctype.obj
 0001:000cd800       __iswlower_l               004ce800 f i LIBCMTD:_wctype.obj
 0001:000cd820       _iswlower                  004ce820 f i LIBCMTD:_wctype.obj
 0001:000cd840       __iswdigit_l               004ce840 f i LIBCMTD:_wctype.obj
 0001:000cd860       _iswdigit                  004ce860 f i LIBCMTD:_wctype.obj
 0001:000cd880       __iswxdigit_l              004ce880 f i LIBCMTD:_wctype.obj
 0001:000cd8a0       _iswxdigit                 004ce8a0 f i LIBCMTD:_wctype.obj
 0001:000cd8c0       __iswspace_l               004ce8c0 f i LIBCMTD:_wctype.obj
 0001:000cd8e0       _iswspace                  004ce8e0 f i LIBCMTD:_wctype.obj
 0001:000cd900       __iswpunct_l               004ce900 f i LIBCMTD:_wctype.obj
 0001:000cd920       _iswpunct                  004ce920 f i LIBCMTD:_wctype.obj
 0001:000cd940       __iswalnum_l               004ce940 f i LIBCMTD:_wctype.obj
 0001:000cd960       _iswalnum                  004ce960 f i LIBCMTD:_wctype.obj
 0001:000cd980       __iswprint_l               004ce980 f i LIBCMTD:_wctype.obj
 0001:000cd9a0       _iswprint                  004ce9a0 f i LIBCMTD:_wctype.obj
 0001:000cd9c0       __iswgraph_l               004ce9c0 f i LIBCMTD:_wctype.obj
 0001:000cd9e0       _iswgraph                  004ce9e0 f i LIBCMTD:_wctype.obj
 0001:000cda00       __iswcntrl_l               004cea00 f i LIBCMTD:_wctype.obj
 0001:000cda20       _iswcntrl                  004cea20 f i LIBCMTD:_wctype.obj
 0001:000cda40       _iswascii                  004cea40 f i LIBCMTD:_wctype.obj
 0001:000cda60       __iswcsym_l                004cea60 f i LIBCMTD:_wctype.obj
 0001:000cdaa0       ___iswcsym                 004ceaa0 f i LIBCMTD:_wctype.obj
 0001:000cdae0       __iswcsymf_l               004ceae0 f i LIBCMTD:_wctype.obj
 0001:000cdb20       ___iswcsymf                004ceb20 f i LIBCMTD:_wctype.obj
 0001:000cdb60       __aullrem                  004ceb60 f   LIBCMTD:ullrem.obj
 0001:000cdbe0       __validate_param_reuseA    004cebe0 f   LIBCMTD:outputp.obj
 0001:000cde50       __output_p_l               004cee50 f   LIBCMTD:outputp.obj
 0001:000d1a50       _get_crtdouble_arg         004d2a50 f i LIBCMTD:outputp.obj
 0001:000d1a70       __output_s_l               004d2a70 f   LIBCMTD:outputs.obj
 0001:000d3040       __initp_misc_initcrit      004d4040 f   LIBCMTD:initcrit.obj
 0001:000d3050       ___crtInitCritSecAndSpinCount 004d4050 f   LIBCMTD:initcrit.obj
 0001:000d31c0       __open                     004d41c0 f   LIBCMTD:open.obj
 0001:000d31c0       _open                      004d41c0 f   LIBCMTD:open.obj
 0001:000d3340       __sopen_helper             004d4340 f   LIBCMTD:open.obj
 0001:000d45e0       __sopen                    004d55e0 f   LIBCMTD:open.obj
 0001:000d4650       __sopen_s                  004d5650 f   LIBCMTD:open.obj
 0001:000d4680       __mbsicmp_l                004d5680 f   LIBCMTD:mbsicmp.obj
 0001:000d4a70       __mbsicmp                  004d5a70 f   LIBCMTD:mbsicmp.obj
 0001:000d4a90       __mbsnbcmp_l               004d5a90 f   LIBCMTD:mbsnbcmp.obj
 0001:000d4d70       __mbsnbcmp                 004d5d70 f   LIBCMTD:mbsnbcmp.obj
 0001:000d4d8c       __global_unwind2           004d5d8c f   LIBCMTD:exsup.obj
 0001:000d4df1       __local_unwind2            004d5df1 f   LIBCMTD:exsup.obj
 0001:000d4e75       __abnormal_termination     004d5e75 f   LIBCMTD:exsup.obj
 0001:000d4e98       __NLG_Notify1              004d5e98 f   LIBCMTD:exsup.obj
 0001:000d4ea1       __NLG_Notify               004d5ea1 f   LIBCMTD:exsup.obj
 0001:000d4eb8       __NLG_Dispatch             004d5eb8     LIBCMTD:exsup.obj
 0001:000d4eb8       __NLG_Dispatch2            004d5eb8     LIBCMTD:exsup.obj
 0001:000d4ec0       __NLG_Call                 004d5ec0 f   LIBCMTD:exsup.obj
 0001:000d4ec2       __NLG_Return2              004d5ec2     LIBCMTD:exsup.obj
 0001:000d4ed0       __get_sse2_info            004d5ed0 f   LIBCMTD:cpu_disp.obj
 0001:000d4ff0       ___sse2_available_init     004d5ff0 f   LIBCMTD:cpu_disp.obj
 0001:000d5010       __putwch                   004d6010 f   LIBCMTD:putwch.obj
 0001:000d50a0       __putwch_nolock            004d60a0 f   LIBCMTD:putwch.obj
 0001:000d51a0       __cputws                   004d61a0 f   LIBCMTD:putwch.obj
 0001:000d52e0       __mbtowc_l                 004d62e0 f   LIBCMTD:mbtowc.obj
 0001:000d5500       _mbtowc                    004d6500 f   LIBCMTD:mbtowc.obj
 0001:000d5520       ?_ValidateRead@@YAHPBXI@Z  004d6520 f   LIBCMTD:validate.obj
 0001:000d5540       ?_ValidateWrite@@YAHPAXI@Z 004d6540 f   LIBCMTD:validate.obj
 0001:000d5560       ?_ValidateExecute@@YAHP6GHXZ@Z 004d6560 f   LIBCMTD:validate.obj
 0001:000d5580       __mbstowcs_l_helper        004d6580 f   LIBCMTD:mbstowcs.obj
 0001:000d5930       __mbstowcs_l               004d6930 f   LIBCMTD:mbstowcs.obj
 0001:000d5950       _mbstowcs                  004d6950 f   LIBCMTD:mbstowcs.obj
 0001:000d59a0       __mbstowcs_s_l             004d69a0 f   LIBCMTD:mbstowcs.obj
 0001:000d5ca0       _mbstowcs_s                004d6ca0 f   LIBCMTD:mbstowcs.obj
 0001:000d5cd0       __itoa_s                   004d6cd0 f   LIBCMTD:xtoas.obj
 0001:000d6090       __ltoa_s                   004d7090 f   LIBCMTD:xtoas.obj
 0001:000d60d0       __ultoa_s                  004d70d0 f   LIBCMTD:xtoas.obj
 0001:000d60f0       __i64toa_s                 004d70f0 f   LIBCMTD:xtoas.obj
 0001:000d64f0       __ui64toa_s                004d74f0 f   LIBCMTD:xtoas.obj
 0001:000d6510       _wcscat_s                  004d7510 f   LIBCMTD:wcscat_s.obj
 0001:000d6900       __vswprintf_helper         004d7900 f   LIBCMTD:vswprnc.obj
 0001:000d6b30       __vswprintf_c              004d7b30 f   LIBCMTD:vswprnc.obj
 0001:000d6b80       __vswprintf_c_l            004d7b80 f   LIBCMTD:vswprnc.obj
 0001:000d6bd0       __vswprintf_s_l            004d7bd0 f   LIBCMTD:vswprnc.obj
 0001:000d6e40       _vswprintf_s               004d7e40 f   LIBCMTD:vswprnc.obj
 0001:000d6e60       __vsnwprintf_s_l           004d7e60 f   LIBCMTD:vswprnc.obj
 0001:000d7210       __vsnwprintf_s             004d8210 f   LIBCMTD:vswprnc.obj
 0001:000d7240       __vswprintf_p              004d8240 f   LIBCMTD:vswprnc.obj
 0001:000d7290       __vswprintf_p_l            004d8290 f   LIBCMTD:vswprnc.obj
 0001:000d72e0       __itow_s                   004d82e0 f   LIBCMTD:xtows.obj
 0001:000d76c0       __ltow_s                   004d86c0 f   LIBCMTD:xtows.obj
 0001:000d7700       __ultow_s                  004d8700 f   LIBCMTD:xtows.obj
 0001:000d7720       __i64tow_s                 004d8720 f   LIBCMTD:xtows.obj
 0001:000d7b30       __ui64tow_s                004d8b30 f   LIBCMTD:xtows.obj
 0001:000d7b50       __initp_misc_rand_s        004d8b50 f   LIBCMTD:rand_s.obj
 0001:000d7b60       _rand_s                    004d8b60 f   LIBCMTD:rand_s.obj
 0001:000d7d80       ___getlocaleinfo           004d8d80 f   LIBCMTD:inithelp.obj
 0001:000d8020       __initp_misc_purevirt      004d9020 f   LIBCMTD:inithelp.obj
 0001:000d8030       __woutput_l                004d9030 f   LIBCMTD:woutput.obj
 0001:000d9200       __vswprintf_l              004da200 f   LIBCMTD:vswprint.obj
 0001:000d93d0       __vswprintf                004da3d0 f   LIBCMTD:vswprint.obj
 0001:000d93f0       ___vswprintf_l             004da3f0 f   LIBCMTD:vswprint.obj
 0001:000d9410       __vscwprintf_helper        004da410 f   LIBCMTD:vswprint.obj
 0001:000d94d0       __vscwprintf               004da4d0 f   LIBCMTD:vswprint.obj
 0001:000d94f0       __vscwprintf_l             004da4f0 f   LIBCMTD:vswprint.obj
 0001:000d9510       __vscwprintf_p             004da510 f   LIBCMTD:vswprint.obj
 0001:000d9530       __vscwprintf_p_l           004da530 f   LIBCMTD:vswprint.obj
 0001:000d9550       ___unDName                 004da550 f   LIBCMTD:undname.obj
 0001:000d9630       ?Constructor@HeapManager@@QAEXP6APAXI@ZP6AXPAX@Z@Z 004da630 f i LIBCMTD:undname.obj
 0001:000d9670       ?Destructor@HeapManager@@QAEXXZ 004da670 f i LIBCMTD:undname.obj
 0001:000d96c0       ___unDNameEx               004da6c0 f   LIBCMTD:undname.obj
 0001:000d97a0       ??0UnDecorator@@QAE@PADPBDHP6APADJ@ZK@Z 004da7a0 f i LIBCMTD:undname.obj
 0001:000d9840       ??BUnDecorator@@QAEPADXZ   004da840 f i LIBCMTD:undname.obj
 0001:000d9a70       ?dbGetString@DName@@QBEPADXZ 004daa70 f   LIBCMTD:undname.obj
 0001:000d9a90       ?getDecoratedName@UnDecorator@@CA?AVDName@@XZ 004daa90 f   LIBCMTD:undname.obj
 0001:000d9da0       ?getSymbolName@UnDecorator@@CA?AVDName@@XZ 004dada0 f i LIBCMTD:undname.obj
 0001:000d9e10       ?getZName@UnDecorator@@CA?AVDName@@_N@Z 004dae10 f   LIBCMTD:undname.obj
 0001:000da080       ?getOperatorName@UnDecorator@@CA?AVDName@@_NPA_N@Z 004db080 f i LIBCMTD:undname.obj
 0001:000da990       ?getStringEncoding@UnDecorator@@CA?AVDName@@PADH@Z 004db990 f   LIBCMTD:undname.obj
 0001:000daa90       ?getScope@UnDecorator@@CA?AVDName@@XZ 004dba90 f   LIBCMTD:undname.obj
 0001:000dae70       ?getSignedDimension@UnDecorator@@CA?AVDName@@XZ 004dbe70 f   LIBCMTD:undname.obj
 0001:000daef0       ?getDimension@UnDecorator@@CA?AVDName@@_N@Z 004dbef0 f   LIBCMTD:undname.obj
 0001:000db1a0       ?getNumberOfDimensions@UnDecorator@@CAHXZ 004dc1a0 f   LIBCMTD:undname.obj
 0001:000db2a0       ?getTemplateName@UnDecorator@@CA?AVDName@@_N@Z 004dc2a0 f   LIBCMTD:undname.obj
 0001:000db480       ?getTemplateArgumentList@UnDecorator@@CA?AVDName@@XZ 004dc480 f   LIBCMTD:undname.obj
 0001:000db700       ?getTemplateConstant@UnDecorator@@CA?AVDName@@XZ 004dc700 f   LIBCMTD:undname.obj
 0001:000dbb90       ?composeDeclaration@UnDecorator@@CA?AVDName@@ABV2@@Z 004dcb90 f i LIBCMTD:undname.obj
 0001:000dd190       ?getTypeEncoding@UnDecorator@@CAHXZ 004de190 f i LIBCMTD:undname.obj
 0001:000ddb20       ?getBasedType@UnDecorator@@CA?AVDName@@XZ 004deb20 f   LIBCMTD:undname.obj
 0001:000ddbe0       ?getScopedName@UnDecorator@@CA?AVDName@@XZ 004debe0 f   LIBCMTD:undname.obj
 0001:000ddd00       ?getCallingConvention@UnDecorator@@CA?AVDName@@XZ 004ded00 f   LIBCMTD:undname.obj
 0001:000dde60       ?getReturnType@UnDecorator@@CA?AVDName@@PAV2@@Z 004dee60 f   LIBCMTD:undname.obj
 0001:000ddeb0       ?getDataType@UnDecorator@@CA?AVDName@@PAV2@@Z 004deeb0 f   LIBCMTD:undname.obj
 0001:000ddfc0       ?getPrimaryDataType@UnDecorator@@CA?AVDName@@ABV2@@Z 004defc0 f   LIBCMTD:undname.obj
 0001:000de260       ?getArgumentTypes@UnDecorator@@CA?AVDName@@XZ 004df260 f   LIBCMTD:undname.obj
 0001:000de3c0       ?getArgumentList@UnDecorator@@CA?AVDName@@XZ 004df3c0 f   LIBCMTD:undname.obj
 0001:000de4f0       ?getThrowTypes@UnDecorator@@CA?AVDName@@XZ 004df4f0 f   LIBCMTD:undname.obj
 0001:000de5a0       ?getBasicDataType@UnDecorator@@CA?AVDName@@ABV2@@Z 004df5a0 f   LIBCMTD:undname.obj
 0001:000deb10       ?getECSUDataType@UnDecorator@@CA?AVDName@@XZ 004dfb10 f   LIBCMTD:undname.obj
 0001:000dece0       ?getECSUName@UnDecorator@@CA?AVDName@@XZ 004dfce0 f i LIBCMTD:undname.obj
 0001:000ded00       ?getEnumType@UnDecorator@@CA?AVDName@@XZ 004dfd00 f i LIBCMTD:undname.obj
 0001:000dee50       ?getFunctionIndirectType@UnDecorator@@CA?AVDName@@ABV2@@Z 004dfe50 f   LIBCMTD:undname.obj
 0001:000df290       ?getPtrRefType@UnDecorator@@CA?AVDName@@ABV2@0D@Z 004e0290 f   LIBCMTD:undname.obj
 0001:000df3f0       ?getExtendedDataIndirectType@UnDecorator@@CA?AVDName@@AADAA_NH@Z 004e03f0 f   LIBCMTD:undname.obj
 0001:000df580       ?getDataIndirectType@UnDecorator@@CA?AVDName@@ABV2@D0H@Z 004e0580 f   LIBCMTD:undname.obj
 0001:000dfc70       ?getPtrRefDataType@UnDecorator@@CA?AVDName@@ABV2@H@Z 004e0c70 f i LIBCMTD:undname.obj
 0001:000dfdb0       ?getArrayType@UnDecorator@@CA?AVDName@@ABV2@@Z 004e0db0 f i LIBCMTD:undname.obj
 0001:000dffd0       ?getLexicalFrame@UnDecorator@@CA?AVDName@@XZ 004e0fd0 f i LIBCMTD:undname.obj
 0001:000e0010       ?getThisType@UnDecorator@@CA?AVDName@@XZ 004e1010 f i LIBCMTD:undname.obj
 0001:000e0040       ?getPointerType@UnDecorator@@CA?AVDName@@ABV2@0@Z 004e1040 f i LIBCMTD:undname.obj
 0001:000e0060       ?getPointerTypeArray@UnDecorator@@CA?AVDName@@ABV2@0@Z 004e1060 f i LIBCMTD:undname.obj
 0001:000e0080       ?getReferenceType@UnDecorator@@CA?AVDName@@ABV2@0@Z 004e1080 f i LIBCMTD:undname.obj
 0001:000e00a0       ?getDisplacement@UnDecorator@@CA?AVDName@@XZ 004e10a0 f i LIBCMTD:undname.obj
 0001:000e00c0       ?getCallIndex@UnDecorator@@CA?AVDName@@XZ 004e10c0 f i LIBCMTD:undname.obj
 0001:000e00e0       ?getGuardNumber@UnDecorator@@CA?AVDName@@XZ 004e10e0 f i LIBCMTD:undname.obj
 0001:000e0100       ?getVbTableType@UnDecorator@@CA?AVDName@@ABV2@@Z 004e1100 f i LIBCMTD:undname.obj
 0001:000e0120       ?getVCallThunkType@UnDecorator@@CA?AVDName@@XZ 004e1120 f i LIBCMTD:undname.obj
 0001:000e0180       ?getVfTableType@UnDecorator@@CA?AVDName@@ABV2@@Z 004e1180 f i LIBCMTD:undname.obj
 0001:000e0340       ?getStorageConvention@UnDecorator@@CA?AVDName@@XZ 004e1340 f i LIBCMTD:undname.obj
 0001:000e0360       ?getDataIndirectType@UnDecorator@@CA?AVDName@@XZ 004e1360 f i LIBCMTD:undname.obj
 0001:000e0390       ?getVdispMapType@UnDecorator@@CA?AVDName@@ABV2@@Z 004e1390 f i LIBCMTD:undname.obj
 0001:000e0400       ?getExternalDataType@UnDecorator@@CA?AVDName@@ABV2@@Z 004e1400 f i LIBCMTD:undname.obj
 0001:000e0490       ?doMSKeywords@UnDecorator@@SAHXZ 004e1490 f i LIBCMTD:undname.obj
 0001:000e04b0       ?doPtr64@UnDecorator@@SAHXZ 004e14b0 f i LIBCMTD:undname.obj
 0001:000e04d0       ?doFunctionReturns@UnDecorator@@SAHXZ 004e14d0 f i LIBCMTD:undname.obj
 0001:000e04f0       ?doAllocationModel@UnDecorator@@SAHXZ 004e14f0 f i LIBCMTD:undname.obj
 0001:000e0510       ?doAllocationLanguage@UnDecorator@@SAHXZ 004e1510 f i LIBCMTD:undname.obj
 0001:000e0530       ?doThisTypes@UnDecorator@@SAHXZ 004e1530 f i LIBCMTD:undname.obj
 0001:000e0550       ?doAccessSpecifiers@UnDecorator@@SAHXZ 004e1550 f i LIBCMTD:undname.obj
 0001:000e0570       ?doThrowTypes@UnDecorator@@SAHXZ 004e1570 f i LIBCMTD:undname.obj
 0001:000e0590       ?doMemberTypes@UnDecorator@@SAHXZ 004e1590 f i LIBCMTD:undname.obj
 0001:000e05b0       ?doNameOnly@UnDecorator@@SAHXZ 004e15b0 f i LIBCMTD:undname.obj
 0001:000e05c0       ?doTypeOnly@UnDecorator@@SAHXZ 004e15c0 f i LIBCMTD:undname.obj
 0001:000e05d0       ?haveTemplateParameters@UnDecorator@@SAHXZ 004e15d0 f i LIBCMTD:undname.obj
 0001:000e05e0       ?doEcsu@UnDecorator@@SAHXZ 004e15e0 f i LIBCMTD:undname.obj
 0001:000e0600       ?doEllipsis@UnDecorator@@SAHXZ 004e1600 f i LIBCMTD:undname.obj
 0001:000e0620       ?UScore@UnDecorator@@SAPBDW4Tokens@@@Z 004e1620 f   LIBCMTD:undname.obj
 0001:000e0650       ?doUnderScore@UnDecorator@@SAHXZ 004e1650 f i LIBCMTD:undname.obj
 0001:000e0670       ??2@YAPAXIAAVHeapManager@@H@Z 004e1670 f i LIBCMTD:undname.obj
 0001:000e0690       ?getMemory@HeapManager@@QAEPAXIH@Z 004e1690 f   LIBCMTD:undname.obj
 0001:000e07a0       ??0Block@HeapManager@@QAE@XZ 004e17a0 f i LIBCMTD:undname.obj
 0001:000e07c0       ??H@YA?AVDName@@DABV0@@Z   004e17c0 f i LIBCMTD:undname.obj
 0001:000e07f0       ??H@YA?AVDName@@W4DNameStatus@@ABV0@@Z 004e17f0 f i LIBCMTD:undname.obj
 0001:000e0820       ??H@YA?AVDName@@PBDABV0@@Z 004e1820 f i LIBCMTD:undname.obj
 0001:000e0850       ??0DName@@QAE@XZ           004e1850 f i LIBCMTD:undname.obj
 0001:000e0900       ??0DName@@QAE@D@Z          004e1900 f   LIBCMTD:undname.obj
 0001:000e09d0       ??0DName@@QAE@ABV0@@Z      004e19d0 f i LIBCMTD:undname.obj
 0001:000e0b30       ??0DName@@QAE@PAV0@@Z      004e1b30 f   LIBCMTD:undname.obj
 0001:000e0c50       ??0DName@@QAE@PBD@Z        004e1c50 f   LIBCMTD:undname.obj
 0001:000e0d20       ??0DName@@QAE@AAPBDD@Z     004e1d20 f   LIBCMTD:undname.obj
 0001:000e0fd0       ?doNoIdentCharCheck@UnDecorator@@SAHXZ 004e1fd0 f i LIBCMTD:undname.obj
 0001:000e0fe0       ??0DName@@QAE@_K@Z         004e1fe0 f   LIBCMTD:undname.obj
 0001:000e1110       ??0DName@@QAE@_J@Z         004e2110 f   LIBCMTD:undname.obj
 0001:000e1280       ??0DName@@QAE@W4DNameStatus@@@Z 004e2280 f   LIBCMTD:undname.obj
 0001:000e13a0       ?isValid@DName@@QBEHXZ     004e23a0 f   LIBCMTD:undname.obj
 0001:000e13e0       ?isEmpty@DName@@QBEHXZ     004e23e0 f   LIBCMTD:undname.obj
 0001:000e1420       ?status@DName@@QBE?AW4DNameStatus@@XZ 004e2420 f i LIBCMTD:undname.obj
 0001:000e1440       ?clearStatus@DName@@QAEXXZ 004e2440 f i LIBCMTD:undname.obj
 0001:000e1460       ?setPtrRef@DName@@QAEAAV1@XZ 004e2460 f i LIBCMTD:undname.obj
 0001:000e1480       ?isPtrRef@DName@@QBEHXZ    004e2480 f i LIBCMTD:undname.obj
 0001:000e14a0       ?isUDC@DName@@QBEHXZ       004e24a0 f i LIBCMTD:undname.obj
 0001:000e14e0       ?setIsUDC@DName@@QAEXXZ    004e24e0 f i LIBCMTD:undname.obj
 0001:000e1510       ?isUDTThunk@DName@@QBEHXZ  004e2510 f i LIBCMTD:undname.obj
 0001:000e1550       ?setIsArray@DName@@QAEXXZ  004e2550 f i LIBCMTD:undname.obj
 0001:000e1570       ?isArray@DName@@QBEHXZ     004e2570 f i LIBCMTD:undname.obj
 0001:000e1590       ?isNoTE@DName@@QBEHXZ      004e2590 f i LIBCMTD:undname.obj
 0001:000e15b0       ?setIsNoTE@DName@@QAEXXZ   004e25b0 f i LIBCMTD:undname.obj
 0001:000e15d0       ?isPinPtr@DName@@QBEHXZ    004e25d0 f i LIBCMTD:undname.obj
 0001:000e15f0       ?setIsPinPtr@DName@@QAEXXZ 004e25f0 f i LIBCMTD:undname.obj
 0001:000e1610       ?isComArray@DName@@QBEHXZ  004e2610 f i LIBCMTD:undname.obj
 0001:000e1630       ?setIsComArray@DName@@QAEXXZ 004e2630 f i LIBCMTD:undname.obj
 0001:000e1650       ?isVCallThunk@DName@@QBEHXZ 004e2650 f i LIBCMTD:undname.obj
 0001:000e1670       ?setIsVCallThunk@DName@@QAEXXZ 004e2670 f i LIBCMTD:undname.obj
 0001:000e1690       ?length@DName@@QBEHXZ      004e2690 f   LIBCMTD:undname.obj
 0001:000e16f0       ?getLastChar@DName@@QBEDXZ 004e26f0 f   LIBCMTD:undname.obj
 0001:000e1770       ?getString@DName@@QBEPADPADH@Z 004e2770 f   LIBCMTD:undname.obj
 0001:000e1870       ??HDName@@QBE?AV0@D@Z      004e2870 f   LIBCMTD:undname.obj
 0001:000e18c0       ??HDName@@QBE?AV0@PBD@Z    004e28c0 f   LIBCMTD:undname.obj
 0001:000e1910       ??HDName@@QBE?AV0@ABV0@@Z  004e2910 f   LIBCMTD:undname.obj
 0001:000e1980       ??HDName@@QBE?AV0@PAV0@@Z  004e2980 f   LIBCMTD:undname.obj
 0001:000e19d0       ??HDName@@QBE?AV0@W4DNameStatus@@@Z 004e29d0 f   LIBCMTD:undname.obj
 0001:000e1a20       ??YDName@@QAEAAV0@D@Z      004e2a20 f   LIBCMTD:undname.obj
 0001:000e1ad0       ??YDName@@QAEAAV0@PBD@Z    004e2ad0 f   LIBCMTD:undname.obj
 0001:000e1b90       ??YDName@@QAEAAV0@ABV0@@Z  004e2b90 f   LIBCMTD:undname.obj
 0001:000e1c20       ??YDName@@QAEAAV0@PAV0@@Z  004e2c20 f   LIBCMTD:undname.obj
 0001:000e1d20       ??YDName@@QAEAAV0@W4DNameStatus@@@Z 004e2d20 f   LIBCMTD:undname.obj
 0001:000e1df0       ??_5DName@@QAEAAV0@ABV0@@Z 004e2df0 f   LIBCMTD:undname.obj
 0001:000e1e40       ??4DName@@QAEAAV0@D@Z      004e2e40 f   LIBCMTD:undname.obj
 0001:000e1eb0       ??4DName@@QAEAAV0@PBD@Z    004e2eb0 f   LIBCMTD:undname.obj
 0001:000e1f30       ??4DName@@QAEAAV0@ABV0@@Z  004e2f30 f   LIBCMTD:undname.obj
 0001:000e2040       ??4DName@@QAEAAV0@PAV0@@Z  004e3040 f   LIBCMTD:undname.obj
 0001:000e2130       ??4DName@@QAEAAV0@W4DNameStatus@@@Z 004e3130 f   LIBCMTD:undname.obj
 0001:000e2240       ?doPchar@DName@@AAEXPBDH@Z 004e3240 f   LIBCMTD:undname.obj
 0001:000e2390       ?isFull@Replicator@@QBEHXZ 004e3390 f i LIBCMTD:undname.obj
 0001:000e23b0       ??0Replicator@@QAE@XZ      004e33b0 f i LIBCMTD:undname.obj
 0001:000e23f0       ??YReplicator@@QAEAAV0@ABVDName@@@Z 004e33f0 f   LIBCMTD:undname.obj
 0001:000e2480       ??AReplicator@@QBEABVDName@@H@Z 004e3480 f   LIBCMTD:undname.obj
 0001:000e24d0       ??0DNameNode@@IAE@XZ       004e34d0 f   LIBCMTD:undname.obj
 0001:000e2500       ?nextNode@DNameNode@@QBEPAV1@XZ 004e3500 f i LIBCMTD:undname.obj
 0001:000e2520       ?clone@DNameNode@@QAEPAV1@XZ 004e3520 f   LIBCMTD:undname.obj
 0001:000e25a0       ??0DName@@QAE@PAVDNameNode@@@Z 004e35a0 f i LIBCMTD:undname.obj
 0001:000e2650       ??YDNameNode@@QAEAAV0@PAV0@@Z 004e3650 f   LIBCMTD:undname.obj
 0001:000e26b0       ??0charNode@@QAE@D@Z       004e36b0 f   LIBCMTD:undname.obj
 0001:000e26e0       ?length@charNode@@UBEHXZ   004e36e0 f i LIBCMTD:undname.obj
 0001:000e26f0       ?getLastChar@charNode@@UBEDXZ 004e36f0 f i LIBCMTD:undname.obj
 0001:000e2710       ?getString@charNode@@UBEPADPADH@Z 004e3710 f   LIBCMTD:undname.obj
 0001:000e2740       ??0pcharNode@@QAE@PBDH@Z   004e3740 f   LIBCMTD:undname.obj
 0001:000e27f0       ?length@pcharNode@@UBEHXZ  004e37f0 f i LIBCMTD:undname.obj
 0001:000e2810       ?getLastChar@pcharNode@@UBEDXZ 004e3810 f i LIBCMTD:undname.obj
 0001:000e2850       ?getString@pcharNode@@UBEPADPADH@Z 004e3850 f   LIBCMTD:undname.obj
 0001:000e28c0       ??0pDNameNode@@QAE@PAVDName@@@Z 004e38c0 f   LIBCMTD:undname.obj
 0001:000e2920       ?length@pDNameNode@@UBEHXZ 004e3920 f i LIBCMTD:undname.obj
 0001:000e2950       ?getLastChar@pDNameNode@@UBEDXZ 004e3950 f i LIBCMTD:undname.obj
 0001:000e2980       ?getString@pDNameNode@@UBEPADPADH@Z 004e3980 f   LIBCMTD:undname.obj
 0001:000e29d0       ??0DNameStatusNode@@QAE@W4DNameStatus@@@Z 004e39d0 f   LIBCMTD:undname.obj
 0001:000e2a20       ?length@DNameStatusNode@@UBEHXZ 004e3a20 f i LIBCMTD:undname.obj
 0001:000e2a40       ?getLastChar@DNameStatusNode@@UBEDXZ 004e3a40 f i LIBCMTD:undname.obj
 0001:000e2a60       ?getString@DNameStatusNode@@UBEPADPADH@Z 004e3a60 f   LIBCMTD:undname.obj
 0001:000e2bb0       __controlfp_s              004e3bb0 f   LIBCMTD:contrlfp.obj
 0001:000e2c90       __isalpha_l                004e3c90 f i LIBCMTD:_ctype.obj
 0001:000e2d20       _isalpha                   004e3d20 f i LIBCMTD:_ctype.obj
 0001:000e2d60       __isupper_l                004e3d60 f i LIBCMTD:_ctype.obj
 0001:000e2de0       _isupper                   004e3de0 f i LIBCMTD:_ctype.obj
 0001:000e2e10       __islower_l                004e3e10 f i LIBCMTD:_ctype.obj
 0001:000e2e90       _islower                   004e3e90 f i LIBCMTD:_ctype.obj
 0001:000e2ec0       __isdigit_l                004e3ec0 f i LIBCMTD:_ctype.obj
 0001:000e2f40       _isdigit                   004e3f40 f i LIBCMTD:_ctype.obj
 0001:000e2f70       __isxdigit_l               004e3f70 f i LIBCMTD:_ctype.obj
 0001:000e3000       _isxdigit                  004e4000 f i LIBCMTD:_ctype.obj
 0001:000e3040       __isspace_l                004e4040 f i LIBCMTD:_ctype.obj
 0001:000e30c0       _isspace                   004e40c0 f i LIBCMTD:_ctype.obj
 0001:000e30f0       __ispunct_l                004e40f0 f i LIBCMTD:_ctype.obj
 0001:000e3170       _ispunct                   004e4170 f i LIBCMTD:_ctype.obj
 0001:000e31a0       __isalnum_l                004e41a0 f i LIBCMTD:_ctype.obj
 0001:000e3230       _isalnum                   004e4230 f i LIBCMTD:_ctype.obj
 0001:000e3270       __isprint_l                004e4270 f i LIBCMTD:_ctype.obj
 0001:000e3300       _isprint                   004e4300 f i LIBCMTD:_ctype.obj
 0001:000e3340       __isgraph_l                004e4340 f i LIBCMTD:_ctype.obj
 0001:000e33d0       _isgraph                   004e43d0 f i LIBCMTD:_ctype.obj
 0001:000e3410       __iscntrl_l                004e4410 f i LIBCMTD:_ctype.obj
 0001:000e3490       _iscntrl                   004e4490 f i LIBCMTD:_ctype.obj
 0001:000e34c0       ___isascii                 004e44c0 f i LIBCMTD:_ctype.obj
 0001:000e34d0       ___toascii                 004e44d0 f i LIBCMTD:_ctype.obj
 0001:000e34e0       __iscsymf_l                004e44e0 f i LIBCMTD:_ctype.obj
 0001:000e3520       ___iscsymf                 004e4520 f i LIBCMTD:_ctype.obj
 0001:000e3560       __iscsym_l                 004e4560 f i LIBCMTD:_ctype.obj
 0001:000e35a0       ___iscsym                  004e45a0 f i LIBCMTD:_ctype.obj
 0001:000e35e0       __tolower                  004e45e0 f   LIBCMTD:tolower.obj
 0001:000e35f0       __tolower_l                004e45f0 f   LIBCMTD:tolower.obj
 0001:000e37d0       _tolower                   004e47d0 f   LIBCMTD:tolower.obj
 0001:000e3820       __atodbl_l                 004e4820 f   LIBCMTD:atodbl.obj
 0001:000e3920       __atodbl                   004e4920 f   LIBCMTD:atodbl.obj
 0001:000e3940       __atoldbl_l                004e4940 f   LIBCMTD:atodbl.obj
 0001:000e3a40       __atoldbl                  004e4a40 f   LIBCMTD:atodbl.obj
 0001:000e3a60       __atoflt_l                 004e4a60 f   LIBCMTD:atodbl.obj
 0001:000e3b60       __atoflt                   004e4b60 f   LIBCMTD:atodbl.obj
 0001:000e3b80       __fptostr                  004e4b80 f   LIBCMTD:_fptostr.obj
 0001:000e3e30       __fltout2                  004e4e30 f   LIBCMTD:cfout.obj
 0001:000e3ee0       ___dtold                   004e4ee0 f   LIBCMTD:cfout.obj
 0001:000e4030       __set_output_format        004e5030 f   LIBCMTD:outputformat.obj
 0001:000e40b0       __get_output_format        004e50b0 f   LIBCMTD:outputformat.obj
 0001:000e40c0       _strrchr                   004e50c0 f   LIBCMTD:strrchr.obj
 0001:000e40f0       __fptrap                   004e50f0 f   LIBCMTD:crt0fp.obj
 0001:000e4100       _ungetc                    004e5100 f   LIBCMTD:ungetc.obj
 0001:000e41f0       __ungetc_nolock            004e51f0 f   LIBCMTD:ungetc.obj
 0001:000e4460       _atol                      004e5460 f   LIBCMTD:atox.obj
 0001:000e4480       __atol_l                   004e5480 f   LIBCMTD:atox.obj
 0001:000e44a0       _atoi                      004e54a0 f   LIBCMTD:atox.obj
 0001:000e44c0       __atoi_l                   004e54c0 f   LIBCMTD:atox.obj
 0001:000e44e0       __atoi64                   004e54e0 f   LIBCMTD:atox.obj
 0001:000e4500       __atoi64_l                 004e5500 f   LIBCMTD:atox.obj
 0001:000e4520       _strncpy_s                 004e5520 f   LIBCMTD:strncpy_s.obj
 0001:000e4910       _getenv                    004e5910 f   LIBCMTD:getenv.obj
 0001:000e4a60       __getenv_helper_nolock     004e5a60 f   LIBCMTD:getenv.obj
 0001:000e4b80       _getenv_s                  004e5b80 f   LIBCMTD:getenv.obj
 0001:000e4db0       __dupenv_s                 004e5db0 f   LIBCMTD:getenv.obj
 0001:000e4dd0       __dupenv_s_dbg             004e5dd0 f   LIBCMTD:getenv.obj
 0001:000e5020       ___init_ctype              004e6020 f   LIBCMTD:initctyp.obj
 0001:000e55d0       ____mb_cur_max_func        004e65d0 f   LIBCMTD:initctyp.obj
 0001:000e5620       ____mb_cur_max_l_func      004e6620 f   LIBCMTD:initctyp.obj
 0001:000e5650       ____lc_codepage_func       004e6650 f   LIBCMTD:initctyp.obj
 0001:000e56a0       ____lc_collate_cp_func     004e66a0 f   LIBCMTD:initctyp.obj
 0001:000e56f0       ____lc_handle_func         004e66f0 f   LIBCMTD:initctyp.obj
 0001:000e5740       __ismbbkalnum_l            004e6740 f   LIBCMTD:ismbbyte.obj
 0001:000e5760       __ismbbkalnum              004e6760 f   LIBCMTD:ismbbyte.obj
 0001:000e5780       __ismbbkprint_l            004e6780 f   LIBCMTD:ismbbyte.obj
 0001:000e57a0       __ismbbkprint              004e67a0 f   LIBCMTD:ismbbyte.obj
 0001:000e57c0       __ismbbkpunct_l            004e67c0 f   LIBCMTD:ismbbyte.obj
 0001:000e57e0       __ismbbkpunct              004e67e0 f   LIBCMTD:ismbbyte.obj
 0001:000e5800       __ismbbalnum_l             004e6800 f   LIBCMTD:ismbbyte.obj
 0001:000e5820       __ismbbalnum               004e6820 f   LIBCMTD:ismbbyte.obj
 0001:000e5840       __ismbbalpha_l             004e6840 f   LIBCMTD:ismbbyte.obj
 0001:000e5860       __ismbbalpha               004e6860 f   LIBCMTD:ismbbyte.obj
 0001:000e5880       __ismbbgraph_l             004e6880 f   LIBCMTD:ismbbyte.obj
 0001:000e58a0       __ismbbgraph               004e68a0 f   LIBCMTD:ismbbyte.obj
 0001:000e58c0       __ismbbprint_l             004e68c0 f   LIBCMTD:ismbbyte.obj
 0001:000e58e0       __ismbbprint               004e68e0 f   LIBCMTD:ismbbyte.obj
 0001:000e5900       __ismbbpunct_l             004e6900 f   LIBCMTD:ismbbyte.obj
 0001:000e5920       __ismbbpunct               004e6920 f   LIBCMTD:ismbbyte.obj
 0001:000e5940       __ismbblead_l              004e6940 f   LIBCMTD:ismbbyte.obj
 0001:000e5960       __ismbblead                004e6960 f   LIBCMTD:ismbbyte.obj
 0001:000e5980       __ismbbtrail_l             004e6980 f   LIBCMTD:ismbbyte.obj
 0001:000e59a0       __ismbbtrail               004e69a0 f   LIBCMTD:ismbbyte.obj
 0001:000e59c0       __ismbbkana_l              004e69c0 f   LIBCMTD:ismbbyte.obj
 0001:000e5a30       __ismbbkana                004e6a30 f   LIBCMTD:ismbbyte.obj
 0001:000e5b10       __set_error_mode           004e6b10 f   LIBCMTD:errmode.obj
 0001:000e5bd0       ___set_app_type            004e6bd0 f   LIBCMTD:errmode.obj
 0001:000e5be0       ___get_app_type            004e6be0 f   LIBCMTD:errmode.obj
 0001:000e5bf0       ___crtMessageBoxA          004e6bf0 f   LIBCMTD:crtmbox.obj
 0001:000e5e90       __mbsnbcpy_s               004e6e90 f   LIBCMTD:mbsnbcpy_s.obj
 0001:000e5eb0       ___crtLCMapStringA         004e6eb0 f   LIBCMTD:a_map.obj
 0001:000e6410       __MarkAllocaS              004e7410 f i LIBCMTD:a_map.obj
 0001:000e6430       __freea                    004e7430 f i LIBCMTD:a_map.obj
 0001:000e64f0       ___crtGetStringTypeA       004e74f0 f   LIBCMTD:a_str.obj
 0001:000e6780       ___pwctype_func            004e7780 f   LIBCMTD:ctype.obj
 0001:000e6790       ___pctype_func             004e7790 f   LIBCMTD:ctype.obj
 0001:000e67e0       ___init_time               004e77e0 f   LIBCMTD:inittime.obj
 0001:000e6f00       ___free_lc_time            004e7f00 f   LIBCMTD:inittime.obj
 0001:000e7210       ___init_numeric            004e8210 f   LIBCMTD:initnum.obj
 0001:000e7560       ___free_lconv_num          004e8560 f   LIBCMTD:initnum.obj
 0001:000e75d0       ___init_monetary           004e85d0 f   LIBCMTD:initmon.obj
 0001:000e7ad0       ___free_lconv_mon          004e8ad0 f   LIBCMTD:initmon.obj
 0001:000e7bc0       ___init_collate            004e8bc0 f   LIBCMTD:initcoll.obj
 0001:000e7bd0       __Getdays_l                004e8bd0 f   LIBCMTD:strftime.obj
 0001:000e7d90       __Getdays                  004e8d90 f   LIBCMTD:strftime.obj
 0001:000e7da0       __Getmonths_l              004e8da0 f   LIBCMTD:strftime.obj
 0001:000e7f60       __Getmonths                004e8f60 f   LIBCMTD:strftime.obj
 0001:000e7f70       __Gettnames_l              004e8f70 f   LIBCMTD:strftime.obj
 0001:000e84e0       __Gettnames                004e94e0 f   LIBCMTD:strftime.obj
 0001:000e84f0       __strftime_l               004e94f0 f   LIBCMTD:strftime.obj
 0001:000e8520       _strftime                  004e9520 f   LIBCMTD:strftime.obj
 0001:000e8550       __Strftime                 004e9550 f   LIBCMTD:strftime.obj
 0001:000e8580       __Strftime_l               004e9580 f   LIBCMTD:strftime.obj
 0001:000ea350       _localeconv                004eb350 f   LIBCMTD:lconv.obj
 0001:000ea3a0       _strcspn                   004eb3a0 f   LIBCMTD:strcspn.obj
 0001:000ea3f0       _strpbrk                   004eb3f0 f   LIBCMTD:strpbrk.obj
 0001:000ea430       _memcmp                    004eb430 f   LIBCMTD:memcmp.obj
 0001:000eaea0       ___get_qualified_locale    004ebea0 f   LIBCMTD:getqloc.obj
 0001:000ebd10       __iswctype_l               004ecd10 f   LIBCMTD:iswctype.obj
 0001:000ebdc0       _iswctype                  004ecdc0 f   LIBCMTD:iswctype.obj
 0001:000ebe50       _is_wctype                 004ece50 f   LIBCMTD:iswctype.obj
 0001:000ebe70       _strtol                    004ece70 f   LIBCMTD:strtol.obj
 0001:000ec3a0       __strtol_l                 004ed3a0 f   LIBCMTD:strtol.obj
 0001:000ec3c0       _strtoul                   004ed3c0 f   LIBCMTD:strtol.obj
 0001:000ec410       __strtoul_l                004ed410 f   LIBCMTD:strtol.obj
 0001:000ec430       __chsize_s                 004ed430 f   LIBCMTD:chsize.obj
 0001:000ec6d0       __chsize_nolock            004ed6d0 f   LIBCMTD:chsize.obj
 0001:000ec960       __chsize                   004ed960 f   LIBCMTD:chsize.obj
 0001:000ec990       __setmode                  004ed990 f   LIBCMTD:setmode.obj
 0001:000ecc20       __setmode_nolock           004edc20 f   LIBCMTD:setmode.obj
 0001:000ece90       __set_fmode                004ede90 f   LIBCMTD:setmode.obj
 0001:000ecf40       __get_fmode                004edf40 f   LIBCMTD:setmode.obj
 0001:000ecfc0       __stricmp_l                004edfc0 f   LIBCMTD:stricmp.obj
 0001:000ed170       ___ascii_stricmp           004ee170 f   LIBCMTD:stricmp.obj
 0001:000ed1e0       __stricmp                  004ee1e0 f   LIBCMTD:stricmp.obj
 0001:000ed1e0       _stricmp                   004ee1e0 f   LIBCMTD:stricmp.obj
 0001:000ed2f0       ___initconin               004ee2f0 f   LIBCMTD:initcon.obj
 0001:000ed320       ___initconout              004ee320 f   LIBCMTD:initcon.obj
 0001:000ed350       ___termcon                 004ee350 f   LIBCMTD:initcon.obj
 0001:000ed3a0       __woutput_s_l              004ee3a0 f   LIBCMTD:woutputs.obj
 0001:000ee6c0       __validate_param_reuseW    004ef6c0 f   LIBCMTD:woutputp.obj
 0001:000ee930       __woutput_p_l              004ef930 f   LIBCMTD:woutputp.obj
 0001:000f2080       ___crtGetLocaleInfoW       004f3080 f   LIBCMTD:w_loc.obj
 0001:000f2250       ___crtGetLocaleInfoA       004f3250 f   LIBCMTD:a_loc.obj
 0001:000f2430       _fputwc                    004f3430 f   LIBCMTD:fputwc.obj
 0001:000f2530       __fputwc_nolock            004f3530 f   LIBCMTD:fputwc.obj
 0001:000f2910       _putwc                     004f3910 f   LIBCMTD:fputwc.obj
 0001:000f2930       __purecall                 004f3930 f   LIBCMTD:purevirt.obj
 0001:000f2970       __set_purecall_handler     004f3970 f   LIBCMTD:purevirt.obj
 0001:000f29b0       __get_purecall_handler     004f39b0 f   LIBCMTD:purevirt.obj
 0001:000f29d0       __statusfp2                004f39d0 f   LIBCMTD:ieee87.obj
 0001:000f2a10       __statusfp                 004f3a10 f   LIBCMTD:ieee87.obj
 0001:000f2a50       __clearfp                  004f3a50 f   LIBCMTD:ieee87.obj
 0001:000f2a90       ___control87_2             004f3a90 f   LIBCMTD:ieee87.obj
 0001:000f2b40       __controlfp                004f3b40 f   LIBCMTD:ieee87.obj
 0001:000f2b60       __control87                004f3b60 f i LIBCMTD:ieee87.obj
 0001:000f2c10       __set_controlfp            004f3c10 f   LIBCMTD:ieee87.obj
 0001:000f2ca0       __fpreset                  004f3ca0 f   LIBCMTD:ieee87.obj
 0001:000f3450       __ld12tod                  004f4450 f   LIBCMTD:intrncvt.obj
 0001:000f3470       __ld12cvt                  004f4470 f i LIBCMTD:intrncvt.obj
 0001:000f36c0       __RoundMan                 004f46c0 f i LIBCMTD:intrncvt.obj
 0001:000f37a0       __ZeroTail                 004f47a0 f i LIBCMTD:intrncvt.obj
 0001:000f3830       __IncMan                   004f4830 f i LIBCMTD:intrncvt.obj
 0001:000f38e0       ___addl                    004f48e0 f i LIBCMTD:intrncvt.obj
 0001:000f3920       __CopyMan                  004f4920 f i LIBCMTD:intrncvt.obj
 0001:000f3970       __FillZeroMan              004f4970 f i LIBCMTD:intrncvt.obj
 0001:000f39a0       __IsZeroMan                004f49a0 f i LIBCMTD:intrncvt.obj
 0001:000f39e0       __ShrMan                   004f49e0 f i LIBCMTD:intrncvt.obj
 0001:000f3ad0       __ld12tof                  004f4ad0 f   LIBCMTD:intrncvt.obj
 0001:000f3af0       __ld12told                 004f4af0 f   LIBCMTD:intrncvt.obj
 0001:000f3ba0       ___strgtold12_l            004f4ba0 f   LIBCMTD:strgtold.obj
 0001:000f4650       ___multtenpow12            004f5650 f i LIBCMTD:strgtold.obj
 0001:000f4730       ___ld12mul                 004f5730 f i LIBCMTD:strgtold.obj
 0001:000f4b30       ___shl_12                  004f5b30 f i LIBCMTD:strgtold.obj
 0001:000f4b90       ___shr_12                  004f5b90 f i LIBCMTD:strgtold.obj
 0001:000f4c00       ___STRINGTOLD_L            004f5c00 f   LIBCMTD:strgtold.obj
 0001:000f4c70       _$I10_OUTPUT               004f5c70 f   LIBCMTD:x10fout.obj
 0001:000f5210       ___add_12                  004f6210 f i LIBCMTD:x10fout.obj
 0001:000f52c0       __strtoi64                 004f62c0 f   LIBCMTD:strtoq.obj
 0001:000f5830       __strtoi64_l               004f6830 f   LIBCMTD:strtoq.obj
 0001:000f5850       __strtoui64                004f6850 f   LIBCMTD:strtoq.obj
 0001:000f58a0       __strtoui64_l              004f68a0 f   LIBCMTD:strtoq.obj
 0001:000f58c0       _strnlen                   004f68c0 f   LIBCMTD:strlen_s.obj
 0001:000f5900       __mbsnbicoll_l             004f6900 f   LIBCMTD:mbsnbico.obj
 0001:000f5b40       __mbsnbicoll               004f6b40 f   LIBCMTD:mbsnbico.obj
 0001:000f5b60       ___wtomb_environ           004f6b60 f   LIBCMTD:wtombenv.obj
 0001:000f5c50       __mbsnbcpy_s_l             004f6c50 f   LIBCMTD:mbsnbcpy_s_l.obj
 0001:000f62d0       ___ansicp                  004f72d0 f   LIBCMTD:convrtcp.obj
 0001:000f6330       ___convertcp               004f7330 f   LIBCMTD:convrtcp.obj
 0001:000f6570       __strnicmp_l               004f7570 f   LIBCMTD:strnicmp.obj
 0001:000f67b0       __strnicmp                 004f77b0 f   LIBCMTD:strnicmp.obj
 0001:000f67b0       _strnicmp                  004f77b0 f   LIBCMTD:strnicmp.obj
 0001:000f6940       ___crtGetStringTypeW       004f7940 f   LIBCMTD:w_str.obj
 0001:000f6c40       _wcstol                    004f7c40 f   LIBCMTD:wcstol.obj
 0001:000f70c0       __wcstol_l                 004f80c0 f   LIBCMTD:wcstol.obj
 0001:000f70e0       _wcstoul                   004f80e0 f   LIBCMTD:wcstol.obj
 0001:000f7130       __wcstoul_l                004f8130 f   LIBCMTD:wcstol.obj
 0001:000f7150       __flswbuf                  004f8150 f   LIBCMTD:_flswbuf.obj
 0001:000f7430       __statfp                   004f8430 f   LIBCMTD:fpctrl.obj
 0001:000f7440       __clrfp                    004f8440 f   LIBCMTD:fpctrl.obj
 0001:000f7460       __ctrlfp                   004f8460 f   LIBCMTD:fpctrl.obj
 0001:000f7490       __set_statfp               004f8490 f   LIBCMTD:fpctrl.obj
 0001:000f7500       ___get_fpsr_sse2           004f8500 f   LIBCMTD:fpctrl.obj
 0001:000f7530       ___set_fpsr_sse2           004f8530 f   LIBCMTD:fpctrl.obj
 0001:000f7610       ___fclrf_sse2              004f8610 f   LIBCMTD:fpctrl.obj
 0001:000f7630       ___statfp_sse2             004f8630 f   LIBCMTD:fpctrl.obj
 0001:000f7660       ___clrfp_sse2              004f8660 f   LIBCMTD:fpctrl.obj
 0001:000f76a0       ___ctrlfp_sse2             004f86a0 f   LIBCMTD:fpctrl.obj
 0001:000f7700       ___set_statfp_sse2         004f8700 f   LIBCMTD:fpctrl.obj
 0001:000f7730       ___mtold12                 004f8730 f   LIBCMTD:mantold.obj
 0001:000f7880       ___crtCompareStringA       004f8880 f   LIBCMTD:a_cmp.obj
 0001:000f7e40       __strnicoll_l              004f8e40 f   LIBCMTD:strnicol.obj
 0001:000f8090       __strnicoll                004f9090 f   LIBCMTD:strnicol.obj
 0001:000f80d0       ___crtsetenv               004f90d0 f   LIBCMTD:setenv.obj
 0001:000f8750       ___ascii_strnicmp          004f9750 f   LIBCMTD:_strnicm.obj
 0001:000f87c0       __wchartodigit             004f97c0 f   LIBCMTD:wchtodig.obj
 0001:000f8ae0       __mbschr_l                 004f9ae0 f   LIBCMTD:mbschr.obj
 0001:000f8c70       __mbschr                   004f9c70 f   LIBCMTD:mbschr.obj
 0001:000f8ca0       _strchr                    004f9ca0 f   LIBCMTD:strchr.obj
 0001:000f8ca6       ___from_strstr_to_strchr   004f9ca6     LIBCMTD:strchr.obj
 0001:000f8d5e       _InterlockedIncrement@4    004f9d5e f   kernel32:KERNEL32.dll
 0001:000f8d64       _InterlockedDecrement@4    004f9d64 f   kernel32:KERNEL32.dll
 0001:000f8d6a       _InterlockedExchange@8     004f9d6a f   kernel32:KERNEL32.dll
 0001:000f8d70       _InitializeCriticalSection@4 004f9d70 f   kernel32:KERNEL32.dll
 0001:000f8d76       _DeleteCriticalSection@4   004f9d76 f   kernel32:KERNEL32.dll
 0001:000f8d7c       _EnterCriticalSection@4    004f9d7c f   kernel32:KERNEL32.dll
 0001:000f8d82       _LeaveCriticalSection@4    004f9d82 f   kernel32:KERNEL32.dll
 0001:000f8d88       _RaiseException@16         004f9d88 f   kernel32:KERNEL32.dll
 0001:000f8d8e       _DebugBreak@0              004f9d8e f   kernel32:KERNEL32.dll
 0001:000f8d94       _WideCharToMultiByte@32    004f9d94 f   kernel32:KERNEL32.dll
 0001:000f8d9a       _IsDebuggerPresent@0       004f9d9a f   kernel32:KERNEL32.dll
 0001:000f8da0       _MultiByteToWideChar@24    004f9da0 f   kernel32:KERNEL32.dll
 0001:000f8da6       _lstrlenA@4                004f9da6 f   kernel32:KERNEL32.dll
 0001:000f8dac       _GetProcAddress@8          004f9dac f   kernel32:KERNEL32.dll
 0001:000f8db2       _FileTimeToSystemTime@8    004f9db2 f   kernel32:KERNEL32.dll
 0001:000f8db8       _FileTimeToLocalFileTime@8 004f9db8 f   kernel32:KERNEL32.dll
 0001:000f8dbe       _GetFileInformationByHandle@8 004f9dbe f   kernel32:KERNEL32.dll
 0001:000f8dc4       _PeekNamedPipe@24          004f9dc4 f   kernel32:KERNEL32.dll
 0001:000f8dca       _GetFileType@4             004f9dca f   kernel32:KERNEL32.dll
 0001:000f8dd0       _RtlUnwind@16              004f9dd0 f   kernel32:KERNEL32.dll
 0001:000f8dd6       _TerminateProcess@8        004f9dd6 f   kernel32:KERNEL32.dll
 0001:000f8ddc       _GetCurrentProcess@0       004f9ddc f   kernel32:KERNEL32.dll
 0001:000f8de2       _UnhandledExceptionFilter@4 004f9de2 f   kernel32:KERNEL32.dll
 0001:000f8de8       _SetUnhandledExceptionFilter@4 004f9de8 f   kernel32:KERNEL32.dll
 0001:000f8dee       _GetModuleFileNameW@12     004f9dee f   kernel32:KERNEL32.dll
 0001:000f8df4       _GetSystemTimeAsFileTime@4 004f9df4 f   kernel32:KERNEL32.dll
 0001:000f8dfa       _GetCommandLineA@0         004f9dfa f   kernel32:KERNEL32.dll
 0001:000f8e00       _HeapFree@12               004f9e00 f   kernel32:KERNEL32.dll
 0001:000f8e06       _GetVersionExA@4           004f9e06 f   kernel32:KERNEL32.dll
 0001:000f8e0c       _HeapAlloc@12              004f9e0c f   kernel32:KERNEL32.dll
 0001:000f8e12       _GetProcessHeap@0          004f9e12 f   kernel32:KERNEL32.dll
 0001:000f8e18       _GetStartupInfoA@4         004f9e18 f   kernel32:KERNEL32.dll
 0001:000f8e1e       _HeapValidate@12           004f9e1e f   kernel32:KERNEL32.dll
 0001:000f8e24       _IsBadReadPtr@8            004f9e24 f   kernel32:KERNEL32.dll
 0001:000f8e2a       _VirtualQuery@12           004f9e2a f   kernel32:KERNEL32.dll
 0001:000f8e30       _FreeLibrary@4             004f9e30 f   kernel32:KERNEL32.dll
 0001:000f8e36       _GetModuleHandleA@4        004f9e36 f   kernel32:KERNEL32.dll
 0001:000f8e3c       _TlsGetValue@4             004f9e3c f   kernel32:KERNEL32.dll
 0001:000f8e42       _TlsAlloc@0                004f9e42 f   kernel32:KERNEL32.dll
 0001:000f8e48       _TlsSetValue@8             004f9e48 f   kernel32:KERNEL32.dll
 0001:000f8e4e       _GetCurrentThreadId@0      004f9e4e f   kernel32:KERNEL32.dll
 0001:000f8e54       _TlsFree@4                 004f9e54 f   kernel32:KERNEL32.dll
 0001:000f8e5a       _SetLastError@4            004f9e5a f   kernel32:KERNEL32.dll
 0001:000f8e60       _GetCurrentThread@0        004f9e60 f   kernel32:KERNEL32.dll
 0001:000f8e66       _SetStdHandle@8            004f9e66 f   kernel32:KERNEL32.dll
 0001:000f8e6c       _SetHandleCount@4          004f9e6c f   kernel32:KERNEL32.dll
 0001:000f8e72       _GetStdHandle@4            004f9e72 f   kernel32:KERNEL32.dll
 0001:000f8e78       _CloseHandle@4             004f9e78 f   kernel32:KERNEL32.dll
 0001:000f8e7e       _SetFilePointer@16         004f9e7e f   kernel32:KERNEL32.dll
 0001:000f8e84       _FatalAppExitA@8           004f9e84 f   kernel32:KERNEL32.dll
 0001:000f8e8a       _ReadFile@20               004f9e8a f   kernel32:KERNEL32.dll
 0001:000f8e90       _WriteFile@20              004f9e90 f   kernel32:KERNEL32.dll
 0001:000f8e96       _GetConsoleCP@0            004f9e96 f   kernel32:KERNEL32.dll
 0001:000f8e9c       _GetConsoleMode@8          004f9e9c f   kernel32:KERNEL32.dll
 0001:000f8ea2       _OutputDebugStringA@4      004f9ea2 f   kernel32:KERNEL32.dll
 0001:000f8ea8       _WriteConsoleW@20          004f9ea8 f   kernel32:KERNEL32.dll
 0001:000f8eae       _OutputDebugStringW@4      004f9eae f   kernel32:KERNEL32.dll
 0001:000f8eb4       _ExitProcess@4             004f9eb4 f   kernel32:KERNEL32.dll
 0001:000f8eba       _SetConsoleCtrlHandler@8   004f9eba f   kernel32:KERNEL32.dll
 0001:000f8ec0       _LoadLibraryW@4            004f9ec0 f   kernel32:KERNEL32.dll
 0001:000f8ec6       _FlushFileBuffers@4        004f9ec6 f   kernel32:KERNEL32.dll
 0001:000f8ecc       _GetTimeZoneInformation@4  004f9ecc f   kernel32:KERNEL32.dll
 0001:000f8ed2       _GetTickCount@0            004f9ed2 f   kernel32:KERNEL32.dll
 0001:000f8ed8       _GetCurrentProcessId@0     004f9ed8 f   kernel32:KERNEL32.dll
 0001:000f8ede       _GetModuleFileNameA@12     004f9ede f   kernel32:KERNEL32.dll
 0001:000f8ee4       _FreeEnvironmentStringsA@4 004f9ee4 f   kernel32:KERNEL32.dll
 0001:000f8eea       _GetEnvironmentStrings@0   004f9eea f   kernel32:KERNEL32.dll
 0001:000f8ef0       _FreeEnvironmentStringsW@4 004f9ef0 f   kernel32:KERNEL32.dll
 0001:000f8ef6       _GetEnvironmentStringsW@0  004f9ef6 f   kernel32:KERNEL32.dll
 0001:000f8efc       _HeapDestroy@4             004f9efc f   kernel32:KERNEL32.dll
 0001:000f8f02       _HeapCreate@12             004f9f02 f   kernel32:KERNEL32.dll
 0001:000f8f08       _HeapReAlloc@16            004f9f08 f   kernel32:KERNEL32.dll
 0001:000f8f0e       _GetACP@0                  004f9f0e f   kernel32:KERNEL32.dll
 0001:000f8f14       _GetOEMCP@0                004f9f14 f   kernel32:KERNEL32.dll
 0001:000f8f1a       _GetCPInfo@8               004f9f1a f   kernel32:KERNEL32.dll
 0001:000f8f20       _IsValidCodePage@4         004f9f20 f   kernel32:KERNEL32.dll
 0001:000f8f26       _CreateFileA@28            004f9f26 f   kernel32:KERNEL32.dll
 0001:000f8f2c       _WriteConsoleA@20          004f9f2c f   kernel32:KERNEL32.dll
 0001:000f8f32       _GetConsoleOutputCP@0      004f9f32 f   kernel32:KERNEL32.dll
 0001:000f8f38       _LCMapStringA@24           004f9f38 f   kernel32:KERNEL32.dll
 0001:000f8f3e       _LCMapStringW@24           004f9f3e f   kernel32:KERNEL32.dll
 0001:000f8f44       _GetStringTypeA@20         004f9f44 f   kernel32:KERNEL32.dll
 0001:000f8f4a       _GetStringTypeW@16         004f9f4a f   kernel32:KERNEL32.dll
 0001:000f8f50       _GetTimeFormatA@24         004f9f50 f   kernel32:KERNEL32.dll
 0001:000f8f56       _GetDateFormatA@24         004f9f56 f   kernel32:KERNEL32.dll
 0001:000f8f5c       _GetLocaleInfoA@16         004f9f5c f   kernel32:KERNEL32.dll
 0001:000f8f62       _IsValidLocale@8           004f9f62 f   kernel32:KERNEL32.dll
 0001:000f8f68       _EnumSystemLocalesA@8      004f9f68 f   kernel32:KERNEL32.dll
 0001:000f8f6e       _GetUserDefaultLCID@0      004f9f6e f   kernel32:KERNEL32.dll
 0001:000f8f74       _SetEndOfFile@4            004f9f74 f   kernel32:KERNEL32.dll
 0001:000f8f7a       _GetLocaleInfoW@16         004f9f7a f   kernel32:KERNEL32.dll
 0001:000f8f80       _CompareStringA@24         004f9f80 f   kernel32:KERNEL32.dll
 0001:000f8f86       _CompareStringW@24         004f9f86 f   kernel32:KERNEL32.dll
 0001:000f8f8c       _SetEnvironmentVariableA@8 004f9f8c f   kernel32:KERNEL32.dll
 0001:000f8fa0       __tell                     004f9fa0 f   LIBCMTD:tell.obj
 0001:000f8fa0       _tell                      004f9fa0 f   LIBCMTD:tell.obj
 0001:000f8fc0       __filelength               004f9fc0 f   LIBCMTD:flength.obj
 0001:000f8fc0       _filelength                004f9fc0 f   LIBCMTD:flength.obj
 0002:00000000       ___xc_a                    00513000     LIBCMTD:crt0init.obj
 0002:00000208       ___xc_z                    00513208     LIBCMTD:crt0init.obj
 0002:0000030c       ___xi_a                    0051330c     LIBCMTD:crt0init.obj
 0002:0000062c       ___xi_z                    0051362c     LIBCMTD:crt0init.obj
 0002:00000730       ___xp_a                    00513730     LIBCMTD:crt0init.obj
 0002:00000a44       ___xp_z                    00513a44     LIBCMTD:crt0init.obj
 0002:00000b48       ___xt_a                    00513b48     LIBCMTD:crt0init.obj
 0002:00000c4c       ___xt_z                    00513c4c     LIBCMTD:crt0init.obj
 0002:00001e40       ??_C@_1DC@POOIKBAO@?$AAI?$AAT?$AAE?$AAR?$AAA?$AAT?$AAO?$AAR?$AA?5?$AAL?$AAI?$AAS?$AAT?$AA?5?$AAC?$AAO?$AAR?$AAR?$AAU?$AAP?$AAT?$AAE?$AAD?$AA?$CB?$AA?$AA@ 00514e40     MemoryManager.obj
 0002:00001e80       ??_C@_1GC@BOCMKMKF@?$AAC?$AA?3?$AA?2?$AAM?$AAi?$AAc?$AAr?$AAo?$AAs?$AAo?$AAf?$AAt?$AA?5?$AAV?$AAi?$AAs?$AAu?$AAa?$AAl?$AA?5?$AAS?$AAt?$AAu?$AAd?$AAi?$AAo?$AA?5?$AA8?$AA?2?$AAV?$AAC?$AA?2@ 00514e80     MemoryManager.obj
 0002:00001ef8       ??_C@_1CK@POGJDOKA@?$AA?$CI?$AA?$CC?$AA_?$AAP?$AAo?$AAs?$AA?5?$AA?$DM?$AA?5?$AAs?$AAi?$AAz?$AAe?$AA?$CI?$AA?$CJ?$AA?$CC?$AA?0?$AA?5?$AA0?$AA?$CJ?$AA?$AA@ 00514ef8     MemoryManager.obj
 0002:00001f2c       ??_C@_1BO@MEPPHOO@?$AA?$CC?$AAo?$AAu?$AAt?$AA?5?$AAo?$AAf?$AA?5?$AAr?$AAa?$AAn?$AAg?$AAe?$AA?$CC?$AA?$AA@ 00514f2c     MemoryManager.obj
 0002:00001f50       ??_C@_1LK@KPOHDDAF@?$AAs?$AAt?$AAd?$AA?3?$AA?3?$AAv?$AAe?$AAc?$AAt?$AAo?$AAr?$AA?$DM?$AAc?$AAl?$AAa?$AAs?$AAs?$AA?5?$AAF?$AAr?$AAe?$AAe?$AAM?$AAe?$AAm?$AAo?$AAr?$AAy?$AAB?$AAl?$AAo?$AAc@ 00514f50     MemoryManager.obj
 0002:00002030       ??_C@_1FG@CMLDHNON@?$AA?$CI?$AA?$CC?$AAS?$AAt?$AAa?$AAn?$AAd?$AAa?$AAr?$AAd?$AA?5?$AAC?$AA?$CL?$AA?$CL?$AA?5?$AAL?$AAi?$AAb?$AAr?$AAa?$AAr?$AAi?$AAe?$AAs?$AA?5?$AAO?$AAu?$AAt?$AA?5?$AAo?$AAf?$AA?5@ 00515030     MemoryManager.obj
 0002:00002098       ??_C@_1DM@LHGCHCBA@?$AAv?$AAe?$AAc?$AAt?$AAo?$AAr?$AA?5?$AAs?$AAu?$AAb?$AAs?$AAc?$AAr?$AAi?$AAp?$AAt?$AA?5?$AAo?$AAu?$AAt?$AA?5?$AAo?$AAf?$AA?5?$AAr?$AAa?$AAn?$AAg?$AAe?$AA?$AA@ 00515098     MemoryManager.obj
 0002:000020e0       ??_C@_1FO@LOAHDEOC@?$AAC?$AA?3?$AA?2?$AAM?$AAi?$AAc?$AAr?$AAo?$AAs?$AAo?$AAf?$AAt?$AA?5?$AAV?$AAi?$AAs?$AAu?$AAa?$AAl?$AA?5?$AAS?$AAt?$AAu?$AAd?$AAi?$AAo?$AA?5?$AA8?$AA?2?$AAV?$AAC?$AA?2@ 005150e0     MemoryManager.obj
 0002:00002150       ??_C@_1EI@HGIDLLCM@?$AAv?$AAe?$AAc?$AAt?$AAo?$AAr?$AA?5?$AAe?$AAr?$AAa?$AAs?$AAe?$AA?5?$AAi?$AAt?$AAe?$AAr?$AAa?$AAt?$AAo?$AAr?$AA?5?$AAo?$AAu?$AAt?$AAs?$AAi?$AAd?$AAe?$AA?5?$AAr?$AAa@ 00515150     MemoryManager.obj
 0002:000021a8       ??_C@_1MO@CMLBFBLG@?$AAs?$AAt?$AAd?$AA?3?$AA?3?$AAv?$AAe?$AAc?$AAt?$AAo?$AAr?$AA?$DM?$AAc?$AAl?$AAa?$AAs?$AAs?$AA?5?$AAA?$AAl?$AAl?$AAo?$AAc?$AAa?$AAt?$AAe?$AAd?$AAM?$AAe?$AAm?$AAo?$AAr@ 005151a8     MemoryManager.obj
 0002:000022a0       ??_C@_1EK@EEHFMKDC@?$AAv?$AAe?$AAc?$AAt?$AAo?$AAr?$AA?5?$AAi?$AAn?$AAs?$AAe?$AAr?$AAt?$AA?5?$AAi?$AAt?$AAe?$AAr?$AAa?$AAt?$AAo?$AAr?$AA?5?$AAo?$AAu?$AAt?$AAs?$AAi?$AAd?$AAe?$AA?5?$AAr@ 005152a0     MemoryManager.obj
 0002:000022f8       ??_C@_0BD@OLBABOEK@vector?$DMT?$DO?5too?5long?$AA@ 005152f8     MemoryManager.obj
 0002:00002314       ??_7length_error@std@@6B@  00515314     MemoryManager.obj
 0002:00002324       ??_7logic_error@std@@6B@   00515324     MemoryManager.obj
 0002:00002330       ?npos@?$basic_string@DU?$char_traits@D@std@@V?$allocator@D@2@@std@@2IB 00515330     MemoryManager.obj
 0002:00002334       ??_C@_1CG@JNLFBNGN@?$AA?$CC?$AAi?$AAn?$AAv?$AAa?$AAl?$AAi?$AAd?$AA?5?$AAa?$AAr?$AAg?$AAu?$AAm?$AAe?$AAn?$AAt?$AA?$CC?$AA?$AA@ 00515334     MemoryManager.obj
 0002:00002368       ??_C@_1PA@HNBAMDIO@?$AAs?$AAt?$AAd?$AA?3?$AA?3?$AA_?$AAV?$AAe?$AAc?$AAt?$AAo?$AAr?$AA_?$AAc?$AAo?$AAn?$AAs?$AAt?$AA_?$AAi?$AAt?$AAe?$AAr?$AAa?$AAt?$AAo?$AAr?$AA?$DM?$AAc?$AAl?$AAa?$AAs@ 00515368     MemoryManager.obj
 0002:00002488       ??_C@_1NK@JLHOCNGO@?$AA?$CI?$AA?$CC?$AA_?$AAP?$AAv?$AAe?$AAc?$AAt?$AAo?$AAr?$AA?5?$AA?$DN?$AA?$DN?$AA?5?$AAN?$AAU?$AAL?$AAL?$AA?5?$AA?$HM?$AA?$HM?$AA?5?$AA?$CI?$AA?$CI?$AA?$CI?$AA_?$AAM?$AAy?$AAv?$AAe?$AAc?$AA?5@ 00515488     MemoryManager.obj
 0002:00002590       ??_C@_1NI@IDJCJMFL@?$AAs?$AAt?$AAd?$AA?3?$AA?3?$AA_?$AAV?$AAe?$AAc?$AAt?$AAo?$AAr?$AA_?$AAc?$AAo?$AAn?$AAs?$AAt?$AA_?$AAi?$AAt?$AAe?$AAr?$AAa?$AAt?$AAo?$AAr?$AA?$DM?$AAc?$AAl?$AAa?$AAs@ 00515590     MemoryManager.obj
 0002:00002698       ??_C@_1EG@FOHJJHAC@?$AAv?$AAe?$AAc?$AAt?$AAo?$AAr?$AA?5?$AAi?$AAt?$AAe?$AAr?$AAa?$AAt?$AAo?$AAr?$AA?5?$AAn?$AAo?$AAt?$AA?5?$AAd?$AAe?$AAr?$AAe?$AAf?$AAe?$AAr?$AAe?$AAn?$AAc?$AAa?$AAb@ 00515698     MemoryManager.obj
 0002:000026f0       ??_C@_1OO@PBNBABMO@?$AA?$CI?$AA?$CC?$AA_?$AAM?$AAy?$AAp?$AAt?$AAr?$AA?5?$AA?$CL?$AA?5?$AA_?$AAO?$AAf?$AAf?$AA?5?$AA?$DM?$AA?$DN?$AA?5?$AA?$CI?$AA?$CI?$AA_?$AAM?$AAy?$AAv?$AAe?$AAc?$AA?5?$AA?$CK?$AA?$CJ?$AA?$CI?$AAt@ 005156f0     MemoryManager.obj
 0002:00002810       ??_C@_1NK@GJOLCLLL@?$AAs?$AAt?$AAd?$AA?3?$AA?3?$AA_?$AAV?$AAe?$AAc?$AAt?$AAo?$AAr?$AA_?$AAc?$AAo?$AAn?$AAs?$AAt?$AA_?$AAi?$AAt?$AAe?$AAr?$AAa?$AAt?$AAo?$AAr?$AA?$DM?$AAc?$AAl?$AAa?$AAs@ 00515810     MemoryManager.obj
 0002:00002918       ??_C@_1DK@LIMPPGHH@?$AA?$CI?$AA?$CC?$AAt?$AAh?$AAi?$AAs?$AA?9?$AA?$DO?$AA_?$AAM?$AAy?$AAc?$AAo?$AAn?$AAt?$AA?5?$AA?$CB?$AA?$DN?$AA?5?$AAN?$AAU?$AAL?$AAL?$AA?$CC?$AA?0?$AA?5?$AA0?$AA?$CJ?$AA?$AA@ 00515918     MemoryManager.obj
 0002:00002960       ??_C@_1BAE@GLJHINLB@?$AAs?$AAt?$AAd?$AA?3?$AA?3?$AA_?$AAV?$AAe?$AAc?$AAt?$AAo?$AAr?$AA_?$AAc?$AAo?$AAn?$AAs?$AAt?$AA_?$AAi?$AAt?$AAe?$AAr?$AAa?$AAt?$AAo?$AAr?$AA?$DM?$AAc?$AAl?$AAa?$AAs@ 00515960     MemoryManager.obj
 0002:00002a98       ??_C@_1OO@OLDFJFKF@?$AAs?$AAt?$AAd?$AA?3?$AA?3?$AA_?$AAV?$AAe?$AAc?$AAt?$AAo?$AAr?$AA_?$AAc?$AAo?$AAn?$AAs?$AAt?$AA_?$AAi?$AAt?$AAe?$AAr?$AAa?$AAt?$AAo?$AAr?$AA?$DM?$AAc?$AAl?$AAa?$AAs@ 00515a98     MemoryManager.obj
 0002:00002bb8       ??_C@_1NC@CBJKFKDD@?$AAs?$AAt?$AAd?$AA?3?$AA?3?$AA_?$AAV?$AAe?$AAc?$AAt?$AAo?$AAr?$AA_?$AAc?$AAo?$AAn?$AAs?$AAt?$AA_?$AAi?$AAt?$AAe?$AAr?$AAa?$AAt?$AAo?$AAr?$AA?$DM?$AAc?$AAl?$AAa?$AAs@ 00515bb8     MemoryManager.obj
 0002:00002cb8       ??_C@_1FO@OCPOOAIA@?$AA?$CI?$AA?$CC?$AAS?$AAt?$AAa?$AAn?$AAd?$AAa?$AAr?$AAd?$AA?5?$AAC?$AA?$CL?$AA?$CL?$AA?5?$AAL?$AAi?$AAb?$AAr?$AAa?$AAr?$AAi?$AAe?$AAs?$AA?5?$AAI?$AAn?$AAv?$AAa?$AAl?$AAi?$AAd@ 00515cb8     MemoryManager.obj
 0002:00002d28       ??_C@_1DM@HINDPMBP@?$AAv?$AAe?$AAc?$AAt?$AAo?$AAr?$AA?5?$AAi?$AAt?$AAe?$AAr?$AAa?$AAt?$AAo?$AAr?$AAs?$AA?5?$AAi?$AAn?$AAc?$AAo?$AAm?$AAp?$AAa?$AAt?$AAi?$AAb?$AAl?$AAe?$AA?$AA@ 00515d28     MemoryManager.obj
 0002:00002d70       ??_C@_1OG@FMFLCIEA@?$AAs?$AAt?$AAd?$AA?3?$AA?3?$AA_?$AAV?$AAe?$AAc?$AAt?$AAo?$AAr?$AA_?$AAc?$AAo?$AAn?$AAs?$AAt?$AA_?$AAi?$AAt?$AAe?$AAr?$AAa?$AAt?$AAo?$AAr?$AA?$DM?$AAc?$AAl?$AAa?$AAs@ 00515d70     MemoryManager.obj
 0002:00002e88       ??_C@_1GA@JCBKCKEE@?$AAC?$AA?3?$AA?2?$AAM?$AAi?$AAc?$AAr?$AAo?$AAs?$AAo?$AAf?$AAt?$AA?5?$AAV?$AAi?$AAs?$AAu?$AAa?$AAl?$AA?5?$AAS?$AAt?$AAu?$AAd?$AAi?$AAo?$AA?5?$AA8?$AA?2?$AAV?$AAC?$AA?2@ 00515e88     MemoryManager.obj
 0002:00002efc       ??_C@_1CK@EOPGIILJ@?$AAi?$AAn?$AAv?$AAa?$AAl?$AAi?$AAd?$AA?5?$AAn?$AAu?$AAl?$AAl?$AA?5?$AAp?$AAo?$AAi?$AAn?$AAt?$AAe?$AAr?$AA?$AA@ 00515efc     MemoryManager.obj
 0002:00002f34       ??_7bad_alloc@std@@6B@     00515f34     MemoryManager.obj
 0002:00002f40       ??_C@_1CO@DGLIKNHI@?$AAi?$AAn?$AAv?$AAa?$AAl?$AAi?$AAd?$AA?5?$AAi?$AAt?$AAe?$AAr?$AAa?$AAt?$AAo?$AAr?$AA?5?$AAr?$AAa?$AAn?$AAg?$AAe?$AA?$AA@ 00515f40     MemoryManager.obj
 0002:00002f78       ??_C@_1FO@MANMLIOJ@?$AAC?$AA?3?$AA?2?$AAM?$AAi?$AAc?$AAr?$AAo?$AAs?$AAo?$AAf?$AAt?$AA?5?$AAV?$AAi?$AAs?$AAu?$AAa?$AAl?$AA?5?$AAS?$AAt?$AAu?$AAd?$AAi?$AAo?$AA?5?$AA8?$AA?2?$AAV?$AAC?$AA?2@ 00515f78     MemoryManager.obj
 0002:00003080       __real@3fef0a3d70a3d70a    00516080     nativecodecache.obj
 0002:00003ca0       __real@0000000000000000    00516ca0     NuanceMain.obj
 0002:00003cb0       __real@bff0000000000000    00516cb0     NuanceMain.obj
 0002:00003cc0       __real@3ff0000000000000    00516cc0     NuanceMain.obj
 0002:00003cd0       __real@408f400000000000    00516cd0     NuanceMain.obj
 0002:0000409c       ??_C@_0BA@LJCMGLJN@FlashEEPROM?4bin?$AA@ 0051709c     NuonEnvironment.obj
 0002:00006f50       __real@412e848000000000    00519f50     timer.obj
 0002:00007030       __real@406fe00000000000    0051a030     video.obj
 0002:0000703c       __real@bf62d0e5            0051a03c     video.obj
 0002:00007040       __real@3f051eb8            0051a040     video.obj
 0002:00007044       __real@bf3374bc            0051a044     video.obj
 0002:00007048       __real@3f60000000000000    0051a048     video.obj
 0002:00007058       __real@3f50000000000000    0051a058     video.obj
 0002:00007064       __real@3f800000            0051a064     video.obj
 0002:00007068       __real@00000000            0051a068     video.obj
 0002:0000706c       ??_C@_0P@GHFPNOJB@bad?5allocation?$AA@ 0051a06c     libcpmtd:newaop.obj
 0002:0000707c       ??_C@_01EEMJAFIK@?6?$AA@   0051a07c     libcpmtd:stdthrow.obj
 0002:00007080       ??_C@_07CIFAGBMG@unknown?$AA@ 0051a080     libcpmtd:stdthrow.obj
 0002:00007088       ??_C@_0M@LLHBPFNE@exception?3?5?$AA@ 0051a088     libcpmtd:stdthrow.obj
 0002:00007094       ?collate@?$_Locbase@H@std@@2HB 0051a094     libcpmtd:string.obj
 0002:00007098       ?ctype@?$_Locbase@H@std@@2HB 0051a098     libcpmtd:string.obj
 0002:0000709c       ?monetary@?$_Locbase@H@std@@2HB 0051a09c     libcpmtd:string.obj
 0002:000070a0       ?numeric@?$_Locbase@H@std@@2HB 0051a0a0     libcpmtd:string.obj
 0002:000070a4       ?time@?$_Locbase@H@std@@2HB 0051a0a4     libcpmtd:string.obj
 0002:000070a8       ?messages@?$_Locbase@H@std@@2HB 0051a0a8     libcpmtd:string.obj
 0002:000070ac       ?all@?$_Locbase@H@std@@2HB 0051a0ac     libcpmtd:string.obj
 0002:000070b0       ?none@?$_Locbase@H@std@@2HB 0051a0b0     libcpmtd:string.obj
 0002:000070b4       ?table_size@?$ctype@D@std@@2IB 0051a0b4     libcpmtd:string.obj
 0002:000070b8       ?skipws@?$_Iosb@H@std@@2W4_Fmtflags@12@B 0051a0b8     libcpmtd:string.obj
 0002:000070bc       ?unitbuf@?$_Iosb@H@std@@2W4_Fmtflags@12@B 0051a0bc     libcpmtd:string.obj
 0002:000070c0       ?uppercase@?$_Iosb@H@std@@2W4_Fmtflags@12@B 0051a0c0     libcpmtd:string.obj
 0002:000070c4       ?showbase@?$_Iosb@H@std@@2W4_Fmtflags@12@B 0051a0c4     libcpmtd:string.obj
 0002:000070c8       ?showpoint@?$_Iosb@H@std@@2W4_Fmtflags@12@B 0051a0c8     libcpmtd:string.obj
 0002:000070cc       ?showpos@?$_Iosb@H@std@@2W4_Fmtflags@12@B 0051a0cc     libcpmtd:string.obj
 0002:000070d0       ?left@?$_Iosb@H@std@@2W4_Fmtflags@12@B 0051a0d0     libcpmtd:string.obj
 0002:000070d4       ?right@?$_Iosb@H@std@@2W4_Fmtflags@12@B 0051a0d4     libcpmtd:string.obj
 0002:000070d8       ?internal@?$_Iosb@H@std@@2W4_Fmtflags@12@B 0051a0d8     libcpmtd:string.obj
 0002:000070dc       ?dec@?$_Iosb@H@std@@2W4_Fmtflags@12@B 0051a0dc     libcpmtd:string.obj
 0002:000070e0       ?oct@?$_Iosb@H@std@@2W4_Fmtflags@12@B 0051a0e0     libcpmtd:string.obj
 0002:000070e4       ?hex@?$_Iosb@H@std@@2W4_Fmtflags@12@B 0051a0e4     libcpmtd:string.obj
 0002:000070e8       ?scientific@?$_Iosb@H@std@@2W4_Fmtflags@12@B 0051a0e8     libcpmtd:string.obj
 0002:000070ec       ?fixed@?$_Iosb@H@std@@2W4_Fmtflags@12@B 0051a0ec     libcpmtd:string.obj
 0002:000070f0       ?boolalpha@?$_Iosb@H@std@@2W4_Fmtflags@12@B 0051a0f0     libcpmtd:string.obj
 0002:000070f4       ?_Stdio@?$_Iosb@H@std@@2W4_Fmtflags@12@B 0051a0f4     libcpmtd:string.obj
 0002:000070f8       ?adjustfield@?$_Iosb@H@std@@2W4_Fmtflags@12@B 0051a0f8     libcpmtd:string.obj
 0002:000070fc       ?basefield@?$_Iosb@H@std@@2W4_Fmtflags@12@B 0051a0fc     libcpmtd:string.obj
 0002:00007100       ?floatfield@?$_Iosb@H@std@@2W4_Fmtflags@12@B 0051a100     libcpmtd:string.obj
 0002:00007104       ?goodbit@?$_Iosb@H@std@@2W4_Iostate@12@B 0051a104     libcpmtd:string.obj
 0002:00007108       ?eofbit@?$_Iosb@H@std@@2W4_Iostate@12@B 0051a108     libcpmtd:string.obj
 0002:0000710c       ?failbit@?$_Iosb@H@std@@2W4_Iostate@12@B 0051a10c     libcpmtd:string.obj
 0002:00007110       ?badbit@?$_Iosb@H@std@@2W4_Iostate@12@B 0051a110     libcpmtd:string.obj
 0002:00007114       ?_Hardfail@?$_Iosb@H@std@@2W4_Iostate@12@B 0051a114     libcpmtd:string.obj
 0002:00007118       ?in@?$_Iosb@H@std@@2W4_Openmode@12@B 0051a118     libcpmtd:string.obj
 0002:0000711c       ?out@?$_Iosb@H@std@@2W4_Openmode@12@B 0051a11c     libcpmtd:string.obj
 0002:00007120       ?ate@?$_Iosb@H@std@@2W4_Openmode@12@B 0051a120     libcpmtd:string.obj
 0002:00007124       ?app@?$_Iosb@H@std@@2W4_Openmode@12@B 0051a124     libcpmtd:string.obj
 0002:00007128       ?trunc@?$_Iosb@H@std@@2W4_Openmode@12@B 0051a128     libcpmtd:string.obj
 0002:0000712c       ?_Nocreate@?$_Iosb@H@std@@2W4_Openmode@12@B 0051a12c     libcpmtd:string.obj
 0002:00007130       ?_Noreplace@?$_Iosb@H@std@@2W4_Openmode@12@B 0051a130     libcpmtd:string.obj
 0002:00007134       ?binary@?$_Iosb@H@std@@2W4_Openmode@12@B 0051a134     libcpmtd:string.obj
 0002:00007138       ?beg@?$_Iosb@H@std@@2W4_Seekdir@12@B 0051a138     libcpmtd:string.obj
 0002:0000713c       ?cur@?$_Iosb@H@std@@2W4_Seekdir@12@B 0051a13c     libcpmtd:string.obj
 0002:00007140       ?end@?$_Iosb@H@std@@2W4_Seekdir@12@B 0051a140     libcpmtd:string.obj
 0002:00007144       ??_C@_0BA@JFNIOLAK@string?5too?5long?$AA@ 0051a144     libcpmtd:string.obj
 0002:00007154       ??_C@_0BI@CFPLBAOH@invalid?5string?5position?$AA@ 0051a154     libcpmtd:string.obj
 0002:00007170       ??_7out_of_range@std@@6B@  0051a170     libcpmtd:string.obj
 0002:00007178       ??_C@_0BI@ILCMCLF@invalid?5string?5argument?$AA@ 0051a178     libcpmtd:string.obj
 0002:00007194       ??_7invalid_argument@std@@6B@ 0051a194     libcpmtd:string.obj
 0002:0000719c       ??_C@_0CO@FEHNDPFD@F?3?2SP?2vctools?2crt_bld?2SELF_X86?2c@ 0051a19c     libcpmtd:string.obj
 0002:000071d0       ??_C@_1FO@PEMFKBJI@?$AAF?$AA?3?$AA?2?$AAS?$AAP?$AA?2?$AAv?$AAc?$AAt?$AAo?$AAo?$AAl?$AAs?$AA?2?$AAc?$AAr?$AAt?$AA_?$AAb?$AAl?$AAd?$AA?2?$AAS?$AAE?$AAL?$AAF?$AA_?$AAX?$AA8?$AA6?$AA?2?$AAc@ 0051a1d0     libcpmtd:string.obj
 0002:00007234       ??_C@_0BO@GNIAFIKK@Unknown?5Runtime?5Check?5Error?6?$AN?$AA@ 0051a234     LIBCMTD:error.obj
 0002:00007254       ??_C@_0CM@NGINOKPC@Stack?5memory?5around?5_alloca?5was?5@ 0051a254     LIBCMTD:error.obj
 0002:00007280       ??_C@_0DG@HKJMLLLP@A?5local?5variable?5was?5used?5before@ 0051a280     LIBCMTD:error.obj
 0002:000072b8       ??_C@_0BN@FFOINMNJ@Stack?5memory?5was?5corrupted?6?$AN?$AA@ 0051a2b8     LIBCMTD:error.obj
 0002:000072d8       ??_C@_0BBN@GPMLNJCF@A?5cast?5to?5a?5smaller?5data?5type?5ha@ 0051a2d8     LIBCMTD:error.obj
 0002:000073f8       ??_C@_0NN@NGPKDKPD@The?5value?5of?5ESP?5was?5not?5properl@ 0051a3f8     LIBCMTD:error.obj
 0002:0000755c       ??_C@_0CA@IODNCDPG@Run?9Time?5Check?5Failure?5?$CD?$CFd?5?9?5?$CFs?$AA@ 0051a55c     LIBCMTD:error.obj
 0002:0000757c       ??_C@_0BE@GNBOBNCK@Unknown?5Module?5Name?$AA@ 0051a57c     LIBCMTD:error.obj
 0002:00007590       ??_C@_0BB@PFFGGCJP@Unknown?5Filename?$AA@ 0051a590     LIBCMTD:error.obj
 0002:000075a8       ??_C@_1EA@NFKNIFJP@?$AAR?$AAu?$AAn?$AA?9?$AAT?$AAi?$AAm?$AAe?$AA?5?$AAC?$AAh?$AAe?$AAc?$AAk?$AA?5?$AAF?$AAa?$AAi?$AAl?$AAu?$AAr?$AAe?$AA?5?$AA?$CD?$AA?$CF?$AAd?$AA?5?$AA?9?$AA?5?$AA?$CF?$AAs?$AA?$AA@ 0051a5a8     LIBCMTD:error.obj
 0002:000075e8       ??_C@_1GM@OLMCBDMB@?$AAR?$AAu?$AAn?$AAt?$AAi?$AAm?$AAe?$AA?5?$AAC?$AAh?$AAe?$AAc?$AAk?$AA?5?$AAE?$AAr?$AAr?$AAo?$AAr?$AA?4?$AA?6?$AA?$AN?$AA?5?$AAU?$AAn?$AAa?$AAb?$AAl?$AAe?$AA?5?$AAt?$AAo@ 0051a5e8     LIBCMTD:error.obj
 0002:00007654       ??_C@_0CG@IAFNJNEE@Stack?5corrupted?5near?5unknown?5var@ 0051a654     LIBCMTD:error.obj
 0002:00007680       ??_C@_0EJ@LJKNEOLN@Stack?5area?5around?5_alloca?5memory@ 0051a680     LIBCMTD:error.obj
 0002:000076cc       ??_C@_08KJEDNCKC@?$CFs?$CFs?$CFs?$CFs?$AA@ 0051a6cc     LIBCMTD:error.obj
 0002:000076d8       ??_C@_02LLMPMKNF@?$DO?5?$AA@ 0051a6d8     LIBCMTD:error.obj
 0002:000076dc       ??_C@_0BC@KIBAILCI@?$CFs?$CFs?$CFp?$CFs?$CFld?$CFs?$CFd?$CFs?$AA@ 0051a6dc     LIBCMTD:error.obj
 0002:000076f0       ??_C@_0EI@CLEPFNGI@Stack?5area?5around?5_alloca?5memory@ 0051a6f0     LIBCMTD:error.obj
 0002:00007738       ??_C@_0N@MHFFIMFG@?6Address?3?50x?$AA@ 0051a738     LIBCMTD:error.obj
 0002:00007748       ??_C@_07DFDJCKFN@?6Size?3?5?$AA@ 0051a748     LIBCMTD:error.obj
 0002:00007750       ??_C@_0CK@DKGBICFE@?6Allocation?5number?5within?5this?5f@ 0051a750     LIBCMTD:error.obj
 0002:0000777c       ??_C@_08OMAHNMHJ@?6Data?3?5?$DM?$AA@ 0051a77c     LIBCMTD:error.obj
 0002:00007788       ??_C@_09FOPFMPEJ@wsprintfA?$AA@ 0051a788     LIBCMTD:error.obj
 0002:00007794       ??_C@_0L@GMPLCCII@user32?4dll?$AA@ 0051a794     LIBCMTD:error.obj
 0002:000077a0       ??_C@_05MKKEDADM@?$CF?42X?5?$AA@ 0051a7a0     LIBCMTD:error.obj
 0002:000077a8       ??_C@_0DE@OHJBPMBP@A?5variable?5is?5being?5used?5without@ 0051a7a8     LIBCMTD:error.obj
 0002:000077dc       ??_C@_1CC@OLIJCKA@?$AA?$CI?$AAs?$AAt?$AAr?$AAi?$AAn?$AAg?$AA?5?$AA?$CB?$AA?$DN?$AA?5?$AAN?$AAU?$AAL?$AAL?$AA?$CJ?$AA?$AA@ 0051a7dc     LIBCMTD:sprintf.obj
 0002:00007800       ??_C@_1BA@KBJJGFFE@?$AAs?$AAp?$AAr?$AAi?$AAn?$AAt?$AAf?$AA?$AA@ 0051a800     LIBCMTD:sprintf.obj
 0002:00007810       ??_C@_1BE@BPBEAPLI@?$AAs?$AAp?$AAr?$AAi?$AAn?$AAt?$AAf?$AA?4?$AAc?$AA?$AA@ 0051a810     LIBCMTD:sprintf.obj
 0002:00007824       ??_C@_1CC@MGIEJOME@?$AA?$CI?$AAf?$AAo?$AAr?$AAm?$AAa?$AAt?$AA?5?$AA?$CB?$AA?$DN?$AA?5?$AAN?$AAU?$AAL?$AAL?$AA?$CJ?$AA?$AA@ 0051a824     LIBCMTD:sprintf.obj
 0002:00007848       ??_C@_1BG@KCMPBBDK@?$AA_?$AAg?$AAe?$AAt?$AA_?$AAe?$AAr?$AAr?$AAn?$AAo?$AA?$AA@ 0051a848     LIBCMTD:dosmap.obj
 0002:00007860       ??_C@_1BC@GFJPPMFE@?$AAd?$AAo?$AAs?$AAm?$AAa?$AAp?$AA?4?$AAc?$AA?$AA@ 0051a860     LIBCMTD:dosmap.obj
 0002:00007874       ??_C@_1BO@LKEBEKJP@?$AAp?$AAV?$AAa?$AAl?$AAu?$AAe?$AA?5?$AA?$CB?$AA?$DN?$AA?5?$AAN?$AAU?$AAL?$AAL?$AA?$AA@ 0051a874     LIBCMTD:dosmap.obj
 0002:00007894       ??_C@_1BM@INIPHHDD@?$AA_?$AAg?$AAe?$AAt?$AA_?$AAd?$AAo?$AAs?$AAe?$AAr?$AAr?$AAn?$AAo?$AA?$AA@ 0051a894     LIBCMTD:dosmap.obj
 0002:000078b0       ??_C@_1JE@ECKHFIFP@?$AA?$CI?$AA?$CC?$AAI?$AAn?$AAv?$AAa?$AAl?$AAi?$AAd?$AA?5?$AAf?$AAi?$AAl?$AAe?$AA?5?$AAd?$AAe?$AAs?$AAc?$AAr?$AAi?$AAp?$AAt?$AAo?$AAr?$AA?4?$AA?5?$AAF?$AAi?$AAl?$AAe?$AA?5@ 0051a8b0     LIBCMTD:fstat.obj
 0002:00007944       ??_C@_1DE@GMHIHBND@?$AA?$CI?$AA_?$AAo?$AAs?$AAf?$AAi?$AAl?$AAe?$AA?$CI?$AAf?$AAi?$AAl?$AAd?$AAe?$AAs?$AA?$CJ?$AA?5?$AA?$CG?$AA?5?$AAF?$AAO?$AAP?$AAE?$AAN?$AA?$CJ?$AA?$AA@ 0051a944     LIBCMTD:fstat.obj
 0002:00007978       ??_C@_1GO@IHCMJFJC@?$AA?$CI?$AAf?$AAi?$AAl?$AAd?$AAe?$AAs?$AA?5?$AA?$DO?$AA?$DN?$AA?5?$AA0?$AA?5?$AA?$CG?$AA?$CG?$AA?5?$AA?$CI?$AAu?$AAn?$AAs?$AAi?$AAg?$AAn?$AAe?$AAd?$AA?$CJ?$AAf?$AAi?$AAl?$AAd?$AAe?$AAs@ 0051a978     LIBCMTD:fstat.obj
 0002:000079e8       ??_C@_1BC@OPNEMFNJ@?$AA_?$AAf?$AAs?$AAt?$AAa?$AAt?$AA3?$AA2?$AA?$AA@ 0051a9e8     LIBCMTD:fstat.obj
 0002:000079fc       ??_C@_1BA@MKNMLAFD@?$AAf?$AAs?$AAt?$AAa?$AAt?$AA?4?$AAc?$AA?$AA@ 0051a9fc     LIBCMTD:fstat.obj
 0002:00007a0c       ??_C@_1BM@KFJLMBPG@?$AA?$CI?$AAb?$AAu?$AAf?$AA?5?$AA?$CB?$AA?$DN?$AA?5?$AAN?$AAU?$AAL?$AAL?$AA?$CJ?$AA?$AA@ 0051aa0c     LIBCMTD:fstat.obj
 0002:00007a28       ??_C@_1O@EGMJNCOI@?$AAf?$AAc?$AAl?$AAo?$AAs?$AAe?$AA?$AA@ 0051aa28     LIBCMTD:fclose.obj
 0002:00007a38       ??_C@_1BC@MHEDMIA@?$AAf?$AAc?$AAl?$AAo?$AAs?$AAe?$AA?4?$AAc?$AA?$AA@ 0051aa38     LIBCMTD:fclose.obj
 0002:00007a4c       ??_C@_1CC@FADMNIL@?$AA?$CI?$AAs?$AAt?$AAr?$AAe?$AAa?$AAm?$AA?5?$AA?$CB?$AA?$DN?$AA?5?$AAN?$AAU?$AAL?$AAL?$AA?$CJ?$AA?$AA@ 0051aa4c     LIBCMTD:fclose.obj
 0002:00007a70       ??_C@_1BO@JINCABEC@?$AA_?$AAf?$AAc?$AAl?$AAo?$AAs?$AAe?$AA_?$AAn?$AAo?$AAl?$AAo?$AAc?$AAk?$AA?$AA@ 0051aa70     LIBCMTD:fclose.obj
 0002:00007a90       ??_C@_1BM@JMKHIAHP@?$AA?$CI?$AAs?$AAt?$AAr?$AA?5?$AA?$CB?$AA?$DN?$AA?5?$AAN?$AAU?$AAL?$AAL?$AA?$CJ?$AA?$AA@ 0051aa90     LIBCMTD:fclose.obj
 0002:00007ab0       ??_C@_1BAE@CBLKKPB@?$AA?$CI?$AA?5?$AA?$CI?$AA_?$AAS?$AAt?$AAr?$AAe?$AAa?$AAm?$AA?9?$AA?$DO?$AA_?$AAf?$AAl?$AAa?$AAg?$AA?5?$AA?$CG?$AA?5?$AA_?$AAI?$AAO?$AAS?$AAT?$AAR?$AAG?$AA?$CJ?$AA?5?$AA?$HM?$AA?$HM?$AA?5@ 0051aab0     LIBCMTD:fgetc.obj
 0002:00007bb4       ??_C@_1M@FBFFFGJE@?$AAf?$AAg?$AAe?$AAt?$AAc?$AA?$AA@ 0051abb4     LIBCMTD:fgetc.obj
 0002:00007bc0       ??_C@_1BA@JFIGNACJ@?$AAf?$AAg?$AAe?$AAt?$AAc?$AA?4?$AAc?$AA?$AA@ 0051abc0     LIBCMTD:fgetc.obj
 0002:00007bd0       ??_C@_19OGFDBGF@?$AAg?$AAe?$AAt?$AAc?$AA?$AA@ 0051abd0     LIBCMTD:fgetc.obj
 0002:00007bdc       ??_C@_1M@CKCKPMNP@?$AAf?$AAt?$AAe?$AAl?$AAl?$AA?$AA@ 0051abdc     LIBCMTD:ftell.obj
 0002:00007be8       ??_C@_1BA@GCAMBKCO@?$AAf?$AAt?$AAe?$AAl?$AAl?$AA?4?$AAc?$AA?$AA@ 0051abe8     LIBCMTD:ftell.obj
 0002:00007bf8       ??_C@_1BM@EPIDANEK@?$AA_?$AAf?$AAt?$AAe?$AAl?$AAl?$AA_?$AAn?$AAo?$AAl?$AAo?$AAc?$AAk?$AA?$AA@ 0051abf8     LIBCMTD:ftell.obj
 0002:00007c18       ??_C@_1IO@PMHBOLJK@?$AA?$CI?$AA?$CI?$AAw?$AAh?$AAe?$AAn?$AAc?$AAe?$AA?5?$AA?$DN?$AA?$DN?$AA?5?$AAS?$AAE?$AAE?$AAK?$AA_?$AAS?$AAE?$AAT?$AA?$CJ?$AA?5?$AA?$HM?$AA?$HM?$AA?5?$AA?$CI?$AAw?$AAh?$AAe?$AAn?$AAc?$AAe@ 0051ac18     LIBCMTD:fseek.obj
 0002:00007ca8       ??_C@_1M@HCCOIONH@?$AAf?$AAs?$AAe?$AAe?$AAk?$AA?$AA@ 0051aca8     LIBCMTD:fseek.obj
 0002:00007cb4       ??_C@_1BA@PBBBJCDN@?$AAf?$AAs?$AAe?$AAe?$AAk?$AA?4?$AAc?$AA?$AA@ 0051acb4     LIBCMTD:fseek.obj
 0002:00007cc4       ??_C@_1CI@HBNALCBB@?$AA?$CI?$AA?$CK?$AAm?$AAo?$AAd?$AAe?$AA?5?$AA?$CB?$AA?$DN?$AA?5?$AA_?$AAT?$AA?$CI?$AA?8?$AA?2?$AA0?$AA?8?$AA?$CJ?$AA?$CJ?$AA?$AA@ 0051acc4     LIBCMTD:fopen.obj
 0002:00007cec       ??_C@_1BO@MJMKAKCJ@?$AA?$CI?$AAm?$AAo?$AAd?$AAe?$AA?5?$AA?$CB?$AA?$DN?$AA?5?$AAN?$AAU?$AAL?$AAL?$AA?$CJ?$AA?$AA@ 0051acec     LIBCMTD:fopen.obj
 0002:00007d0c       ??_C@_1BA@HNEAFMNL@?$AA_?$AAf?$AAs?$AAo?$AAp?$AAe?$AAn?$AA?$AA@ 0051ad0c     LIBCMTD:fopen.obj
 0002:00007d1c       ??_C@_1BA@GBANKLPE@?$AAf?$AAo?$AAp?$AAe?$AAn?$AA?4?$AAc?$AA?$AA@ 0051ad1c     LIBCMTD:fopen.obj
 0002:00007d2c       ??_C@_1BO@CLGIAEOJ@?$AA?$CI?$AAf?$AAi?$AAl?$AAe?$AA?5?$AA?$CB?$AA?$DN?$AA?5?$AAN?$AAU?$AAL?$AAL?$AA?$CJ?$AA?$AA@ 0051ad2c     LIBCMTD:fopen.obj
 0002:00007d4c       ??_C@_1BA@PBGKCCAP@?$AAf?$AAo?$AAp?$AAe?$AAn?$AA_?$AAs?$AA?$AA@ 0051ad4c     LIBCMTD:fopen.obj
 0002:00007d5c       ??_C@_1CA@LLJLFCDN@?$AA?$CI?$AAp?$AAf?$AAi?$AAl?$AAe?$AA?5?$AA?$CB?$AA?$DN?$AA?5?$AAN?$AAU?$AAL?$AAL?$AA?$CJ?$AA?$AA@ 0051ad5c     LIBCMTD:fopen.obj
 0002:00007d7c       ??_C@_1M@OIJMPNCO@?$AAf?$AAp?$AAu?$AAt?$AAc?$AA?$AA@ 0051ad7c     LIBCMTD:fputc.obj
 0002:00007d88       ??_C@_1BA@JKOBKLHJ@?$AAf?$AAp?$AAu?$AAt?$AAc?$AA?4?$AAc?$AA?$AA@ 0051ad88     LIBCMTD:fputc.obj
 0002:00007d98       ??_C@_19LHKMJKNP@?$AAp?$AAu?$AAt?$AAc?$AA?$AA@ 0051ad98     LIBCMTD:fputc.obj
 0002:00007da4       ??_C@_1BG@NDCBABF@?$AAd?$AAb?$AAg?$AAd?$AAe?$AAl?$AA?4?$AAc?$AAp?$AAp?$AA?$AA@ 0051ada4     LIBCMTD:dbgdel.obj
 0002:00007dc0       ??_C@_1EO@LHDAJOCM@?$AA_?$AAB?$AAL?$AAO?$AAC?$AAK?$AA_?$AAT?$AAY?$AAP?$AAE?$AA_?$AAI?$AAS?$AA_?$AAV?$AAA?$AAL?$AAI?$AAD?$AA?$CI?$AAp?$AAH?$AAe?$AAa?$AAd?$AA?9?$AA?$DO?$AAn?$AAB?$AAl?$AAo@ 0051adc0     LIBCMTD:dbgdel.obj
 0002:00007e10       ??_C@_1BA@CMLCEIGG@?$AAf?$AAr?$AAe?$AAa?$AAd?$AA_?$AAs?$AA?$AA@ 0051ae10     LIBCMTD:fread.obj
 0002:00007e20       ??_C@_1BA@LMNFMBJN@?$AAf?$AAr?$AAe?$AAa?$AAd?$AA?4?$AAc?$AA?$AA@ 0051ae20     LIBCMTD:fread.obj
 0002:00007e30       ??_C@_1DA@DKEFLDMG@?$AA?$CI?$AA?$CC?$AAb?$AAu?$AAf?$AAf?$AAe?$AAr?$AA?5?$AAt?$AAo?$AAo?$AA?5?$AAs?$AAm?$AAa?$AAl?$AAl?$AA?$CC?$AA?0?$AA?5?$AA0?$AA?$CJ?$AA?$AA@ 0051ae30     LIBCMTD:fread.obj
 0002:00007e60       ??_C@_1LG@DCNDJCHK@?$AA?$CI?$AA?$CC?$AAI?$AAn?$AAc?$AAo?$AAn?$AAs?$AAi?$AAs?$AAt?$AAe?$AAn?$AAt?$AA?5?$AAS?$AAt?$AAr?$AAe?$AAa?$AAm?$AA?5?$AAC?$AAo?$AAu?$AAn?$AAt?$AA?4?$AA?5?$AAF?$AAl?$AAu@ 0051ae60     LIBCMTD:fread.obj
 0002:00007f18       ??_C@_1EA@FAMECDND@?$AAn?$AAu?$AAm?$AA?5?$AA?$DM?$AA?$DN?$AA?5?$AA?$CI?$AAS?$AAI?$AAZ?$AAE?$AA_?$AAM?$AAA?$AAX?$AA?5?$AA?1?$AA?5?$AAe?$AAl?$AAe?$AAm?$AAe?$AAn?$AAt?$AAS?$AAi?$AAz?$AAe?$AA?$CJ?$AA?$AA@ 0051af18     LIBCMTD:fread.obj
 0002:00007f58       ??_C@_1CA@IDPOGFL@?$AA_?$AAf?$AAr?$AAe?$AAa?$AAd?$AA_?$AAn?$AAo?$AAl?$AAo?$AAc?$AAk?$AA_?$AAs?$AA?$AA@ 0051af58     LIBCMTD:fread.obj
 0002:00007f78       ??_C@_1CC@CGFEEBMC@?$AA?$CI?$AAb?$AAu?$AAf?$AAf?$AAe?$AAr?$AA?5?$AA?$CB?$AA?$DN?$AA?5?$AAN?$AAU?$AAL?$AAL?$AA?$CJ?$AA?$AA@ 0051af78     LIBCMTD:fread.obj
 0002:00007f9c       ??_C@_1O@KLNKIMAP@?$AAf?$AAw?$AAr?$AAi?$AAt?$AAe?$AA?$AA@ 0051af9c     LIBCMTD:fwrite.obj
 0002:00007fac       ??_C@_1BC@JOKKJJOM@?$AAf?$AAw?$AAr?$AAi?$AAt?$AAe?$AA?4?$AAc?$AA?$AA@ 0051afac     LIBCMTD:fwrite.obj
 0002:00007fc0       ??_C@_1DC@FHEPNAPF@?$AAn?$AAu?$AAm?$AA?5?$AA?$DM?$AA?$DN?$AA?5?$AA?$CI?$AAS?$AAI?$AAZ?$AAE?$AA_?$AAM?$AAA?$AAX?$AA?5?$AA?1?$AA?5?$AAs?$AAi?$AAz?$AAe?$AA?$CJ?$AA?$AA@ 0051afc0     LIBCMTD:fwrite.obj
 0002:00007ff4       ??_C@_1BO@JGPKCBCE@?$AA_?$AAf?$AAw?$AAr?$AAi?$AAt?$AAe?$AA_?$AAn?$AAo?$AAl?$AAo?$AAc?$AAk?$AA?$AA@ 0051aff4     LIBCMTD:fwrite.obj
 0002:00008014       ??_C@_1O@GKDHFACN@?$AAp?$AAr?$AAi?$AAn?$AAt?$AAf?$AA?$AA@ 0051b014     LIBCMTD:printf.obj
 0002:00008024       ??_C@_1BC@BHLBENIK@?$AAp?$AAr?$AAi?$AAn?$AAt?$AAf?$AA?4?$AAc?$AA?$AA@ 0051b024     LIBCMTD:printf.obj
 0002:00008038       ?ProcessDetach@NativeDll@<CrtImplementationDetails>@@0IB 0051b038     LIBCMTD:trnsctrl.obj
 0002:0000803c       ?ProcessAttach@NativeDll@<CrtImplementationDetails>@@0IB 0051b03c     LIBCMTD:trnsctrl.obj
 0002:00008040       ?ThreadAttach@NativeDll@<CrtImplementationDetails>@@0IB 0051b040     LIBCMTD:trnsctrl.obj
 0002:00008044       ?ThreadDetach@NativeDll@<CrtImplementationDetails>@@0IB 0051b044     LIBCMTD:trnsctrl.obj
 0002:00008048       ?ProcessVerifier@NativeDll@<CrtImplementationDetails>@@0IB 0051b048     LIBCMTD:trnsctrl.obj
 0002:0000804c       ??_C@_17LGKOMLJ@?$AA?4?$AA?4?$AA?4?$AA?$AA@ 0051b04c     LIBCMTD:dbgrptw.obj
 0002:00008054       ??_C@_1CC@CGHMNGDG@?$AAA?$AAs?$AAs?$AAe?$AAr?$AAt?$AAi?$AAo?$AAn?$AA?5?$AAF?$AAa?$AAi?$AAl?$AAe?$AAd?$AA?$AA@ 0051b054     LIBCMTD:dbgrptw.obj
 0002:00008078       ??_C@_1M@ILHOPKA@?$AAE?$AAr?$AAr?$AAo?$AAr?$AA?$AA@ 0051b078     LIBCMTD:dbgrptw.obj
 0002:00008084       ??_C@_1BA@GLMCNLEM@?$AAW?$AAa?$AAr?$AAn?$AAi?$AAn?$AAg?$AA?$AA@ 0051b084     LIBCMTD:dbgrptw.obj
 0002:00008094       ??_C@_0DA@HAFNAKMA@f?3?2sp?2vctools?2crt_bld?2self_x86?2c@ 0051b094     LIBCMTD:dbgrptw.obj
 0002:000080c8       ??_C@_1FI@PHIAFFHM@?$AA?$CI?$AA?$CC?$AAT?$AAh?$AAe?$AA?5?$AAh?$AAo?$AAo?$AAk?$AA?5?$AAf?$AAu?$AAn?$AAc?$AAt?$AAi?$AAo?$AAn?$AA?5?$AAi?$AAs?$AA?5?$AAn?$AAo?$AAt?$AA?5?$AAi?$AAn?$AA?5?$AAt?$AAh@ 0051b0c8     LIBCMTD:dbgrptw.obj
 0002:00008120       ??_C@_1CG@JBJEFOCM@?$AAp?$AAf?$AAn?$AAN?$AAe?$AAw?$AAH?$AAo?$AAo?$AAk?$AA?5?$AA?$CB?$AA?$DN?$AA?5?$AAN?$AAU?$AAL?$AAL?$AA?$AA@ 0051b120     LIBCMTD:dbgrptw.obj
 0002:00008148       ??_C@_1CI@IIHEAKEI@?$AA_?$AAC?$AAr?$AAt?$AAS?$AAe?$AAt?$AAR?$AAe?$AAp?$AAo?$AAr?$AAt?$AAH?$AAo?$AAo?$AAk?$AAW?$AA2?$AA?$AA@ 0051b148     LIBCMTD:dbgrptw.obj
 0002:00008170       ??_C@_1GA@FGIMNHGA@?$AAf?$AA?3?$AA?2?$AAs?$AAp?$AA?2?$AAv?$AAc?$AAt?$AAo?$AAo?$AAl?$AAs?$AA?2?$AAc?$AAr?$AAt?$AA_?$AAb?$AAl?$AAd?$AA?2?$AAs?$AAe?$AAl?$AAf?$AA_?$AAx?$AA8?$AA6?$AA?2?$AAc@ 0051b170     LIBCMTD:dbgrptw.obj
 0002:000081d0       ??_C@_1HI@OFEHGPPC@?$AAm?$AAo?$AAd?$AAe?$AA?5?$AA?$DN?$AA?$DN?$AA?5?$AA_?$AAC?$AAR?$AAT?$AA_?$AAR?$AAP?$AAT?$AAH?$AAO?$AAO?$AAK?$AA_?$AAI?$AAN?$AAS?$AAT?$AAA?$AAL?$AAL?$AA?5?$AA?$HM?$AA?$HM?$AA?5@ 0051b1d0     LIBCMTD:dbgrptw.obj
 0002:00008248       ??_C@_0DP@GNPEPHJD@_CrtDbgReport?3?5String?5too?5long?5o@ 0051b248     LIBCMTD:dbgrptw.obj
 0002:00008288       ??_C@_1LI@CIHKNEBA@?$AAs?$AAt?$AAr?$AAc?$AAp?$AAy?$AA_?$AAs?$AA?$CI?$AAs?$AAz?$AAa?$AAF?$AAo?$AAr?$AAm?$AAa?$AAt?$AA?0?$AA?5?$AA4?$AA0?$AA9?$AA6?$AA?0?$AA?5?$AA?$CC?$AA_?$AAC?$AAr?$AAt?$AAD@ 0051b288     LIBCMTD:dbgrptw.obj
 0002:00008340       ??_C@_1GO@BIBJILHL@?$AAw?$AAc?$AAs?$AAt?$AAo?$AAm?$AAb?$AAs?$AA_?$AAs?$AA?$CI?$AA0?$AA?0?$AA?5?$AAs?$AAz?$AAa?$AAF?$AAo?$AAr?$AAm?$AAa?$AAt?$AA?0?$AA?5?$AA4?$AA0?$AA9?$AA6?$AA?0?$AA?5?$AAs@ 0051b340     LIBCMTD:dbgrptw.obj
 0002:000083b0       ??_C@_1IK@NOIOPCJD@?$AAs?$AAt?$AAr?$AAc?$AAp?$AAy?$AA_?$AAs?$AA?$CI?$AAs?$AAz?$AAa?$AAM?$AAo?$AAd?$AAu?$AAl?$AAe?$AA?0?$AA?5?$AA4?$AA0?$AA9?$AA6?$AA?0?$AA?5?$AA?$CC?$AAE?$AAx?$AAp?$AAr?$AAe@ 0051b3b0     LIBCMTD:dbgrptw.obj
 0002:00008440       ??_C@_1GO@EIJIKMJN@?$AAw?$AAc?$AAs?$AAt?$AAo?$AAm?$AAb?$AAs?$AA_?$AAs?$AA?$CI?$AA0?$AA?0?$AA?5?$AAs?$AAz?$AAa?$AAM?$AAo?$AAd?$AAu?$AAl?$AAe?$AA?0?$AA?5?$AA4?$AA0?$AA9?$AA6?$AA?0?$AA?5?$AAs@ 0051b440     LIBCMTD:dbgrptw.obj
 0002:000084b0       ??_C@_0CI@FDIHEIE@Expression?5cannot?5be?5displayed?5o@ 0051b4b0     LIBCMTD:dbgrptw.obj
 0002:000084d8       ??_C@_1IG@KNLLJKPP@?$AAs?$AAt?$AAr?$AAc?$AAp?$AAy?$AA_?$AAs?$AA?$CI?$AAs?$AAz?$AAa?$AAF?$AAi?$AAl?$AAe?$AA?0?$AA?5?$AA4?$AA0?$AA9?$AA6?$AA?0?$AA?5?$AA?$CC?$AAE?$AAx?$AAp?$AAr?$AAe?$AAs?$AAs@ 0051b4d8     LIBCMTD:dbgrptw.obj
 0002:00008560       ??_C@_03KHICJKCI@?4?4?4?$AA@ 0051b560     LIBCMTD:dbgrptw.obj
 0002:00008564       ??_C@_1DO@CNMELOIB@?$AAs?$AAt?$AAr?$AAc?$AAa?$AAt?$AA_?$AAs?$AA?$CI?$AAs?$AAz?$AAa?$AAF?$AAi?$AAl?$AAe?$AA?0?$AA?5?$AA4?$AA0?$AA9?$AA6?$AA?0?$AA?5?$AA?$CC?$AA?4?$AA?4?$AA?4?$AA?$CC?$AA?$CJ?$AA?$AA@ 0051b564     LIBCMTD:dbgrptw.obj
 0002:000085a8       ??_C@_1GG@OHDJJHOI@?$AAw?$AAc?$AAs?$AAt?$AAo?$AAm?$AAb?$AAs?$AA_?$AAs?$AA?$CI?$AA0?$AA?0?$AA?5?$AAs?$AAz?$AAa?$AAF?$AAi?$AAl?$AAe?$AA?0?$AA?5?$AA4?$AA0?$AA9?$AA6?$AA?0?$AA?5?$AAs?$AAz?$AAF@ 0051b5a8     LIBCMTD:dbgrptw.obj
 0002:00008610       ??_C@_1DK@NLBDKACM@?$AA_?$AAg?$AAe?$AAt?$AA_?$AAo?$AAs?$AAp?$AAl?$AAa?$AAt?$AAf?$AAo?$AAr?$AAm?$AA?$CI?$AA?$CG?$AAo?$AAs?$AAp?$AAl?$AAa?$AAt?$AAf?$AAo?$AAr?$AAm?$AA?$CJ?$AA?$AA@ 0051b610     LIBCMTD:dbgrptw.obj
 0002:0000864c       ??_C@_1CA@KLAOOAPJ@?$AA_?$AAC?$AAr?$AAt?$AAD?$AAb?$AAg?$AAR?$AAe?$AAp?$AAo?$AAr?$AAt?$AAW?$AAV?$AA?$AA@ 0051b64c     LIBCMTD:dbgrptw.obj
 0002:00008670       ??_C@_1EG@PEOEAKBB@?$AAM?$AAi?$AAc?$AAr?$AAo?$AAs?$AAo?$AAf?$AAt?$AA?5?$AAV?$AAi?$AAs?$AAu?$AAa?$AAl?$AA?5?$AAC?$AA?$CL?$AA?$CL?$AA?5?$AAD?$AAe?$AAb?$AAu?$AAg?$AA?5?$AAL?$AAi?$AAb?$AAr?$AAa@ 0051b670     LIBCMTD:dbgrptw.obj
 0002:000086b8       ??_C@_1FG@BBOLDHGF@?$AA_?$AAC?$AAr?$AAt?$AAD?$AAb?$AAg?$AAR?$AAe?$AAp?$AAo?$AAr?$AAt?$AA?3?$AA?5?$AAS?$AAt?$AAr?$AAi?$AAn?$AAg?$AA?5?$AAt?$AAo?$AAo?$AA?5?$AAl?$AAo?$AAn?$AAg?$AA?5?$AAo@ 0051b6b8     LIBCMTD:dbgrptw.obj
 0002:00008710       ??_C@_1JI@EACPGHID@?$AAw?$AAc?$AAs?$AAc?$AAp?$AAy?$AA_?$AAs?$AA?$CI?$AAs?$AAz?$AAO?$AAu?$AAt?$AAM?$AAe?$AAs?$AAs?$AAa?$AAg?$AAe?$AA?0?$AA?5?$AA4?$AA0?$AA9?$AA6?$AA?0?$AA?5?$AAL?$AA?$CC?$AA_@ 0051b710     LIBCMTD:dbgrptw.obj
 0002:000087a8       ??_C@_1BI@KALLJECN@?$AA?$CI?$AA?$CK?$AA_?$AAe?$AAr?$AAr?$AAn?$AAo?$AA?$CI?$AA?$CJ?$AA?$CJ?$AA?$AA@ 0051b7a8     LIBCMTD:dbgrptw.obj
 0002:000087c0       ??_C@_1KK@MEFMPOLM@?$AAD?$AAe?$AAb?$AAu?$AAg?$AA?5?$AA?$CF?$AAs?$AA?$CB?$AA?6?$AA?6?$AAP?$AAr?$AAo?$AAg?$AAr?$AAa?$AAm?$AA?3?$AA?5?$AA?$CF?$AAs?$AA?$CF?$AAs?$AA?$CF?$AAs?$AA?$CF?$AAs?$AA?$CF?$AAs?$AA?$CF?$AAs@ 0051b7c0     LIBCMTD:dbgrptw.obj
 0002:0000886c       ??_C@_1BE@CGCJKGHI@?$AA?6?$AAM?$AAo?$AAd?$AAu?$AAl?$AAe?$AA?3?$AA?5?$AA?$AA@ 0051b86c     LIBCMTD:dbgrptw.obj
 0002:00008880       ??_C@_1BA@LNHECFIM@?$AA?6?$AAF?$AAi?$AAl?$AAe?$AA?3?$AA?5?$AA?$AA@ 0051b880     LIBCMTD:dbgrptw.obj
 0002:00008890       ??_C@_1BA@GLLGCPCK@?$AA?6?$AAL?$AAi?$AAn?$AAe?$AA?3?$AA?5?$AA?$AA@ 0051b890     LIBCMTD:dbgrptw.obj
 0002:000088a0       ??_C@_15IABLJNFO@?$AA?6?$AA?6?$AA?$AA@ 0051b8a0     LIBCMTD:dbgrptw.obj
 0002:000088a8       ??_C@_1BK@PEDCIPMA@?$AAE?$AAx?$AAp?$AAr?$AAe?$AAs?$AAs?$AAi?$AAo?$AAn?$AA?3?$AA?5?$AA?$AA@ 0051b8a8     LIBCMTD:dbgrptw.obj
 0002:000088c4       ??_C@_11LOCGONAA@?$AA?$AA@ 0051b8c4     LIBCMTD:dbgrptw.obj
 0002:000088c8       ??_C@_1OG@PMPPFHAF@?$AA?6?$AA?6?$AAF?$AAo?$AAr?$AA?5?$AAi?$AAn?$AAf?$AAo?$AAr?$AAm?$AAa?$AAt?$AAi?$AAo?$AAn?$AA?5?$AAo?$AAn?$AA?5?$AAh?$AAo?$AAw?$AA?5?$AAy?$AAo?$AAu?$AAr?$AA?5?$AAp?$AAr@ 0051b8c8     LIBCMTD:dbgrptw.obj
 0002:000089b0       ??_C@_1JM@GKDPCMEA@?$AAw?$AAc?$AAs?$AAn?$AAc?$AAp?$AAy?$AA_?$AAs?$AA?$CI?$AAs?$AAz?$AAS?$AAh?$AAo?$AAr?$AAt?$AAP?$AAr?$AAo?$AAg?$AAN?$AAa?$AAm?$AAe?$AA?0?$AA?5?$AA2?$AA6?$AA0?$AA?5?$AA?9@ 0051b9b0     LIBCMTD:dbgrptw.obj
 0002:00008a4c       ??_C@_1CO@EAEJAADC@?$AA?$DM?$AAp?$AAr?$AAo?$AAg?$AAr?$AAa?$AAm?$AA?5?$AAn?$AAa?$AAm?$AAe?$AA?5?$AAu?$AAn?$AAk?$AAn?$AAo?$AAw?$AAn?$AA?$DO?$AA?$AA@ 0051ba4c     LIBCMTD:dbgrptw.obj
 0002:00008a80       ??_C@_1GI@DEDNNLCI@?$AAw?$AAc?$AAs?$AAc?$AAp?$AAy?$AA_?$AAs?$AA?$CI?$AAs?$AAz?$AAE?$AAx?$AAe?$AAN?$AAa?$AAm?$AAe?$AA?0?$AA?5?$AA2?$AA6?$AA0?$AA?0?$AA?5?$AAL?$AA?$CC?$AA?$DM?$AAp?$AAr?$AAo?$AAg@ 0051ba80     LIBCMTD:dbgrptw.obj
 0002:00008ae8       ??_C@_1CI@PGJIFDEK@?$AA_?$AA_?$AAc?$AAr?$AAt?$AAM?$AAe?$AAs?$AAs?$AAa?$AAg?$AAe?$AAW?$AAi?$AAn?$AAd?$AAo?$AAw?$AAW?$AA?$AA@ 0051bae8     LIBCMTD:dbgrptw.obj
 0002:00008b34       ??_7type_info@@6B@         0051bb34     LIBCMTD:typinfo.obj
 0002:00008b3c       ??_7exception@std@@6B@     0051bb3c     LIBCMTD:stdexcpt.obj
 0002:00008b44       ??_C@_0BC@EOODALEL@Unknown?5exception?$AA@ 0051bb44     LIBCMTD:stdexcpt.obj
 0002:00008b5c       ??_7bad_cast@std@@6B@      0051bb5c     LIBCMTD:stdexcpt.obj
 0002:00008b68       ??_7bad_typeid@std@@6B@    0051bb68     LIBCMTD:stdexcpt.obj
 0002:00008b74       ??_7__non_rtti_object@std@@6B@ 0051bb74     LIBCMTD:stdexcpt.obj
 0002:00008b7c       ??_C@_1CK@DDKKOLAN@?$AAs?$AAi?$AAz?$AAe?$AAI?$AAn?$AAB?$AAy?$AAt?$AAe?$AAs?$AA?5?$AA?$DO?$AA?$DN?$AA?5?$AAc?$AAo?$AAu?$AAn?$AAt?$AA?$AA@ 0051bb7c     LIBCMTD:memcpy_s.obj
 0002:00008ba8       ??_C@_1BI@DCHLDCPP@?$AAs?$AAr?$AAc?$AA?5?$AA?$CB?$AA?$DN?$AA?5?$AAN?$AAU?$AAL?$AAL?$AA?$AA@ 0051bba8     LIBCMTD:memcpy_s.obj
 0002:00008bc0       ??_C@_1BC@GKHDJMGB@?$AAm?$AAe?$AAm?$AAc?$AAp?$AAy?$AA_?$AAs?$AA?$AA@ 0051bbc0     LIBCMTD:memcpy_s.obj
 0002:00008bd4       ??_C@_1BG@MKNDEPCK@?$AAm?$AAe?$AAm?$AAc?$AAp?$AAy?$AA_?$AAs?$AA?4?$AAc?$AA?$AA@ 0051bbd4     LIBCMTD:memcpy_s.obj
 0002:00008bec       ??_C@_1BI@GKKCBDMD@?$AAd?$AAs?$AAt?$AA?5?$AA?$CB?$AA?$DN?$AA?5?$AAN?$AAU?$AAL?$AAL?$AA?$AA@ 0051bbec     LIBCMTD:memcpy_s.obj
 0002:00008c04       ??_C@_1BE@NMKKBGPA@?$AAm?$AAe?$AAm?$AAm?$AAo?$AAv?$AAe?$AA_?$AAs?$AA?$AA@ 0051bc04     LIBCMTD:memmove_s.obj
 0002:00008c18       ??_C@_1BI@FBHFDPFC@?$AAm?$AAe?$AAm?$AAm?$AAo?$AAv?$AAe?$AA_?$AAs?$AA?4?$AAc?$AA?$AA@ 0051bc18     LIBCMTD:memmove_s.obj
 0002:00008c30       ??_C@_1BA@DNOHIGNM@?$AAf?$AAp?$AAr?$AAi?$AAn?$AAt?$AAf?$AA?$AA@ 0051bc30     LIBCMTD:fprintf.obj
 0002:00008c40       ??_C@_1BE@NEFIHEIC@?$AAf?$AAp?$AAr?$AAi?$AAn?$AAt?$AAf?$AA?4?$AAc?$AA?$AA@ 0051bc40     LIBCMTD:fprintf.obj
 0002:00008c54       __FPinit                   0051bc54     LIBCMTD:fpinit.obj
 0002:00008c58       __FPmtinit                 0051bc58     LIBCMTD:fpinit.obj
 0002:00008c5c       __FPmtterm                 0051bc5c     LIBCMTD:fpinit.obj
 0002:00008c60       ??_C@_1BA@LCFKCAGP@?$AAv?$AAf?$AAs?$AAc?$AAa?$AAn?$AAf?$AA?$AA@ 0051bc60     LIBCMTD:fscanf.obj
 0002:00008c70       ??_C@_1BC@JCJGIEN@?$AAf?$AAs?$AAc?$AAa?$AAn?$AAf?$AA?4?$AAc?$AA?$AA@ 0051bc70     LIBCMTD:fscanf.obj
 0002:00008c84       ??_C@_19LPGIFIDB@?$AAf?$AAe?$AAo?$AAf?$AA?$AA@ 0051bc84     LIBCMTD:feoferr.obj
 0002:00008c90       ??_C@_1BE@CDIFGKNE@?$AAf?$AAe?$AAo?$AAf?$AAe?$AAr?$AAr?$AA?4?$AAc?$AA?$AA@ 0051bc90     LIBCMTD:feoferr.obj
 0002:00008ca4       ??_C@_1O@MOPHEPGP@?$AAf?$AAe?$AAr?$AAr?$AAo?$AAr?$AA?$AA@ 0051bca4     LIBCMTD:feoferr.obj
 0002:00008cb4       ??_C@_1BC@KMGJCMNP@?$AAv?$AAs?$AAc?$AAa?$AAn?$AA_?$AAf?$AAn?$AA?$AA@ 0051bcb4     LIBCMTD:sscanf.obj
 0002:00008cc8       ??_C@_1BC@MDHAFFLC@?$AAs?$AAs?$AAc?$AAa?$AAn?$AAf?$AA?4?$AAc?$AA?$AA@ 0051bcc8     LIBCMTD:sscanf.obj
 0002:00008cdc       ___dnames                  0051bcdc     LIBCMTD:timeset.obj
 0002:00008cf4       ___mnames                  0051bcf4     LIBCMTD:timeset.obj
 0002:00008d1c       ??_C@_1BM@FIMHBHEB@?$AA_?$AAg?$AAe?$AAt?$AA_?$AAd?$AAa?$AAy?$AAl?$AAi?$AAg?$AAh?$AAt?$AA?$AA@ 0051bd1c     LIBCMTD:timeset.obj
 0002:00008d38       ??_C@_1BE@OINBFMF@?$AAt?$AAi?$AAm?$AAe?$AAs?$AAe?$AAt?$AA?4?$AAc?$AA?$AA@ 0051bd38     LIBCMTD:timeset.obj
 0002:00008d4c       ??_C@_1CI@MKJEHFPG@?$AA?$CI?$AA_?$AAD?$AAa?$AAy?$AAl?$AAi?$AAg?$AAh?$AAt?$AA?5?$AA?$CB?$AA?$DN?$AA?5?$AAN?$AAU?$AAL?$AAL?$AA?$CJ?$AA?$AA@ 0051bd4c     LIBCMTD:timeset.obj
 0002:00008d74       ??_C@_1BK@EMODDHEE@?$AA_?$AAg?$AAe?$AAt?$AA_?$AAd?$AAs?$AAt?$AAb?$AAi?$AAa?$AAs?$AA?$AA@ 0051bd74     LIBCMTD:timeset.obj
 0002:00008d90       ??_C@_1EC@PKDJPAAB@?$AA?$CI?$AA_?$AAD?$AAa?$AAy?$AAl?$AAi?$AAg?$AAh?$AAt?$AA_?$AAs?$AAa?$AAv?$AAi?$AAn?$AAg?$AAs?$AA_?$AAb?$AAi?$AAa?$AAs?$AA?5?$AA?$CB?$AA?$DN?$AA?5?$AAN?$AAU?$AAL?$AAL?$AA?$CJ@ 0051bd90     LIBCMTD:timeset.obj
 0002:00008dd4       ??_C@_1BM@MGEAKPEJ@?$AA_?$AAg?$AAe?$AAt?$AA_?$AAt?$AAi?$AAm?$AAe?$AAz?$AAo?$AAn?$AAe?$AA?$AA@ 0051bdd4     LIBCMTD:timeset.obj
 0002:00008df0       ??_C@_1CI@PODJJGAL@?$AA?$CI?$AA_?$AAT?$AAi?$AAm?$AAe?$AAz?$AAo?$AAn?$AAe?$AA?5?$AA?$CB?$AA?$DN?$AA?5?$AAN?$AAU?$AAL?$AAL?$AA?$CJ?$AA?$AA@ 0051bdf0     LIBCMTD:timeset.obj
 0002:00008e18       ??_C@_1DG@HLGKANIP@?$AA_?$AAI?$AAn?$AAd?$AAe?$AAx?$AA?5?$AA?$DN?$AA?$DN?$AA?5?$AA0?$AA?5?$AA?$HM?$AA?$HM?$AA?5?$AA_?$AAI?$AAn?$AAd?$AAe?$AAx?$AA?5?$AA?$DN?$AA?$DN?$AA?5?$AA1?$AA?$AA@ 0051be18     LIBCMTD:timeset.obj
 0002:00008e50       ??_C@_1CK@GBKHKEI@?$AA_?$AAR?$AAe?$AAt?$AAu?$AAr?$AAn?$AAV?$AAa?$AAl?$AAu?$AAe?$AA?5?$AA?$CB?$AA?$DN?$AA?5?$AAN?$AAU?$AAL?$AAL?$AA?$AA@ 0051be50     LIBCMTD:timeset.obj
 0002:00008e7c       ??_C@_1BI@BHCKCCFA@?$AA_?$AAg?$AAe?$AAt?$AA_?$AAt?$AAz?$AAn?$AAa?$AAm?$AAe?$AA?$AA@ 0051be7c     LIBCMTD:timeset.obj
 0002:00008e98       ??_C@_1KA@POFLNEC@?$AA?$CI?$AA_?$AAB?$AAu?$AAf?$AAf?$AAe?$AAr?$AA?5?$AA?$CB?$AA?$DN?$AA?5?$AAN?$AAU?$AAL?$AAL?$AA?5?$AA?$CG?$AA?$CG?$AA?5?$AA_?$AAS?$AAi?$AAz?$AAe?$AAI?$AAn?$AAB?$AAy?$AAt?$AAe?$AAs@ 0051be98     LIBCMTD:timeset.obj
 0002:00008f38       ??_C@_1DC@CMKCHHFC@?$AA_?$AAg?$AAe?$AAt?$AA_?$AAt?$AAi?$AAm?$AAe?$AAz?$AAo?$AAn?$AAe?$AA?$CI?$AA?$CG?$AAt?$AAi?$AAm?$AAe?$AAz?$AAo?$AAn?$AAe?$AA?$CJ?$AA?$AA@ 0051bf38     LIBCMTD:loctim64.obj
 0002:00008f6c       ??_C@_1CO@IMMOMMCB@?$AA_?$AAg?$AAe?$AAt?$AA_?$AAd?$AAs?$AAt?$AAb?$AAi?$AAa?$AAs?$AA?$CI?$AA?$CG?$AAd?$AAs?$AAt?$AAb?$AAi?$AAa?$AAs?$AA?$CJ?$AA?$AA@ 0051bf6c     LIBCMTD:loctim64.obj
 0002:00008f9c       ??_C@_1DC@MEHEMOPB@?$AA_?$AAg?$AAe?$AAt?$AA_?$AAd?$AAa?$AAy?$AAl?$AAi?$AAg?$AAh?$AAt?$AA?$CI?$AA?$CG?$AAd?$AAa?$AAy?$AAl?$AAi?$AAg?$AAh?$AAt?$AA?$CJ?$AA?$AA@ 0051bf9c     LIBCMTD:loctim64.obj
 0002:00008fd0       ??_C@_1DG@DHJKDLHN@?$AA?$CI?$AA?$CK?$AAp?$AAt?$AAi?$AAm?$AAe?$AA?5?$AA?$DM?$AA?$DN?$AA?5?$AA_?$AAM?$AAA?$AAX?$AA_?$AA_?$AAT?$AAI?$AAM?$AAE?$AA6?$AA4?$AA_?$AAT?$AA?$CJ?$AA?$AA@ 0051bfd0     LIBCMTD:loctim64.obj
 0002:00009008       ??_C@_1CE@EHHPAMNN@?$AA?$CI?$AA?5?$AAp?$AAt?$AAi?$AAm?$AAe?$AA?5?$AA?$CB?$AA?$DN?$AA?5?$AAN?$AAU?$AAL?$AAL?$AA?5?$AA?$CJ?$AA?$AA@ 0051c008     LIBCMTD:loctim64.obj
 0002:0000902c       ??_C@_1BO@OIBEEOEM@?$AA_?$AAl?$AAo?$AAc?$AAa?$AAl?$AAt?$AAi?$AAm?$AAe?$AA6?$AA4?$AA_?$AAs?$AA?$AA@ 0051c02c     LIBCMTD:loctim64.obj
 0002:0000904c       ??_C@_1BG@EBENKOFH@?$AAl?$AAo?$AAc?$AAt?$AAi?$AAm?$AA6?$AA4?$AA?4?$AAc?$AA?$AA@ 0051c04c     LIBCMTD:loctim64.obj
 0002:00009064       ??_C@_1CA@NJFECEIO@?$AA?$CI?$AA?5?$AAp?$AAt?$AAm?$AA?5?$AA?$CB?$AA?$DN?$AA?5?$AAN?$AAU?$AAL?$AAL?$AA?5?$AA?$CJ?$AA?$AA@ 0051c064     LIBCMTD:loctim64.obj
 0002:00009084       ??_C@_08GNMOIKDK@onexit?4c?$AA@ 0051c084     LIBCMTD:onexit.obj
 0002:00009090       ??_C@_1M@LIIFKKLB@?$AAf?$AAp?$AAu?$AAt?$AAs?$AA?$AA@ 0051c090     LIBCMTD:fputs.obj
 0002:0000909c       ??_C@_1BA@OGFKJKFC@?$AAf?$AAp?$AAu?$AAt?$AAs?$AA?4?$AAc?$AA?$AA@ 0051c09c     LIBCMTD:fputs.obj
 0002:000090ac       ??_C@_07PNHPCIEC@_file?4c?$AA@ 0051c0ac     LIBCMTD:_file.obj
 0002:000090b4       ??_C@_06PJIGMIJB@Client?$AA@ 0051c0b4     LIBCMTD:dbgheap.obj
 0002:000090bc       ??_C@_06KMEJCCGM@Ignore?$AA@ 0051c0bc     LIBCMTD:dbgheap.obj
 0002:000090c4       ??_C@_03OGPFLFLO@CRT?$AA@  0051c0c4     LIBCMTD:dbgheap.obj
 0002:000090c8       ??_C@_06EFAGIKOH@Normal?$AA@ 0051c0c8     LIBCMTD:dbgheap.obj
 0002:000090d0       ??_C@_04HJMOFLDF@Free?$AA@ 0051c0d0     LIBCMTD:dbgheap.obj
 0002:000090ec       ??_C@_0DC@JEMAGEKG@Error?3?5memory?5allocation?3?5bad?5me@ 0051c0ec     LIBCMTD:dbgheap.obj
 0002:00009120       ??_C@_0CF@BICKFLAF@Invalid?5allocation?5size?3?5?$CFIu?5byt@ 0051c120     LIBCMTD:dbgheap.obj
 0002:00009148       ??_C@_02DKCKIIND@?$CFs?$AA@ 0051c148     LIBCMTD:dbgheap.obj
 0002:0000914c       ??_C@_0CB@CCLOLAHO@Client?5hook?5allocation?5failure?4?6@ 0051c14c     LIBCMTD:dbgheap.obj
 0002:00009170       ??_C@_0DF@BBEGIFEK@Client?5hook?5allocation?5failure?5a@ 0051c170     LIBCMTD:dbgheap.obj
 0002:000091a8       ??_C@_1BE@DOFBOBGF@?$AAd?$AAb?$AAg?$AAh?$AAe?$AAa?$AAp?$AA?4?$AAc?$AA?$AA@ 0051c1a8     LIBCMTD:dbgheap.obj
 0002:000091bc       ??_C@_1CE@LJFEPPMP@?$AA_?$AAC?$AAr?$AAt?$AAC?$AAh?$AAe?$AAc?$AAk?$AAM?$AAe?$AAm?$AAo?$AAr?$AAy?$AA?$CI?$AA?$CJ?$AA?$AA@ 0051c1bc     LIBCMTD:dbgheap.obj
 0002:000091e0       ??_C@_1BI@MIPBBENM@?$AA_?$AAc?$AAa?$AAl?$AAl?$AAo?$AAc?$AA_?$AAd?$AAb?$AAg?$AA?$AA@ 0051c1e0     LIBCMTD:dbgheap.obj
 0002:000091f8       ??_C@_1DO@MEOGCGBN@?$AA?$CI?$AA_?$AAH?$AAE?$AAA?$AAP?$AA_?$AAM?$AAA?$AAX?$AAR?$AAE?$AAQ?$AA?5?$AA?1?$AA?5?$AAn?$AAN?$AAu?$AAm?$AA?$CJ?$AA?5?$AA?$DO?$AA?$DN?$AA?5?$AAn?$AAS?$AAi?$AAz?$AAe?$AA?$AA@ 0051c1f8     LIBCMTD:dbgheap.obj
 0002:00009238       ??_C@_1DE@KOOKLFBB@?$AA_?$AAp?$AAF?$AAi?$AAr?$AAs?$AAt?$AAB?$AAl?$AAo?$AAc?$AAk?$AA?5?$AA?$DN?$AA?$DN?$AA?5?$AAp?$AAO?$AAl?$AAd?$AAB?$AAl?$AAo?$AAc?$AAk?$AA?$AA@ 0051c238     LIBCMTD:dbgheap.obj
 0002:0000926c       ??_C@_1DC@GEFKNOOL@?$AA_?$AAp?$AAL?$AAa?$AAs?$AAt?$AAB?$AAl?$AAo?$AAc?$AAk?$AA?5?$AA?$DN?$AA?$DN?$AA?5?$AAp?$AAO?$AAl?$AAd?$AAB?$AAl?$AAo?$AAc?$AAk?$AA?$AA@ 0051c26c     LIBCMTD:dbgheap.obj
 0002:000092a0       ??_C@_1GE@PCKLOLAO@?$AAf?$AAR?$AAe?$AAa?$AAl?$AAl?$AAo?$AAc?$AA?5?$AA?$HM?$AA?$HM?$AA?5?$AA?$CI?$AA?$CB?$AAf?$AAR?$AAe?$AAa?$AAl?$AAl?$AAo?$AAc?$AA?5?$AA?$CG?$AA?$CG?$AA?5?$AAp?$AAN?$AAe?$AAw?$AAB?$AAl@ 0051c2a0     LIBCMTD:dbgheap.obj
 0002:00009308       ??_C@_1IK@DCPKDGNH@?$AAp?$AAO?$AAl?$AAd?$AAB?$AAl?$AAo?$AAc?$AAk?$AA?9?$AA?$DO?$AAn?$AAL?$AAi?$AAn?$AAe?$AA?5?$AA?$DN?$AA?$DN?$AA?5?$AAI?$AAG?$AAN?$AAO?$AAR?$AAE?$AA_?$AAL?$AAI?$AAN?$AAE?$AA?5@ 0051c308     LIBCMTD:dbgheap.obj
 0002:00009398       ??_C@_1EE@GFOPCECE@?$AA_?$AAC?$AAr?$AAt?$AAI?$AAs?$AAV?$AAa?$AAl?$AAi?$AAd?$AAH?$AAe?$AAa?$AAp?$AAP?$AAo?$AAi?$AAn?$AAt?$AAe?$AAr?$AA?$CI?$AAp?$AAU?$AAs?$AAe?$AAr?$AAD?$AAa?$AAt?$AAa@ 0051c398     LIBCMTD:dbgheap.obj
 0002:000093e0       ??_C@_0EM@LGFLMAGJ@The?5Block?5at?50x?$CFp?5was?5allocated?5@ 0051c3e0     LIBCMTD:dbgheap.obj
 0002:00009430       ??_C@_0FA@EFEIGJKG@Error?3?5memory?5allocation?3?5bad?5me@ 0051c430     LIBCMTD:dbgheap.obj
 0002:00009480       ??_C@_0ED@GPCPBAGP@Invalid?5allocation?5size?3?5?$CFIu?5byt@ 0051c480     LIBCMTD:dbgheap.obj
 0002:000094c4       ??_C@_0CE@DOFMDOL@Client?5hook?5re?9allocation?5failur@ 0051c4c4     LIBCMTD:dbgheap.obj
 0002:000094e8       ??_C@_0DI@KKJPDPGM@Client?5hook?5re?9allocation?5failur@ 0051c4e8     LIBCMTD:dbgheap.obj
 0002:00009520       ??_C@_1BM@OKFKJCEN@?$AA_?$AAr?$AAe?$AAc?$AAa?$AAl?$AAl?$AAo?$AAc?$AA_?$AAd?$AAb?$AAg?$AA?$AA@ 0051c520     LIBCMTD:dbgheap.obj
 0002:0000953c       ??_C@_1DO@GOKJCEHJ@?$AA?$CI?$AA_?$AAH?$AAE?$AAA?$AAP?$AA_?$AAM?$AAA?$AAX?$AAR?$AAE?$AAQ?$AA?5?$AA?1?$AA?5?$AAc?$AAo?$AAu?$AAn?$AAt?$AA?$CJ?$AA?5?$AA?$DO?$AA?$DN?$AA?5?$AAs?$AAi?$AAz?$AAe?$AA?$AA@ 0051c53c     LIBCMTD:dbgheap.obj
 0002:0000957c       ??_C@_1BI@HAPNGHDP@?$AA_?$AAe?$AAx?$AAp?$AAa?$AAn?$AAd?$AA_?$AAd?$AAb?$AAg?$AA?$AA@ 0051c57c     LIBCMTD:dbgheap.obj
 0002:00009594       ??_C@_1CE@CJACEFBA@?$AAp?$AAU?$AAs?$AAe?$AAr?$AAD?$AAa?$AAt?$AAa?$AA?5?$AA?$CB?$AA?$DN?$AA?5?$AAN?$AAU?$AAL?$AAL?$AA?$AA@ 0051c594     LIBCMTD:dbgheap.obj
 0002:000095b8       ??_C@_1CM@MMAADDMD@?$AA_?$AAp?$AAF?$AAi?$AAr?$AAs?$AAt?$AAB?$AAl?$AAo?$AAc?$AAk?$AA?5?$AA?$DN?$AA?$DN?$AA?5?$AAp?$AAH?$AAe?$AAa?$AAd?$AA?$AA@ 0051c5b8     LIBCMTD:dbgheap.obj
 0002:000095e4       ??_C@_1CK@DMAGEMBG@?$AA_?$AAp?$AAL?$AAa?$AAs?$AAt?$AAB?$AAl?$AAo?$AAc?$AAk?$AA?5?$AA?$DN?$AA?$DN?$AA?5?$AAp?$AAH?$AAe?$AAa?$AAd?$AA?$AA@ 0051c5e4     LIBCMTD:dbgheap.obj
 0002:00009610       ??_C@_1DM@ODCJIDCP@?$AAp?$AAH?$AAe?$AAa?$AAd?$AA?9?$AA?$DO?$AAn?$AAB?$AAl?$AAo?$AAc?$AAk?$AAU?$AAs?$AAe?$AA?5?$AA?$DN?$AA?$DN?$AA?5?$AAn?$AAB?$AAl?$AAo?$AAc?$AAk?$AAU?$AAs?$AAe?$AA?$AA@ 0051c610     LIBCMTD:dbgheap.obj
 0002:00009650       ??_C@_1HK@HPCBMDFG@?$AAp?$AAH?$AAe?$AAa?$AAd?$AA?9?$AA?$DO?$AAn?$AAL?$AAi?$AAn?$AAe?$AA?5?$AA?$DN?$AA?$DN?$AA?5?$AAI?$AAG?$AAN?$AAO?$AAR?$AAE?$AA_?$AAL?$AAI?$AAN?$AAE?$AA?5?$AA?$CG?$AA?$CG?$AA?5?$AAp@ 0051c650     LIBCMTD:dbgheap.obj
 0002:000096d0       ??_C@_0IG@LEMBDCJK@HEAP?5CORRUPTION?5DETECTED?3?5after?5@ 0051c6d0     LIBCMTD:dbgheap.obj
 0002:00009758       ??_C@_0KE@MBMNHHHN@HEAP?5CORRUPTION?5DETECTED?3?5after?5@ 0051c758     LIBCMTD:dbgheap.obj
 0002:00009800       ??_C@_0IK@PJCGLBOB@HEAP?5CORRUPTION?5DETECTED?3?5before@ 0051c800     LIBCMTD:dbgheap.obj
 0002:00009890       ??_C@_0KI@JGFOHMEB@HEAP?5CORRUPTION?5DETECTED?3?5before@ 0051c890     LIBCMTD:dbgheap.obj
 0002:00009938       ??_C@_0BL@KEIPLFAC@Client?5hook?5free?5failure?4?6?$AA@ 0051c938     LIBCMTD:dbgheap.obj
 0002:00009958       ??_C@_0EJ@HEIBCIMJ@The?5Block?5at?50x?$CFp?5was?5allocated?5@ 0051c958     LIBCMTD:dbgheap.obj
 0002:000099a4       ??_C@_1BG@MBKOGDLD@?$AA_?$AAm?$AAs?$AAi?$AAz?$AAe?$AA_?$AAd?$AAb?$AAg?$AA?$AA@ 0051c9a4     LIBCMTD:dbgheap.obj
 0002:000099bc       ??_C@_0CI@JMLBEDHJ@?$CFhs?5located?5at?50x?$CFp?5is?5?$CFIu?5bytes@ 0051c9bc     LIBCMTD:dbgheap.obj
 0002:000099e8       ??_C@_0EG@DGJMPDBH@?$CFhs?5located?5at?50x?$CFp?5is?5?$CFIu?5bytes@ 0051c9e8     LIBCMTD:dbgheap.obj
 0002:00009a30       ??_C@_0IC@BBJIOOJH@HEAP?5CORRUPTION?5DETECTED?3?5on?5top@ 0051ca30     LIBCMTD:dbgheap.obj
 0002:00009ab8       ??_C@_0KA@IHNJJKPL@HEAP?5CORRUPTION?5DETECTED?3?5on?5top@ 0051cab8     LIBCMTD:dbgheap.obj
 0002:00009b58       ??_C@_07OHKEFPKJ@DAMAGED?$AA@ 0051cb58     LIBCMTD:dbgheap.obj
 0002:00009b60       ??_C@_0CL@HNNNMKMJ@_heapchk?5fails?5with?5unknown?5retu@ 0051cb60     LIBCMTD:dbgheap.obj
 0002:00009b8c       ??_C@_0CC@MFFCHFHO@_heapchk?5fails?5with?5_HEAPBADPTR?4@ 0051cb8c     LIBCMTD:dbgheap.obj
 0002:00009bb0       ??_C@_0CC@MJGLGBDG@_heapchk?5fails?5with?5_HEAPBADEND?4@ 0051cbb0     LIBCMTD:dbgheap.obj
 0002:00009bd4       ??_C@_0CD@CPKEAPBD@_heapchk?5fails?5with?5_HEAPBADNODE@ 0051cbd4     LIBCMTD:dbgheap.obj
 0002:00009bf8       ??_C@_0CE@MKKHMBMK@_heapchk?5fails?5with?5_HEAPBADBEGI@ 0051cbf8     LIBCMTD:dbgheap.obj
 0002:00009c1c       ??_C@_1BO@GJFDNMNF@?$AA_?$AAC?$AAr?$AAt?$AAS?$AAe?$AAt?$AAD?$AAb?$AAg?$AAF?$AAl?$AAa?$AAg?$AA?$AA@ 0051cc1c     LIBCMTD:dbgheap.obj
 0002:00009c40       ??_C@_1BHO@NNANJNF@?$AA?$CI?$AAf?$AAN?$AAe?$AAw?$AAB?$AAi?$AAt?$AAs?$AA?$DN?$AA?$DN?$AA_?$AAC?$AAR?$AAT?$AAD?$AAB?$AAG?$AA_?$AAR?$AAE?$AAP?$AAO?$AAR?$AAT?$AA_?$AAF?$AAL?$AAA?$AAG?$AA?$CJ?$AA?5@ 0051cc40     LIBCMTD:dbgheap.obj
 0002:00009dc0       ??_C@_1DE@GJCKCKEC@?$AA_?$AAC?$AAr?$AAt?$AAD?$AAo?$AAF?$AAo?$AAr?$AAA?$AAl?$AAl?$AAC?$AAl?$AAi?$AAe?$AAn?$AAt?$AAO?$AAb?$AAj?$AAe?$AAc?$AAt?$AAs?$AA?$AA@ 0051cdc0     LIBCMTD:dbgheap.obj
 0002:00009df4       ??_C@_1BI@CJGCEEDL@?$AAp?$AAf?$AAn?$AA?5?$AA?$CB?$AA?$DN?$AA?5?$AAN?$AAU?$AAL?$AAL?$AA?$AA@ 0051cdf4     LIBCMTD:dbgheap.obj
 0002:00009e0c       ??_C@_1CG@DGPPLLPG@?$AA_?$AAg?$AAe?$AAt?$AA_?$AAo?$AAs?$AAv?$AAe?$AAr?$AA?$CI?$AA?$CG?$AAo?$AAs?$AAv?$AAe?$AAr?$AA?$CJ?$AA?$AA@ 0051ce0c     LIBCMTD:dbgheap.obj
 0002:00009e34       ??_C@_1CO@JHPAACDJ@?$AA_?$AAC?$AAr?$AAt?$AAI?$AAs?$AAV?$AAa?$AAl?$AAi?$AAd?$AAH?$AAe?$AAa?$AAp?$AAP?$AAo?$AAi?$AAn?$AAt?$AAe?$AAr?$AA?$AA@ 0051ce34     LIBCMTD:dbgheap.obj
 0002:00009e64       ??_C@_0CB@EAAIGELO@Bad?5memory?5block?5found?5at?50x?$CFp?4?6@ 0051ce64     LIBCMTD:dbgheap.obj
 0002:00009e88       ??_C@_0DP@LEFMFBOD@Bad?5memory?5block?5found?5at?50x?$CFp?4?6@ 0051ce88     LIBCMTD:dbgheap.obj
 0002:00009ec8       ??_C@_1CE@NJJKELF@?$AA_?$AAC?$AAr?$AAt?$AAM?$AAe?$AAm?$AAC?$AAh?$AAe?$AAc?$AAk?$AAp?$AAo?$AAi?$AAn?$AAt?$AA?$AA@ 0051cec8     LIBCMTD:dbgheap.obj
 0002:00009eec       ??_C@_1BM@MIMANDHC@?$AAs?$AAt?$AAa?$AAt?$AAe?$AA?5?$AA?$CB?$AA?$DN?$AA?5?$AAN?$AAU?$AAL?$AAL?$AA?$AA@ 0051ceec     LIBCMTD:dbgheap.obj
 0002:00009f08       ??_C@_1CC@DFPEDFBP@?$AAn?$AAe?$AAw?$AAS?$AAt?$AAa?$AAt?$AAe?$AA?5?$AA?$CB?$AA?$DN?$AA?5?$AAN?$AAU?$AAL?$AAL?$AA?$AA@ 0051cf08     LIBCMTD:dbgheap.obj
 0002:00009f2c       ??_C@_1CC@DHPFEMMN@?$AAo?$AAl?$AAd?$AAS?$AAt?$AAa?$AAt?$AAe?$AA?5?$AA?$CB?$AA?$DN?$AA?5?$AAN?$AAU?$AAL?$AAL?$AA?$AA@ 0051cf2c     LIBCMTD:dbgheap.obj
 0002:00009f50       ??_C@_1CE@PDIENACM@?$AA_?$AAC?$AAr?$AAt?$AAM?$AAe?$AAm?$AAD?$AAi?$AAf?$AAf?$AAe?$AAr?$AAe?$AAn?$AAc?$AAe?$AA?$AA@ 0051cf50     LIBCMTD:dbgheap.obj
 0002:00009f74       ??_C@_0BH@GFGKJDCO@Object?5dump?5complete?4?6?$AA@ 0051cf74     LIBCMTD:dbgheap.obj
 0002:00009f8c       ??_C@_0DA@MDLBNIBM@crt?5block?5at?50x?$CFp?0?5subtype?5?$CFx?0?5?$CF@ 0051cf8c     LIBCMTD:dbgheap.obj
 0002:00009fbc       ??_C@_0CH@FAGDDGPN@normal?5block?5at?50x?$CFp?0?5?$CFIu?5bytes?5@ 0051cfbc     LIBCMTD:dbgheap.obj
 0002:00009fe4       ??_C@_0DD@GHNAAKBB@client?5block?5at?50x?$CFp?0?5subtype?5?$CFx@ 0051cfe4     LIBCMTD:dbgheap.obj
 0002:0000a018       ??_C@_06PKLGBFGM@?$HL?$CFld?$HN?5?$AA@ 0051d018     LIBCMTD:dbgheap.obj
 0002:0000a020       ??_C@_0L@JMEFFCCJ@?$CFhs?$CI?$CFd?$CJ?5?3?5?$AA@ 0051d020     LIBCMTD:dbgheap.obj
 0002:0000a02c       ??_C@_0BE@OIEFNFL@?$CDFile?5Error?$CD?$CI?$CFd?$CJ?5?3?5?$AA@ 0051d02c     LIBCMTD:dbgheap.obj
 0002:0000a040       ??_C@_0BE@KCIPKCIA@Dumping?5objects?5?9?$DO?6?$AA@ 0051d040     LIBCMTD:dbgheap.obj
 0002:0000a054       ??_C@_0BA@HJBKCELP@?5Data?3?5?$DM?$CFs?$DO?5?$CFs?6?$AA@ 0051d054     LIBCMTD:dbgheap.obj
 0002:0000a064       ??_C@_1CG@LPFIACGM@?$AA_?$AAp?$AAr?$AAi?$AAn?$AAt?$AAM?$AAe?$AAm?$AAB?$AAl?$AAo?$AAc?$AAk?$AAD?$AAa?$AAt?$AAa?$AA?$AA@ 0051d064     LIBCMTD:dbgheap.obj
 0002:0000a08c       ??_C@_0BI@JBFPOEJA@Detected?5memory?5leaks?$CB?6?$AA@ 0051d08c     LIBCMTD:dbgheap.obj
 0002:0000a0a4       ??_C@_0BP@DEDHGGGI@Total?5allocations?3?5?$CFId?5bytes?4?6?$AA@ 0051d0a4     LIBCMTD:dbgheap.obj
 0002:0000a0c4       ??_C@_0CB@BLHDAFNE@Largest?5number?5used?3?5?$CFId?5bytes?4?6@ 0051d0c4     LIBCMTD:dbgheap.obj
 0002:0000a0e8       ??_C@_0BO@DACNIABB@?$CFId?5bytes?5in?5?$CFId?5?$CFhs?5Blocks?4?6?$AA@ 0051d0e8     LIBCMTD:dbgheap.obj
 0002:0000a108       ??_C@_1CM@MPNIBKGK@?$AA_?$AAC?$AAr?$AAt?$AAM?$AAe?$AAm?$AAD?$AAu?$AAm?$AAp?$AAS?$AAt?$AAa?$AAt?$AAi?$AAs?$AAt?$AAi?$AAc?$AAs?$AA?$AA@ 0051d108     LIBCMTD:dbgheap.obj
 0002:0000a134       ??_C@_1DK@LFLKFPDA@?$AAo?$AAf?$AAf?$AAs?$AAe?$AAt?$AA?5?$AA?$DN?$AA?$DN?$AA?5?$AA0?$AA?5?$AA?$HM?$AA?$HM?$AA?5?$AAo?$AAf?$AAf?$AAs?$AAe?$AAt?$AA?5?$AA?$DM?$AA?5?$AAs?$AAi?$AAz?$AAe?$AA?$AA@ 0051d134     LIBCMTD:dbgheap.obj
 0002:0000a170       ??_C@_1DG@DONCJBBJ@?$AA_?$AAa?$AAl?$AAi?$AAg?$AAn?$AAe?$AAd?$AA_?$AAo?$AAf?$AAf?$AAs?$AAe?$AAt?$AA_?$AAm?$AAa?$AAl?$AAl?$AAo?$AAc?$AA_?$AAd?$AAb?$AAg?$AA?$AA@ 0051d170     LIBCMTD:dbgheap.obj
 0002:0000a1a8       ??_C@_1CE@NPMGPNNP@?$AAI?$AAS?$AA_?$AA2?$AA_?$AAP?$AAO?$AAW?$AA_?$AAN?$AA?$CI?$AAa?$AAl?$AAi?$AAg?$AAn?$AA?$CJ?$AA?$AA@ 0051d1a8     LIBCMTD:dbgheap.obj
 0002:0000a1cc       ??_C@_1DI@NINIKFFK@?$AA_?$AAa?$AAl?$AAi?$AAg?$AAn?$AAe?$AAd?$AA_?$AAo?$AAf?$AAf?$AAs?$AAe?$AAt?$AA_?$AAr?$AAe?$AAa?$AAl?$AAl?$AAo?$AAc?$AA_?$AAd?$AAb?$AAg?$AA?$AA@ 0051d1cc     LIBCMTD:dbgheap.obj
 0002:0000a204       ??_C@_0DL@PGHMMKNE@Damage?5before?50x?$CFp?5which?5was?5all@ 0051d204     LIBCMTD:dbgheap.obj
 0002:0000a240       ??_C@_0EI@NDNJMAJK@The?5block?5at?50x?$CFp?5was?5not?5alloca@ 0051d240     LIBCMTD:dbgheap.obj
 0002:0000a288       ??_C@_1DK@MMLHIFFH@?$AA_?$AAa?$AAl?$AAi?$AAg?$AAn?$AAe?$AAd?$AA_?$AAo?$AAf?$AAf?$AAs?$AAe?$AAt?$AA_?$AAr?$AAe?$AAc?$AAa?$AAl?$AAl?$AAo?$AAc?$AA_?$AAd?$AAb?$AAg?$AA?$AA@ 0051d288     LIBCMTD:dbgheap.obj
 0002:0000a2c8       ??_C@_0EF@PGELACII@The?5block?5at?50x?$CFp?5was?5not?5alloca@ 0051d2c8     LIBCMTD:dbgheap.obj
 0002:0000a310       ??_C@_1CG@CEGMHIMN@?$AA_?$AAa?$AAl?$AAi?$AAg?$AAn?$AAe?$AAd?$AA_?$AAm?$AAs?$AAi?$AAz?$AAe?$AA_?$AAd?$AAb?$AAg?$AA?$AA@ 0051d310     LIBCMTD:dbgheap.obj
 0002:0000a338       ??_C@_1CC@MOBIKHH@?$AAm?$AAe?$AAm?$AAb?$AAl?$AAo?$AAc?$AAk?$AA?5?$AA?$CB?$AA?$DN?$AA?5?$AAN?$AAU?$AAL?$AAL?$AA?$AA@ 0051d338     LIBCMTD:dbgheap.obj
 0002:0000a35c       ??_C@_0BP@OGBCLIBO@Stack?5around?5_alloca?5corrupted?$AA@ 0051d35c     LIBCMTD:userapi.obj
 0002:0000a37c       ??_C@_0CK@CNLNOEPB@Local?5variable?5used?5before?5initi@ 0051d37c     LIBCMTD:userapi.obj
 0002:0000a3a8       ??_C@_0BI@CIGMDCBH@Stack?5memory?5corruption?$AA@ 0051d3a8     LIBCMTD:userapi.obj
 0002:0000a3c0       ??_C@_0CK@FEGOIOPB@Cast?5to?5smaller?5type?5causing?5los@ 0051d3c0     LIBCMTD:userapi.obj
 0002:0000a3ec       ??_C@_0BJ@HEGAHDFO@Stack?5pointer?5corruption?$AA@ 0051d3ec     LIBCMTD:userapi.obj
 0002:0000a41c       ??_C@_0O@NJIIDJEH@i386?2chkesp?4c?$AA@ 0051d41c     LIBCMTD:chkesp.obj
 0002:0000a42a       ??_C@_00CNPNBAHC@?$AA@     0051d42a     LIBCMTD:chkesp.obj
 0002:0000a430       ??_C@_0NM@DNEDKLDF@The?5value?5of?5ESP?5was?5not?5properl@ 0051d430     LIBCMTD:chkesp.obj
 0002:0000a50c       ??_C@_0M@EKFFODEC@MSPDB80?4DLL?$AA@ 0051d50c     LIBCMTD:pdblkup.obj
 0002:0000a518       ??_C@_01KDCPPGHE@r?$AA@    0051d518     LIBCMTD:pdblkup.obj
 0002:0000a51c       ??_C@_0BB@KCIACLNC@PDBOpenValidate5?$AA@ 0051d51c     LIBCMTD:pdblkup.obj
 0002:0000a530       ??_C@_0BF@BMIHBHCA@EnvironmentDirectory?$AA@ 0051d530     LIBCMTD:pdblkup.obj
 0002:0000a548       ??_C@_0CN@EAEOKKOC@SOFTWARE?2Microsoft?2VisualStudio?2@ 0051d548     LIBCMTD:pdblkup.obj
 0002:0000a578       ??_C@_0M@HLOHPNFA@RegCloseKey?$AA@ 0051d578     LIBCMTD:pdblkup.obj
 0002:0000a584       ??_C@_0BB@HHEIPGME@RegQueryValueExA?$AA@ 0051d584     LIBCMTD:pdblkup.obj
 0002:0000a598       ??_C@_0O@DCOGKJGG@RegOpenKeyExA?$AA@ 0051d598     LIBCMTD:pdblkup.obj
 0002:0000a5a8       ??_C@_0N@JJPEKNFO@ADVAPI32?4DLL?$AA@ 0051d5a8     LIBCMTD:pdblkup.obj
 0002:0000a5b8       ??_C@_1HO@MLMGPAFH@?$AA?$CI?$AA?$CC?$AAi?$AAn?$AAc?$AAo?$AAn?$AAs?$AAi?$AAs?$AAt?$AAe?$AAn?$AAt?$AA?5?$AAI?$AAO?$AAB?$AA?5?$AAf?$AAi?$AAe?$AAl?$AAd?$AAs?$AA?$CC?$AA?0?$AA?5?$AAs?$AAt?$AAr?$AAe@ 0051d5b8     LIBCMTD:_flsbuf.obj
 0002:0000a638       ??_C@_1BE@GOOJIKLI@?$AA_?$AAf?$AAl?$AAs?$AAb?$AAu?$AAf?$AA?4?$AAc?$AA?$AA@ 0051d638     LIBCMTD:_flsbuf.obj
 0002:0000a64c       ??_C@_1BI@MFCLPIBM@?$AAs?$AAt?$AAr?$AA?5?$AA?$CB?$AA?$DN?$AA?5?$AAN?$AAU?$AAL?$AAL?$AA?$AA@ 0051d64c     LIBCMTD:_flsbuf.obj
 0002:0000a664       ??_C@_1O@CEDCILHN@?$AA?$CI?$AAn?$AAu?$AAl?$AAl?$AA?$CJ?$AA?$AA@ 0051d664     LIBCMTD:output.obj
 0002:0000a674       ??_C@_06OJHGLDPL@?$CInull?$CJ?$AA@ 0051d674     LIBCMTD:output.obj
 0002:0000a680       ___lookuptable             0051d680     LIBCMTD:output.obj
 0002:0000a6dc       ??_C@_08MEPFMIND@output?4c?$AA@ 0051d6dc     LIBCMTD:output.obj
 0002:0000a6e8       ??_C@_1EK@PNGFDECN@?$AA?$CI?$AA?$CC?$AA?8?$AAn?$AA?8?$AA?5?$AAf?$AAo?$AAr?$AAm?$AAa?$AAt?$AA?5?$AAs?$AAp?$AAe?$AAc?$AAi?$AAf?$AAi?$AAe?$AAr?$AA?5?$AAd?$AAi?$AAs?$AAa?$AAb?$AAl?$AAe?$AAd?$AA?$CC@ 0051d6e8     LIBCMTD:output.obj
 0002:0000a734       ??_C@_1CC@IFFHEMNF@?$AA?$CI?$AAc?$AAh?$AA?5?$AA?$CB?$AA?$DN?$AA?5?$AA_?$AAT?$AA?$CI?$AA?8?$AA?2?$AA0?$AA?8?$AA?$CJ?$AA?$CJ?$AA?$AA@ 0051d734     LIBCMTD:output.obj
 0002:0000a758       ??_C@_1BE@IONLIDNC@?$AA_?$AAo?$AAu?$AAt?$AAp?$AAu?$AAt?$AA_?$AAl?$AA?$AA@ 0051d758     LIBCMTD:output.obj
 0002:0000a76c       ??_C@_1BC@NHKJGCDC@?$AAo?$AAu?$AAt?$AAp?$AAu?$AAt?$AA?4?$AAc?$AA?$AA@ 0051d76c     LIBCMTD:output.obj
 0002:0000a780       ??_C@_1BI@IGILPKD@?$AA_?$AAv?$AAs?$AAp?$AAr?$AAi?$AAn?$AAt?$AAf?$AA_?$AAl?$AA?$AA@ 0051d780     LIBCMTD:vsprintf.obj
 0002:0000a798       ??_C@_1BG@CBDPIEBA@?$AAv?$AAs?$AAp?$AAr?$AAi?$AAn?$AAt?$AAf?$AA?4?$AAc?$AA?$AA@ 0051d798     LIBCMTD:vsprintf.obj
 0002:0000a7b0       ??_C@_1CE@HMKDJHB@?$AA_?$AAv?$AAs?$AAc?$AAp?$AAr?$AAi?$AAn?$AAt?$AAf?$AA_?$AAh?$AAe?$AAl?$AAp?$AAe?$AAr?$AA?$AA@ 0051d7b0     LIBCMTD:vsprintf.obj
 0002:0000a7d8       ??_C@_1EC@FABAOFFO@?$AA?$CI?$AAc?$AAo?$AAu?$AAn?$AAt?$AA?5?$AA?$DN?$AA?$DN?$AA?5?$AA0?$AA?$CJ?$AA?5?$AA?$HM?$AA?$HM?$AA?5?$AA?$CI?$AAs?$AAt?$AAr?$AAi?$AAn?$AAg?$AA?5?$AA?$CB?$AA?$DN?$AA?5?$AAN?$AAU?$AAL?$AAL?$AA?$CJ@ 0051d7d8     LIBCMTD:vsnprnc.obj
 0002:0000a81c       ??_C@_1CE@PCFPEIFI@?$AA_?$AAv?$AAs?$AAn?$AAp?$AAr?$AAi?$AAn?$AAt?$AAf?$AA_?$AAh?$AAe?$AAl?$AAp?$AAe?$AAr?$AA?$AA@ 0051d81c     LIBCMTD:vsnprnc.obj
 0002:0000a840       ??_C@_1GE@LHHNFABB@?$AAf?$AA?3?$AA?2?$AAs?$AAp?$AA?2?$AAv?$AAc?$AAt?$AAo?$AAo?$AAl?$AAs?$AA?2?$AAc?$AAr?$AAt?$AA_?$AAb?$AAl?$AAd?$AA?2?$AAs?$AAe?$AAl?$AAf?$AA_?$AAx?$AA8?$AA6?$AA?2?$AAc@ 0051d840     LIBCMTD:vsnprnc.obj
 0002:0000a8a4       ??_C@_1DA@HPBFKMEB@?$AA?$CI?$AA?$CC?$AAB?$AAu?$AAf?$AAf?$AAe?$AAr?$AA?5?$AAt?$AAo?$AAo?$AA?5?$AAs?$AAm?$AAa?$AAl?$AAl?$AA?$CC?$AA?0?$AA?5?$AA0?$AA?$CJ?$AA?$AA@ 0051d8a4     LIBCMTD:vsnprnc.obj
 0002:0000a8d8       ??_C@_1EE@OKCKIGFK@?$AAs?$AAt?$AAr?$AAi?$AAn?$AAg?$AA?5?$AA?$CB?$AA?$DN?$AA?5?$AAN?$AAU?$AAL?$AAL?$AA?5?$AA?$CG?$AA?$CG?$AA?5?$AAs?$AAi?$AAz?$AAe?$AAI?$AAn?$AAB?$AAy?$AAt?$AAe?$AAs?$AA?5?$AA?$DO?$AA?5@ 0051d8d8     LIBCMTD:vsnprnc.obj
 0002:0000a91c       ??_C@_1BM@BLJALHEF@?$AA_?$AAv?$AAs?$AAp?$AAr?$AAi?$AAn?$AAt?$AAf?$AA_?$AAs?$AA_?$AAl?$AA?$AA@ 0051d91c     LIBCMTD:vsnprnc.obj
 0002:0000a938       ??_C@_1BO@MLMCMBKN@?$AAf?$AAo?$AAr?$AAm?$AAa?$AAt?$AA?5?$AA?$CB?$AA?$DN?$AA?5?$AAN?$AAU?$AAL?$AAL?$AA?$AA@ 0051d938     LIBCMTD:vsnprnc.obj
 0002:0000a958       ??_C@_1BO@MMPELNIM@?$AA_?$AAv?$AAs?$AAn?$AAp?$AAr?$AAi?$AAn?$AAt?$AAf?$AA_?$AAs?$AA_?$AAl?$AA?$AA@ 0051d958     LIBCMTD:vsnprnc.obj
 0002:0000a978       ??_C@_0O@NLDKAIKN@EncodePointer?$AA@ 0051d978     LIBCMTD:tidtable.obj
 0002:0000a988       ??_C@_0N@NHGLKGEC@KERNEL32?4DLL?$AA@ 0051d988     LIBCMTD:tidtable.obj
 0002:0000a998       ??_C@_07EPKMNAGK@?4mixcrt?$AA@ 0051d998     LIBCMTD:tidtable.obj
 0002:0000a9a0       ??_C@_0O@KBPMFGHI@DecodePointer?$AA@ 0051d9a0     LIBCMTD:tidtable.obj
 0002:0000a9b0       ??_C@_0L@JKCACIOJ@tidtable?4c?$AA@ 0051d9b0     LIBCMTD:tidtable.obj
 0002:0000a9bc       ??_C@_07PEJMOBNF@FlsFree?$AA@ 0051d9bc     LIBCMTD:tidtable.obj
 0002:0000a9c4       ??_C@_0M@JCPCPOEF@FlsSetValue?$AA@ 0051d9c4     LIBCMTD:tidtable.obj
 0002:0000a9d0       ??_C@_0M@GDNOONDI@FlsGetValue?$AA@ 0051d9d0     LIBCMTD:tidtable.obj
 0002:0000a9dc       ??_C@_08KNHFBNJ@FlsAlloc?$AA@ 0051d9dc     LIBCMTD:tidtable.obj
 0002:0000a9e8       ??_C@_09MGNHMPHC@osfinfo?4c?$AA@ 0051d9e8     LIBCMTD:osfinfo.obj
 0002:0000a9f4       ??_C@_1CM@OKGMMMDH@?$AA?$CI?$AA_?$AAo?$AAs?$AAf?$AAi?$AAl?$AAe?$AA?$CI?$AAf?$AAh?$AA?$CJ?$AA?5?$AA?$CG?$AA?5?$AAF?$AAO?$AAP?$AAE?$AAN?$AA?$CJ?$AA?$AA@ 0051d9f4     LIBCMTD:osfinfo.obj
 0002:0000aa20       ??_C@_1BO@EMBOBGKE@?$AA_?$AAg?$AAe?$AAt?$AA_?$AAo?$AAs?$AAf?$AAh?$AAa?$AAn?$AAd?$AAl?$AAe?$AA?$AA@ 0051da20     LIBCMTD:osfinfo.obj
 0002:0000aa40       ??_C@_1BE@MIGAHMPD@?$AAo?$AAs?$AAf?$AAi?$AAn?$AAf?$AAo?$AA?4?$AAc?$AA?$AA@ 0051da40     LIBCMTD:osfinfo.obj
 0002:0000aa58       ??_C@_1FO@LPCLHKGE@?$AA?$CI?$AAf?$AAh?$AA?5?$AA?$DO?$AA?$DN?$AA?5?$AA0?$AA?5?$AA?$CG?$AA?$CG?$AA?5?$AA?$CI?$AAu?$AAn?$AAs?$AAi?$AAg?$AAn?$AAe?$AAd?$AA?$CJ?$AAf?$AAh?$AA?5?$AA?$DM?$AA?5?$AA?$CI?$AAu?$AAn?$AAs?$AAi@ 0051da58     LIBCMTD:osfinfo.obj
 0002:0000aab8       ??_C@_1CA@DCOBNMOJ@?$AA_?$AA_?$AAl?$AAo?$AAc?$AAt?$AAo?$AAt?$AAi?$AAm?$AAe?$AA3?$AA2?$AA_?$AAt?$AA?$AA@ 0051dab8     LIBCMTD:dtoxtime.obj
 0002:0000aad8       ??_C@_1BG@JLFHOLGH@?$AAd?$AAt?$AAo?$AAx?$AAt?$AAi?$AAm?$AAe?$AA?4?$AAc?$AA?$AA@ 0051dad8     LIBCMTD:dtoxtime.obj
 0002:0000aaf0       ??_C@_08MAFBHINM@ioinit?4c?$AA@ 0051daf0     LIBCMTD:ioinit.obj
 0002:0000aafc       ??_C@_1O@EDEJGJBM@?$AA_?$AAc?$AAl?$AAo?$AAs?$AAe?$AA?$AA@ 0051dafc     LIBCMTD:close.obj
 0002:0000ab0c       ??_C@_1BA@GOGDMMEN@?$AAc?$AAl?$AAo?$AAs?$AAe?$AA?4?$AAc?$AA?$AA@ 0051db0c     LIBCMTD:close.obj
 0002:0000ab1c       ??_C@_1BA@JGHIEKKM@?$AA_?$AAf?$AAi?$AAl?$AAe?$AAn?$AAo?$AA?$AA@ 0051db1c     LIBCMTD:fileno.obj
 0002:0000ab2c       ??_C@_1BC@FBGAHIFN@?$AAf?$AAi?$AAl?$AAe?$AAn?$AAo?$AA?4?$AAc?$AA?$AA@ 0051db2c     LIBCMTD:fileno.obj
 0002:0000ab40       ??_C@_1BG@BCLADFND@?$AA_?$AAf?$AAr?$AAe?$AAe?$AAb?$AAu?$AAf?$AA?4?$AAc?$AA?$AA@ 0051db40     LIBCMTD:_freebuf.obj
 0002:0000ab58       ??_C@_1BO@KIJENGPH@?$AAs?$AAt?$AAr?$AAe?$AAa?$AAm?$AA?5?$AA?$CB?$AA?$DN?$AA?5?$AAN?$AAU?$AAL?$AAL?$AA?$AA@ 0051db58     LIBCMTD:_freebuf.obj
 0002:0000ab78       ??_C@_1BA@IIKEPOGH@?$AA_?$AAf?$AAi?$AAl?$AAb?$AAu?$AAf?$AA?$AA@ 0051db78     LIBCMTD:_filbuf.obj
 0002:0000ab88       ??_C@_1BE@CEJGNPDE@?$AA_?$AAf?$AAi?$AAl?$AAb?$AAu?$AAf?$AA?4?$AAc?$AA?$AA@ 0051db88     LIBCMTD:_filbuf.obj
 0002:0000ab9c       ??_C@_1O@EDOIKGHF@?$AA_?$AAl?$AAs?$AAe?$AAe?$AAk?$AA?$AA@ 0051db9c     LIBCMTD:lseek.obj
 0002:0000abac       ??_C@_1BA@FKCCIBB@?$AAl?$AAs?$AAe?$AAe?$AAk?$AA?4?$AAc?$AA?$AA@ 0051dbac     LIBCMTD:lseek.obj
 0002:0000abbc       ??_C@_1DM@LMLOLGJ@?$AA?$CI?$AA?$CC?$AAI?$AAn?$AAv?$AAa?$AAl?$AAi?$AAd?$AA?5?$AAf?$AAi?$AAl?$AAe?$AA?5?$AAd?$AAe?$AAs?$AAc?$AAr?$AAi?$AAp?$AAt?$AAo?$AAr?$AA?$CC?$AA?0?$AA0?$AA?$CJ?$AA?$AA@ 0051dbbc     LIBCMTD:lseek.obj
 0002:0000ac1c       ??_C@_1CI@KEDPFCAL@?$AA?$CI?$AA?$CK?$AAm?$AAo?$AAd?$AAe?$AA?5?$AA?$DN?$AA?$DN?$AA?5?$AA_?$AAT?$AA?$CI?$AA?8?$AA?2?$AA0?$AA?8?$AA?$CJ?$AA?$CJ?$AA?$AA@ 0051dc1c     LIBCMTD:_open.obj
 0002:0000ac44       ??_C@_1BE@DONHJJKE@?$AA_?$AAo?$AAp?$AAe?$AAn?$AAf?$AAi?$AAl?$AAe?$AA?$AA@ 0051dc44     LIBCMTD:_open.obj
 0002:0000ac58       ??_C@_1DK@PKMJBLLN@?$AA?$CI?$AA?$CC?$AAI?$AAn?$AAv?$AAa?$AAl?$AAi?$AAd?$AA?5?$AAf?$AAi?$AAl?$AAe?$AA?5?$AAo?$AAp?$AAe?$AAn?$AA?5?$AAm?$AAo?$AAd?$AAe?$AA?$CC?$AA?0?$AA0?$AA?$CJ?$AA?$AA@ 0051dc58     LIBCMTD:_open.obj
 0002:0000ac94       ??_C@_1BK@HGLMNMEC@?$AAm?$AAo?$AAd?$AAe?$AA?5?$AA?$CB?$AA?$DN?$AA?5?$AAN?$AAU?$AAL?$AAL?$AA?$AA@ 0051dc94     LIBCMTD:_open.obj
 0002:0000acb0       ??_C@_1BA@ENGOOAMJ@?$AA_?$AAo?$AAp?$AAe?$AAn?$AA?4?$AAc?$AA?$AA@ 0051dcb0     LIBCMTD:_open.obj
 0002:0000acc0       ??_C@_1CC@JBMDNKJP@?$AAf?$AAi?$AAl?$AAe?$AAn?$AAa?$AAm?$AAe?$AA?5?$AA?$CB?$AA?$DN?$AA?5?$AAN?$AAU?$AAL?$AAL?$AA?$AA@ 0051dcc0     LIBCMTD:_open.obj
 0002:0000ace4       ??_C@_08MKBBPGGN@stream?4c?$AA@ 0051dce4     LIBCMTD:stream.obj
 0002:0000acf0       ??_C@_1BI@OINOOFEA@?$AAh?$AAa?$AAn?$AAd?$AAl?$AAe?$AAr?$AA?4?$AAc?$AAp?$AAp?$AA?$AA@ 0051dcf0     LIBCMTD:handler.obj
 0002:0000ad08       ??_C@_1BC@JLLICHIC@?$AAp?$AAn?$AAh?$AA?5?$AA?$DN?$AA?$DN?$AA?5?$AA0?$AA?$AA@ 0051dd08     LIBCMTD:handler.obj
 0002:0000ad1c       ??_C@_07CKDBCAPD@mlock?4c?$AA@ 0051dd1c     LIBCMTD:mlock.obj
 0002:0000ad24       ??_C@_1CC@HBLPFNKH@?$AA?$CI?$AAc?$AAn?$AAt?$AA?5?$AA?$DM?$AA?$DN?$AA?5?$AAI?$AAN?$AAT?$AA_?$AAM?$AAA?$AAX?$AA?$CJ?$AA?$AA@ 0051dd24     LIBCMTD:read.obj
 0002:0000ad48       ??_C@_1M@NHJOLLDM@?$AA_?$AAr?$AAe?$AAa?$AAd?$AA?$AA@ 0051dd48     LIBCMTD:read.obj
 0002:0000ad54       ??_C@_1O@OLAFBHGM@?$AAr?$AAe?$AAa?$AAd?$AA?4?$AAc?$AA?$AA@ 0051dd54     LIBCMTD:read.obj
 0002:0000ad64       ??_C@_06CNEIBCEN@read?4c?$AA@ 0051dd64     LIBCMTD:read.obj
 0002:0000ad6c       ??_C@_1CC@EEOLPHGO@?$AA?$CI?$AA?$CI?$AAc?$AAn?$AAt?$AA?5?$AA?$CG?$AA?5?$AA1?$AA?$CJ?$AA?5?$AA?$DN?$AA?$DN?$AA?5?$AA0?$AA?$CJ?$AA?$AA@ 0051dd6c     LIBCMTD:read.obj
 0002:0000ad90       ??_C@_1CG@OHLJHGGK@?$AA?$CI?$AAi?$AAn?$AAp?$AAu?$AAt?$AAb?$AAu?$AAf?$AA?5?$AA?$CB?$AA?$DN?$AA?5?$AAN?$AAU?$AAL?$AAL?$AA?$CJ?$AA?$AA@ 0051dd90     LIBCMTD:read.obj
 0002:0000adb8       ??_C@_1BK@JJBHNDKJ@?$AA_?$AAr?$AAe?$AAa?$AAd?$AA_?$AAn?$AAo?$AAl?$AAo?$AAc?$AAk?$AA?$AA@ 0051ddb8     LIBCMTD:read.obj
 0002:0000add4       ??_C@_1O@KOFKDHPL@?$AA_?$AAw?$AAr?$AAi?$AAt?$AAe?$AA?$AA@ 0051ddd4     LIBCMTD:write.obj
 0002:0000ade4       ??_C@_1BA@PMLNGJCB@?$AAw?$AAr?$AAi?$AAt?$AAe?$AA?4?$AAc?$AA?$AA@ 0051dde4     LIBCMTD:write.obj
 0002:0000adf4       ??_C@_1BM@NCANHCIP@?$AA_?$AAw?$AAr?$AAi?$AAt?$AAe?$AA_?$AAn?$AAo?$AAl?$AAo?$AAc?$AAk?$AA?$AA@ 0051ddf4     LIBCMTD:write.obj
 0002:0000ae10       ??_C@_09IFKHNCOH@_sftbuf?4c?$AA@ 0051de10     LIBCMTD:_sftbuf.obj
 0002:0000ae1c       ??_C@_1BE@DFMOKHKL@?$AA_?$AAs?$AAf?$AAt?$AAb?$AAu?$AAf?$AA?4?$AAc?$AA?$AA@ 0051de1c     LIBCMTD:_sftbuf.obj
 0002:0000ae30       ??_C@_1CO@KCKAACMI@?$AAf?$AAl?$AAa?$AAg?$AA?5?$AA?$DN?$AA?$DN?$AA?5?$AA0?$AA?5?$AA?$HM?$AA?$HM?$AA?5?$AAf?$AAl?$AAa?$AAg?$AA?5?$AA?$DN?$AA?$DN?$AA?5?$AA1?$AA?$AA@ 0051de30     LIBCMTD:_sftbuf.obj
 0002:0000ae60       ??_C@_1BO@JGFPDJCP@?$AAv?$AAp?$AAr?$AAi?$AAn?$AAt?$AAf?$AA_?$AAh?$AAe?$AAl?$AAp?$AAe?$AAr?$AA?$AA@ 0051de60     LIBCMTD:vprintf.obj
 0002:0000ae80       ??_C@_1BE@DEJONPKH@?$AAv?$AAp?$AAr?$AAi?$AAn?$AAt?$AAf?$AA?4?$AAc?$AA?$AA@ 0051de80     LIBCMTD:vprintf.obj
 0002:0000ae94       __pDestructExceptionObject 0051de94     LIBCMTD:frame.obj
 0002:0000ae98       ??_C@_0O@DPKOEFFH@bad?5exception?$AA@ 0051de98     LIBCMTD:frame.obj
 0002:0000aeac       ??_7bad_exception@std@@6B@ 0051deac     LIBCMTD:frame.obj
 0002:0000aeb8       ??_C@_1NK@LOFHIHFC@?$AAf?$AAM?$AAo?$AAd?$AAe?$AA?5?$AA?$DN?$AA?$DN?$AA?5?$AA_?$AAC?$AAR?$AAT?$AAD?$AAB?$AAG?$AA_?$AAR?$AAE?$AAP?$AAO?$AAR?$AAT?$AA_?$AAM?$AAO?$AAD?$AAE?$AA?5?$AA?$HM?$AA?$HM?$AA?5@ 0051deb8     LIBCMTD:dbgrptt.obj
 0002:0000af94       ??_C@_1CE@FIHIECNJ@?$AA_?$AAC?$AAr?$AAt?$AAS?$AAe?$AAt?$AAR?$AAe?$AAp?$AAo?$AAr?$AAt?$AAM?$AAo?$AAd?$AAe?$AA?$AA@ 0051df94     LIBCMTD:dbgrptt.obj
 0002:0000afb8       ??_C@_1BE@FLKCNJCI@?$AAd?$AAb?$AAg?$AAr?$AAp?$AAt?$AAt?$AA?4?$AAc?$AA?$AA@ 0051dfb8     LIBCMTD:dbgrptt.obj
 0002:0000afd0       ??_C@_1FA@IFFFOLDJ@?$AAn?$AAR?$AAp?$AAt?$AAT?$AAy?$AAp?$AAe?$AA?5?$AA?$DO?$AA?$DN?$AA?5?$AA0?$AA?5?$AA?$CG?$AA?$CG?$AA?5?$AAn?$AAR?$AAp?$AAt?$AAT?$AAy?$AAp?$AAe?$AA?5?$AA?$DM?$AA?5?$AA_?$AAC?$AAR?$AAT@ 0051dfd0     LIBCMTD:dbgrptt.obj
 0002:0000b020       ??_C@_1CE@IKKEDCME@?$AA_?$AAC?$AAr?$AAt?$AAS?$AAe?$AAt?$AAR?$AAe?$AAp?$AAo?$AAr?$AAt?$AAF?$AAi?$AAl?$AAe?$AA?$AA@ 0051e020     LIBCMTD:dbgrptt.obj
 0002:0000b048       ??_C@_1HO@PJOFIKFE@?$AA_?$AAC?$AAr?$AAt?$AAD?$AAb?$AAg?$AAR?$AAe?$AAp?$AAo?$AAr?$AAt?$AA?3?$AA?5?$AAS?$AAt?$AAr?$AAi?$AAn?$AAg?$AA?5?$AAt?$AAo?$AAo?$AA?5?$AAl?$AAo?$AAn?$AAg?$AA?5?$AAo@ 0051e048     LIBCMTD:dbgrptt.obj
 0002:0000b0c8       ??_C@_1MC@IGEECMDB@?$AAw?$AAc?$AAs?$AAc?$AAp?$AAy?$AA_?$AAs?$AA?$CI?$AAs?$AAz?$AAO?$AAu?$AAt?$AAM?$AAe?$AAs?$AAs?$AAa?$AAg?$AAe?$AA2?$AA?0?$AA?5?$AA4?$AA0?$AA9?$AA6?$AA?0?$AA?5?$AAL?$AA?$CC@ 0051e0c8     LIBCMTD:dbgrptt.obj
 0002:0000b190       ??_C@_1IM@OOKIFKOH@?$AAe?$AA?5?$AA?$DN?$AA?5?$AAm?$AAb?$AAs?$AAt?$AAo?$AAw?$AAc?$AAs?$AA_?$AAs?$AA?$CI?$AA?$CG?$AAr?$AAe?$AAt?$AA?0?$AA?5?$AAs?$AAz?$AAO?$AAu?$AAt?$AAM?$AAe?$AAs?$AAs?$AAa?$AAg@ 0051e190     LIBCMTD:dbgrptt.obj
 0002:0000b220       ??_C@_1FI@IBIOIHEG@?$AAs?$AAt?$AAr?$AAc?$AAp?$AAy?$AA_?$AAs?$AA?$CI?$AAs?$AAz?$AAO?$AAu?$AAt?$AAM?$AAe?$AAs?$AAs?$AAa?$AAg?$AAe?$AA?0?$AA?5?$AA4?$AA0?$AA9?$AA6?$AA?0?$AA?5?$AAs?$AAz?$AAL@ 0051e220     LIBCMTD:dbgrptt.obj
 0002:0000b278       ??_C@_1JG@CPKCIOEE@?$AAs?$AAt?$AAr?$AAc?$AAp?$AAy?$AA_?$AAs?$AA?$CI?$AAs?$AAz?$AAO?$AAu?$AAt?$AAM?$AAe?$AAs?$AAs?$AAa?$AAg?$AAe?$AA?0?$AA?5?$AA4?$AA0?$AA9?$AA6?$AA?0?$AA?5?$AA?$CC?$AA_?$AAC@ 0051e278     LIBCMTD:dbgrptt.obj
 0002:0000b310       ??_C@_0M@IPILFDFN@?$CFs?$CI?$CFd?$CJ?5?3?5?$CFs?$AA@ 0051e310     LIBCMTD:dbgrptt.obj
 0002:0000b320       ??_C@_1EI@LDHJEDO@?$AAs?$AAt?$AAr?$AAc?$AAa?$AAt?$AA_?$AAs?$AA?$CI?$AAs?$AAz?$AAL?$AAi?$AAn?$AAe?$AAM?$AAe?$AAs?$AAs?$AAa?$AAg?$AAe?$AA?0?$AA?5?$AA4?$AA0?$AA9?$AA6?$AA?0?$AA?5?$AA?$CC?$AA?2@ 0051e320     LIBCMTD:dbgrptt.obj
 0002:0000b368       ??_C@_01LIIJDEN@?$AN?$AA@  0051e368     LIBCMTD:dbgrptt.obj
 0002:0000b370       ??_C@_1EI@CACDLAFK@?$AAs?$AAt?$AAr?$AAc?$AAa?$AAt?$AA_?$AAs?$AA?$CI?$AAs?$AAz?$AAL?$AAi?$AAn?$AAe?$AAM?$AAe?$AAs?$AAs?$AAa?$AAg?$AAe?$AA?0?$AA?5?$AA4?$AA0?$AA9?$AA6?$AA?0?$AA?5?$AA?$CC?$AA?2@ 0051e370     LIBCMTD:dbgrptt.obj
 0002:0000b3b8       ??_C@_1FK@NPGBPOFO@?$AAs?$AAt?$AAr?$AAc?$AAa?$AAt?$AA_?$AAs?$AA?$CI?$AAs?$AAz?$AAL?$AAi?$AAn?$AAe?$AAM?$AAe?$AAs?$AAs?$AAa?$AAg?$AAe?$AA?0?$AA?5?$AA4?$AA0?$AA9?$AA6?$AA?0?$AA?5?$AAs?$AAz@ 0051e3b8     LIBCMTD:dbgrptt.obj
 0002:0000b418       ??_C@_1KK@GIGAEDMO@?$AAs?$AAt?$AAr?$AAc?$AAp?$AAy?$AA_?$AAs?$AA?$CI?$AAs?$AAz?$AAL?$AAi?$AAn?$AAe?$AAM?$AAe?$AAs?$AAs?$AAa?$AAg?$AAe?$AA?0?$AA?5?$AA4?$AA0?$AA9?$AA6?$AA?0?$AA?5?$AAs?$AAz@ 0051e418     LIBCMTD:dbgrptt.obj
 0002:0000b4c4       ??_C@_0BC@LAIDCHCH@Assertion?5failed?$CB?$AA@ 0051e4c4     LIBCMTD:dbgrptt.obj
 0002:0000b4d8       ??_C@_0BD@CAENFOHP@Assertion?5failed?3?5?$AA@ 0051e4d8     LIBCMTD:dbgrptt.obj
 0002:0000b4ec       ??_C@_0CL@EACFGMNB@_CrtDbgReport?3?5String?5too?5long?5o@ 0051e4ec     LIBCMTD:dbgrptt.obj
 0002:0000b518       ??_C@_1JI@GAALPGBM@?$AAs?$AAt?$AAr?$AAc?$AAp?$AAy?$AA_?$AAs?$AA?$CI?$AAs?$AAz?$AAU?$AAs?$AAe?$AAr?$AAM?$AAe?$AAs?$AAs?$AAa?$AAg?$AAe?$AA?0?$AA?5?$AA4?$AA0?$AA9?$AA6?$AA?0?$AA?5?$AA?$CC?$AA_@ 0051e518     LIBCMTD:dbgrptt.obj
 0002:0000b5b0       ??_C@_07BHGABMGB@?0?5Line?5?$AA@ 0051e5b0     LIBCMTD:dbgrptt.obj
 0002:0000b5b8       ??_C@_0P@DFJNDPOP@?$DMfile?5unknown?$DO?$AA@ 0051e5b8     LIBCMTD:dbgrptt.obj
 0002:0000b5c8       ??_C@_0CG@BNGLOCEO@Second?5Chance?5Assertion?5Failed?3?5@ 0051e5c8     LIBCMTD:dbgrptt.obj
 0002:0000b5f0       ??_C@_1FA@JPHJBHEM@?$AA_?$AAi?$AAt?$AAo?$AAa?$AA_?$AAs?$AA?$CI?$AAn?$AAL?$AAi?$AAn?$AAe?$AA?0?$AA?5?$AAs?$AAz?$AAL?$AAi?$AAn?$AAe?$AAM?$AAe?$AAs?$AAs?$AAa?$AAg?$AAe?$AA?0?$AA?5?$AA4?$AA0@ 0051e5f0     LIBCMTD:dbgrptt.obj
 0002:0000b640       ??_C@_1CA@KHJHLKA@?$AA_?$AAV?$AAC?$AAr?$AAt?$AAD?$AAb?$AAg?$AAR?$AAe?$AAp?$AAo?$AAr?$AAt?$AAA?$AA?$AA@ 0051e640     LIBCMTD:dbgrptt.obj
 0002:0000b660       ??_C@_1IE@CPGKIAGP@?$AAw?$AAc?$AAs?$AAt?$AAo?$AAm?$AAb?$AAs?$AA_?$AAs?$AA?$CI?$AA?$CG?$AAr?$AAe?$AAt?$AA?0?$AA?5?$AAs?$AAz?$AAa?$AAO?$AAu?$AAt?$AAM?$AAe?$AAs?$AAs?$AAa?$AAg?$AAe?$AA?0?$AA?5@ 0051e660     LIBCMTD:dbgrptt.obj
 0002:0000b6e8       ??_C@_1MA@LBAMNNOB@?$AAs?$AAt?$AAr?$AAc?$AAp?$AAy?$AA_?$AAs?$AA?$CI?$AAs?$AAz?$AAO?$AAu?$AAt?$AAM?$AAe?$AAs?$AAs?$AAa?$AAg?$AAe?$AA2?$AA?0?$AA?5?$AA4?$AA0?$AA9?$AA6?$AA?0?$AA?5?$AA?$CC?$AA_@ 0051e6e8     LIBCMTD:dbgrptt.obj
 0002:0000b7a8       ??_C@_1JC@EOAPFDLN@?$AAw?$AAc?$AAs?$AAt?$AAo?$AAm?$AAb?$AAs?$AA_?$AAs?$AA?$CI?$AA?$CI?$AA?$CI?$AAv?$AAo?$AAi?$AAd?$AA?5?$AA?$CK?$AA?$CJ?$AA0?$AA?$CJ?$AA?0?$AA?5?$AAs?$AAz?$AAO?$AAu?$AAt?$AAM?$AAe?$AAs@ 0051e7a8     LIBCMTD:dbgrptt.obj
 0002:0000b840       ??_C@_1FI@DBAIJPJE@?$AAw?$AAc?$AAs?$AAc?$AAp?$AAy?$AA_?$AAs?$AA?$CI?$AAs?$AAz?$AAO?$AAu?$AAt?$AAM?$AAe?$AAs?$AAs?$AAa?$AAg?$AAe?$AA?0?$AA?5?$AA4?$AA0?$AA9?$AA6?$AA?0?$AA?5?$AAs?$AAz?$AAL@ 0051e840     LIBCMTD:dbgrptt.obj
 0002:0000b898       ??_C@_1BI@JIDBEPIG@?$AA?$CF?$AAs?$AA?$CI?$AA?$CF?$AAd?$AA?$CJ?$AA?5?$AA?3?$AA?5?$AA?$CF?$AAs?$AA?$AA@ 0051e898     LIBCMTD:dbgrptt.obj
 0002:0000b8b0       ??_C@_1EK@PHCBEDKB@?$AAw?$AAc?$AAs?$AAc?$AAa?$AAt?$AA_?$AAs?$AA?$CI?$AAs?$AAz?$AAL?$AAi?$AAn?$AAe?$AAM?$AAe?$AAs?$AAs?$AAa?$AAg?$AAe?$AA?0?$AA?5?$AA4?$AA0?$AA9?$AA6?$AA?0?$AA?5?$AAL?$AA?$CC@ 0051e8b0     LIBCMTD:dbgrptt.obj
 0002:0000b8fc       ??_C@_13CMNBPIDO@?$AA?$AN?$AA?$AA@ 0051e8fc     LIBCMTD:dbgrptt.obj
 0002:0000b900       ??_C@_1EK@NMDFGHMF@?$AAw?$AAc?$AAs?$AAc?$AAa?$AAt?$AA_?$AAs?$AA?$CI?$AAs?$AAz?$AAL?$AAi?$AAn?$AAe?$AAM?$AAe?$AAs?$AAs?$AAa?$AAg?$AAe?$AA?0?$AA?5?$AA4?$AA0?$AA9?$AA6?$AA?0?$AA?5?$AAL?$AA?$CC@ 0051e900     LIBCMTD:dbgrptt.obj
 0002:0000b950       ??_C@_1FK@HPADHBBD@?$AAw?$AAc?$AAs?$AAc?$AAa?$AAt?$AA_?$AAs?$AA?$CI?$AAs?$AAz?$AAL?$AAi?$AAn?$AAe?$AAM?$AAe?$AAs?$AAs?$AAa?$AAg?$AAe?$AA?0?$AA?5?$AA4?$AA0?$AA9?$AA6?$AA?0?$AA?5?$AAs?$AAz@ 0051e950     LIBCMTD:dbgrptt.obj
 0002:0000b9b0       ??_C@_1KO@DGAHENCH@?$AAw?$AAc?$AAs?$AAc?$AAp?$AAy?$AA_?$AAs?$AA?$CI?$AAs?$AAz?$AAL?$AAi?$AAn?$AAe?$AAM?$AAe?$AAs?$AAs?$AAa?$AAg?$AAe?$AA?0?$AA?5?$AA4?$AA0?$AA9?$AA6?$AA?0?$AA?5?$AAs?$AAz@ 0051e9b0     LIBCMTD:dbgrptt.obj
 0002:0000ba60       ??_C@_1CE@OJBNHDMO@?$AAA?$AAs?$AAs?$AAe?$AAr?$AAt?$AAi?$AAo?$AAn?$AA?5?$AAf?$AAa?$AAi?$AAl?$AAe?$AAd?$AA?$CB?$AA?$AA@ 0051ea60     LIBCMTD:dbgrptt.obj
 0002:0000ba84       ??_C@_1CG@FFFGGODN@?$AAA?$AAs?$AAs?$AAe?$AAr?$AAt?$AAi?$AAo?$AAn?$AA?5?$AAf?$AAa?$AAi?$AAl?$AAe?$AAd?$AA?3?$AA?5?$AA?$AA@ 0051ea84     LIBCMTD:dbgrptt.obj
 0002:0000bab0       ??_C@_1JK@KHFABAEO@?$AAw?$AAc?$AAs?$AAc?$AAp?$AAy?$AA_?$AAs?$AA?$CI?$AAs?$AAz?$AAU?$AAs?$AAe?$AAr?$AAM?$AAe?$AAs?$AAs?$AAa?$AAg?$AAe?$AA?0?$AA?5?$AA4?$AA0?$AA9?$AA6?$AA?0?$AA?5?$AAL?$AA?$CC@ 0051eab0     LIBCMTD:dbgrptt.obj
 0002:0000bb4c       ??_C@_13LBAGMAIH@?$AA?6?$AA?$AA@ 0051eb4c     LIBCMTD:dbgrptt.obj
 0002:0000bb50       ??_C@_1BA@ELMMDCFC@?$AA?0?$AA?5?$AAL?$AAi?$AAn?$AAe?$AA?5?$AA?$AA@ 0051eb50     LIBCMTD:dbgrptt.obj
 0002:0000bb60       ??_C@_1BO@OCHMLCAG@?$AA?$DM?$AAf?$AAi?$AAl?$AAe?$AA?5?$AAu?$AAn?$AAk?$AAn?$AAo?$AAw?$AAn?$AA?$DO?$AA?$AA@ 0051eb60     LIBCMTD:dbgrptt.obj
 0002:0000bb80       ??_C@_1EM@MJFLEDMB@?$AAS?$AAe?$AAc?$AAo?$AAn?$AAd?$AA?5?$AAC?$AAh?$AAa?$AAn?$AAc?$AAe?$AA?5?$AAA?$AAs?$AAs?$AAe?$AAr?$AAt?$AAi?$AAo?$AAn?$AA?5?$AAF?$AAa?$AAi?$AAl?$AAe?$AAd?$AA?3?$AA?5@ 0051eb80     LIBCMTD:dbgrptt.obj
 0002:0000bbd0       ??_C@_1FA@CNLLOMHI@?$AA_?$AAi?$AAt?$AAo?$AAw?$AA_?$AAs?$AA?$CI?$AAn?$AAL?$AAi?$AAn?$AAe?$AA?0?$AA?5?$AAs?$AAz?$AAL?$AAi?$AAn?$AAe?$AAM?$AAe?$AAs?$AAs?$AAa?$AAg?$AAe?$AA?0?$AA?5?$AA4?$AA0@ 0051ebd0     LIBCMTD:dbgrptt.obj
 0002:0000bc20       ??_C@_1CA@HPALHDOD@?$AA_?$AAV?$AAC?$AAr?$AAt?$AAD?$AAb?$AAg?$AAR?$AAe?$AAp?$AAo?$AAr?$AAt?$AAW?$AA?$AA@ 0051ec20     LIBCMTD:dbgrptt.obj
 0002:0000bc40       ??_C@_1DM@MADKGDLO@?$AA?$CI?$AAL?$AA?$CC?$AAB?$AAu?$AAf?$AAf?$AAe?$AAr?$AA?5?$AAi?$AAs?$AA?5?$AAt?$AAo?$AAo?$AA?5?$AAs?$AAm?$AAa?$AAl?$AAl?$AA?$CC?$AA?5?$AA?$CG?$AA?$CG?$AA?5?$AA0?$AA?$CJ?$AA?$AA@ 0051ec40     LIBCMTD:strcpy_s.obj
 0002:0000bc7c       ??_C@_1CI@HCPHDDLE@?$AAB?$AAu?$AAf?$AAf?$AAe?$AAr?$AA?5?$AAi?$AAs?$AA?5?$AAt?$AAo?$AAo?$AA?5?$AAs?$AAm?$AAa?$AAl?$AAl?$AA?$AA@ 0051ec7c     LIBCMTD:strcpy_s.obj
 0002:0000bca4       ??_C@_1CG@OFBJMIGJ@?$AA?$CI?$AA?$CI?$AA?$CI?$AA_?$AAS?$AAr?$AAc?$AA?$CJ?$AA?$CJ?$AA?$CJ?$AA?5?$AA?$CB?$AA?$DN?$AA?5?$AAN?$AAU?$AAL?$AAL?$AA?$AA@ 0051eca4     LIBCMTD:strcpy_s.obj
 0002:0000bccc       ??_C@_1BC@CFJEPFGF@?$AAs?$AAt?$AAr?$AAc?$AAp?$AAy?$AA_?$AAs?$AA?$AA@ 0051eccc     LIBCMTD:strcpy_s.obj
 0002:0000bce0       ??_C@_1GI@LIGBEGKN@?$AAF?$AA?3?$AA?2?$AAS?$AAP?$AA?2?$AAv?$AAc?$AAt?$AAo?$AAo?$AAl?$AAs?$AA?2?$AAc?$AAr?$AAt?$AA_?$AAb?$AAl?$AAd?$AA?2?$AAS?$AAE?$AAL?$AAF?$AA_?$AAX?$AA8?$AA6?$AA?2?$AAc@ 0051ece0     LIBCMTD:strcpy_s.obj
 0002:0000bd48       ??_C@_1FC@NCPEPIBI@?$AA?$CI?$AA?$CI?$AA_?$AAD?$AAs?$AAt?$AA?$CJ?$AA?$CJ?$AA?5?$AA?$CB?$AA?$DN?$AA?5?$AAN?$AAU?$AAL?$AAL?$AA?5?$AA?$CG?$AA?$CG?$AA?5?$AA?$CI?$AA?$CI?$AA_?$AAS?$AAi?$AAz?$AAe?$AAI?$AAn?$AAB?$AAy?$AAt@ 0051ed48     LIBCMTD:strcpy_s.obj
 0002:0000bda0       ??_C@_1FA@MJKDNFFB@?$AA?$CI?$AAL?$AA?$CC?$AAS?$AAt?$AAr?$AAi?$AAn?$AAg?$AA?5?$AAi?$AAs?$AA?5?$AAn?$AAo?$AAt?$AA?5?$AAn?$AAu?$AAl?$AAl?$AA?5?$AAt?$AAe?$AAr?$AAm?$AAi?$AAn?$AAa?$AAt?$AAe?$AAd@ 0051eda0     LIBCMTD:strcat_s.obj
 0002:0000bdf0       ??_C@_1DM@FHLMIEG@?$AAS?$AAt?$AAr?$AAi?$AAn?$AAg?$AA?5?$AAi?$AAs?$AA?5?$AAn?$AAo?$AAt?$AA?5?$AAn?$AAu?$AAl?$AAl?$AA?5?$AAt?$AAe?$AAr?$AAm?$AAi?$AAn?$AAa?$AAt?$AAe?$AAd?$AA?$AA@ 0051edf0     LIBCMTD:strcat_s.obj
 0002:0000be2c       ??_C@_1BC@HGPNAKGC@?$AAs?$AAt?$AAr?$AAc?$AAa?$AAt?$AA_?$AAs?$AA?$AA@ 0051ee2c     LIBCMTD:strcat_s.obj
 0002:0000be40       ??_C@_1GI@HANKOOAN@?$AAF?$AA?3?$AA?2?$AAS?$AAP?$AA?2?$AAv?$AAc?$AAt?$AAo?$AAo?$AAl?$AAs?$AA?2?$AAc?$AAr?$AAt?$AA_?$AAb?$AAl?$AAd?$AA?2?$AAS?$AAE?$AAL?$AAF?$AA_?$AAX?$AA8?$AA6?$AA?2?$AAc@ 0051ee40     LIBCMTD:strcat_s.obj
 0002:0000bea8       ??_C@_1BK@CMPKHPEC@?$AAn?$AA?5?$AA?$DM?$AA?$DN?$AA?5?$AAI?$AAN?$AAT?$AA_?$AAM?$AAA?$AAX?$AA?$AA@ 0051eea8     LIBCMTD:wcstombs.obj
 0002:0000bec4       ??_C@_1CG@LLJCAOHF@?$AA_?$AAw?$AAc?$AAs?$AAt?$AAo?$AAm?$AAb?$AAs?$AA_?$AAl?$AA_?$AAh?$AAe?$AAl?$AAp?$AAe?$AAr?$AA?$AA@ 0051eec4     LIBCMTD:wcstombs.obj
 0002:0000beec       ??_C@_1BG@POHBKINF@?$AAw?$AAc?$AAs?$AAt?$AAo?$AAm?$AAb?$AAs?$AA?4?$AAc?$AA?$AA@ 0051eeec     LIBCMTD:wcstombs.obj
 0002:0000bf04       ??_C@_1BK@OIBENBPM@?$AAp?$AAw?$AAc?$AAs?$AA?5?$AA?$CB?$AA?$DN?$AA?5?$AAN?$AAU?$AAL?$AAL?$AA?$AA@ 0051ef04     LIBCMTD:wcstombs.obj
 0002:0000bf20       ??_C@_1CM@KEOGBFLI@?$AAs?$AAi?$AAz?$AAe?$AAI?$AAn?$AAB?$AAy?$AAt?$AAe?$AAs?$AA?5?$AA?$DO?$AA?5?$AAr?$AAe?$AAt?$AAs?$AAi?$AAz?$AAe?$AA?$AA@ 0051ef20     LIBCMTD:wcstombs.obj
 0002:0000bf4c       ??_C@_1BM@BDMCLLDL@?$AA_?$AAw?$AAc?$AAs?$AAt?$AAo?$AAm?$AAb?$AAs?$AA_?$AAs?$AA_?$AAl?$AA?$AA@ 0051ef4c     LIBCMTD:wcstombs.obj
 0002:0000bf68       ??_C@_1IM@MFGKHGBP@?$AA?$CI?$AAd?$AAs?$AAt?$AA?5?$AA?$CB?$AA?$DN?$AA?5?$AAN?$AAU?$AAL?$AAL?$AA?5?$AA?$CG?$AA?$CG?$AA?5?$AAs?$AAi?$AAz?$AAe?$AAI?$AAn?$AAB?$AAy?$AAt?$AAe?$AAs?$AA?5?$AA?$DO?$AA?5?$AA0?$AA?$CJ@ 0051ef68     LIBCMTD:wcstombs.obj
 0002:0000bff4       ??_C@_0P@MIGLKIOC@CorExitProcess?$AA@ 0051eff4     LIBCMTD:crt0dat.obj
 0002:0000c004       ??_C@_0M@MBOPBNBK@mscoree?4dll?$AA@ 0051f004     LIBCMTD:crt0dat.obj
 0002:0000c010       ??_C@_1BO@PCPNBEJP@?$AA_?$AAo?$AAs?$AAp?$AAl?$AAa?$AAt?$AAf?$AAo?$AAr?$AAm?$AA?$CB?$AA?$DN?$AA0?$AA?$AA@ 0051f010     LIBCMTD:crt0dat.obj
 0002:0000c030       ??_C@_1CA@HBJLODAG@?$AA_?$AAg?$AAe?$AAt?$AA_?$AAo?$AAs?$AAp?$AAl?$AAa?$AAt?$AAf?$AAo?$AAr?$AAm?$AA?$AA@ 0051f030     LIBCMTD:crt0dat.obj
 0002:0000c050       ??_C@_1BE@DFOEAGLM@?$AAc?$AAr?$AAt?$AA0?$AAd?$AAa?$AAt?$AA?4?$AAc?$AA?$AA@ 0051f050     LIBCMTD:crt0dat.obj
 0002:0000c064       ??_C@_1BG@OLMEODBO@?$AA_?$AAg?$AAe?$AAt?$AA_?$AAo?$AAs?$AAv?$AAe?$AAr?$AA?$AA@ 0051f064     LIBCMTD:crt0dat.obj
 0002:0000c07c       ??_C@_1BI@EHCOONPO@?$AA_?$AAg?$AAe?$AAt?$AA_?$AAw?$AAi?$AAn?$AAv?$AAe?$AAr?$AA?$AA@ 0051f07c     LIBCMTD:crt0dat.obj
 0002:0000c094       ??_C@_1BM@MHJHOJPG@?$AA_?$AAg?$AAe?$AAt?$AA_?$AAw?$AAi?$AAn?$AAm?$AAa?$AAj?$AAo?$AAr?$AA?$AA@ 0051f094     LIBCMTD:crt0dat.obj
 0002:0000c0b0       ??_C@_1BM@FAAKKHPI@?$AA_?$AAg?$AAe?$AAt?$AA_?$AAw?$AAi?$AAn?$AAm?$AAi?$AAn?$AAo?$AAr?$AA?$AA@ 0051f0b0     LIBCMTD:crt0dat.obj
 0002:0000c0cc       ??_C@_1CC@CDIPMFPD@?$AA_?$AAw?$AAp?$AAg?$AAm?$AAp?$AAt?$AAr?$AA?5?$AA?$CB?$AA?$DN?$AA?5?$AAN?$AAU?$AAL?$AAL?$AA?$AA@ 0051f0cc     LIBCMTD:crt0dat.obj
 0002:0000c0f0       ??_C@_1BK@PNLDCCDP@?$AA_?$AAg?$AAe?$AAt?$AA_?$AAw?$AAp?$AAg?$AAm?$AAp?$AAt?$AAr?$AA?$AA@ 0051f0f0     LIBCMTD:crt0dat.obj
 0002:0000c10c       ??_C@_1CA@BBNAFCKO@?$AA_?$AAp?$AAg?$AAm?$AAp?$AAt?$AAr?$AA?5?$AA?$CB?$AA?$DN?$AA?5?$AAN?$AAU?$AAL?$AAL?$AA?$AA@ 0051f10c     LIBCMTD:crt0dat.obj
 0002:0000c12c       ??_C@_1BI@COAAPHJK@?$AA_?$AAg?$AAe?$AAt?$AA_?$AAp?$AAg?$AAm?$AAp?$AAt?$AAr?$AA?$AA@ 0051f12c     LIBCMTD:crt0dat.obj
 0002:0000c144       ??_C@_1O@EJLDHPPL@?$AAs?$AAi?$AAg?$AAn?$AAa?$AAl?$AA?$AA@ 0051f144     LIBCMTD:winsig.obj
 0002:0000c154       ??_C@_1BC@KDODBONJ@?$AAw?$AAi?$AAn?$AAs?$AAi?$AAg?$AA?4?$AAc?$AA?$AA@ 0051f154     LIBCMTD:winsig.obj
 0002:0000c168       ??_C@_1DO@MLNEDKGB@?$AA?$CI?$AA?$CC?$AAI?$AAn?$AAv?$AAa?$AAl?$AAi?$AAd?$AA?5?$AAs?$AAi?$AAg?$AAn?$AAa?$AAl?$AA?5?$AAo?$AAr?$AA?5?$AAe?$AAr?$AAr?$AAo?$AAr?$AA?$CC?$AA?0?$AA?5?$AA0?$AA?$CJ?$AA?$AA@ 0051f168     LIBCMTD:winsig.obj
 0002:0000c1a8       ??_C@_08FKHPDPAC@winsig?4c?$AA@ 0051f1a8     LIBCMTD:winsig.obj
 0002:0000c1b4       ??_C@_1M@DMJEIKHL@?$AAr?$AAa?$AAi?$AAs?$AAe?$AA?$AA@ 0051f1b4     LIBCMTD:winsig.obj
 0002:0000c1c0       ??_C@_1DC@OIOKIELJ@?$AA_?$AAg?$AAe?$AAt?$AA_?$AAw?$AAi?$AAn?$AAm?$AAa?$AAj?$AAo?$AAr?$AA?$CI?$AA?$CG?$AAw?$AAi?$AAn?$AAm?$AAa?$AAj?$AAo?$AAr?$AA?$CJ?$AA?$AA@ 0051f1c0     LIBCMTD:crtmboxw.obj
 0002:0000c1f4       ??_C@_0BI@DFKBFLJE@GetProcessWindowStation?$AA@ 0051f1f4     LIBCMTD:crtmboxw.obj
 0002:0000c20c       ??_C@_0BK@DEKFELLI@GetUserObjectInformationW?$AA@ 0051f20c     LIBCMTD:crtmboxw.obj
 0002:0000c228       ??_C@_1CC@LBPMICNL@?$AA_?$AA_?$AAc?$AAr?$AAt?$AAM?$AAe?$AAs?$AAs?$AAa?$AAg?$AAe?$AAB?$AAo?$AAx?$AAW?$AA?$AA@ 0051f228     LIBCMTD:crtmboxw.obj
 0002:0000c250       ??_C@_1GC@HLBFDAED@?$AAf?$AA?3?$AA?2?$AAs?$AAp?$AA?2?$AAv?$AAc?$AAt?$AAo?$AAo?$AAl?$AAs?$AA?2?$AAc?$AAr?$AAt?$AA_?$AAb?$AAl?$AAd?$AA?2?$AAs?$AAe?$AAl?$AAf?$AA_?$AAx?$AA8?$AA6?$AA?2?$AAc@ 0051f250     LIBCMTD:crtmboxw.obj
 0002:0000c2b4       ??_C@_0BD@HHGDFDBJ@GetLastActivePopup?$AA@ 0051f2b4     LIBCMTD:crtmboxw.obj
 0002:0000c2c8       ??_C@_0BA@HNOPNCHB@GetActiveWindow?$AA@ 0051f2c8     LIBCMTD:crtmboxw.obj
 0002:0000c2d8       ??_C@_0M@DLDCCGNP@MessageBoxW?$AA@ 0051f2d8     LIBCMTD:crtmboxw.obj
 0002:0000c2e4       ??_C@_1BG@GOEBHBDC@?$AAU?$AAS?$AAE?$AAR?$AA3?$AA2?$AA?4?$AAD?$AAL?$AAL?$AA?$AA@ 0051f2e4     LIBCMTD:crtmboxw.obj
 0002:0000c2fc       ??_C@_1BE@BMIJMLDD@?$AA_?$AAs?$AAw?$AAp?$AAr?$AAi?$AAn?$AAt?$AAf?$AA?$AA@ 0051f2fc     LIBCMTD:swprintf.obj
 0002:0000c310       ??_C@_1BG@CEFLJIIJ@?$AAs?$AAw?$AAp?$AAr?$AAi?$AAn?$AAt?$AAf?$AA?4?$AAc?$AA?$AA@ 0051f310     LIBCMTD:swprintf.obj
 0002:0000c328       ??_C@_1BE@PMMBFFCC@?$AAw?$AAc?$AAs?$AAn?$AAc?$AAp?$AAy?$AA_?$AAs?$AA?$AA@ 0051f328     LIBCMTD:wcsncpy_s.obj
 0002:0000c340       ??_C@_1GK@IKMAONFM@?$AAF?$AA?3?$AA?2?$AAS?$AAP?$AA?2?$AAv?$AAc?$AAt?$AAo?$AAo?$AAl?$AAs?$AA?2?$AAc?$AAr?$AAt?$AA_?$AAb?$AAl?$AAd?$AA?2?$AAS?$AAE?$AAL?$AAF?$AA_?$AAX?$AA8?$AA6?$AA?2?$AAc@ 0051f340     LIBCMTD:wcsncpy_s.obj
 0002:0000c3b0       ??_C@_1FC@PFMLEHKI@?$AA?$CI?$AA?$CI?$AA_?$AAD?$AAs?$AAt?$AA?$CJ?$AA?$CJ?$AA?5?$AA?$CB?$AA?$DN?$AA?5?$AAN?$AAU?$AAL?$AAL?$AA?5?$AA?$CG?$AA?$CG?$AA?5?$AA?$CI?$AA?$CI?$AA_?$AAS?$AAi?$AAz?$AAe?$AAI?$AAn?$AAW?$AAo?$AAr@ 0051f3b0     LIBCMTD:wcsncpy_s.obj
 0002:0000c404       ??_C@_1BC@KIONAFPO@?$AAw?$AAc?$AAs?$AAc?$AAp?$AAy?$AA_?$AAs?$AA?$AA@ 0051f404     LIBCMTD:wcscpy_s.obj
 0002:0000c418       ??_C@_1BI@JFCCCJAM@?$AAt?$AAy?$AAp?$AAn?$AAa?$AAm?$AAe?$AA?4?$AAc?$AAp?$AAp?$AA?$AA@ 0051f418     LIBCMTD:typname.obj
 0002:0000c430       ??_C@_1CI@IDCGDBOP@?$AAp?$AAN?$AAo?$AAd?$AAe?$AA?9?$AA?$DO?$AAn?$AAe?$AAx?$AAt?$AA?5?$AA?$CB?$AA?$DN?$AA?5?$AAN?$AAU?$AAL?$AAL?$AA?$AA@ 0051f430     LIBCMTD:typname.obj
 0002:0000c458       ??_C@_1JK@MLBKHELP@?$AAs?$AAt?$AAr?$AAc?$AAp?$AAy?$AA_?$AAs?$AA?5?$AA?$CI?$AA?$CI?$AAc?$AAh?$AAa?$AAr?$AA?5?$AA?$CK?$AA?$CJ?$AA?$CI?$AA?$CI?$AAt?$AAy?$AAp?$AAe?$AA_?$AAi?$AAn?$AAf?$AAo?$AA?5?$AA?$CK?$AA?$CJ@ 0051f458     LIBCMTD:typname.obj
 0002:0000c4f4       ??_C@_1CM@OOICDMK@?$AAt?$AAy?$AAp?$AAe?$AA_?$AAi?$AAn?$AAf?$AAo?$AA?3?$AA?3?$AA_?$AAN?$AAa?$AAm?$AAe?$AA_?$AAb?$AAa?$AAs?$AAe?$AA?$AA@ 0051f4f4     LIBCMTD:typname.obj
 0002:0000c520       ??_C@_1DO@OJJLFJPE@?$AAt?$AAy?$AAp?$AAe?$AA_?$AAi?$AAn?$AAf?$AAo?$AA?3?$AA?3?$AA_?$AAN?$AAa?$AAm?$AAe?$AA_?$AAb?$AAa?$AAs?$AAe?$AA_?$AAi?$AAn?$AAt?$AAe?$AAr?$AAn?$AAa?$AAl?$AA?$AA@ 0051f520     LIBCMTD:typname.obj
 0002:0000c560       ??_C@_1CA@OEHMHBJF@?$AAv?$AAf?$AAp?$AAr?$AAi?$AAn?$AAt?$AAf?$AA_?$AAh?$AAe?$AAl?$AAp?$AAe?$AAr?$AA?$AA@ 0051f560     LIBCMTD:vfprintf.obj
 0002:0000c580       ??_C@_1BG@OKHDPPCK@?$AAv?$AAf?$AAp?$AAr?$AAi?$AAn?$AAt?$AAf?$AA?4?$AAc?$AA?$AA@ 0051f580     LIBCMTD:vfprintf.obj
 0002:0000c598       ??_C@_1GE@KOCFNGPB@?$AA_?$AAc?$AAo?$AAn?$AAt?$AAr?$AAo?$AAl?$AAf?$AAp?$AA_?$AAs?$AA?$CI?$AA?$CI?$AA?$CI?$AAv?$AAo?$AAi?$AAd?$AA?5?$AA?$CK?$AA?$CJ?$AA0?$AA?$CJ?$AA?0?$AA?5?$AA0?$AAx?$AA0?$AA0?$AA0?$AA1@ 0051f598     LIBCMTD:fp8.obj
 0002:0000c5fc       ??_C@_1CK@JMKHCBEI@?$AA_?$AAs?$AAe?$AAt?$AAd?$AAe?$AAf?$AAa?$AAu?$AAl?$AAt?$AAp?$AAr?$AAe?$AAc?$AAi?$AAs?$AAi?$AAo?$AAn?$AA?$AA@ 0051f5fc     LIBCMTD:fp8.obj
 0002:0000c628       ??_C@_1BI@DMMHIADH@?$AAi?$AAn?$AAt?$AAe?$AAl?$AA?2?$AAf?$AAp?$AA8?$AA?4?$AAc?$AA?$AA@ 0051f628     LIBCMTD:fp8.obj
 0002:0000c640       __real@4150017ec0000000    0051f640     LIBCMTD:testfdiv.obj
 0002:0000c648       __real@4147ffff80000000    0051f648     LIBCMTD:testfdiv.obj
 0002:0000c650       ??_C@_0BK@NHEOCAHP@IsProcessorFeaturePresent?$AA@ 0051f650     LIBCMTD:testfdiv.obj
 0002:0000c66c       ??_C@_08CPNIBGIE@KERNEL32?$AA@ 0051f66c     LIBCMTD:testfdiv.obj
 0002:0000c678       ??_C@_1CA@CBMNPEO@?$AAs?$AAi?$AAz?$AAe?$AAI?$AAn?$AAB?$AAy?$AAt?$AAe?$AAs?$AA?5?$AA?$DO?$AA?5?$AA0?$AA?$AA@ 0051f678     LIBCMTD:cvt.obj
 0002:0000c698       ??_C@_1BC@INKAPMHI@?$AA_?$AAc?$AAf?$AAt?$AAo?$AAe?$AA_?$AAl?$AA?$AA@ 0051f698     LIBCMTD:cvt.obj
 0002:0000c6ac       ??_C@_1M@BMJONBHG@?$AAc?$AAv?$AAt?$AA?4?$AAc?$AA?$AA@ 0051f6ac     LIBCMTD:cvt.obj
 0002:0000c6b8       ??_C@_1BI@ICGGMGLK@?$AAb?$AAu?$AAf?$AA?5?$AA?$CB?$AA?$DN?$AA?5?$AAN?$AAU?$AAL?$AAL?$AA?$AA@ 0051f6b8     LIBCMTD:cvt.obj
 0002:0000c6d0       ??_C@_05KLBDPFGC@e?$CL000?$AA@ 0051f6d0     LIBCMTD:cvt.obj
 0002:0000c6d8       ??_C@_1LE@EOIFGNCJ@?$AAs?$AAt?$AAr?$AAc?$AAp?$AAy?$AA_?$AAs?$AA?$CI?$AAp?$AA?0?$AA?5?$AA?$CI?$AAs?$AAi?$AAz?$AAe?$AAI?$AAn?$AAB?$AAy?$AAt?$AAe?$AAs?$AA?5?$AA?$DN?$AA?$DN?$AA?5?$AA?$CI?$AAs?$AAi?$AAz@ 0051f6d8     LIBCMTD:cvt.obj
 0002:0000c790       ??_C@_1HE@NACBNDPP@?$AAs?$AAi?$AAz?$AAe?$AAI?$AAn?$AAB?$AAy?$AAt?$AAe?$AAs?$AA?5?$AA?$DO?$AA?5?$AA?$CI?$AAs?$AAi?$AAz?$AAe?$AA_?$AAt?$AA?$CJ?$AA?$CI?$AA3?$AA?5?$AA?$CL?$AA?5?$AA?$CI?$AAn?$AAd?$AAe?$AAc@ 0051f790     LIBCMTD:cvt.obj
 0002:0000c804       ??_C@_1BE@OLBNEILL@?$AA_?$AAc?$AAf?$AAt?$AAo?$AAe?$AA2?$AA_?$AAl?$AA?$AA@ 0051f804     LIBCMTD:cvt.obj
 0002:0000c818       ??_C@_1FC@IKIMAMJB@?$AAs?$AAi?$AAz?$AAe?$AAI?$AAn?$AAB?$AAy?$AAt?$AAe?$AAs?$AA?5?$AA?$DO?$AA?5?$AA?$CI?$AAs?$AAi?$AAz?$AAe?$AA_?$AAt?$AA?$CJ?$AA?$CI?$AA1?$AA?5?$AA?$CL?$AA?5?$AA4?$AA?5?$AA?$CL?$AA?5?$AAn@ 0051f818     LIBCMTD:cvt.obj
 0002:0000c86c       ??_C@_1BC@JOKPCIC@?$AA_?$AAc?$AAf?$AAt?$AAo?$AAa?$AA_?$AAl?$AA?$AA@ 0051f86c     LIBCMTD:cvt.obj
 0002:0000c880       ??_C@_1BC@DCPPLJL@?$AA_?$AAc?$AAf?$AAt?$AAo?$AAf?$AA_?$AAl?$AA?$AA@ 0051f880     LIBCMTD:cvt.obj
 0002:0000c894       ??_C@_1BE@CKPDLI@?$AA_?$AAc?$AAf?$AAt?$AAo?$AAf?$AA2?$AA_?$AAl?$AA?$AA@ 0051f894     LIBCMTD:cvt.obj
 0002:0000c8a8       ??_C@_1BC@MPIFPLAF@?$AA_?$AAc?$AAf?$AAt?$AAo?$AAg?$AA_?$AAl?$AA?$AA@ 0051f8a8     LIBCMTD:cvt.obj
 0002:0000c8bc       ??_C@_1BC@MJNBEDIJ@?$AA_?$AAi?$AAn?$AAp?$AAu?$AAt?$AA_?$AAl?$AA?$AA@ 0051f8bc     LIBCMTD:input.obj
 0002:0000c8d0       ??_C@_1BA@LIDNIBLD@?$AAi?$AAn?$AAp?$AAu?$AAt?$AA?4?$AAc?$AA?$AA@ 0051f8d0     LIBCMTD:input.obj
 0002:0000c8e0       ??_C@_07CMLOKKIF@input?4c?$AA@ 0051f8e0     LIBCMTD:input.obj
 0002:0000c8e8       ??_C@_1DO@MBOKMJPK@?$AAn?$AAF?$AAl?$AAo?$AAa?$AAt?$AAS?$AAt?$AAr?$AAU?$AAs?$AAe?$AAd?$AA?$DM?$AA?$DN?$AA?$CI?$AA?$CK?$AAp?$AAn?$AAF?$AAl?$AAo?$AAa?$AAt?$AAS?$AAt?$AAr?$AAS?$AAz?$AA?$CJ?$AA?$AA@ 0051f8e8     LIBCMTD:input.obj
 0002:0000c928       ??_C@_1DG@MPPGJOHD@?$AA?$CI?$AA?$CC?$AAI?$AAn?$AAv?$AAa?$AAl?$AAi?$AAd?$AA?5?$AAI?$AAn?$AAp?$AAu?$AAt?$AA?5?$AAF?$AAo?$AAr?$AAm?$AAa?$AAt?$AA?$CC?$AA?0?$AA0?$AA?$CJ?$AA?$AA@ 0051f928     LIBCMTD:inputs.obj
 0002:0000c960       ??_C@_1BG@LBKFJFHM@?$AA_?$AAi?$AAn?$AAp?$AAu?$AAt?$AA_?$AAs?$AA_?$AAl?$AA?$AA@ 0051f960     LIBCMTD:inputs.obj
 0002:0000c978       ??_C@_1FO@BBFHLJDH@?$AAf?$AA?3?$AA?2?$AAs?$AAp?$AA?2?$AAv?$AAc?$AAt?$AAo?$AAo?$AAl?$AAs?$AA?2?$AAc?$AAr?$AAt?$AA_?$AAb?$AAl?$AAd?$AA?2?$AAs?$AAe?$AAl?$AAf?$AA_?$AAx?$AA8?$AA6?$AA?2?$AAc@ 0051f978     LIBCMTD:inputs.obj
 0002:0000c9d8       ??_C@_0CP@LIINODAI@f?3?2sp?2vctools?2crt_bld?2self_x86?2c@ 0051f9d8     LIBCMTD:inputs.obj
 0002:0000ca08       ??_C@_1DG@LNNHNFHJ@?$AA?$CI?$AA_?$AAo?$AAs?$AAf?$AAi?$AAl?$AAe?$AA?$CI?$AAf?$AAi?$AAl?$AAe?$AAd?$AAe?$AAs?$AA?$CJ?$AA?5?$AA?$CG?$AA?5?$AAF?$AAO?$AAP?$AAE?$AAN?$AA?$CJ?$AA?$AA@ 0051fa08     LIBCMTD:commit.obj
 0002:0000ca40       ??_C@_1BA@FLNMBBIM@?$AA_?$AAc?$AAo?$AAm?$AAm?$AAi?$AAt?$AA?$AA@ 0051fa40     LIBCMTD:commit.obj
 0002:0000ca50       ??_C@_1BC@LOAFNBNC@?$AAc?$AAo?$AAm?$AAm?$AAi?$AAt?$AA?4?$AAc?$AA?$AA@ 0051fa50     LIBCMTD:commit.obj
 0002:0000ca68       ??_C@_1HC@KFLBHHBC@?$AA?$CI?$AAf?$AAi?$AAl?$AAe?$AAd?$AAe?$AAs?$AA?5?$AA?$DO?$AA?$DN?$AA?5?$AA0?$AA?5?$AA?$CG?$AA?$CG?$AA?5?$AA?$CI?$AAu?$AAn?$AAs?$AAi?$AAg?$AAn?$AAe?$AAd?$AA?$CJ?$AAf?$AAi?$AAl?$AAe?$AAd@ 0051fa68     LIBCMTD:commit.obj
 0002:0000cae0       ??_C@_1EA@GEPBEDLJ@?$AAs?$AAt?$AAr?$AAn?$AAc?$AAp?$AAy?$AA_?$AAs?$AA?$CI?$AAt?$AAz?$AAn?$AAa?$AAm?$AAe?$AA?$FL?$AA1?$AA?$FN?$AA?0?$AA?5?$AA6?$AA4?$AA?0?$AA?5?$AAT?$AAZ?$AA?0?$AA?5?$AA3?$AA?$CJ?$AA?$AA@ 0051fae0     LIBCMTD:tzset.obj
 0002:0000cb20       ??_C@_1EA@FIJBKALB@?$AAs?$AAt?$AAr?$AAn?$AAc?$AAp?$AAy?$AA_?$AAs?$AA?$CI?$AAt?$AAz?$AAn?$AAa?$AAm?$AAe?$AA?$FL?$AA0?$AA?$FN?$AA?0?$AA?5?$AA6?$AA4?$AA?0?$AA?5?$AAT?$AAZ?$AA?0?$AA?5?$AA3?$AA?$CJ?$AA?$AA@ 0051fb20     LIBCMTD:tzset.obj
 0002:0000cb60       ??_C@_1EK@MCAIMDPB@?$AAs?$AAt?$AAr?$AAc?$AAp?$AAy?$AA_?$AAs?$AA?$CI?$AAl?$AAa?$AAs?$AAt?$AAT?$AAZ?$AA?0?$AA?5?$AAs?$AAt?$AAr?$AAl?$AAe?$AAn?$AA?$CI?$AAT?$AAZ?$AA?$CJ?$AA?5?$AA?$CL?$AA?5?$AA1?$AA?0@ 0051fb60     LIBCMTD:tzset.obj
 0002:0000cbac       ??_C@_07LOOFNDIO@tzset?4c?$AA@ 0051fbac     LIBCMTD:tzset.obj
 0002:0000cbb4       ??_C@_02CLFPBFFP@TZ?$AA@   0051fbb4     LIBCMTD:tzset.obj
 0002:0000cbb8       ??_C@_1BM@IIODHMJC@?$AA_?$AAt?$AAz?$AAs?$AAe?$AAt?$AA_?$AAn?$AAo?$AAl?$AAo?$AAc?$AAk?$AA?$AA@ 0051fbb8     LIBCMTD:tzset.obj
 0002:0000cbd4       ??_C@_1BA@HIHOBNBL@?$AAt?$AAz?$AAs?$AAe?$AAt?$AA?4?$AAc?$AA?$AA@ 0051fbd4     LIBCMTD:tzset.obj
 0002:0000cbe4       ??_C@_1CA@GOLIIEDM@?$AA_?$AAi?$AAs?$AAi?$AAn?$AAd?$AAs?$AAt?$AA_?$AAn?$AAo?$AAl?$AAo?$AAc?$AAk?$AA?$AA@ 0051fbe4     LIBCMTD:tzset.obj
 0002:0000cc04       ??_C@_1BA@GOCKIDGO@?$AAc?$AAv?$AAt?$AAd?$AAa?$AAt?$AAe?$AA?$AA@ 0051fc04     LIBCMTD:tzset.obj
 0002:0000cc14       ??_C@_1DK@DBNCAPPN@?$AA?$CI?$AA?5?$AAc?$AAa?$AAl?$AAt?$AAi?$AAm?$AA?5?$AA?$DM?$AA?$DN?$AA?5?$AA_?$AAM?$AAA?$AAX?$AA_?$AA_?$AAT?$AAI?$AAM?$AAE?$AA6?$AA4?$AA_?$AAT?$AA?5?$AA?$CJ?$AA?$AA@ 0051fc14     LIBCMTD:gmtime64.obj
 0002:0000cc50       ??_C@_1CC@FPMHPAM@?$AA?$CI?$AA?5?$AAt?$AAi?$AAm?$AAp?$AA?5?$AA?$CB?$AA?$DN?$AA?5?$AAN?$AAU?$AAL?$AAL?$AA?5?$AA?$CJ?$AA?$AA@ 0051fc50     LIBCMTD:gmtime64.obj
 0002:0000cc74       ??_C@_1BI@BFNFPMLP@?$AA_?$AAg?$AAm?$AAt?$AAi?$AAm?$AAe?$AA6?$AA4?$AA_?$AAs?$AA?$AA@ 0051fc74     LIBCMTD:gmtime64.obj
 0002:0000cc8c       ??_C@_1BG@DEPIIAMF@?$AAg?$AAm?$AAt?$AAi?$AAm?$AAe?$AA6?$AA4?$AA?4?$AAc?$AA?$AA@ 0051fc8c     LIBCMTD:gmtime64.obj
 0002:0000cca4       ??_C@_1BI@DFJDDOHM@?$AA_?$AAg?$AAm?$AAt?$AAi?$AAm?$AAe?$AA3?$AA2?$AA_?$AAs?$AA?$AA@ 0051fca4     LIBCMTD:gmtime.obj
 0002:0000ccbc       ??_C@_1BC@EABFEKCL@?$AAg?$AAm?$AAt?$AAi?$AAm?$AAe?$AA?4?$AAc?$AA?$AA@ 0051fcbc     LIBCMTD:gmtime.obj
 0002:0000ccd0       ??_C@_08EMJPPPLP@gmtime?4c?$AA@ 0051fcd0     LIBCMTD:gmtime.obj
 0002:0000ccdc       ??_C@_1DE@MMOGFGHF@?$AAs?$AAt?$AAr?$AAc?$AAp?$AAy?$AA_?$AAs?$AA?$CI?$AA?$CK?$AAe?$AAn?$AAv?$AA?0?$AA?5?$AAc?$AAc?$AAh?$AAa?$AAr?$AAs?$AA?0?$AA?5?$AAp?$AA?$CJ?$AA?$AA@ 0051fcdc     LIBCMTD:stdenvp.obj
 0002:0000cd10       ??_C@_1BC@GHMCNHHL@?$AA_?$AAs?$AAe?$AAt?$AAe?$AAn?$AAv?$AAp?$AA?$AA@ 0051fd10     LIBCMTD:stdenvp.obj
 0002:0000cd24       ??_C@_1BE@DFNOPGHI@?$AAs?$AAt?$AAd?$AAe?$AAn?$AAv?$AAp?$AA?4?$AAc?$AA?$AA@ 0051fd24     LIBCMTD:stdenvp.obj
 0002:0000cd38       ??_C@_09HCDLHOJP@stdenvp?4c?$AA@ 0051fd38     LIBCMTD:stdenvp.obj
 0002:0000cd44       ??_C@_09IKILHJIC@stdargv?4c?$AA@ 0051fd44     LIBCMTD:stdargv.obj
 0002:0000cd50       ??_C@_07BPGNOCOG@a_env?4c?$AA@ 0051fd50     LIBCMTD:a_env.obj
 0002:0000cd58       ??_C@_1BM@DKJOGMJM@?$AA_?$AA_?$AAh?$AAe?$AAa?$AAp?$AA_?$AAs?$AAe?$AAl?$AAe?$AAc?$AAt?$AA?$AA@ 0051fd58     LIBCMTD:heapinit.obj
 0002:0000cd74       ??_C@_1BG@INAAHHLF@?$AAh?$AAe?$AAa?$AAp?$AAi?$AAn?$AAi?$AAt?$AA?4?$AAc?$AA?$AA@ 0051fd74     LIBCMTD:heapinit.obj
 0002:0000cd8c       ??_C@_1BC@DENNNKIM@?$AA_?$AAc?$AAr?$AAt?$AAh?$AAe?$AAa?$AAp?$AA?$AA@ 0051fd8c     LIBCMTD:heapinit.obj
 0002:0000cda0       ??_C@_0P@GGKDKEEG@runtime?5error?5?$AA@ 0051fda0     LIBCMTD:crt0msg.obj
 0002:0000cdb0       ??_C@_02PCIJFNDE@?$AN?6?$AA@ 0051fdb0     LIBCMTD:crt0msg.obj
 0002:0000cdb4       ??_C@_0O@MJNIPGOH@TLOSS?5error?$AN?6?$AA@ 0051fdb4     LIBCMTD:crt0msg.obj
 0002:0000cdc4       ??_C@_0N@BONNPDHF@SING?5error?$AN?6?$AA@ 0051fdc4     LIBCMTD:crt0msg.obj
 0002:0000cdd4       ??_C@_0P@MBDAJNE@DOMAIN?5error?$AN?6?$AA@ 0051fdd4     LIBCMTD:crt0msg.obj
 0002:0000cde8       ??_C@_0BFB@HKKMCDOL@R6034?$AN?6An?5application?5has?5made?5a@ 0051fde8     LIBCMTD:crt0msg.obj
 0002:0000cf40       ??_C@_0PH@EPAFIJ@R6033?$AN?6?9?5Attempt?5to?5use?5MSIL?5cod@ 0051ff40     LIBCMTD:crt0msg.obj
 0002:0000d038       ??_C@_0DD@BKEEABMM@R6032?$AN?6?9?5not?5enough?5space?5for?5lo@ 00520038     LIBCMTD:crt0msg.obj
 0002:0000d070       ??_C@_0GD@OFKILIED@R6031?$AN?6?9?5Attempt?5to?5initialize?5t@ 00520070     LIBCMTD:crt0msg.obj
 0002:0000d0d4       ??_C@_0BP@LPMHJOKI@R6030?$AN?6?9?5CRT?5not?5initialized?$AN?6?$AA@ 005200d4     LIBCMTD:crt0msg.obj
 0002:0000d0f4       ??_C@_0CF@KJDAIALP@R6028?$AN?6?9?5unable?5to?5initialize?5he@ 005200f4     LIBCMTD:crt0msg.obj
 0002:0000d11c       ??_C@_0DF@GAKBPDFP@R6027?$AN?6?9?5not?5enough?5space?5for?5lo@ 0052011c     LIBCMTD:crt0msg.obj
 0002:0000d154       ??_C@_0DF@IBLNNAIG@R6026?$AN?6?9?5not?5enough?5space?5for?5st@ 00520154     LIBCMTD:crt0msg.obj
 0002:0000d18c       ??_C@_0CG@IOHKGFNJ@R6025?$AN?6?9?5pure?5virtual?5function?5c@ 0052018c     LIBCMTD:crt0msg.obj
 0002:0000d1b4       ??_C@_0DF@JIJJFJDC@R6024?$AN?6?9?5not?5enough?5space?5for?5_o@ 005201b4     LIBCMTD:crt0msg.obj
 0002:0000d1ec       ??_C@_0CJ@EGEJHFME@R6019?$AN?6?9?5unable?5to?5open?5console?5@ 005201ec     LIBCMTD:crt0msg.obj
 0002:0000d218       ??_C@_0CB@GNHNIELH@R6018?$AN?6?9?5unexpected?5heap?5error?$AN?6@ 00520218     LIBCMTD:crt0msg.obj
 0002:0000d23c       ??_C@_0CN@FOLDKNG@R6017?$AN?6?9?5unexpected?5multithread?5@ 0052023c     LIBCMTD:crt0msg.obj
 0002:0000d26c       ??_C@_0CM@FAHFJNHO@R6016?$AN?6?9?5not?5enough?5space?5for?5th@ 0052026c     LIBCMTD:crt0msg.obj
 0002:0000d298       ??_C@_0JG@LBKMGKLD@?$AN?6This?5application?5has?5requested@ 00520298     LIBCMTD:crt0msg.obj
 0002:0000d330       ??_C@_0CM@FLCNIPKK@R6009?$AN?6?9?5not?5enough?5space?5for?5en@ 00520330     LIBCMTD:crt0msg.obj
 0002:0000d35c       ??_C@_0CK@KMMJOAPP@R6008?$AN?6?9?5not?5enough?5space?5for?5ar@ 0052035c     LIBCMTD:crt0msg.obj
 0002:0000d388       ??_C@_0CN@LEKKICBM@R6002?$AN?6?9?5floating?5point?5support?5@ 00520388     LIBCMTD:crt0msg.obj
 0002:0000d3b8       ??_C@_0CF@GOGNBNAK@Microsoft?5Visual?5C?$CL?$CL?5Runtime?5Lib@ 005203b8     LIBCMTD:crt0msg.obj
 0002:0000d3e0       ??_C@_1KC@JBIKIPNF@?$AAs?$AAt?$AAr?$AAc?$AAa?$AAt?$AA_?$AAs?$AA?$CI?$AAo?$AAu?$AAt?$AAm?$AAs?$AAg?$AA?0?$AA?5?$AA?$CI?$AAs?$AAi?$AAz?$AAe?$AAo?$AAf?$AA?$CI?$AAo?$AAu?$AAt?$AAm?$AAs?$AAg?$AA?$CJ@ 005203e0     LIBCMTD:crt0msg.obj
 0002:0000d484       ??_C@_02PHMGELLB@?6?6?$AA@ 00520484     LIBCMTD:crt0msg.obj
 0002:0000d488       ??_C@_1HO@POLIDBMF@?$AAs?$AAt?$AAr?$AAc?$AAa?$AAt?$AA_?$AAs?$AA?$CI?$AAo?$AAu?$AAt?$AAm?$AAs?$AAg?$AA?0?$AA?5?$AA?$CI?$AAs?$AAi?$AAz?$AAe?$AAo?$AAf?$AA?$CI?$AAo?$AAu?$AAt?$AAm?$AAs?$AAg?$AA?$CJ@ 00520488     LIBCMTD:crt0msg.obj
 0002:0000d508       ??_C@_1HG@CJJGKFHK@?$AAs?$AAt?$AAr?$AAn?$AAc?$AAp?$AAy?$AA_?$AAs?$AA?$CI?$AAp?$AAc?$AAh?$AA?0?$AA?5?$AAp?$AAr?$AAo?$AAg?$AAn?$AAa?$AAm?$AAe?$AA_?$AAs?$AAi?$AAz?$AAe?$AA?5?$AA?9?$AA?5?$AA?$CI@ 00520508     LIBCMTD:crt0msg.obj
 0002:0000d580       ??_C@_0BH@DNAGHKFM@?$DMprogram?5name?5unknown?$DO?$AA@ 00520580     LIBCMTD:crt0msg.obj
 0002:0000d598       ??_C@_1HI@FOOPEDMH@?$AAs?$AAt?$AAr?$AAc?$AAp?$AAy?$AA_?$AAs?$AA?$CI?$AAp?$AAr?$AAo?$AAg?$AAn?$AAa?$AAm?$AAe?$AA?0?$AA?5?$AAp?$AAr?$AAo?$AAg?$AAn?$AAa?$AAm?$AAe?$AA_?$AAs?$AAi?$AAz?$AAe@ 00520598     LIBCMTD:crt0msg.obj
 0002:0000d610       ??_C@_0BK@OFGJDLJJ@Runtime?5Error?$CB?6?6Program?3?5?$AA@ 00520610     LIBCMTD:crt0msg.obj
 0002:0000d630       ??_C@_1KM@NKKPELHG@?$AAs?$AAt?$AAr?$AAc?$AAp?$AAy?$AA_?$AAs?$AA?$CI?$AAo?$AAu?$AAt?$AAm?$AAs?$AAg?$AA?0?$AA?5?$AA?$CI?$AAs?$AAi?$AAz?$AAe?$AAo?$AAf?$AA?$CI?$AAo?$AAu?$AAt?$AAm?$AAs?$AAg?$AA?$CJ@ 00520630     LIBCMTD:crt0msg.obj
 0002:0000d6dc       ??_C@_1BI@EAHMBMEC@?$AA_?$AAN?$AAM?$AAS?$AAG?$AA_?$AAW?$AAR?$AAI?$AAT?$AAE?$AA?$AA@ 005206dc     LIBCMTD:crt0msg.obj
 0002:0000d6f4       ??_C@_1BE@HJCCFLDA@?$AAc?$AAr?$AAt?$AA0?$AAm?$AAs?$AAg?$AA?4?$AAc?$AA?$AA@ 005206f4     LIBCMTD:crt0msg.obj
 0002:0000d710       ??_C@_0BB@NAGLCMLI@Assertion?5Failed?$AA@ 00520710     LIBCMTD:dbgrpt.obj
 0002:0000d724       ??_C@_05NAOIJFC@Error?$AA@ 00520724     LIBCMTD:dbgrpt.obj
 0002:0000d72c       ??_C@_07KGMMFLDN@Warning?$AA@ 0052072c     LIBCMTD:dbgrpt.obj
 0002:0000d734       ??_C@_08ODMAMGBE@dbgrpt?4c?$AA@ 00520734     LIBCMTD:dbgrpt.obj
 0002:0000d740       ??_C@_1CG@GNMJDMIO@?$AA_?$AAC?$AAr?$AAt?$AAS?$AAe?$AAt?$AAR?$AAe?$AAp?$AAo?$AAr?$AAt?$AAH?$AAo?$AAo?$AAk?$AA2?$AA?$AA@ 00520740     LIBCMTD:dbgrpt.obj
 0002:0000d768       ??_C@_1BC@CBGBJLNL@?$AAd?$AAb?$AAg?$AAr?$AAp?$AAt?$AA?4?$AAc?$AA?$AA@ 00520768     LIBCMTD:dbgrpt.obj
 0002:0000d77c       ??_C@_0CD@EBCGLDDL@Microsoft?5Visual?5C?$CL?$CL?5Debug?5Libra@ 0052077c     LIBCMTD:dbgrpt.obj
 0002:0000d7a0       ??_C@_0FF@CCONDJCB@Debug?5?$CFs?$CB?6?6Program?3?5?$CFs?$CFs?$CFs?$CFs?$CFs?$CFs@ 005207a0     LIBCMTD:dbgrpt.obj
 0002:0000d7f8       ??_C@_09OFBFHMBK@?6Module?3?5?$AA@ 005207f8     LIBCMTD:dbgrpt.obj
 0002:0000d804       ??_C@_07OPHPPLBG@?6File?3?5?$AA@ 00520804     LIBCMTD:dbgrpt.obj
 0002:0000d80c       ??_C@_07DBMPPHDI@?6Line?3?5?$AA@ 0052080c     LIBCMTD:dbgrpt.obj
 0002:0000d814       ??_C@_0N@MEECIJGN@Expression?3?5?$AA@ 00520814     LIBCMTD:dbgrpt.obj
 0002:0000d828       ??_C@_0HD@GNBNFCCL@?6?6For?5information?5on?5how?5your?5pr@ 00520828     LIBCMTD:dbgrpt.obj
 0002:0000d8a0       ??_C@_1KA@GHPEDBGI@?$AA_?$AAm?$AAb?$AAs?$AAn?$AAb?$AAc?$AAp?$AAy?$AA_?$AAs?$AA?$CI?$AAs?$AAz?$AAS?$AAh?$AAo?$AAr?$AAt?$AAP?$AAr?$AAo?$AAg?$AAN?$AAa?$AAm?$AAe?$AA?0?$AA?5?$AA2?$AA6?$AA0@ 005208a0     LIBCMTD:dbgrpt.obj
 0002:0000d940       ??_C@_1GG@DLDHOIGE@?$AAs?$AAt?$AAr?$AAc?$AAp?$AAy?$AA_?$AAs?$AA?$CI?$AAs?$AAz?$AAE?$AAx?$AAe?$AAN?$AAa?$AAm?$AAe?$AA?0?$AA?5?$AA2?$AA6?$AA0?$AA?0?$AA?5?$AA?$CC?$AA?$DM?$AAp?$AAr?$AAo?$AAg?$AAr@ 00520940     LIBCMTD:dbgrpt.obj
 0002:0000d9a8       ??_C@_1CI@IDOKFLAJ@?$AA_?$AA_?$AAc?$AAr?$AAt?$AAM?$AAe?$AAs?$AAs?$AAa?$AAg?$AAe?$AAW?$AAi?$AAn?$AAd?$AAo?$AAw?$AAA?$AA?$AA@ 005209a8     LIBCMTD:dbgrpt.obj
 0002:0000d9d0       ??_C@_1BK@JMCGJOCC@?$AA_?$AAe?$AAx?$AAp?$AAa?$AAn?$AAd?$AA_?$AAb?$AAa?$AAs?$AAe?$AA?$AA@ 005209d0     LIBCMTD:expand.obj
 0002:0000d9ec       ??_C@_1BC@OBICIAFI@?$AAe?$AAx?$AAp?$AAa?$AAn?$AAd?$AA?4?$AAc?$AA?$AA@ 005209ec     LIBCMTD:expand.obj
 0002:0000da00       ??_C@_1BO@KFIJIAEA@?$AAp?$AAB?$AAl?$AAo?$AAc?$AAk?$AA?5?$AA?$CB?$AA?$DN?$AA?5?$AAN?$AAU?$AAL?$AAL?$AA?$AA@ 00520a00     LIBCMTD:expand.obj
 0002:0000da20       ??_C@_1BO@EMPIBJGC@?$AA_?$AAr?$AAe?$AAc?$AAa?$AAl?$AAl?$AAo?$AAc?$AA_?$AAb?$AAa?$AAs?$AAe?$AA?$AA@ 00520a20     LIBCMTD:realloc.obj
 0002:0000da40       ??_C@_1BE@IAPDAHOE@?$AAr?$AAe?$AAa?$AAl?$AAl?$AAo?$AAc?$AA?4?$AAc?$AA?$AA@ 00520a40     LIBCMTD:realloc.obj
 0002:0000da54       ??_C@_1BC@IMNOJJAO@?$AAs?$AAb?$AAh?$AAe?$AAa?$AAp?$AA?4?$AAc?$AA?$AA@ 00520a54     LIBCMTD:sbheap.obj
 0002:0000da68       ??_C@_1IC@MOGBEBCE@?$AA?$CI?$AAt?$AAh?$AAr?$AAe?$AAs?$AAh?$AAo?$AAl?$AAd?$AA?5?$AA?$DM?$AA?$DN?$AA?5?$AAM?$AAA?$AAX?$AA_?$AAA?$AAL?$AAL?$AAO?$AAC?$AA_?$AAD?$AAA?$AAT?$AAA?$AA_?$AAS?$AAI?$AAZ@ 00520a68     LIBCMTD:sbheap.obj
 0002:0000daec       ??_C@_1CG@BBFCGKBK@?$AA_?$AAs?$AAe?$AAt?$AA_?$AAs?$AAb?$AAh?$AA_?$AAt?$AAh?$AAr?$AAe?$AAs?$AAh?$AAo?$AAl?$AAd?$AA?$AA@ 00520aec     LIBCMTD:sbheap.obj
 0002:0000db18       ??_C@_1EC@DACAONFE@?$AAt?$AAh?$AAr?$AAe?$AAs?$AAh?$AAo?$AAl?$AAd?$AA?5?$AA?$DM?$AA?$DN?$AA?5?$AAM?$AAA?$AAX?$AA_?$AAA?$AAL?$AAL?$AAO?$AAC?$AA_?$AAD?$AAA?$AAT?$AAA?$AA_?$AAS?$AAI?$AAZ?$AAE@ 00520b18     LIBCMTD:sbheap.obj
 0002:0000db5c       ??_C@_1BM@GFNECEDD@?$AA_?$AAs?$AAe?$AAt?$AA_?$AAa?$AAm?$AAb?$AAl?$AAk?$AAs?$AAi?$AAz?$AA?$AA@ 00520b5c     LIBCMTD:sbheap.obj
 0002:0000db78       ??_C@_1DK@BKLENMLC@?$AA0?$AA?5?$AA?$DM?$AA?5?$AAs?$AAi?$AAz?$AAe?$AA?5?$AA?$CG?$AA?$CG?$AA?5?$AAs?$AAi?$AAz?$AAe?$AA?5?$AA?$DM?$AA?$DN?$AA?5?$AAU?$AAI?$AAN?$AAT?$AA_?$AAM?$AAA?$AAX?$AA?$AA@ 00520b78     LIBCMTD:sbheap.obj
 0002:0000dbb4       ??_C@_1BM@OFBCOJJF@?$AA_?$AAg?$AAe?$AAt?$AA_?$AAa?$AAm?$AAb?$AAl?$AAk?$AAs?$AAi?$AAz?$AA?$AA@ 00520bb4     LIBCMTD:sbheap.obj
 0002:0000dbd0       ??_C@_1BM@IELHFPPM@?$AAp?$AAS?$AAi?$AAz?$AAe?$AA?5?$AA?$CB?$AA?$DN?$AA?5?$AAN?$AAU?$AAL?$AAL?$AA?$AA@ 00520bd0     LIBCMTD:sbheap.obj
 0002:0000dbec       ??_C@_09KJLOAKHC@mbctype?4c?$AA@ 00520bec     LIBCMTD:mbctype.obj
 0002:0000dbf8       ??_C@_07LCBHPJJN@LC_TIME?$AA@ 00520bf8     LIBCMTD:setlocal.obj
 0002:0000dc00       ??_C@_0L@DLHIECNL@LC_NUMERIC?$AA@ 00520c00     LIBCMTD:setlocal.obj
 0002:0000dc0c       ??_C@_0M@MIENIKLA@LC_MONETARY?$AA@ 00520c0c     LIBCMTD:setlocal.obj
 0002:0000dc18       ??_C@_08EADHIDAD@LC_CTYPE?$AA@ 00520c18     LIBCMTD:setlocal.obj
 0002:0000dc24       ??_C@_0L@KFJHEKIK@LC_COLLATE?$AA@ 00520c24     LIBCMTD:setlocal.obj
 0002:0000dc30       ??_C@_06NEFDFEKB@LC_ALL?$AA@ 00520c30     LIBCMTD:setlocal.obj
 0002:0000dc38       ___lc_category             00520c38     LIBCMTD:setlocal.obj
 0002:0000dd00       ??_C@_1BG@PFHEEGCP@?$AAs?$AAe?$AAt?$AAl?$AAo?$AAc?$AAa?$AAl?$AA?4?$AAc?$AA?$AA@ 00520d00     LIBCMTD:setlocal.obj
 0002:0000dd18       ??_C@_1BKC@GGIENNAK@?$AA?$CI?$AA?$CI?$AAp?$AAt?$AAl?$AAo?$AAc?$AAi?$AA?9?$AA?$DO?$AAl?$AAc?$AA_?$AAc?$AAa?$AAt?$AAe?$AAg?$AAo?$AAr?$AAy?$AA?$FL?$AAc?$AAa?$AAt?$AAe?$AAg?$AAo?$AAr?$AAy?$AA?$FN?$AA?4@ 00520d18     LIBCMTD:setlocal.obj
 0002:0000debc       ??_C@_1CI@FGIONOJM@?$AA_?$AAc?$AAo?$AAn?$AAf?$AAi?$AAg?$AAt?$AAh?$AAr?$AAe?$AAa?$AAd?$AAl?$AAo?$AAc?$AAa?$AAl?$AAe?$AA?$AA@ 00520ebc     LIBCMTD:setlocal.obj
 0002:0000dee8       ??_C@_1GA@LDEGDKD@?$AA?$CI?$AA?$CC?$AAI?$AAn?$AAv?$AAa?$AAl?$AAi?$AAd?$AA?5?$AAp?$AAa?$AAr?$AAa?$AAm?$AAe?$AAt?$AAe?$AAr?$AA?5?$AAf?$AAo?$AAr?$AA?5?$AA_?$AAc?$AAo?$AAn?$AAf?$AAi?$AAg?$AAt@ 00520ee8     LIBCMTD:setlocal.obj
 0002:0000df48       ??_C@_0L@LEECJGMI@setlocal?4c?$AA@ 00520f48     LIBCMTD:setlocal.obj
 0002:0000df54       ??_C@_1BE@DBJGBOJC@?$AAs?$AAe?$AAt?$AAl?$AAo?$AAc?$AAa?$AAl?$AAe?$AA?$AA@ 00520f54     LIBCMTD:setlocal.obj
 0002:0000df68       ??_C@_1FG@OHLFEKMC@?$AAL?$AAC?$AA_?$AAM?$AAI?$AAN?$AA?5?$AA?$DM?$AA?$DN?$AA?5?$AA_?$AAc?$AAa?$AAt?$AAe?$AAg?$AAo?$AAr?$AAy?$AA?5?$AA?$CG?$AA?$CG?$AA?5?$AA_?$AAc?$AAa?$AAt?$AAe?$AAg?$AAo?$AAr?$AAy@ 00520f68     LIBCMTD:setlocal.obj
 0002:0000dfc0       ??_C@_1IA@PFIKKKFB@?$AAs?$AAt?$AAr?$AAn?$AAc?$AAp?$AAy?$AA_?$AAs?$AA?$CI?$AAl?$AAc?$AAt?$AAe?$AAm?$AAp?$AA?0?$AA?5?$AA?$CI?$AAs?$AAi?$AAz?$AAe?$AAo?$AAf?$AA?$CI?$AAl?$AAc?$AAt?$AAe?$AAm?$AAp@ 00520fc0     LIBCMTD:setlocal.obj
 0002:0000e040       ??_C@_1CE@OFNHIOO@?$AA_?$AAs?$AAe?$AAt?$AAl?$AAo?$AAc?$AAa?$AAl?$AAe?$AA_?$AAn?$AAo?$AAl?$AAo?$AAc?$AAk?$AA?$AA@ 00521040     LIBCMTD:setlocal.obj
 0002:0000e064       ??_C@_01ICJEACDI@?$DL?$AA@ 00521064     LIBCMTD:setlocal.obj
 0002:0000e068       ??_C@_02BALPLPBG@?$DN?$DL?$AA@ 00521068     LIBCMTD:setlocal.obj
 0002:0000e070       ??_C@_1GO@JALHLJEH@?$AAs?$AAt?$AAr?$AAc?$AAp?$AAy?$AA_?$AAs?$AA?$CI?$AAp?$AAc?$AAh?$AA?5?$AA?$CL?$AA?5?$AAs?$AAi?$AAz?$AAe?$AAo?$AAf?$AA?$CI?$AAi?$AAn?$AAt?$AA?$CJ?$AA?0?$AA?5?$AAc?$AAc?$AAh?$AA?5@ 00521070     LIBCMTD:setlocal.obj
 0002:0000e0e0       ??_C@_1CG@IEFIICPK@?$AA_?$AAs?$AAe?$AAt?$AAl?$AAo?$AAc?$AAa?$AAl?$AAe?$AA_?$AAs?$AAe?$AAt?$AA_?$AAc?$AAa?$AAt?$AA?$AA@ 005210e0     LIBCMTD:setlocal.obj
 0002:0000e108       ??_C@_1DA@GDKKLCLM@?$AAs?$AAt?$AAr?$AAc?$AAa?$AAt?$AA_?$AAs?$AA?$CI?$AAp?$AAc?$AAh?$AA?0?$AA?5?$AAc?$AAc?$AAh?$AA?0?$AA?5?$AA?$CC?$AA?$DL?$AA?$CC?$AA?$CJ?$AA?$AA@ 00521108     LIBCMTD:setlocal.obj
 0002:0000e138       ??_C@_1CG@NNFIJLDA@?$AA_?$AAs?$AAe?$AAt?$AAl?$AAo?$AAc?$AAa?$AAl?$AAe?$AA_?$AAg?$AAe?$AAt?$AA_?$AAa?$AAl?$AAl?$AA?$AA@ 00521138     LIBCMTD:setlocal.obj
 0002:0000e160       ??_C@_01NEMOKFLO@?$DN?$AA@ 00521160     LIBCMTD:setlocal.obj
 0002:0000e168       ??_C@_1FA@MHAOOIBO@?$AAs?$AAt?$AAr?$AAc?$AAp?$AAy?$AA_?$AAs?$AA?$CI?$AAo?$AAu?$AAt?$AAp?$AAu?$AAt?$AA?0?$AA?5?$AAs?$AAi?$AAz?$AAe?$AAI?$AAn?$AAC?$AAh?$AAa?$AAr?$AAs?$AA?0?$AA?5?$AAc?$AAa@ 00521168     LIBCMTD:setlocal.obj
 0002:0000e1b8       ??_C@_1IA@ONNFOEDA@?$AAs?$AAt?$AAr?$AAn?$AAc?$AAp?$AAy?$AA_?$AAs?$AA?$CI?$AAc?$AAa?$AAc?$AAh?$AAe?$AAi?$AAn?$AA?0?$AA?5?$AAc?$AAa?$AAc?$AAh?$AAe?$AAi?$AAn?$AAS?$AAi?$AAz?$AAe?$AA?0?$AA?5@ 005211b8     LIBCMTD:setlocal.obj
 0002:0000e238       ??_C@_01GFHCPBMG@C?$AA@    00521238     LIBCMTD:setlocal.obj
 0002:0000e240       ??_C@_1EG@MOMHKOD@?$AAs?$AAt?$AAr?$AAc?$AAp?$AAy?$AA_?$AAs?$AA?$CI?$AAo?$AAu?$AAt?$AAp?$AAu?$AAt?$AA?0?$AA?5?$AAs?$AAi?$AAz?$AAe?$AAI?$AAn?$AAC?$AAh?$AAa?$AAr?$AAs?$AA?0?$AA?5?$AA?$CC?$AAC@ 00521240     LIBCMTD:setlocal.obj
 0002:0000e288       ??_C@_1BM@OIIBLEFG@?$AA_?$AAe?$AAx?$AAp?$AAa?$AAn?$AAd?$AAl?$AAo?$AAc?$AAa?$AAl?$AAe?$AA?$AA@ 00521288     LIBCMTD:setlocal.obj
 0002:0000e2a8       ??_C@_1BGM@IJDLABMC@?$AAs?$AAt?$AAr?$AAc?$AAa?$AAt?$AA_?$AAs?$AA?$CI?$AAo?$AAu?$AAt?$AAs?$AAt?$AAr?$AA?0?$AA?5?$AAs?$AAi?$AAz?$AAe?$AAI?$AAn?$AAB?$AAy?$AAt?$AAe?$AAs?$AA?0?$AA?5?$AA?$CI?$AA?5@ 005212a8     LIBCMTD:setlocal.obj
 0002:0000e414       ??_C@_1BC@PIABMDIP@?$AA_?$AAs?$AAt?$AAr?$AAc?$AAa?$AAt?$AAs?$AA?$AA@ 00521414     LIBCMTD:setlocal.obj
 0002:0000e428       ??_C@_1MM@NOPMGFHF@?$AAs?$AAt?$AAr?$AAn?$AAc?$AAp?$AAy?$AA_?$AAs?$AA?$CI?$AAn?$AAa?$AAm?$AAe?$AAs?$AA?9?$AA?$DO?$AAs?$AAz?$AAC?$AAo?$AAd?$AAe?$AAP?$AAa?$AAg?$AAe?$AA?0?$AA?5?$AA?$CI?$AAs?$AAi@ 00521428     LIBCMTD:setlocal.obj
 0002:0000e4f8       ??_C@_1MG@PHNILIAG@?$AAs?$AAt?$AAr?$AAn?$AAc?$AAp?$AAy?$AA_?$AAs?$AA?$CI?$AAn?$AAa?$AAm?$AAe?$AAs?$AA?9?$AA?$DO?$AAs?$AAz?$AAC?$AAo?$AAu?$AAn?$AAt?$AAr?$AAy?$AA?0?$AA?5?$AA?$CI?$AAs?$AAi?$AAz@ 005214f8     LIBCMTD:setlocal.obj
 0002:0000e5c0       ??_C@_1MM@BFEECMAF@?$AAs?$AAt?$AAr?$AAn?$AAc?$AAp?$AAy?$AA_?$AAs?$AA?$CI?$AAn?$AAa?$AAm?$AAe?$AAs?$AA?9?$AA?$DO?$AAs?$AAz?$AAL?$AAa?$AAn?$AAg?$AAu?$AAa?$AAg?$AAe?$AA?0?$AA?5?$AA?$CI?$AAs?$AAi@ 005215c0     LIBCMTD:setlocal.obj
 0002:0000e68c       ??_C@_03EGDHDPFD@_?4?0?$AA@ 0052168c     LIBCMTD:setlocal.obj
 0002:0000e690       ??_C@_1NG@FMOPGKGG@?$AAs?$AAt?$AAr?$AAn?$AAc?$AAp?$AAy?$AA_?$AAs?$AA?$CI?$AAn?$AAa?$AAm?$AAe?$AAs?$AA?9?$AA?$DO?$AAs?$AAz?$AAC?$AAo?$AAd?$AAe?$AAP?$AAa?$AAg?$AAe?$AA?0?$AA?5?$AA?$CI?$AAs?$AAi@ 00521690     LIBCMTD:setlocal.obj
 0002:0000e768       ??_C@_1BK@CBMMLAGJ@?$AA_?$AA_?$AAl?$AAc?$AA_?$AAs?$AAt?$AAr?$AAt?$AAo?$AAl?$AAc?$AA?$AA@ 00521768     LIBCMTD:setlocal.obj
 0002:0000e784       ??_C@_01LFCBOECM@?4?$AA@   00521784     LIBCMTD:setlocal.obj
 0002:0000e788       ??_C@_01IDAFKMJL@_?$AA@    00521788     LIBCMTD:setlocal.obj
 0002:0000e790       ??_C@_1HC@IBDBLKCB@?$AAs?$AAt?$AAr?$AAc?$AAp?$AAy?$AA_?$AAs?$AA?$CI?$AAl?$AAo?$AAc?$AAa?$AAl?$AAe?$AA?0?$AA?5?$AAs?$AAi?$AAz?$AAe?$AAI?$AAn?$AAB?$AAy?$AAt?$AAe?$AAs?$AA?0?$AA?5?$AA?$CI?$AAc@ 00521790     LIBCMTD:setlocal.obj
 0002:0000e804       ??_C@_1BK@FGDJDEPG@?$AA_?$AA_?$AAl?$AAc?$AA_?$AAl?$AAc?$AAt?$AAo?$AAs?$AAt?$AAr?$AA?$AA@ 00521804     LIBCMTD:setlocal.obj
 0002:0000e820       ??_C@_1BE@CEKCJJBD@?$AAi?$AAs?$AAc?$AAt?$AAy?$AAp?$AAe?$AA?4?$AAc?$AA?$AA@ 00521820     LIBCMTD:isctype.obj
 0002:0000e834       ??_C@_1DC@BPLPALML@?$AA?$CI?$AAu?$AAn?$AAs?$AAi?$AAg?$AAn?$AAe?$AAd?$AA?$CJ?$AA?$CI?$AAc?$AA?5?$AA?$CL?$AA?5?$AA1?$AA?$CJ?$AA?5?$AA?$DM?$AA?$DN?$AA?5?$AA2?$AA5?$AA6?$AA?$AA@ 00521834     LIBCMTD:isctype.obj
 0002:0000e868       ??_C@_1BE@KHFBJMNM@?$AA_?$AAl?$AAs?$AAe?$AAe?$AAk?$AAi?$AA6?$AA4?$AA?$AA@ 00521868     LIBCMTD:lseeki64.obj
 0002:0000e87c       ??_C@_1BG@NGOGNEMB@?$AAl?$AAs?$AAe?$AAe?$AAk?$AAi?$AA6?$AA4?$AA?4?$AAc?$AA?$AA@ 0052187c     LIBCMTD:lseeki64.obj
 0002:0000e894       ??_C@_09PKAEMGHJ@_getbuf?4c?$AA@ 00521894     LIBCMTD:_getbuf.obj
 0002:0000e8a0       ??_C@_1BE@DJANJIEH@?$AA_?$AAg?$AAe?$AAt?$AAb?$AAu?$AAf?$AA?4?$AAc?$AA?$AA@ 005218a0     LIBCMTD:_getbuf.obj
 0002:0000e8b4       ??_C@_1BA@LEBDGIHM@?$AA_?$AAi?$AAs?$AAa?$AAt?$AAt?$AAy?$AA?$AA@ 005218b4     LIBCMTD:isatty.obj
 0002:0000e8c4       ??_C@_1BC@BPJEKAMC@?$AAi?$AAs?$AAa?$AAt?$AAt?$AAy?$AA?4?$AAc?$AA?$AA@ 005218c4     LIBCMTD:isatty.obj
 0002:0000e8d8       ??_C@_1BI@IEADNOHF@?$AA_?$AAw?$AAc?$AAt?$AAo?$AAm?$AAb?$AA_?$AAs?$AA_?$AAl?$AA?$AA@ 005218d8     LIBCMTD:wctomb.obj
 0002:0000e8f0       ??_C@_1BC@KLMMEMGB@?$AAw?$AAc?$AAt?$AAo?$AAm?$AAb?$AA?4?$AAc?$AA?$AA@ 005218f0     LIBCMTD:wctomb.obj
 0002:0000e904       ??_C@_1CO@HFMIILNF@?$AAs?$AAi?$AAz?$AAe?$AAI?$AAn?$AAB?$AAy?$AAt?$AAe?$AAs?$AA?5?$AA?$DM?$AA?$DN?$AA?5?$AAI?$AAN?$AAT?$AA_?$AAM?$AAA?$AAX?$AA?$AA@ 00521904     LIBCMTD:wctomb.obj
 0002:0000e938       ??_C@_1FK@BCPANIEK@?$AA?$CI?$AA?$CC?$AAM?$AAi?$AAs?$AAs?$AAi?$AAn?$AAg?$AA?5?$AAp?$AAo?$AAs?$AAi?$AAt?$AAi?$AAo?$AAn?$AA?5?$AAi?$AAn?$AA?5?$AAt?$AAh?$AAe?$AA?5?$AAf?$AAo?$AAr?$AAm?$AAa?$AAt@ 00521938     LIBCMTD:outputp.obj
 0002:0000e998       ??_C@_1FK@LNCFKALM@?$AA?$CI?$AA?$CI?$AAs?$AAt?$AAa?$AAt?$AAe?$AA?5?$AA?$DN?$AA?$DN?$AA?5?$AAS?$AAT?$AA_?$AAN?$AAO?$AAR?$AAM?$AAA?$AAL?$AA?$CJ?$AA?5?$AA?$HM?$AA?$HM?$AA?5?$AA?$CI?$AAs?$AAt?$AAa?$AAt?$AAe?$AA?5@ 00521998     LIBCMTD:outputp.obj
 0002:0000e9f8       ??_C@_1JC@OACKELNN@?$AA_?$AAt?$AAv?$AAa?$AAl?$AAi?$AAd?$AAa?$AAt?$AAe?$AA_?$AAp?$AAa?$AAr?$AAa?$AAm?$AA_?$AAr?$AAe?$AAu?$AAs?$AAe?$AA?$CI?$AA?$CG?$AAp?$AAo?$AAs?$AA_?$AAv?$AAa?$AAl?$AAu@ 005219f8     LIBCMTD:outputp.obj
 0002:0000ea90       ??_C@_1IK@NBGDDCBN@?$AA_?$AAt?$AAv?$AAa?$AAl?$AAi?$AAd?$AAa?$AAt?$AAe?$AA_?$AAp?$AAa?$AAr?$AAa?$AAm?$AA_?$AAr?$AAe?$AAu?$AAs?$AAe?$AA?$CI?$AA?$CG?$AAp?$AAo?$AAs?$AA_?$AAv?$AAa?$AAl?$AAu@ 00521a90     LIBCMTD:outputp.obj
 0002:0000eb1c       ??_C@_1DG@GOHGNKHE@?$AAp?$AAa?$AAs?$AAs?$AA?5?$AA?$DN?$AA?$DN?$AA?5?$AAF?$AAO?$AAR?$AAM?$AAA?$AAT?$AA_?$AAO?$AAU?$AAT?$AAP?$AAU?$AAT?$AA_?$AAP?$AAA?$AAS?$AAS?$AA?$AA@ 00521b1c     LIBCMTD:outputp.obj
 0002:0000eb54       ??_C@_0DA@FHGIAEAH@f?3?2sp?2vctools?2crt_bld?2self_x86?2c@ 00521b54     LIBCMTD:outputp.obj
 0002:0000eb88       ??_C@_1IM@DNGHAPLB@?$AA_?$AAt?$AAv?$AAa?$AAl?$AAi?$AAd?$AAa?$AAt?$AAe?$AA_?$AAp?$AAa?$AAr?$AAa?$AAm?$AA_?$AAr?$AAe?$AAu?$AAs?$AAe?$AA?$CI?$AA?$CG?$AAp?$AAo?$AAs?$AA_?$AAv?$AAa?$AAl?$AAu@ 00521b88     LIBCMTD:outputp.obj
 0002:0000ec18       ??_C@_1IG@HJIMKDHC@?$AA_?$AAt?$AAv?$AAa?$AAl?$AAi?$AAd?$AAa?$AAt?$AAe?$AA_?$AAp?$AAa?$AAr?$AAa?$AAm?$AA_?$AAr?$AAe?$AAu?$AAs?$AAe?$AA?$CI?$AA?$CG?$AAp?$AAo?$AAs?$AA_?$AAv?$AAa?$AAl?$AAu@ 00521c18     LIBCMTD:outputp.obj
 0002:0000eca0       ??_C@_1IG@FDCPLALG@?$AA_?$AAt?$AAv?$AAa?$AAl?$AAi?$AAd?$AAa?$AAt?$AAe?$AA_?$AAp?$AAa?$AAr?$AAa?$AAm?$AA_?$AAr?$AAe?$AAu?$AAs?$AAe?$AA?$CI?$AA?$CG?$AAp?$AAo?$AAs?$AA_?$AAv?$AAa?$AAl?$AAu@ 00521ca0     LIBCMTD:outputp.obj
 0002:0000ed28       ??_C@_1IK@MHEDJAMK@?$AA_?$AAt?$AAv?$AAa?$AAl?$AAi?$AAd?$AAa?$AAt?$AAe?$AA_?$AAp?$AAa?$AAr?$AAa?$AAm?$AA_?$AAr?$AAe?$AAu?$AAs?$AAe?$AA?$CI?$AA?$CG?$AAp?$AAo?$AAs?$AA_?$AAv?$AAa?$AAl?$AAu@ 00521d28     LIBCMTD:outputp.obj
 0002:0000edb8       ??_C@_1EM@BNPHBBIA@?$AA?$CI?$AA?$CI?$AAt?$AAy?$AAp?$AAe?$AA_?$AAp?$AAo?$AAs?$AA?$DO?$AA?$DN?$AA0?$AA?$CJ?$AA?5?$AA?$CG?$AA?$CG?$AA?5?$AA?$CI?$AAt?$AAy?$AAp?$AAe?$AA_?$AAp?$AAo?$AAs?$AA?$DM?$AA_?$AAA?$AAR?$AAG@ 00521db8     LIBCMTD:outputp.obj
 0002:0000ee08       ??_C@_1IK@EIEPDKHJ@?$AA_?$AAt?$AAv?$AAa?$AAl?$AAi?$AAd?$AAa?$AAt?$AAe?$AA_?$AAp?$AAa?$AAr?$AAa?$AAm?$AA_?$AAr?$AAe?$AAu?$AAs?$AAe?$AA?$CI?$AA?$CG?$AAp?$AAo?$AAs?$AA_?$AAv?$AAa?$AAl?$AAu@ 00521e08     LIBCMTD:outputp.obj
 0002:0000ee98       ??_C@_1JG@JBJBOCFB@?$AA?$CI?$AA?$CI?$AAp?$AAr?$AAe?$AAc?$AAi?$AAs?$AA_?$AAp?$AAo?$AAs?$AA?5?$AA?$DO?$AA?$DN?$AA?5?$AA0?$AA?$CJ?$AA?5?$AA?$CG?$AA?$CG?$AA?5?$AA?$CI?$AA?$CK?$AAe?$AAn?$AAd?$AA_?$AAp?$AAo?$AAs?$AA?5@ 00521e98     LIBCMTD:outputp.obj
 0002:0000ef30       ??_C@_1II@PIPIMLPF@?$AA_?$AAt?$AAv?$AAa?$AAl?$AAi?$AAd?$AAa?$AAt?$AAe?$AA_?$AAp?$AAa?$AAr?$AAa?$AAm?$AA_?$AAr?$AAe?$AAu?$AAs?$AAe?$AA?$CI?$AA?$CG?$AAp?$AAo?$AAs?$AA_?$AAv?$AAa?$AAl?$AAu@ 00521f30     LIBCMTD:outputp.obj
 0002:0000efb8       ??_C@_1JE@NMBHOLFI@?$AA?$CI?$AA?$CI?$AAw?$AAi?$AAd?$AAt?$AAh?$AA_?$AAp?$AAo?$AAs?$AA?5?$AA?$DO?$AA?$DN?$AA?5?$AA0?$AA?$CJ?$AA?5?$AA?$CG?$AA?$CG?$AA?5?$AA?$CI?$AA?$CK?$AAe?$AAn?$AAd?$AA_?$AAp?$AAo?$AAs?$AA?5?$AA?$DN@ 00521fb8     LIBCMTD:outputp.obj
 0002:0000f050       ??_C@_1EE@DMAIGNBG@?$AA?$CI?$AA?$CC?$AAI?$AAn?$AAc?$AAo?$AAr?$AAr?$AAe?$AAc?$AAt?$AA?5?$AAf?$AAo?$AAr?$AAm?$AAa?$AAt?$AA?5?$AAs?$AAp?$AAe?$AAc?$AAi?$AAf?$AAi?$AAe?$AAr?$AA?$CC?$AA?0?$AA?5?$AA0@ 00522050     LIBCMTD:outputp.obj
 0002:0000f098       ??_C@_1JC@PFJNKEIO@?$AA?$CI?$AA?$CI?$AAt?$AAy?$AAp?$AAe?$AA_?$AAp?$AAo?$AAs?$AA?5?$AA?$DO?$AA?$DN?$AA?5?$AA0?$AA?$CJ?$AA?5?$AA?$CG?$AA?$CG?$AA?5?$AA?$CI?$AA?$CK?$AAe?$AAn?$AAd?$AA_?$AAp?$AAo?$AAs?$AA?5?$AA?$DN?$AA?$DN@ 00522098     LIBCMTD:outputp.obj
 0002:0000f12c       ??_C@_1BI@KANOLAMF@?$AA_?$AAo?$AAu?$AAt?$AAp?$AAu?$AAt?$AA_?$AAp?$AA_?$AAl?$AA?$AA@ 0052212c     LIBCMTD:outputp.obj
 0002:0000f148       ??_C@_1GA@KAEECOIJ@?$AAf?$AA?3?$AA?2?$AAs?$AAp?$AA?2?$AAv?$AAc?$AAt?$AAo?$AAo?$AAl?$AAs?$AA?2?$AAc?$AAr?$AAt?$AA_?$AAb?$AAl?$AAd?$AA?2?$AAs?$AAe?$AAl?$AAf?$AA_?$AAx?$AA8?$AA6?$AA?2?$AAc@ 00522148     LIBCMTD:outputp.obj
 0002:0000f1a8       ___lookuptable_s           005221a8     LIBCMTD:outputs.obj
 0002:0000f204       ??_C@_1BI@COFBLHCG@?$AA_?$AAo?$AAu?$AAt?$AAp?$AAu?$AAt?$AA_?$AAs?$AA_?$AAl?$AA?$AA@ 00522204     LIBCMTD:outputs.obj
 0002:0000f21c       ??_C@_0CG@PKBDLMEO@InitializeCriticalSectionAndSpin@ 0052221c     LIBCMTD:initcrit.obj
 0002:0000f244       ??_C@_0N@MDJJJHMB@kernel32?4dll?$AA@ 00522244     LIBCMTD:initcrit.obj
 0002:0000f254       ??_C@_1DK@EGKDBLND@?$AA_?$AA_?$AAc?$AAr?$AAt?$AAI?$AAn?$AAi?$AAt?$AAC?$AAr?$AAi?$AAt?$AAS?$AAe?$AAc?$AAA?$AAn?$AAd?$AAS?$AAp?$AAi?$AAn?$AAC?$AAo?$AAu?$AAn?$AAt?$AA?$AA@ 00522254     LIBCMTD:initcrit.obj
 0002:0000f290       ??_C@_1BG@LABPBAGA@?$AAi?$AAn?$AAi?$AAt?$AAc?$AAr?$AAi?$AAt?$AA?4?$AAc?$AA?$AA@ 00522290     LIBCMTD:initcrit.obj
 0002:0000f2a8       ??_C@_1M@MFLJCMFJ@?$AA_?$AAo?$AAp?$AAe?$AAn?$AA?$AA@ 005222a8     LIBCMTD:open.obj
 0002:0000f2b4       ??_C@_1O@DGNNHNAF@?$AAo?$AAp?$AAe?$AAn?$AA?4?$AAc?$AA?$AA@ 005222b4     LIBCMTD:open.obj
 0002:0000f2c4       ??_C@_1BO@DPAOGEII@?$AA?$CI?$AAp?$AAa?$AAt?$AAh?$AA?5?$AA?$CB?$AA?$DN?$AA?5?$AAN?$AAU?$AAL?$AAL?$AA?$CJ?$AA?$AA@ 005222c4     LIBCMTD:open.obj
 0002:0000f2e8       ??_C@_1FG@NFINBJCM@?$AA?$CI?$AA?$CI?$AAp?$AAm?$AAo?$AAd?$AAe?$AA?5?$AA?$CG?$AA?5?$AA?$CI?$AA?$HO?$AA?$CI?$AA_?$AAS?$AA_?$AAI?$AAR?$AAE?$AAA?$AAD?$AA?5?$AA?$HM?$AA?5?$AA_?$AAS?$AA_?$AAI?$AAW?$AAR?$AAI?$AAT@ 005222e8     LIBCMTD:open.obj
 0002:0000f340       ??_C@_1BM@IOBAMMHO@?$AA_?$AAs?$AAo?$AAp?$AAe?$AAn?$AA_?$AAh?$AAe?$AAl?$AAp?$AAe?$AAr?$AA?$AA@ 00522340     LIBCMTD:open.obj
 0002:0000f35c       ??_C@_1BM@PGEEHLHE@?$AA?$CI?$AAp?$AAf?$AAh?$AA?5?$AA?$CB?$AA?$DN?$AA?5?$AAN?$AAU?$AAL?$AAL?$AA?$CJ?$AA?$AA@ 0052235c     LIBCMTD:open.obj
 0002:0000f378       ??_C@_1IA@IENOJNJF@?$AA0?$AA?5?$AA?$CG?$AA?$CG?$AA?5?$AA?$CC?$AAO?$AAn?$AAl?$AAy?$AA?5?$AAU?$AAT?$AAF?$AA?9?$AA1?$AA6?$AA?5?$AAl?$AAi?$AAt?$AAt?$AAl?$AAe?$AA?5?$AAe?$AAn?$AAd?$AAi?$AAa?$AAn?$AA?5@ 00522378     LIBCMTD:open.obj
 0002:0000f3f8       ??_C@_1CM@IDLMKMPG@?$AA0?$AA?5?$AA?$CG?$AA?$CG?$AA?5?$AA?$CC?$AAI?$AAn?$AAt?$AAe?$AAr?$AAn?$AAa?$AAl?$AA?5?$AAE?$AAr?$AAr?$AAo?$AAr?$AA?$CC?$AA?$AA@ 005223f8     LIBCMTD:open.obj
 0002:0000f428       ??_C@_1HM@GJANBLHJ@?$AA?$CI?$AAo?$AAf?$AAl?$AAa?$AAg?$AA?5?$AA?$CG?$AA?5?$AA?$CI?$AA_?$AAO?$AA_?$AAT?$AAE?$AAX?$AAT?$AA?5?$AA?$HM?$AA?5?$AA_?$AAO?$AA_?$AAW?$AAT?$AAE?$AAX?$AAT?$AA?5?$AA?$HM?$AA?5?$AA_@ 00522428     LIBCMTD:open.obj
 0002:0000f4a4       ??_C@_1DO@PJLMOANO@?$AA?$CI?$AA?5?$AA?$CC?$AAI?$AAn?$AAv?$AAa?$AAl?$AAi?$AAd?$AA?5?$AAs?$AAh?$AAa?$AAr?$AAi?$AAn?$AAg?$AA?5?$AAf?$AAl?$AAa?$AAg?$AA?$CC?$AA?5?$AA?0?$AA?5?$AA0?$AA?5?$AA?$CJ?$AA?$AA@ 005224a4     LIBCMTD:open.obj
 0002:0000f4e4       ??_C@_1DI@DGKIFCCE@?$AA?$CI?$AA?5?$AA?$CC?$AAI?$AAn?$AAv?$AAa?$AAl?$AAi?$AAd?$AA?5?$AAo?$AAp?$AAe?$AAn?$AA?5?$AAf?$AAl?$AAa?$AAg?$AA?$CC?$AA?5?$AA?0?$AA?5?$AA0?$AA?5?$AA?$CJ?$AA?$AA@ 005224e4     LIBCMTD:open.obj
 0002:0000f51c       ??_C@_1CG@ICBEBDJJ@?$AA_?$AAg?$AAe?$AAt?$AA_?$AAf?$AAm?$AAo?$AAd?$AAe?$AA?$CI?$AA?$CG?$AAf?$AAm?$AAo?$AAd?$AAe?$AA?$CJ?$AA?$AA@ 0052251c     LIBCMTD:open.obj
 0002:0000f544       ??_C@_1BO@JOPFMPGH@?$AA_?$AAt?$AAs?$AAo?$AAp?$AAe?$AAn?$AA_?$AAn?$AAo?$AAl?$AAo?$AAc?$AAk?$AA?$AA@ 00522544     LIBCMTD:open.obj
 0002:0000f564       ??_C@_1BG@GBJNMPFA@?$AAs?$AA2?$AA?5?$AA?$CB?$AA?$DN?$AA?5?$AAN?$AAU?$AAL?$AAL?$AA?$AA@ 00522564     LIBCMTD:mbsicmp.obj
 0002:0000f57c       ??_C@_1BG@BMDHEPAJ@?$AA_?$AAm?$AAb?$AAs?$AAi?$AAc?$AAm?$AAp?$AA_?$AAl?$AA?$AA@ 0052257c     LIBCMTD:mbsicmp.obj
 0002:0000f594       ??_C@_1BE@JMPFNKJA@?$AAm?$AAb?$AAs?$AAi?$AAc?$AAm?$AAp?$AA?4?$AAc?$AA?$AA@ 00522594     LIBCMTD:mbsicmp.obj
 0002:0000f5a8       ??_C@_1BG@MODEICJK@?$AAs?$AA1?$AA?5?$AA?$CB?$AA?$DN?$AA?5?$AAN?$AAU?$AAL?$AAL?$AA?$AA@ 005225a8     LIBCMTD:mbsicmp.obj
 0002:0000f5c0       ??_C@_1BI@LPHOHGHI@?$AA_?$AAm?$AAb?$AAs?$AAn?$AAb?$AAc?$AAm?$AAp?$AA_?$AAl?$AA?$AA@ 005225c0     LIBCMTD:mbsnbcmp.obj
 0002:0000f5d8       ??_C@_1BG@JGCJENML@?$AAm?$AAb?$AAs?$AAn?$AAb?$AAc?$AAm?$AAp?$AA?4?$AAc?$AA?$AA@ 005225d8     LIBCMTD:mbsnbcmp.obj
 0002:0000f5f0       ??_C@_1BA@NGNGNDEP@?$AA_?$AAc?$AAp?$AAu?$AAt?$AAw?$AAs?$AA?$AA@ 005225f0     LIBCMTD:putwch.obj
 0002:0000f600       ??_C@_1BC@HKEJKGAG@?$AAp?$AAu?$AAt?$AAw?$AAc?$AAh?$AA?4?$AAc?$AA?$AA@ 00522600     LIBCMTD:putwch.obj
 0002:0000f614       ??_C@_1BC@MFKEFFNI@?$AAm?$AAb?$AAt?$AAo?$AAw?$AAc?$AA?4?$AAc?$AA?$AA@ 00522614     LIBCMTD:mbtowc.obj
 0002:0000f628       ??_C@_1NC@EINCOKCO@?$AA_?$AAl?$AAo?$AAc?$AA_?$AAu?$AAp?$AAd?$AAa?$AAt?$AAe?$AA?4?$AAG?$AAe?$AAt?$AAL?$AAo?$AAc?$AAa?$AAl?$AAe?$AAT?$AA?$CI?$AA?$CJ?$AA?9?$AA?$DO?$AAl?$AAo?$AAc?$AAi?$AAn?$AAf@ 00522628     LIBCMTD:mbtowc.obj
 0002:0000f6fc       ??_C@_1CG@JEHFHLNG@?$AA_?$AAm?$AAb?$AAs?$AAt?$AAo?$AAw?$AAc?$AAs?$AA_?$AAl?$AA_?$AAh?$AAe?$AAl?$AAp?$AAe?$AAr?$AA?$AA@ 005226fc     LIBCMTD:mbstowcs.obj
 0002:0000f724       ??_C@_1BG@KMBPFIPB@?$AAm?$AAb?$AAs?$AAt?$AAo?$AAw?$AAc?$AAs?$AA?4?$AAc?$AA?$AA@ 00522724     LIBCMTD:mbstowcs.obj
 0002:0000f73c       ??_C@_1BE@EEKACIGI@?$AAs?$AA?5?$AA?$CB?$AA?$DN?$AA?5?$AAN?$AAU?$AAL?$AAL?$AA?$AA@ 0052273c     LIBCMTD:mbstowcs.obj
 0002:0000f750       ??_C@_1CO@JNPEPJAL@?$AAr?$AAe?$AAt?$AAs?$AAi?$AAz?$AAe?$AA?5?$AA?$DM?$AA?$DN?$AA?5?$AAs?$AAi?$AAz?$AAe?$AAI?$AAn?$AAW?$AAo?$AAr?$AAd?$AAs?$AA?$AA@ 00522750     LIBCMTD:mbstowcs.obj
 0002:0000f780       ??_C@_1BM@PHENIGHD@?$AA_?$AAm?$AAb?$AAs?$AAt?$AAo?$AAw?$AAc?$AAs?$AA_?$AAs?$AA_?$AAl?$AA?$AA@ 00522780     LIBCMTD:mbstowcs.obj
 0002:0000f7a0       ??_C@_1JA@JKDFMOPO@?$AA?$CI?$AAp?$AAw?$AAc?$AAs?$AA?5?$AA?$DN?$AA?$DN?$AA?5?$AAN?$AAU?$AAL?$AAL?$AA?5?$AA?$CG?$AA?$CG?$AA?5?$AAs?$AAi?$AAz?$AAe?$AAI?$AAn?$AAW?$AAo?$AAr?$AAd?$AAs?$AA?5?$AA?$DN?$AA?$DN?$AA?5@ 005227a0     LIBCMTD:mbstowcs.obj
 0002:0000f830       ??_C@_1CM@HABGDNLJ@?$AAl?$AAe?$AAn?$AAg?$AAt?$AAh?$AA?5?$AA?$DM?$AA?5?$AAs?$AAi?$AAz?$AAe?$AAI?$AAn?$AAT?$AAC?$AAh?$AAa?$AAr?$AAs?$AA?$AA@ 00522830     LIBCMTD:xtoas.obj
 0002:0000f85c       ??_C@_1DE@PCJGDBBD@?$AA2?$AA?5?$AA?$DM?$AA?$DN?$AA?5?$AAr?$AAa?$AAd?$AAi?$AAx?$AA?5?$AA?$CG?$AA?$CG?$AA?5?$AAr?$AAa?$AAd?$AAi?$AAx?$AA?5?$AA?$DM?$AA?$DN?$AA?5?$AA3?$AA6?$AA?$AA@ 0052285c     LIBCMTD:xtoas.obj
 0002:0000f890       ??_C@_1FA@MKGGAGEI@?$AAs?$AAi?$AAz?$AAe?$AAI?$AAn?$AAT?$AAC?$AAh?$AAa?$AAr?$AAs?$AA?5?$AA?$DO?$AA?5?$AA?$CI?$AAs?$AAi?$AAz?$AAe?$AA_?$AAt?$AA?$CJ?$AA?$CI?$AAi?$AAs?$AA_?$AAn?$AAe?$AAg?$AA?5?$AA?$DP@ 00522890     LIBCMTD:xtoas.obj
 0002:0000f8e0       ??_C@_1CC@JNJFIMGE@?$AAs?$AAi?$AAz?$AAe?$AAI?$AAn?$AAT?$AAC?$AAh?$AAa?$AAr?$AAs?$AA?5?$AA?$DO?$AA?5?$AA0?$AA?$AA@ 005228e0     LIBCMTD:xtoas.obj
 0002:0000f904       ??_C@_1O@GIMBNLEI@?$AAx?$AAt?$AAo?$AAa?$AA_?$AAs?$AA?$AA@ 00522904     LIBCMTD:xtoas.obj
 0002:0000f918       ??_C@_1FM@LINCFGBD@?$AAf?$AA?3?$AA?2?$AAs?$AAp?$AA?2?$AAv?$AAc?$AAt?$AAo?$AAo?$AAl?$AAs?$AA?2?$AAc?$AAr?$AAt?$AA_?$AAb?$AAl?$AAd?$AA?2?$AAs?$AAe?$AAl?$AAf?$AA_?$AAx?$AA8?$AA6?$AA?2?$AAc@ 00522918     LIBCMTD:xtoas.obj
 0002:0000f974       ??_C@_1BC@MJJNBNFN@?$AAx?$AA6?$AA4?$AAt?$AAo?$AAa?$AA_?$AAs?$AA?$AA@ 00522974     LIBCMTD:xtoas.obj
 0002:0000f988       ??_C@_1BC@PLIEPKPJ@?$AAw?$AAc?$AAs?$AAc?$AAa?$AAt?$AA_?$AAs?$AA?$AA@ 00522988     LIBCMTD:wcscat_s.obj
 0002:0000f99c       ??_C@_1CE@IGKFIJFD@?$AA_?$AAv?$AAs?$AAw?$AAp?$AAr?$AAi?$AAn?$AAt?$AAf?$AA_?$AAh?$AAe?$AAl?$AAp?$AAe?$AAr?$AA?$AA@ 0052299c     LIBCMTD:vswprnc.obj
 0002:0000f9c0       ??_C@_1GE@ICPDLGGP@?$AAf?$AA?3?$AA?2?$AAs?$AAp?$AA?2?$AAv?$AAc?$AAt?$AAo?$AAo?$AAl?$AAs?$AA?2?$AAc?$AAr?$AAt?$AA_?$AAb?$AAl?$AAd?$AA?2?$AAs?$AAe?$AAl?$AAf?$AA_?$AAx?$AA8?$AA6?$AA?2?$AAc@ 005229c0     LIBCMTD:vswprnc.obj
 0002:0000fa28       ??_C@_1EE@MPCHJFGP@?$AAs?$AAt?$AAr?$AAi?$AAn?$AAg?$AA?5?$AA?$CB?$AA?$DN?$AA?5?$AAN?$AAU?$AAL?$AAL?$AA?5?$AA?$CG?$AA?$CG?$AA?5?$AAs?$AAi?$AAz?$AAe?$AAI?$AAn?$AAW?$AAo?$AAr?$AAd?$AAs?$AA?5?$AA?$DO?$AA?5@ 00522a28     LIBCMTD:vswprnc.obj
 0002:0000fa6c       ??_C@_1BO@OALHJLCI@?$AA_?$AAv?$AAs?$AAw?$AAp?$AAr?$AAi?$AAn?$AAt?$AAf?$AA_?$AAs?$AA_?$AAl?$AA?$AA@ 00522a6c     LIBCMTD:vswprnc.obj
 0002:0000fa8c       ??_C@_1CA@BKFKMJFF@?$AA_?$AAv?$AAs?$AAn?$AAw?$AAp?$AAr?$AAi?$AAn?$AAt?$AAf?$AA_?$AAs?$AA_?$AAl?$AA?$AA@ 00522a8c     LIBCMTD:vswprnc.obj
 0002:0000faac       ??_C@_1O@NCBFODOE@?$AAx?$AAt?$AAo?$AAw?$AA_?$AAs?$AA?$AA@ 00522aac     LIBCMTD:xtows.obj
 0002:0000fabc       ??_C@_1BC@HDEJCFPB@?$AAx?$AA6?$AA4?$AAt?$AAo?$AAw?$AA_?$AAs?$AA?$AA@ 00522abc     LIBCMTD:xtows.obj
 0002:0000fad0       ??_C@_0BC@JEAENNKH@SystemFunction036?$AA@ 00522ad0     LIBCMTD:rand_s.obj
 0002:0000fae8       ??_C@_1GA@EBEDGGGB@?$AA?$CI?$AA?$CC?$AAr?$AAa?$AAn?$AAd?$AA_?$AAs?$AA?5?$AAi?$AAs?$AA?5?$AAn?$AAo?$AAt?$AA?5?$AAa?$AAv?$AAa?$AAi?$AAl?$AAa?$AAb?$AAl?$AAe?$AA?5?$AAo?$AAn?$AA?5?$AAt?$AAh?$AAi@ 00522ae8     LIBCMTD:rand_s.obj
 0002:0000fb48       ??_C@_1O@IJGPPOGF@?$AAr?$AAa?$AAn?$AAd?$AA_?$AAs?$AA?$AA@ 00522b48     LIBCMTD:rand_s.obj
 0002:0000fb58       ??_C@_1BC@NBJGCJKM@?$AAr?$AAa?$AAn?$AAd?$AA_?$AAs?$AA?4?$AAc?$AA?$AA@ 00522b58     LIBCMTD:rand_s.obj
 0002:0000fb6c       ??_C@_1CK@GFDNDKK@?$AA_?$AAR?$AAa?$AAn?$AAd?$AAo?$AAm?$AAV?$AAa?$AAl?$AAu?$AAe?$AA?5?$AA?$CB?$AA?$DN?$AA?5?$AAN?$AAU?$AAL?$AAL?$AA?$AA@ 00522b6c     LIBCMTD:rand_s.obj
 0002:0000fb98       ??_C@_1GO@NGIGJNHH@?$AAs?$AAt?$AAr?$AAn?$AAc?$AAp?$AAy?$AA_?$AAs?$AA?$CI?$AA?$CK?$AAs?$AAt?$AAr?$AAa?$AAd?$AAd?$AAr?$AAe?$AAs?$AAs?$AA?0?$AA?5?$AAo?$AAu?$AAt?$AAs?$AAi?$AAz?$AAe?$AA?0?$AA?5@ 00522b98     LIBCMTD:inithelp.obj
 0002:0000fc08       ??_C@_1CA@KHHCPEI@?$AA_?$AA_?$AAg?$AAe?$AAt?$AAl?$AAo?$AAc?$AAa?$AAl?$AAe?$AAi?$AAn?$AAf?$AAo?$AA?$AA@ 00522c08     LIBCMTD:inithelp.obj
 0002:0000fc28       ??_C@_1BG@OFMEOKEA@?$AAi?$AAn?$AAi?$AAt?$AAh?$AAe?$AAl?$AAp?$AA?4?$AAc?$AA?$AA@ 00522c28     LIBCMTD:inithelp.obj
 0002:0000fc40       ??_C@_0L@DILIPMN@inithelp?4c?$AA@ 00522c40     LIBCMTD:inithelp.obj
 0002:0000fc4c       ??_C@_1BG@BBCDFOMA@?$AA_?$AAw?$AAo?$AAu?$AAt?$AAp?$AAu?$AAt?$AA_?$AAl?$AA?$AA@ 00522c4c     LIBCMTD:woutput.obj
 0002:0000fc64       ??_C@_1BK@EPLNBKAK@?$AA_?$AAv?$AAs?$AAw?$AAp?$AAr?$AAi?$AAn?$AAt?$AAf?$AA_?$AAl?$AA?$AA@ 00522c64     LIBCMTD:vswprint.obj
 0002:0000fc80       ??_C@_1BG@BELBGCGO@?$AAv?$AAs?$AAw?$AAp?$AAr?$AAi?$AAn?$AAt?$AA?4?$AAc?$AA?$AA@ 00522c80     LIBCMTD:vswprint.obj
 0002:0000fc98       ??_C@_1CG@IMMIEPNA@?$AA_?$AAv?$AAs?$AAc?$AAw?$AAp?$AAr?$AAi?$AAn?$AAt?$AAf?$AA_?$AAh?$AAe?$AAl?$AAp?$AAe?$AAr?$AA?$AA@ 00522c98     LIBCMTD:vswprint.obj
 0002:0000fcc0       ??_C@_0BK@CFCOFLF@?5Complete?5Object?5Locator?8?$AA@ 00522cc0     LIBCMTD:undname.obj
 0002:0000fcdc       ??_C@_0BN@MECKDCOJ@?5Class?5Hierarchy?5Descriptor?8?$AA@ 00522cdc     LIBCMTD:undname.obj
 0002:0000fcfc       ??_C@_0BD@LGICGFMM@?5Base?5Class?5Array?8?$AA@ 00522cfc     LIBCMTD:undname.obj
 0002:0000fd10       ??_C@_0BM@LDKODKLH@?5Base?5Class?5Descriptor?5at?5?$CI?$AA@ 00522d10     LIBCMTD:undname.obj
 0002:0000fd2c       ??_C@_0BC@DAFEJGAK@?5Type?5Descriptor?8?$AA@ 00522d2c     LIBCMTD:undname.obj
 0002:0000fd40       ??_C@_0BM@PMGGMLDN@?$GAlocal?5static?5thread?5guard?8?$AA@ 00522d40     LIBCMTD:undname.obj
 0002:0000fd5c       ??_C@_0CL@FGIJHLCE@?$GAmanaged?5vector?5copy?5constructor@ 00522d5c     LIBCMTD:undname.obj
 0002:0000fd88       ??_C@_0CJ@GJELGAMM@?$GAvector?5vbase?5copy?5constructor?5i@ 00522d88     LIBCMTD:undname.obj
 0002:0000fdb4       ??_C@_0CD@CGAJBKEJ@?$GAvector?5copy?5constructor?5iterato@ 00522db4     LIBCMTD:undname.obj
 0002:0000fdd8       ??_C@_0CB@PDBIFEP@?$GAdynamic?5atexit?5destructor?5for?5?8@ 00522dd8     LIBCMTD:undname.obj
 0002:0000fdfc       ??_C@_0BL@CLIPGLGB@?$GAdynamic?5initializer?5for?5?8?$AA@ 00522dfc     LIBCMTD:undname.obj
 0002:0000fe18       ??_C@_0CM@FCBBDIGB@?$GAeh?5vector?5vbase?5copy?5constructo@ 00522e18     LIBCMTD:undname.obj
 0002:0000fe44       ??_C@_0CG@HLDDJMAG@?$GAeh?5vector?5copy?5constructor?5iter@ 00522e44     LIBCMTD:undname.obj
 0002:0000fe6c       ??_C@_0CF@IMGKMJNO@?$GAmanaged?5vector?5destructor?5itera@ 00522e6c     LIBCMTD:undname.obj
 0002:0000fe94       ??_C@_0CG@CFDHKGGD@?$GAmanaged?5vector?5constructor?5iter@ 00522e94     LIBCMTD:undname.obj
 0002:0000febc       ??_C@_0BN@CKNJLHMB@?$GAplacement?5delete?$FL?$FN?5closure?8?$AA@ 00522ebc     LIBCMTD:undname.obj
 0002:0000fedc       ??_C@_0BL@CNOONJFP@?$GAplacement?5delete?5closure?8?$AA@ 00522edc     LIBCMTD:undname.obj
 0002:0000fef8       ??_C@_0P@HJKNJFNN@?$GAomni?5callsig?8?$AA@ 00522ef8     LIBCMTD:undname.obj
 0002:0000ff08       ??_C@_09LBNFPBCA@?5delete?$FL?$FN?$AA@ 00522f08     LIBCMTD:undname.obj
 0002:0000ff14       ??_C@_06FHBGPFGH@?5new?$FL?$FN?$AA@ 00522f14     LIBCMTD:undname.obj
 0002:0000ff1c       ??_C@_0CE@IIHCMGGL@?$GAlocal?5vftable?5constructor?5closu@ 00522f1c     LIBCMTD:undname.obj
 0002:0000ff40       ??_C@_0BA@KKLDJDLB@?$GAlocal?5vftable?8?$AA@ 00522f40     LIBCMTD:undname.obj
 0002:0000ff50       ??_C@_05KHLCHHI@?$GARTTI?$AA@ 00522f50     LIBCMTD:undname.obj
 0002:0000ff58       ??_C@_03KLGMFNMG@?$GAEH?$AA@ 00522f58     LIBCMTD:undname.obj
 0002:0000ff5c       ??_C@_0BA@KBCDOMBN@?$GAudt?5returning?8?$AA@ 00522f5c     LIBCMTD:undname.obj
 0002:0000ff6c       ??_C@_0BL@LLKPOHJI@?$GAcopy?5constructor?5closure?8?$AA@ 00522f6c     LIBCMTD:undname.obj
 0002:0000ff88       ??_C@_0CH@OOJPLCPH@?$GAeh?5vector?5vbase?5constructor?5ite@ 00522f88     LIBCMTD:undname.obj
 0002:0000ffb0       ??_C@_0CA@GCEOPDGL@?$GAeh?5vector?5destructor?5iterator?8?$AA@ 00522fb0     LIBCMTD:undname.obj
 0002:0000ffd0       ??_C@_0CB@JONCMFFK@?$GAeh?5vector?5constructor?5iterator?8@ 00522fd0     LIBCMTD:undname.obj
 0002:0000fff4       ??_C@_0BL@NILFHHPC@?$GAvirtual?5displacement?5map?8?$AA@ 00522ff4     LIBCMTD:undname.obj
 0002:00010010       ??_C@_0CE@IKBNEHA@?$GAvector?5vbase?5constructor?5iterat@ 00523010     LIBCMTD:undname.obj
 0002:00010034       ??_C@_0BN@LFPFMEDL@?$GAvector?5destructor?5iterator?8?$AA@ 00523034     LIBCMTD:undname.obj
 0002:00010054       ??_C@_0BO@PFGOCPJJ@?$GAvector?5constructor?5iterator?8?$AA@ 00523054     LIBCMTD:undname.obj
 0002:00010074       ??_C@_0BN@IMDCHIKM@?$GAscalar?5deleting?5destructor?8?$AA@ 00523074     LIBCMTD:undname.obj
 0002:00010094       ??_C@_0BO@OBMKPJIG@?$GAdefault?5constructor?5closure?8?$AA@ 00523094     LIBCMTD:undname.obj
 0002:000100b4       ??_C@_0BN@DEGPLNFK@?$GAvector?5deleting?5destructor?8?$AA@ 005230b4     LIBCMTD:undname.obj
 0002:000100d4       ??_C@_0BD@JDLKDPAB@?$GAvbase?5destructor?8?$AA@ 005230d4     LIBCMTD:undname.obj
 0002:000100e8       ??_C@_08OBABFOLI@?$GAstring?8?$AA@ 005230e8     LIBCMTD:undname.obj
 0002:000100f4       ??_C@_0BF@KDPPACIK@?$GAlocal?5static?5guard?8?$AA@ 005230f4     LIBCMTD:undname.obj
 0002:0001010c       ??_C@_08LLFFHHDJ@?$GAtypeof?8?$AA@ 0052310c     LIBCMTD:undname.obj
 0002:00010118       ??_C@_07FEEIOKP@?$GAvcall?8?$AA@ 00523118     LIBCMTD:undname.obj
 0002:00010120       ??_C@_09BLBHBJP@?$GAvbtable?8?$AA@ 00523120     LIBCMTD:undname.obj
 0002:0001012c       ??_C@_09IFPLHPGF@?$GAvftable?8?$AA@ 0052312c     LIBCMTD:undname.obj
 0002:00010138       ??_C@_02MHEGNOJ@?$FO?$DN?$AA@ 00523138     LIBCMTD:undname.obj
 0002:0001013c       ??_C@_02DHLNPPGH@?$HM?$DN?$AA@ 0052313c     LIBCMTD:undname.obj
 0002:00010140       ??_C@_02FGJGFEAB@?$CG?$DN?$AA@ 00523140     LIBCMTD:undname.obj
 0002:00010144       ??_C@_03CDNPDDLA@?$DM?$DM?$DN?$AA@ 00523144     LIBCMTD:undname.obj
 0002:00010148       ??_C@_03IKFCCPFF@?$DO?$DO?$DN?$AA@ 00523148     LIBCMTD:undname.obj
 0002:0001014c       ??_C@_02FENAOKFI@?$CF?$DN?$AA@ 0052314c     LIBCMTD:undname.obj
 0002:00010150       ??_C@_02FJEHGPIO@?1?$DN?$AA@ 00523150     LIBCMTD:undname.obj
 0002:00010154       ??_C@_02FKMDLLOA@?9?$DN?$AA@ 00523154     LIBCMTD:undname.obj
 0002:00010158       ??_C@_02FOEOMHFC@?$CL?$DN?$AA@ 00523158     LIBCMTD:undname.obj
 0002:0001015c       ??_C@_02FPIMKNGF@?$CK?$DN?$AA@ 0052315c     LIBCMTD:undname.obj
 0002:00010160       ??_C@_02NONPIBCD@?$HM?$HM?$AA@ 00523160     LIBCMTD:undname.obj
 0002:00010164       ??_C@_02PPKAJPJL@?$CG?$CG?$AA@ 00523164     LIBCMTD:undname.obj
 0002:00010168       ??_C@_01DNKMNLPK@?$HM?$AA@ 00523168     LIBCMTD:undname.obj
 0002:0001016c       ??_C@_01JKBOJNNK@?$FO?$AA@ 0052316c     LIBCMTD:undname.obj
 0002:00010170       ??_C@_01PJKLJHI@?$HO?$AA@  00523170     LIBCMTD:undname.obj
 0002:00010174       ??_C@_02HCKGKOFO@?$CI?$CJ?$AA@ 00523174     LIBCMTD:undname.obj
 0002:00010178       ??_C@_01IHBHIGKO@?0?$AA@   00523178     LIBCMTD:undname.obj
 0002:0001017c       ??_C@_02EEKDKGMJ@?$DO?$DN?$AA@ 0052317c     LIBCMTD:undname.obj
 0002:00010180       ??_C@_01PPODPGHN@?$DO?$AA@ 00523180     LIBCMTD:undname.obj
 0002:00010184       ??_C@_02EHCHHCKH@?$DM?$DN?$AA@ 00523184     LIBCMTD:undname.obj
 0002:00010188       ??_C@_01MNNFJEPP@?$DM?$AA@ 00523188     LIBCMTD:undname.obj
 0002:0001018c       ??_C@_01FGNFDNOH@?$CF?$AA@ 0052318c     LIBCMTD:undname.obj
 0002:00010190       ??_C@_01KMDKNFGN@?1?$AA@   00523190     LIBCMTD:undname.obj
 0002:00010194       ??_C@_03MNHNFDLC@?9?$DO?$CK?$AA@ 00523194     LIBCMTD:undname.obj
 0002:00010198       ??_C@_01HNPIGOCE@?$CG?$AA@ 00523198     LIBCMTD:undname.obj
 0002:0001019c       ??_C@_01MIFGBAGJ@?$CL?$AA@ 0052319c     LIBCMTD:undname.obj
 0002:000101a0       ??_C@_01JOAMLHOP@?9?$AA@   005231a0     LIBCMTD:undname.obj
 0002:000101a4       ??_C@_02BAABKJLB@?9?9?$AA@ 005231a4     LIBCMTD:undname.obj
 0002:000101a8       ??_C@_02ECNGHCIF@?$CL?$CL?$AA@ 005231a8     LIBCMTD:undname.obj
 0002:000101ac       ??_C@_01NBENCBCI@?$CK?$AA@ 005231ac     LIBCMTD:undname.obj
 0002:000101b0       ??_C@_02HBOOOICD@?9?$DO?$AA@ 005231b0     LIBCMTD:undname.obj
 0002:000101b4       ??_C@_08LHJFAFGD@operator?$AA@ 005231b4     LIBCMTD:undname.obj
 0002:000101c0       ??_C@_02GPECMEKF@?$FL?$FN?$AA@ 005231c0     LIBCMTD:undname.obj
 0002:000101c4       ??_C@_02FDNJECIE@?$CB?$DN?$AA@ 005231c4     LIBCMTD:undname.obj
 0002:000101c8       ??_C@_02EGOFBIJA@?$DN?$DN?$AA@ 005231c8     LIBCMTD:undname.obj
 0002:000101cc       ??_C@_01DCLJPIOD@?$CB?$AA@ 005231cc     LIBCMTD:undname.obj
 0002:000101d0       ??_C@_02FODMEDOG@?$DM?$DM?$AA@ 005231d0     LIBCMTD:undname.obj
 0002:000101d4       ??_C@_02GPIOPFAK@?$DO?$DO?$AA@ 005231d4     LIBCMTD:undname.obj
 0002:000101d8       ??_C@_07FPCDHGMM@?5delete?$AA@ 005231d8     LIBCMTD:undname.obj
 0002:000101e0       ??_C@_04NIHEBCM@?5new?$AA@ 005231e0     LIBCMTD:undname.obj
 0002:000101e8       ??_C@_0M@GFIIJFMG@__unaligned?$AA@ 005231e8     LIBCMTD:undname.obj
 0002:000101f4       ??_C@_0L@PILCLIHE@__restrict?$AA@ 005231f4     LIBCMTD:undname.obj
 0002:00010200       ??_C@_07JOMMBBKO@__ptr64?$AA@ 00523200     LIBCMTD:undname.obj
 0002:00010208       ??_C@_09HIJEGCPM@__clrcall?$AA@ 00523208     LIBCMTD:undname.obj
 0002:00010214       ??_C@_0L@JMKHOMEK@__fastcall?$AA@ 00523214     LIBCMTD:undname.obj
 0002:00010220       ??_C@_0L@NPHFGOKO@__thiscall?$AA@ 00523220     LIBCMTD:undname.obj
 0002:0001022c       ??_C@_09IFJBGAPI@__stdcall?$AA@ 0052322c     LIBCMTD:undname.obj
 0002:00010238       ??_C@_08GHMPAG@__pascal?$AA@ 00523238     LIBCMTD:undname.obj
 0002:00010244       ??_C@_07KOLFKCDI@__cdecl?$AA@ 00523244     LIBCMTD:undname.obj
 0002:0001024c       ??_C@_08EHJDFFNH@__based?$CI?$AA@ 0052324c     LIBCMTD:undname.obj
 0002:000103d8       ??_C@_04HEJADOOB@CV?3?5?$AA@ 005233d8     LIBCMTD:undname.obj
 0002:000103e0       ??_C@_02MOLJINC@?3?3?$AA@  005233e0     LIBCMTD:undname.obj
 0002:000103e4       ??_C@_01GEODFPGF@?8?$AA@   005233e4     LIBCMTD:undname.obj
 0002:000103e8       ??_C@_01NLNLIGKH@?$GA?$AA@ 005233e8     LIBCMTD:undname.obj
 0002:000103ec       ??_C@_0O@KHGCOMHP@generic?9type?9?$AA@ 005233ec     LIBCMTD:undname.obj
 0002:000103fc       ??_C@_0BE@JAEOCHPE@template?9parameter?9?$AA@ 005233fc     LIBCMTD:undname.obj
 0002:00010410       ??_C@_02OHHJMEON@?8?8?$AA@ 00523410     LIBCMTD:undname.obj
 0002:00010414       ??_C@_0BG@JNJLAMPM@?$GAanonymous?5namespace?8?$AA@ 00523414     LIBCMTD:undname.obj
 0002:0001042c       ??_C@_0BN@IBLMMFAP@?$GAnon?9type?9template?9parameter?$AA@ 0052342c     LIBCMTD:undname.obj
 0002:0001044c       ??_C@_0BE@EODMJLIF@?$GAtemplate?9parameter?$AA@ 0052344c     LIBCMTD:undname.obj
 0002:00010460       ??_C@_04GKJNKENE@void?$AA@ 00523460     LIBCMTD:undname.obj
 0002:00010468       ??_C@_04HIBGFPH@NULL?$AA@  00523468     LIBCMTD:undname.obj
 0002:00010470       ??_C@_0M@DHNBOJMP@extern?5?$CCC?$CC?5?$AA@ 00523470     LIBCMTD:undname.obj
 0002:0001047c       ??_C@_08KJLFOPNE@?$FLthunk?$FN?3?$AA@ 0052347c     LIBCMTD:undname.obj
 0002:00010488       ??_C@_08GPDDCMKI@public?3?5?$AA@ 00523488     LIBCMTD:undname.obj
 0002:00010494       ??_C@_0M@GAIFPFIP@protected?3?5?$AA@ 00523494     LIBCMTD:undname.obj
 0002:000104a0       ??_C@_09LAPHOOG@private?3?5?$AA@ 005234a0     LIBCMTD:undname.obj
 0002:000104ac       ??_C@_08NIEOINHE@virtual?5?$AA@ 005234ac     LIBCMTD:undname.obj
 0002:000104b8       ??_C@_07PGOEDBHP@static?5?$AA@ 005234b8     LIBCMTD:undname.obj
 0002:000104c0       ??_C@_0DA@HGFJFBBE@?$GAtemplate?5static?5data?5member?5des@ 005234c0     LIBCMTD:undname.obj
 0002:000104f0       ??_C@_0DB@ILEFOCIJ@?$GAtemplate?5static?5data?5member?5con@ 005234f0     LIBCMTD:undname.obj
 0002:00010524       ??_C@_0CB@KJDOOODE@?$GAlocal?5static?5destructor?5helper?8@ 00523524     LIBCMTD:undname.obj
 0002:00010548       ??_C@_0L@HNGCOGAE@?$GAadjustor?$HL?$AA@ 00523548     LIBCMTD:undname.obj
 0002:00010554       ??_C@_0L@GHPFDFH@?$GAvtordisp?$HL?$AA@ 00523554     LIBCMTD:undname.obj
 0002:00010560       ??_C@_0N@CBHHHENL@?$GAvtordispex?$HL?$AA@ 00523560     LIBCMTD:undname.obj
 0002:00010570       ??_C@_01CLKCMJKC@?5?$AA@   00523570     LIBCMTD:undname.obj
 0002:00010574       ??_C@_02IGFCGPIL@?$HN?8?$AA@ 00523574     LIBCMTD:undname.obj
 0002:00010578       ??_C@_03OPGICMGF@?$HN?8?5?$AA@ 00523578     LIBCMTD:undname.obj
 0002:0001057c       ??_C@_02KCKGHPCA@?$CJ?5?$AA@ 0052357c     LIBCMTD:undname.obj
 0002:00010580       ??_C@_05BEFAKPML@void?5?$AA@ 00523580     LIBCMTD:undname.obj
 0002:00010588       ??_C@_08PABEKFH@volatile?$AA@ 00523588     LIBCMTD:undname.obj
 0002:00010594       ??_C@_0M@ELJOJFFH@?0?$DMellipsis?$DO?$AA@ 00523594     LIBCMTD:undname.obj
 0002:000105a0       ??_C@_04EENFHACM@?0?4?4?4?$AA@ 005235a0     LIBCMTD:undname.obj
 0002:000105a8       ??_C@_0L@EGPHHEKN@?$DMellipsis?$DO?$AA@ 005235a8     LIBCMTD:undname.obj
 0002:000105b4       ??_C@_07HDJPLPEK@?5throw?$CI?$AA@ 005235b4     LIBCMTD:undname.obj
 0002:000105bc       ??_C@_09EFNPDFFP@?5volatile?$AA@ 005235bc     LIBCMTD:undname.obj
 0002:000105c8       ??_C@_05BNCCCJPP@const?$AA@ 005235c8     LIBCMTD:undname.obj
 0002:000105d0       ??_C@_07EDHNAJHC@signed?5?$AA@ 005235d0     LIBCMTD:undname.obj
 0002:000105d8       ??_C@_09EBBEKKIH@unsigned?5?$AA@ 005235d8     LIBCMTD:undname.obj
 0002:000105e4       ??_C@_07NFANNNEC@UNKNOWN?$AA@ 005235e4     LIBCMTD:undname.obj
 0002:000105ec       ??_C@_06GCICPBLB@__w64?5?$AA@ 005235ec     LIBCMTD:undname.obj
 0002:000105f4       ??_C@_07CLGGIAMF@wchar_t?$AA@ 005235f4     LIBCMTD:undname.obj
 0002:000105fc       ??_C@_08GAHOLHEO@__int128?$AA@ 005235fc     LIBCMTD:undname.obj
 0002:00010608       ??_C@_07LFCOJCAC@__int64?$AA@ 00523608     LIBCMTD:undname.obj
 0002:00010610       ??_C@_07OFLPPHGP@__int32?$AA@ 00523610     LIBCMTD:undname.obj
 0002:00010618       ??_C@_07ICFHOGAF@__int16?$AA@ 00523618     LIBCMTD:undname.obj
 0002:00010620       ??_C@_06EBGKOKIG@__int8?$AA@ 00523620     LIBCMTD:undname.obj
 0002:00010628       ??_C@_04DDKJGDCM@bool?$AA@ 00523628     LIBCMTD:undname.obj
 0002:00010630       ??_C@_06BNJCAIGJ@double?$AA@ 00523630     LIBCMTD:undname.obj
 0002:00010638       ??_C@_05CJIMAING@long?5?$AA@ 00523638     LIBCMTD:undname.obj
 0002:00010640       ??_C@_05KNFBNCOH@float?$AA@ 00523640     LIBCMTD:undname.obj
 0002:00010648       ??_C@_04GOKPGOLB@long?$AA@ 00523648     LIBCMTD:undname.obj
 0002:00010650       ??_C@_03JBIPMCLC@int?$AA@  00523650     LIBCMTD:undname.obj
 0002:00010654       ??_C@_05BFKKPKCG@short?$AA@ 00523654     LIBCMTD:undname.obj
 0002:0001065c       ??_C@_04ENMBGAPA@char?$AA@ 0052365c     LIBCMTD:undname.obj
 0002:00010664       ??_C@_05LJGMCFOG@enum?5?$AA@ 00523664     LIBCMTD:undname.obj
 0002:0001066c       ??_C@_0N@DLIEFKNA@cointerface?5?$AA@ 0052366c     LIBCMTD:undname.obj
 0002:0001067c       ??_C@_08KOFANOFK@coclass?5?$AA@ 0052367c     LIBCMTD:undname.obj
 0002:00010688       ??_C@_06LJBABKPM@class?5?$AA@ 00523688     LIBCMTD:undname.obj
 0002:00010690       ??_C@_07DIBCDNGL@struct?5?$AA@ 00523690     LIBCMTD:undname.obj
 0002:00010698       ??_C@_06MOJHIBMG@union?5?$AA@ 00523698     LIBCMTD:undname.obj
 0002:000106a0       ??_C@_0P@GCIFDJCJ@?$GAunknown?5ecsu?8?$AA@ 005236a0     LIBCMTD:undname.obj
 0002:000106b0       ??_C@_04LAHKHJMA@int?5?$AA@ 005236b0     LIBCMTD:undname.obj
 0002:000106b8       ??_C@_06EHJMALKF@short?5?$AA@ 005236b8     LIBCMTD:undname.obj
 0002:000106c0       ??_C@_05CIHEBHNO@char?5?$AA@ 005236c0     LIBCMTD:undname.obj
 0002:000106c8       ??_C@_06LIJLOJAG@const?5?$AA@ 005236c8     LIBCMTD:undname.obj
 0002:000106d0       ??_C@_09GAIEOBLP@volatile?5?$AA@ 005236d0     LIBCMTD:undname.obj
 0002:000106dc       ??_C@_0O@GKABPPIF@cli?3?3pin_ptr?$DM?$AA@ 005236dc     LIBCMTD:undname.obj
 0002:000106ec       ??_C@_0M@EALIELKG@cli?3?3array?$DM?$AA@ 005236ec     LIBCMTD:undname.obj
 0002:000106f8       ??_C@_02GOGNNPBN@?$CJ?$FL?$AA@ 005236f8     LIBCMTD:undname.obj
 0002:000106fc       ??_C@_06EEGAIFAK@?$HLflat?$HN?$AA@ 005236fc     LIBCMTD:undname.obj
 0002:00010704       ??_C@_02MDINNEEG@s?5?$AA@  00523704     LIBCMTD:undname.obj
 0002:00010708       ??_C@_05JIBOFOHK@?$HLfor?5?$AA@ 00523708     LIBCMTD:undname.obj
 0002:00010714       ??_7DNameNode@@6B@         00523714     LIBCMTD:undname.obj
 0002:00010724       ??_7charNode@@6B@          00523724     LIBCMTD:undname.obj
 0002:00010734       ??_7pcharNode@@6B@         00523734     LIBCMTD:undname.obj
 0002:00010744       ??_7pDNameNode@@6B@        00523744     LIBCMTD:undname.obj
 0002:00010754       ??_7DNameStatusNode@@6B@   00523754     LIBCMTD:undname.obj
 0002:00010760       ??_C@_04OKOHEJBO@?5?$DP?$DP?5?$AA@ 00523760     LIBCMTD:undname.obj
 0002:00010768       ??_C@_1BK@CDOALEA@?$AA_?$AAc?$AAo?$AAn?$AAt?$AAr?$AAo?$AAl?$AAf?$AAp?$AA_?$AAs?$AA?$AA@ 00523768     LIBCMTD:contrlfp.obj
 0002:00010784       ??_C@_1BG@MIJAHIEN@?$AAc?$AAo?$AAn?$AAt?$AAr?$AAl?$AAf?$AAp?$AA?4?$AAc?$AA?$AA@ 00523784     LIBCMTD:contrlfp.obj
 0002:0001079c       ??_C@_1DG@JNDMIEJL@?$AA?$CI?$AA?$CC?$AAI?$AAn?$AAv?$AAa?$AAl?$AAi?$AAd?$AA?5?$AAi?$AAn?$AAp?$AAu?$AAt?$AA?5?$AAv?$AAa?$AAl?$AAu?$AAe?$AA?$CC?$AA?0?$AA?5?$AA0?$AA?$CJ?$AA?$AA@ 0052379c     LIBCMTD:contrlfp.obj
 0002:000107d4       ??_C@_1BK@CLIEHFDF@?$AAp?$AAf?$AAl?$AAt?$AA?5?$AA?$CB?$AA?$DN?$AA?5?$AAN?$AAU?$AAL?$AAL?$AA?$AA@ 005237d4     LIBCMTD:_fptostr.obj
 0002:000107f0       ??_C@_1GM@CEDLGDDI@?$AAs?$AAi?$AAz?$AAe?$AAI?$AAn?$AAB?$AAy?$AAt?$AAe?$AAs?$AA?5?$AA?$DO?$AA?5?$AA?$CI?$AAs?$AAi?$AAz?$AAe?$AA_?$AAt?$AA?$CJ?$AA?$CI?$AA?$CI?$AAd?$AAi?$AAg?$AAi?$AAt?$AAs?$AA?5?$AA?$DO@ 005237f0     LIBCMTD:_fptostr.obj
 0002:0001085c       ??_C@_1BC@OPALLEB@?$AA_?$AAf?$AAp?$AAt?$AAo?$AAs?$AAt?$AAr?$AA?$AA@ 0052385c     LIBCMTD:_fptostr.obj
 0002:00010870       ??_C@_1BG@NJCNOLI@?$AA_?$AAf?$AAp?$AAt?$AAo?$AAs?$AAt?$AAr?$AA?4?$AAc?$AA?$AA@ 00523870     LIBCMTD:_fptostr.obj
 0002:00010888       ??_C@_1FK@KODCOBKF@?$AAs?$AAt?$AAr?$AAc?$AAp?$AAy?$AA_?$AAs?$AA?$CI?$AAr?$AAe?$AAs?$AAu?$AAl?$AAt?$AAs?$AAt?$AAr?$AA?0?$AA?5?$AAr?$AAe?$AAs?$AAu?$AAl?$AAt?$AAs?$AAi?$AAz?$AAe?$AA?0?$AA?5@ 00523888     LIBCMTD:cfout.obj
 0002:000108e4       ??_C@_1BC@BPMMEHLK@?$AA_?$AAf?$AAl?$AAt?$AAo?$AAu?$AAt?$AA2?$AA?$AA@ 005238e4     LIBCMTD:cfout.obj
 0002:000108f8       ??_C@_1BA@BFLFHCE@?$AAc?$AAf?$AAo?$AAu?$AAt?$AA?4?$AAc?$AA?$AA@ 005238f8     LIBCMTD:cfout.obj
 0002:00010908       ??_C@_1CG@EBJECAJM@?$AA_?$AAs?$AAe?$AAt?$AA_?$AAo?$AAu?$AAt?$AAp?$AAu?$AAt?$AA_?$AAf?$AAo?$AAr?$AAm?$AAa?$AAt?$AA?$AA@ 00523908     LIBCMTD:outputformat.obj
 0002:00010930       ??_C@_1BO@GAIJFBKM@?$AAo?$AAu?$AAt?$AAp?$AAu?$AAt?$AAf?$AAo?$AAr?$AAm?$AAa?$AAt?$AA?4?$AAc?$AA?$AA@ 00523930     LIBCMTD:outputformat.obj
 0002:00010950       ??_C@_1EM@EGEEBJLG@?$AA?$CI?$AAo?$AAp?$AAt?$AAi?$AAo?$AAn?$AAs?$AA?5?$AA?$CG?$AA?5?$AA?$HO?$AA_?$AAT?$AAW?$AAO?$AA_?$AAD?$AAI?$AAG?$AAI?$AAT?$AA_?$AAE?$AAX?$AAP?$AAO?$AAN?$AAE?$AAN?$AAT?$AA?$CJ@ 00523950     LIBCMTD:outputformat.obj
 0002:0001099c       ??_C@_1O@JDPLECOK@?$AAu?$AAn?$AAg?$AAe?$AAt?$AAc?$AA?$AA@ 0052399c     LIBCMTD:ungetc.obj
 0002:000109ac       ??_C@_1BC@EAKHDONB@?$AAu?$AAn?$AAg?$AAe?$AAt?$AAc?$AA?4?$AAc?$AA?$AA@ 005239ac     LIBCMTD:ungetc.obj
 0002:000109c0       ??_C@_1BO@OLMLKKEA@?$AA_?$AAu?$AAn?$AAg?$AAe?$AAt?$AAc?$AA_?$AAn?$AAo?$AAl?$AAo?$AAc?$AAk?$AA?$AA@ 005239c0     LIBCMTD:ungetc.obj
 0002:000109e0       ??_C@_1HC@LIEAMBJN@?$AAF?$AA?3?$AA?2?$AAS?$AAP?$AA?2?$AAv?$AAc?$AAt?$AAo?$AAo?$AAl?$AAs?$AA?2?$AAc?$AAr?$AAt?$AA_?$AAb?$AAl?$AAd?$AA?2?$AAS?$AAE?$AAL?$AAF?$AA_?$AAX?$AA8?$AA6?$AA?2?$AAc@ 005239e0     LIBCMTD:ungetc.obj
 0002:00010a54       ??_C@_1BE@NDMJHJJG@?$AAs?$AAt?$AAr?$AAn?$AAc?$AAp?$AAy?$AA_?$AAs?$AA?$AA@ 00523a54     LIBCMTD:strncpy_s.obj
 0002:00010a68       ??_C@_1FA@HILOOCMA@?$AA?$CI?$AA_?$AAt?$AAc?$AAs?$AAn?$AAl?$AAe?$AAn?$AA?$CI?$AAo?$AAp?$AAt?$AAi?$AAo?$AAn?$AA?0?$AA?5?$AA_?$AAM?$AAA?$AAX?$AA_?$AAE?$AAN?$AAV?$AA?$CJ?$AA?5?$AA?$DM?$AA?5?$AA_?$AAM@ 00523a68     LIBCMTD:getenv.obj
 0002:00010ab8       ??_C@_1O@GMKGKCJO@?$AAg?$AAe?$AAt?$AAe?$AAn?$AAv?$AA?$AA@ 00523ab8     LIBCMTD:getenv.obj
 0002:00010ac8       ??_C@_1BC@CPAPBFCO@?$AAg?$AAe?$AAt?$AAe?$AAn?$AAv?$AA?4?$AAc?$AA?$AA@ 00523ac8     LIBCMTD:getenv.obj
 0002:00010adc       ??_C@_1CC@FKAOHHLO@?$AA?$CI?$AAo?$AAp?$AAt?$AAi?$AAo?$AAn?$AA?5?$AA?$CB?$AA?$DN?$AA?5?$AAN?$AAU?$AAL?$AAL?$AA?$CJ?$AA?$AA@ 00523adc     LIBCMTD:getenv.obj
 0002:00010b00       ??_C@_1GI@JBIFPFJH@?$AA_?$AAt?$AAc?$AAs?$AAn?$AAl?$AAe?$AAn?$AA?$CI?$AA?$CK?$AAs?$AAe?$AAa?$AAr?$AAc?$AAh?$AA?5?$AA?$CL?$AA?5?$AAl?$AAe?$AAn?$AAg?$AAt?$AAh?$AA?5?$AA?$CL?$AA?5?$AA1?$AA?0?$AA?5?$AA_@ 00523b00     LIBCMTD:getenv.obj
 0002:00010b68       ??_C@_1EI@HHOBPCFK@?$AAs?$AAt?$AAr?$AAc?$AAp?$AAy?$AA_?$AAs?$AA?$CI?$AAb?$AAu?$AAf?$AAf?$AAe?$AAr?$AA?0?$AA?5?$AAs?$AAi?$AAz?$AAe?$AAI?$AAn?$AAT?$AAC?$AAh?$AAa?$AAr?$AAs?$AA?0?$AA?5?$AAs@ 00523b68     LIBCMTD:getenv.obj
 0002:00010bb0       ??_C@_1JM@NLPGJJPH@?$AA?$CI?$AAb?$AAu?$AAf?$AAf?$AAe?$AAr?$AA?5?$AA?$CB?$AA?$DN?$AA?5?$AAN?$AAU?$AAL?$AAL?$AA?5?$AA?$CG?$AA?$CG?$AA?5?$AAs?$AAi?$AAz?$AAe?$AAI?$AAn?$AAT?$AAC?$AAh?$AAa?$AAr?$AAs?$AA?5@ 00523bb0     LIBCMTD:getenv.obj
 0002:00010c4c       ??_C@_1CC@BAJKDIIF@?$AA_?$AAg?$AAe?$AAt?$AAe?$AAn?$AAv?$AA_?$AAs?$AA_?$AAh?$AAe?$AAl?$AAp?$AAe?$AAr?$AA?$AA@ 00523c4c     LIBCMTD:getenv.obj
 0002:00010c70       ??_C@_1CK@PIKDAOCL@?$AAp?$AAR?$AAe?$AAt?$AAu?$AAr?$AAn?$AAV?$AAa?$AAl?$AAu?$AAe?$AA?5?$AA?$CB?$AA?$DN?$AA?5?$AAN?$AAU?$AAL?$AAL?$AA?$AA@ 00523c70     LIBCMTD:getenv.obj
 0002:00010c9c       ??_C@_1DM@GNKNEGJO@?$AAs?$AAt?$AAr?$AAc?$AAp?$AAy?$AA_?$AAs?$AA?$CI?$AA?$CK?$AAp?$AAB?$AAu?$AAf?$AAf?$AAe?$AAr?$AA?0?$AA?5?$AAs?$AAi?$AAz?$AAe?$AA?0?$AA?5?$AAs?$AAt?$AAr?$AA?$CJ?$AA?$AA@ 00523c9c     LIBCMTD:getenv.obj
 0002:00010cd8       ??_C@_1CA@GDBKELOE@?$AAv?$AAa?$AAr?$AAn?$AAa?$AAm?$AAe?$AA?5?$AA?$CB?$AA?$DN?$AA?5?$AAN?$AAU?$AAL?$AAL?$AA?$AA@ 00523cd8     LIBCMTD:getenv.obj
 0002:00010cf8       ??_C@_1CC@KPLOPIEM@?$AA_?$AAd?$AAu?$AAp?$AAe?$AAn?$AAv?$AA_?$AAs?$AA_?$AAh?$AAe?$AAl?$AAp?$AAe?$AAr?$AA?$AA@ 00523cf8     LIBCMTD:getenv.obj
 0002:00010d1c       ??_C@_1CA@FHNFMDOJ@?$AAp?$AAB?$AAu?$AAf?$AAf?$AAe?$AAr?$AA?5?$AA?$CB?$AA?$DN?$AA?5?$AAN?$AAU?$AAL?$AAL?$AA?$AA@ 00523d1c     LIBCMTD:getenv.obj
 0002:00010d3c       ??_C@_1DG@NMBGBDM@?$AAp?$AAl?$AAo?$AAc?$AAi?$AA?9?$AA?$DO?$AAc?$AAt?$AAy?$AAp?$AAe?$AA1?$AA_?$AAr?$AAe?$AAf?$AAc?$AAo?$AAu?$AAn?$AAt?$AA?5?$AA?$DO?$AA?5?$AA0?$AA?$AA@ 00523d3c     LIBCMTD:initctyp.obj
 0002:00010d74       ??_C@_1BG@PMMGDKJC@?$AAi?$AAn?$AAi?$AAt?$AAc?$AAt?$AAy?$AAp?$AA?4?$AAc?$AA?$AA@ 00523d74     LIBCMTD:initctyp.obj
 0002:00010d8c       ??_C@_0L@GBAGBCPL@initctyp?4c?$AA@ 00523d8c     LIBCMTD:initctyp.obj
 0002:00010d98       ??_C@_1CA@LFDHAMEM@?$AA_?$AAs?$AAe?$AAt?$AA_?$AAe?$AAr?$AAr?$AAo?$AAr?$AA_?$AAm?$AAo?$AAd?$AAe?$AA?$AA@ 00523d98     LIBCMTD:errmode.obj
 0002:00010db8       ??_C@_1BE@FFANBHLE@?$AAe?$AAr?$AAr?$AAm?$AAo?$AAd?$AAe?$AA?4?$AAc?$AA?$AA@ 00523db8     LIBCMTD:errmode.obj
 0002:00010dcc       ??_C@_1DE@BCNCAIK@?$AA?$CI?$AA?$CC?$AAI?$AAn?$AAv?$AAa?$AAl?$AAi?$AAd?$AA?5?$AAe?$AAr?$AAr?$AAo?$AAr?$AA_?$AAm?$AAo?$AAd?$AAe?$AA?$CC?$AA?0?$AA?5?$AA0?$AA?$CJ?$AA?$AA@ 00523dcc     LIBCMTD:errmode.obj
 0002:00010e00       ??_C@_0BK@CIDNPOGP@GetUserObjectInformationA?$AA@ 00523e00     LIBCMTD:crtmbox.obj
 0002:00010e1c       ??_C@_1CC@MEIOIKJI@?$AA_?$AA_?$AAc?$AAr?$AAt?$AAM?$AAe?$AAs?$AAs?$AAa?$AAg?$AAe?$AAB?$AAo?$AAx?$AAA?$AA?$AA@ 00523e1c     LIBCMTD:crtmbox.obj
 0002:00010e40       ??_C@_1BE@DEODNGG@?$AAc?$AAr?$AAt?$AAm?$AAb?$AAo?$AAx?$AA?4?$AAc?$AA?$AA@ 00523e40     LIBCMTD:crtmbox.obj
 0002:00010e54       ??_C@_0M@CHKKJDAI@MessageBoxA?$AA@ 00523e54     LIBCMTD:crtmbox.obj
 0002:00010e60       ??_C@_0L@NDEGIDAG@USER32?4DLL?$AA@ 00523e60     LIBCMTD:crtmbox.obj
 0002:00010e6c       ??_C@_13NOLLCAOD@?$AA?$AA?$AA?$AA@ 00523e6c     LIBCMTD:a_map.obj
 0002:00010e70       ??_C@_1GA@EDILLMMN@?$AAF?$AA?3?$AA?2?$AAS?$AAP?$AA?2?$AAv?$AAc?$AAt?$AAo?$AAo?$AAl?$AAs?$AA?2?$AAc?$AAr?$AAt?$AA_?$AAb?$AAl?$AAd?$AA?2?$AAS?$AAE?$AAL?$AAF?$AA_?$AAX?$AA8?$AA6?$AA?2?$AAc@ 00523e70     LIBCMTD:a_map.obj
 0002:00010ed0       ??_C@_1FE@KNPCCODH@?$AA?$CI?$AA?$CC?$AAC?$AAo?$AAr?$AAr?$AAu?$AAp?$AAt?$AAe?$AAd?$AA?5?$AAp?$AAo?$AAi?$AAn?$AAt?$AAe?$AAr?$AA?5?$AAp?$AAa?$AAs?$AAs?$AAe?$AAd?$AA?5?$AAt?$AAo?$AA?5?$AA_?$AAf@ 00523ed0     LIBCMTD:a_map.obj
 0002:00010f28       ___newctype                00523f28     LIBCMTD:ctype.obj
 0002:00011228       __wctype                   00524228     LIBCMTD:ctype.obj
 0002:00011430       ___newclmap                00524430     LIBCMTD:ctype.obj
 0002:000115b0       ___newcumap                005245b0     LIBCMTD:ctype.obj
 0002:00011730       ??_C@_1BG@HHBAFOPB@?$AAi?$AAn?$AAi?$AAt?$AAt?$AAi?$AAm?$AAe?$AA?4?$AAc?$AA?$AA@ 00524730     LIBCMTD:inittime.obj
 0002:00011748       ??_C@_1EE@FDHCFDHN@?$AAp?$AAl?$AAo?$AAc?$AAi?$AA?9?$AA?$DO?$AAl?$AAc?$AA_?$AAt?$AAi?$AAm?$AAe?$AA_?$AAc?$AAu?$AAr?$AAr?$AA?9?$AA?$DO?$AAr?$AAe?$AAf?$AAc?$AAo?$AAu?$AAn?$AAt?$AA?5?$AA?$DO?$AA?5@ 00524748     LIBCMTD:inittime.obj
 0002:0001178c       ??_C@_0L@IOJADHBB@inittime?4c?$AA@ 0052478c     LIBCMTD:inittime.obj
 0002:00011798       ??_C@_1BE@EAFFGEEO@?$AAi?$AAn?$AAi?$AAt?$AAn?$AAu?$AAm?$AA?4?$AAc?$AA?$AA@ 00524798     LIBCMTD:initnum.obj
 0002:000117ac       ??_C@_1DM@IFKAINNE@?$AAp?$AAl?$AAo?$AAc?$AAi?$AA?9?$AA?$DO?$AAl?$AAc?$AAo?$AAn?$AAv?$AA_?$AAn?$AAu?$AAm?$AA_?$AAr?$AAe?$AAf?$AAc?$AAo?$AAu?$AAn?$AAt?$AA?5?$AA?$DO?$AA?5?$AA0?$AA?$AA@ 005247ac     LIBCMTD:initnum.obj
 0002:000117e8       ??_C@_09MECGNAGI@initnum?4c?$AA@ 005247e8     LIBCMTD:initnum.obj
 0002:000117f4       ??_C@_1BE@IJMIKAHM@?$AAi?$AAn?$AAi?$AAt?$AAm?$AAo?$AAn?$AA?4?$AAc?$AA?$AA@ 005247f4     LIBCMTD:initmon.obj
 0002:00011808       ??_C@_1DM@GKAPAMDO@?$AAp?$AAl?$AAo?$AAc?$AAi?$AA?9?$AA?$DO?$AAl?$AAc?$AAo?$AAn?$AAv?$AA_?$AAm?$AAo?$AAn?$AA_?$AAr?$AAe?$AAf?$AAc?$AAo?$AAu?$AAn?$AAt?$AA?5?$AA?$DO?$AA?5?$AA0?$AA?$AA@ 00524808     LIBCMTD:initmon.obj
 0002:00011844       ??_C@_09HKFHICAL@initmon?4c?$AA@ 00524844     LIBCMTD:initmon.obj
 0002:00011850       ??_C@_08JCCMCCIL@HH?3mm?3ss?$AA@ 00524850     LIBCMTD:strftime.obj
 0002:0001185c       ??_C@_0BE@CKGJFCPC@dddd?0?5MMMM?5dd?0?5yyyy?$AA@ 0052485c     LIBCMTD:strftime.obj
 0002:00011870       ??_C@_08BPBNCDIB@MM?1dd?1yy?$AA@ 00524870     LIBCMTD:strftime.obj
 0002:0001187c       ??_C@_02CJNFDJBF@PM?$AA@   0052487c     LIBCMTD:strftime.obj
 0002:00011880       ??_C@_02DEDBPAFC@AM?$AA@   00524880     LIBCMTD:strftime.obj
 0002:00011884       ??_C@_08EDHMEBNP@December?$AA@ 00524884     LIBCMTD:strftime.obj
 0002:00011890       ??_C@_08HCHEGEOA@November?$AA@ 00524890     LIBCMTD:strftime.obj
 0002:0001189c       ??_C@_07JJNFCEND@October?$AA@ 0052489c     LIBCMTD:strftime.obj
 0002:000118a4       ??_C@_09BHHEALKD@September?$AA@ 005248a4     LIBCMTD:strftime.obj
 0002:000118b0       ??_C@_06LBBHFDDG@August?$AA@ 005248b0     LIBCMTD:strftime.obj
 0002:000118b8       ??_C@_04MIEPOIFP@July?$AA@ 005248b8     LIBCMTD:strftime.obj
 0002:000118c0       ??_C@_04CNLMGBGM@June?$AA@ 005248c0     LIBCMTD:strftime.obj
 0002:000118c8       ??_C@_05DMJDNLEJ@April?$AA@ 005248c8     LIBCMTD:strftime.obj
 0002:000118d0       ??_C@_05HPCKOFNC@March?$AA@ 005248d0     LIBCMTD:strftime.obj
 0002:000118d8       ??_C@_08GNJGEPFN@February?$AA@ 005248d8     LIBCMTD:strftime.obj
 0002:000118e4       ??_C@_07CGJPFGJA@January?$AA@ 005248e4     LIBCMTD:strftime.obj
 0002:000118ec       ??_C@_03MKABNOCG@Dec?$AA@  005248ec     LIBCMTD:strftime.obj
 0002:000118f0       ??_C@_03JPJOFNIA@Nov?$AA@  005248f0     LIBCMTD:strftime.obj
 0002:000118f4       ??_C@_03BMAOKBAD@Oct?$AA@  005248f4     LIBCMTD:strftime.obj
 0002:000118f8       ??_C@_03GGCAPAJC@Sep?$AA@  005248f8     LIBCMTD:strftime.obj
 0002:000118fc       ??_C@_03IFJFEIGA@Aug?$AA@  005248fc     LIBCMTD:strftime.obj
 0002:00011900       ??_C@_03LBGABGKK@Jul?$AA@  00524900     LIBCMTD:strftime.obj
 0002:00011904       ??_C@_03IDFGHECI@Jun?$AA@  00524904     LIBCMTD:strftime.obj
 0002:00011908       ??_C@_03CNMDKL@May?$AA@    00524908     LIBCMTD:strftime.obj
 0002:0001190c       ??_C@_03LEOLGMJP@Apr?$AA@  0052490c     LIBCMTD:strftime.obj
 0002:00011910       ??_C@_03ODNJBKGA@Mar?$AA@  00524910     LIBCMTD:strftime.obj
 0002:00011914       ??_C@_03HJBDCHOM@Feb?$AA@  00524914     LIBCMTD:strftime.obj
 0002:00011918       ??_C@_03JIHJHPIE@Jan?$AA@  00524918     LIBCMTD:strftime.obj
 0002:0001191c       ??_C@_08INBOOONO@Saturday?$AA@ 0052491c     LIBCMTD:strftime.obj
 0002:00011928       ??_C@_06JECMNKMI@Friday?$AA@ 00524928     LIBCMTD:strftime.obj
 0002:00011930       ??_C@_08HACCIKIA@Thursday?$AA@ 00524930     LIBCMTD:strftime.obj
 0002:0001193c       ??_C@_09DLIGFAKA@Wednesday?$AA@ 0052493c     LIBCMTD:strftime.obj
 0002:00011948       ??_C@_07BAAGCFCM@Tuesday?$AA@ 00524948     LIBCMTD:strftime.obj
 0002:00011950       ??_C@_06JLEDEDGH@Monday?$AA@ 00524950     LIBCMTD:strftime.obj
 0002:00011958       ??_C@_06OOPIFAJ@Sunday?$AA@ 00524958     LIBCMTD:strftime.obj
 0002:00011960       ??_C@_03FEFJNEK@Sat?$AA@   00524960     LIBCMTD:strftime.obj
 0002:00011964       ??_C@_03IDIOELNC@Fri?$AA@  00524964     LIBCMTD:strftime.obj
 0002:00011968       ??_C@_03IOFIKPDN@Thu?$AA@  00524968     LIBCMTD:strftime.obj
 0002:0001196c       ??_C@_03MHOMLAJA@Wed?$AA@  0052496c     LIBCMTD:strftime.obj
 0002:00011970       ??_C@_03NAGEINEP@Tue?$AA@  00524970     LIBCMTD:strftime.obj
 0002:00011974       ??_C@_03PDAGKDH@Mon?$AA@   00524974     LIBCMTD:strftime.obj
 0002:00011978       ??_C@_03KOEHGMDN@Sun?$AA@  00524978     LIBCMTD:strftime.obj
 0002:00011980       ??_C@_1FM@LPEPDBJF@?$AAs?$AAt?$AAr?$AAc?$AAp?$AAy?$AA_?$AAs?$AA?$CI?$AAs?$AA?0?$AA?5?$AA?$CI?$AAl?$AAe?$AAn?$AA?5?$AA?$CL?$AA?5?$AA1?$AA?$CJ?$AA?5?$AA?9?$AA?5?$AA?$CI?$AAs?$AA?5?$AA?9?$AA?5?$AAp?$AA?$CJ?$AA?0@ 00524980     LIBCMTD:strftime.obj
 0002:000119e0       ??_C@_1GG@NAGHPCAA@?$AAs?$AAt?$AAr?$AAc?$AAp?$AAy?$AA_?$AAs?$AA?$CI?$AAs?$AA?0?$AA?5?$AA?$CI?$AAl?$AAe?$AAn?$AA?5?$AA?$CL?$AA?5?$AA1?$AA?$CJ?$AA?5?$AA?9?$AA?5?$AA?$CI?$AAs?$AA?5?$AA?9?$AA?5?$AAp?$AA?$CJ?$AA?0@ 005249e0     LIBCMTD:strftime.obj
 0002:00011a48       ??_C@_1BG@LGACIFJI@?$AA_?$AAG?$AAe?$AAt?$AAd?$AAa?$AAy?$AAs?$AA_?$AAl?$AA?$AA@ 00524a48     LIBCMTD:strftime.obj
 0002:00011a60       ??_C@_1BG@EMNEMEKA@?$AAs?$AAt?$AAr?$AAf?$AAt?$AAi?$AAm?$AAe?$AA?4?$AAc?$AA?$AA@ 00524a60     LIBCMTD:strftime.obj
 0002:00011a78       ??_C@_0L@OCEOFAIF@strftime?4c?$AA@ 00524a78     LIBCMTD:strftime.obj
 0002:00011a88       ??_C@_1FO@IFFKPIEL@?$AAs?$AAt?$AAr?$AAc?$AAp?$AAy?$AA_?$AAs?$AA?$CI?$AAs?$AA?0?$AA?5?$AA?$CI?$AAl?$AAe?$AAn?$AA?5?$AA?$CL?$AA?5?$AA1?$AA?$CJ?$AA?5?$AA?9?$AA?5?$AA?$CI?$AAs?$AA?5?$AA?9?$AA?5?$AAp?$AA?$CJ?$AA?0@ 00524a88     LIBCMTD:strftime.obj
 0002:00011ae8       ??_C@_1GI@LNJDDNLK@?$AAs?$AAt?$AAr?$AAc?$AAp?$AAy?$AA_?$AAs?$AA?$CI?$AAs?$AA?0?$AA?5?$AA?$CI?$AAl?$AAe?$AAn?$AA?5?$AA?$CL?$AA?5?$AA1?$AA?$CJ?$AA?5?$AA?9?$AA?5?$AA?$CI?$AAs?$AA?5?$AA?9?$AA?5?$AAp?$AA?$CJ?$AA?0@ 00524ae8     LIBCMTD:strftime.obj
 0002:00011b50       ??_C@_1BK@IDMELNCB@?$AA_?$AAG?$AAe?$AAt?$AAm?$AAo?$AAn?$AAt?$AAh?$AAs?$AA_?$AAl?$AA?$AA@ 00524b50     LIBCMTD:strftime.obj
 0002:00011b70       ??_C@_1FG@CJBIADLJ@?$AAs?$AAt?$AAr?$AAc?$AAp?$AAy?$AA_?$AAs?$AA?$CI?$AAs?$AA?0?$AA?5?$AAl?$AAe?$AAn?$AA?5?$AA?9?$AA?5?$AA?$CI?$AAs?$AA?5?$AA?9?$AA?5?$AAp?$AA?$CJ?$AA?0?$AA?5?$AAp?$AAt?$AA?9?$AA?$DO?$AAw@ 00524b70     LIBCMTD:strftime.obj
 0002:00011bc8       ??_C@_1FI@PPIHCJGH@?$AAs?$AAt?$AAr?$AAc?$AAp?$AAy?$AA_?$AAs?$AA?$CI?$AAs?$AA?0?$AA?5?$AAl?$AAe?$AAn?$AA?5?$AA?9?$AA?5?$AA?$CI?$AAs?$AA?5?$AA?9?$AA?5?$AAp?$AA?$CJ?$AA?0?$AA?5?$AAp?$AAt?$AA?9?$AA?$DO?$AAw@ 00524bc8     LIBCMTD:strftime.obj
 0002:00011c20       ??_C@_1FI@GDNOPCGD@?$AAs?$AAt?$AAr?$AAc?$AAp?$AAy?$AA_?$AAs?$AA?$CI?$AAs?$AA?0?$AA?5?$AAl?$AAe?$AAn?$AA?5?$AA?9?$AA?5?$AA?$CI?$AAs?$AA?5?$AA?9?$AA?5?$AAp?$AA?$CJ?$AA?0?$AA?5?$AAp?$AAt?$AA?9?$AA?$DO?$AAw@ 00524c20     LIBCMTD:strftime.obj
 0002:00011c78       ??_C@_1FA@MEHIJEIL@?$AAs?$AAt?$AAr?$AAc?$AAp?$AAy?$AA_?$AAs?$AA?$CI?$AAs?$AA?0?$AA?5?$AAl?$AAe?$AAn?$AA?5?$AA?9?$AA?5?$AA?$CI?$AAs?$AA?5?$AA?9?$AA?5?$AAp?$AA?$CJ?$AA?0?$AA?5?$AAp?$AAt?$AA?9?$AA?$DO?$AAa@ 00524c78     LIBCMTD:strftime.obj
 0002:00011cc8       ??_C@_1FA@INCJEBF@?$AAs?$AAt?$AAr?$AAc?$AAp?$AAy?$AA_?$AAs?$AA?$CI?$AAs?$AA?0?$AA?5?$AAl?$AAe?$AAn?$AA?5?$AA?9?$AA?5?$AA?$CI?$AAs?$AA?5?$AA?9?$AA?5?$AAp?$AA?$CJ?$AA?0?$AA?5?$AAp?$AAt?$AA?9?$AA?$DO?$AAa@ 00524cc8     LIBCMTD:strftime.obj
 0002:00011d18       ??_C@_1FC@BEAPAEGE@?$AAs?$AAt?$AAr?$AAc?$AAp?$AAy?$AA_?$AAs?$AA?$CI?$AAs?$AA?0?$AA?5?$AAl?$AAe?$AAn?$AA?5?$AA?9?$AA?5?$AA?$CI?$AAs?$AA?5?$AA?9?$AA?5?$AAp?$AA?$CJ?$AA?0?$AA?5?$AAp?$AAt?$AA?9?$AA?$DO?$AAm@ 00524d18     LIBCMTD:strftime.obj
 0002:00011d70       ??_C@_1FM@CHHONFED@?$AAs?$AAt?$AAr?$AAc?$AAp?$AAy?$AA_?$AAs?$AA?$CI?$AAs?$AA?0?$AA?5?$AAl?$AAe?$AAn?$AA?5?$AA?9?$AA?5?$AA?$CI?$AAs?$AA?5?$AA?9?$AA?5?$AAp?$AA?$CJ?$AA?0?$AA?5?$AAp?$AAt?$AA?9?$AA?$DO?$AAm@ 00524d70     LIBCMTD:strftime.obj
 0002:00011dd0       ??_C@_1FA@EBHJJADL@?$AAs?$AAt?$AAr?$AAc?$AAp?$AAy?$AA_?$AAs?$AA?$CI?$AAs?$AA?0?$AA?5?$AAl?$AAe?$AAn?$AA?5?$AA?9?$AA?5?$AA?$CI?$AAs?$AA?5?$AA?9?$AA?5?$AAp?$AA?$CJ?$AA?0?$AA?5?$AAp?$AAt?$AA?9?$AA?$DO?$AAw@ 00524dd0     LIBCMTD:strftime.obj
 0002:00011e20       ??_C@_1FK@ODMKEFLD@?$AAs?$AAt?$AAr?$AAc?$AAp?$AAy?$AA_?$AAs?$AA?$CI?$AAs?$AA?0?$AA?5?$AAl?$AAe?$AAn?$AA?5?$AA?9?$AA?5?$AA?$CI?$AAs?$AA?5?$AA?9?$AA?5?$AAp?$AA?$CJ?$AA?0?$AA?5?$AAp?$AAt?$AA?9?$AA?$DO?$AAw@ 00524e20     LIBCMTD:strftime.obj
 0002:00011e7c       ??_C@_1BK@MJNHIAGO@?$AA_?$AAG?$AAe?$AAt?$AAt?$AAn?$AAa?$AAm?$AAe?$AAs?$AA_?$AAl?$AA?$AA@ 00524e7c     LIBCMTD:strftime.obj
 0002:00011e98       ??_C@_1M@HCOOECOK@?$AAF?$AAA?$AAL?$AAS?$AAE?$AA?$AA@ 00524e98     LIBCMTD:strftime.obj
 0002:00011ea8       ??_C@_1HC@JGDOBCNK@?$AA?$CI?$AA?$CC?$AAI?$AAn?$AAv?$AAa?$AAl?$AAi?$AAd?$AA?5?$AAM?$AAB?$AAC?$AAS?$AA?5?$AAc?$AAh?$AAa?$AAr?$AAa?$AAc?$AAt?$AAe?$AAr?$AA?5?$AAs?$AAe?$AAq?$AAu?$AAe?$AAn?$AAc@ 00524ea8     LIBCMTD:strftime.obj
 0002:00011f1c       ??_C@_1BG@CCBNLOOI@?$AAt?$AAi?$AAm?$AAe?$AAp?$AAt?$AAr?$AA?$CB?$AA?$DN?$AA0?$AA?$AA@ 00524f1c     LIBCMTD:strftime.obj
 0002:00011f34       ??_C@_1CG@MHIOFJLE@?$AA?$CI?$AA?5?$AAf?$AAo?$AAr?$AAm?$AAa?$AAt?$AA?5?$AA?$CB?$AA?$DN?$AA?5?$AAN?$AAU?$AAL?$AAL?$AA?5?$AA?$CJ?$AA?$AA@ 00524f34     LIBCMTD:strftime.obj
 0002:00011f5c       ??_C@_1CC@IHEJKGMG@?$AA?$CI?$AA?5?$AAm?$AAa?$AAx?$AAs?$AAi?$AAz?$AAe?$AA?5?$AA?$CB?$AA?$DN?$AA?5?$AA0?$AA?5?$AA?$CJ?$AA?$AA@ 00524f5c     LIBCMTD:strftime.obj
 0002:00011f80       ??_C@_1BI@ONBMGNNA@?$AA_?$AAS?$AAt?$AAr?$AAf?$AAt?$AAi?$AAm?$AAe?$AA_?$AAl?$AA?$AA@ 00524f80     LIBCMTD:strftime.obj
 0002:00011f98       ??_C@_1CG@MPKJHDAA@?$AA?$CI?$AA?5?$AAs?$AAt?$AAr?$AAi?$AAn?$AAg?$AA?5?$AA?$CB?$AA?$DN?$AA?5?$AAN?$AAU?$AAL?$AAL?$AA?5?$AA?$CJ?$AA?$AA@ 00524f98     LIBCMTD:strftime.obj
 0002:00011fc0       ??_C@_1EG@JNJKHKFI@?$AA?$CI?$AA?5?$AA?$CC?$AAI?$AAn?$AAv?$AAa?$AAl?$AAi?$AAd?$AA?5?$AAf?$AAo?$AAr?$AAm?$AAa?$AAt?$AA?5?$AAd?$AAi?$AAr?$AAe?$AAc?$AAt?$AAi?$AAv?$AAe?$AA?$CC?$AA?5?$AA?0?$AA?5?$AA0@ 00524fc0     LIBCMTD:strftime.obj
 0002:00012008       ??_C@_1HM@LBNGKIAD@?$AA?$CI?$AA?5?$AAt?$AAi?$AAm?$AAe?$AAp?$AAt?$AAr?$AA?9?$AA?$DO?$AAt?$AAm?$AA_?$AAy?$AAe?$AAa?$AAr?$AA?5?$AA?$DO?$AA?$DN?$AA?5?$AA?9?$AA1?$AA9?$AA0?$AA0?$AA?5?$AA?$CJ?$AA?5?$AA?$CG?$AA?$CG@ 00525008     LIBCMTD:strftime.obj
 0002:00012084       ??_C@_1DC@NMCFBMJP@?$AA?$CI?$AA?5?$AAt?$AAi?$AAm?$AAe?$AAp?$AAt?$AAr?$AA?9?$AA?$DO?$AAt?$AAm?$AA_?$AAy?$AAe?$AAa?$AAr?$AA?5?$AA?$DO?$AA?$DN?$AA0?$AA?5?$AA?$CJ?$AA?$AA@ 00525084     LIBCMTD:strftime.obj
 0002:000120b8       ??_C@_1HC@HLKHIKOB@?$AA?$CI?$AA?5?$AA?$CI?$AA?5?$AAt?$AAi?$AAm?$AAe?$AAp?$AAt?$AAr?$AA?9?$AA?$DO?$AAt?$AAm?$AA_?$AAs?$AAe?$AAc?$AA?5?$AA?$DO?$AA?$DN?$AA0?$AA?5?$AA?$CJ?$AA?5?$AA?$CG?$AA?$CG?$AA?5?$AA?$CI?$AA?5?$AAt@ 005250b8     LIBCMTD:strftime.obj
 0002:00012130       ??_C@_1HC@IGKDPPHL@?$AA?$CI?$AA?5?$AA?$CI?$AA?5?$AAt?$AAi?$AAm?$AAe?$AAp?$AAt?$AAr?$AA?9?$AA?$DO?$AAt?$AAm?$AA_?$AAm?$AAi?$AAn?$AA?5?$AA?$DO?$AA?$DN?$AA0?$AA?5?$AA?$CJ?$AA?5?$AA?$CG?$AA?$CG?$AA?5?$AA?$CI?$AA?5?$AAt@ 00525130     LIBCMTD:strftime.obj
 0002:000121a8       ??_C@_1HI@HHCJCPE@?$AA?$CI?$AA?5?$AA?$CI?$AA?5?$AAt?$AAi?$AAm?$AAe?$AAp?$AAt?$AAr?$AA?9?$AA?$DO?$AAt?$AAm?$AA_?$AAy?$AAd?$AAa?$AAy?$AA?5?$AA?$DO?$AA?$DN?$AA0?$AA?5?$AA?$CJ?$AA?5?$AA?$CG?$AA?$CG?$AA?5?$AA?$CI?$AA?5@ 005251a8     LIBCMTD:strftime.obj
 0002:00012220       ??_C@_1HG@KCGGFLNI@?$AA?$CI?$AA?5?$AA?$CI?$AA?5?$AAt?$AAi?$AAm?$AAe?$AAp?$AAt?$AAr?$AA?9?$AA?$DO?$AAt?$AAm?$AA_?$AAh?$AAo?$AAu?$AAr?$AA?5?$AA?$DO?$AA?$DN?$AA0?$AA?5?$AA?$CJ?$AA?5?$AA?$CG?$AA?$CG?$AA?5?$AA?$CI?$AA?5@ 00525220     LIBCMTD:strftime.obj
 0002:00012298       ??_C@_1HG@NFHHOAD@?$AA?$CI?$AA?5?$AA?$CI?$AA?5?$AAt?$AAi?$AAm?$AAe?$AAp?$AAt?$AAr?$AA?9?$AA?$DO?$AAt?$AAm?$AA_?$AAm?$AAd?$AAa?$AAy?$AA?5?$AA?$DO?$AA?$DN?$AA1?$AA?5?$AA?$CJ?$AA?5?$AA?$CG?$AA?$CG?$AA?5?$AA?$CI?$AA?5@ 00525298     LIBCMTD:strftime.obj
 0002:00012310       ??_C@_1HC@OOAMILFB@?$AA?$CI?$AA?5?$AA?$CI?$AA?5?$AAt?$AAi?$AAm?$AAe?$AAp?$AAt?$AAr?$AA?9?$AA?$DO?$AAt?$AAm?$AA_?$AAm?$AAo?$AAn?$AA?5?$AA?$DO?$AA?$DN?$AA0?$AA?5?$AA?$CJ?$AA?5?$AA?$CG?$AA?$CG?$AA?5?$AA?$CI?$AA?5?$AAt@ 00525310     LIBCMTD:strftime.obj
 0002:00012384       ??_C@_1BI@HBKPAJH@?$AA_?$AAe?$AAx?$AAp?$AAa?$AAn?$AAd?$AAt?$AAi?$AAm?$AAe?$AA?$AA@ 00525384     LIBCMTD:strftime.obj
 0002:000123a0       ??_C@_1HE@BFLEOKFO@?$AA?$CI?$AA?5?$AA?$CI?$AA?5?$AAt?$AAi?$AAm?$AAe?$AAp?$AAt?$AAr?$AA?9?$AA?$DO?$AAt?$AAm?$AA_?$AAw?$AAd?$AAa?$AAy?$AA?5?$AA?$DO?$AA?$DN?$AA0?$AA?5?$AA?$CJ?$AA?5?$AA?$CG?$AA?$CG?$AA?5?$AA?$CI?$AA?5@ 005253a0     LIBCMTD:strftime.obj
 0002:00012418       ??_C@_1HG@PAEENAPO@?$AA?$CI?$AA?$CC?$AAI?$AAn?$AAv?$AAa?$AAl?$AAi?$AAd?$AA?5?$AAM?$AAB?$AAC?$AAS?$AA?5?$AAc?$AAh?$AAa?$AAr?$AAa?$AAc?$AAt?$AAe?$AAr?$AA?5?$AAs?$AAe?$AAq?$AAu?$AAe?$AAn?$AAc@ 00525418     LIBCMTD:strftime.obj
 0002:00012490       ??_C@_1IE@EIDABBDG@?$AA?$CI?$AA?$CC?$AAI?$AAn?$AAv?$AAa?$AAl?$AAi?$AAd?$AA?5?$AAM?$AAB?$AAC?$AAS?$AA?5?$AAc?$AAh?$AAa?$AAr?$AAa?$AAc?$AAt?$AAe?$AAr?$AA?5?$AAs?$AAe?$AAq?$AAu?$AAe?$AAn?$AAc@ 00525490     LIBCMTD:strftime.obj
 0002:00012514       ??_C@_03EBAPMIKO@a?1p?$AA@ 00525514     LIBCMTD:strftime.obj
 0002:00012518       ??_C@_05JAMEPDIN@am?1pm?$AA@ 00525518     LIBCMTD:strftime.obj
 0002:00012520       ??_C@_0O@FMJNFNKE@united?9states?$AA@ 00525520     LIBCMTD:getqloc.obj
 0002:00012530       ??_C@_0P@NDHFFKCA@united?9kingdom?$AA@ 00525530     LIBCMTD:getqloc.obj
 0002:00012540       ??_C@_0BC@HHDADLGF@trinidad?5?$CG?5tobago?$AA@ 00525540     LIBCMTD:getqloc.obj
 0002:00012554       ??_C@_0M@IOAEBDAC@south?9korea?$AA@ 00525554     LIBCMTD:getqloc.obj
 0002:00012560       ??_C@_0N@FIELFKIJ@south?9africa?$AA@ 00525560     LIBCMTD:getqloc.obj
 0002:00012570       ??_C@_0M@OPNDHCMC@south?5korea?$AA@ 00525570     LIBCMTD:getqloc.obj
 0002:0001257c       ??_C@_0N@MDEOEPFI@south?5africa?$AA@ 0052557c     LIBCMTD:getqloc.obj
 0002:0001258c       ??_C@_06FKAPCJLB@slovak?$AA@ 0052558c     LIBCMTD:getqloc.obj
 0002:00012594       ??_C@_0M@EFJANOAL@puerto?9rico?$AA@ 00525594     LIBCMTD:getqloc.obj
 0002:000125a0       ??_C@_08PGOJKDAI@pr?9china?$AA@ 005255a0     LIBCMTD:getqloc.obj
 0002:000125ac       ??_C@_08JHDOMCMI@pr?5china?$AA@ 005255ac     LIBCMTD:getqloc.obj
 0002:000125b8       ??_C@_02JHCHFBLL@nz?$AA@   005255b8     LIBCMTD:getqloc.obj
 0002:000125bc       ??_C@_0M@LINHDHKP@new?9zealand?$AA@ 005255bc     LIBCMTD:getqloc.obj
 0002:000125c8       ??_C@_09IIIPPBDB@hong?9kong?$AA@ 005255c8     LIBCMTD:getqloc.obj
 0002:000125d4       ??_C@_07HJLCKBG@holland?$AA@ 005255d4     LIBCMTD:getqloc.obj
 0002:000125dc       ??_C@_0O@LEHGMHAG@great?5britain?$AA@ 005255dc     LIBCMTD:getqloc.obj
 0002:000125ec       ??_C@_07FACOMELA@england?$AA@ 005255ec     LIBCMTD:getqloc.obj
 0002:000125f4       ??_C@_05JIHCEICB@czech?$AA@ 005255f4     LIBCMTD:getqloc.obj
 0002:000125fc       ??_C@_05BBJOBLGB@china?$AA@ 005255fc     LIBCMTD:getqloc.obj
 0002:00012604       ??_C@_07GPKPHICP@britain?$AA@ 00525604     LIBCMTD:getqloc.obj
 0002:0001260c       ??_C@_07MHIPBHMG@america?$AA@ 0052560c     LIBCMTD:getqloc.obj
 0002:00012614       ??_C@_03KIALPMKC@usa?$AA@  00525614     LIBCMTD:getqloc.obj
 0002:00012618       ??_C@_02FGJGKGGD@us?$AA@   00525618     LIBCMTD:getqloc.obj
 0002:0001261c       ??_C@_02NEINDODK@uk?$AA@   0052561c     LIBCMTD:getqloc.obj
 0002:00012620       ??_C@_05JMPCFJFJ@swiss?$AA@ 00525620     LIBCMTD:getqloc.obj
 0002:00012628       ??_C@_0BA@HLOCPIOD@swedish?9finland?$AA@ 00525628     LIBCMTD:getqloc.obj
 0002:00012638       ??_C@_0BC@PKCNIABK@spanish?9venezuela?$AA@ 00525638     LIBCMTD:getqloc.obj
 0002:0001264c       ??_C@_0BA@GBHHMIJI@spanish?9uruguay?$AA@ 0052564c     LIBCMTD:getqloc.obj
 0002:0001265c       ??_C@_0BE@BHDOHPMC@spanish?9puerto?5rico?$AA@ 0052565c     LIBCMTD:getqloc.obj
 0002:00012670       ??_C@_0N@KMOIDGGN@spanish?9peru?$AA@ 00525670     LIBCMTD:getqloc.obj
 0002:00012680       ??_C@_0BB@HMHLPGPH@spanish?9paraguay?$AA@ 00525680     LIBCMTD:getqloc.obj
 0002:00012694       ??_C@_0P@MCPKNGFD@spanish?9panama?$AA@ 00525694     LIBCMTD:getqloc.obj
 0002:000126a4       ??_C@_0BC@IHOHGAIL@spanish?9nicaragua?$AA@ 005256a4     LIBCMTD:getqloc.obj
 0002:000126b8       ??_C@_0P@KLMJDNFJ@spanish?9modern?$AA@ 005256b8     LIBCMTD:getqloc.obj
 0002:000126c8       ??_C@_0BA@BPAPGBCM@spanish?9mexican?$AA@ 005256c8     LIBCMTD:getqloc.obj
 0002:000126d8       ??_C@_0BB@PDECHHHE@spanish?9honduras?$AA@ 005256d8     LIBCMTD:getqloc.obj
 0002:000126ec       ??_C@_0BC@KLHKFGDB@spanish?9guatemala?$AA@ 005256ec     LIBCMTD:getqloc.obj
 0002:00012700       ??_C@_0BE@MFOOKJAI@spanish?9el?5salvador?$AA@ 00525700     LIBCMTD:getqloc.obj
 0002:00012714       ??_C@_0BA@FCOKFPFC@spanish?9ecuador?$AA@ 00525714     LIBCMTD:getqloc.obj
 0002:00012724       ??_C@_0BL@PLMGIMOO@spanish?9dominican?5republic?$AA@ 00525724     LIBCMTD:getqloc.obj
 0002:00012740       ??_C@_0BD@HLGDNMHB@spanish?9costa?5rica?$AA@ 00525740     LIBCMTD:getqloc.obj
 0002:00012754       ??_C@_0BB@PKCBKCPE@spanish?9colombia?$AA@ 00525754     LIBCMTD:getqloc.obj
 0002:00012768       ??_C@_0O@MCBIJGNE@spanish?9chile?$AA@ 00525768     LIBCMTD:getqloc.obj
 0002:00012778       ??_C@_0BA@BEFEIGJJ@spanish?9bolivia?$AA@ 00525778     LIBCMTD:getqloc.obj
 0002:00012788       ??_C@_0BC@EMECMPD@spanish?9argentina?$AA@ 00525788     LIBCMTD:getqloc.obj
 0002:0001279c       ??_C@_0BF@EALFLENP@portuguese?9brazilian?$AA@ 0052579c     LIBCMTD:getqloc.obj
 0002:000127b4       ??_C@_0BC@HBLEBLNN@norwegian?9nynorsk?$AA@ 005257b4     LIBCMTD:getqloc.obj
 0002:000127c8       ??_C@_0BB@HMACDDCK@norwegian?9bokmal?$AA@ 005257c8     LIBCMTD:getqloc.obj
 0002:000127dc       ??_C@_09BAFFPPHE@norwegian?$AA@ 005257dc     LIBCMTD:getqloc.obj
 0002:000127e8       ??_C@_0O@EAJFJDFG@italian?9swiss?$AA@ 005257e8     LIBCMTD:getqloc.obj
 0002:000127f8       ??_C@_0O@CNOMPGD@irish?9english?$AA@ 005257f8     LIBCMTD:getqloc.obj
 0002:00012808       ??_C@_0N@EDHBGCKG@german?9swiss?$AA@ 00525808     LIBCMTD:getqloc.obj
 0002:00012818       ??_C@_0BC@JACMHNBP@german?9luxembourg?$AA@ 00525818     LIBCMTD:getqloc.obj
 0002:0001282c       ??_C@_0BE@HBGMGFEG@german?9lichtenstein?$AA@ 0052582c     LIBCMTD:getqloc.obj
 0002:00012840       ??_C@_0BA@HKKBIBKL@german?9austrian?$AA@ 00525840     LIBCMTD:getqloc.obj
 0002:00012850       ??_C@_0N@GCAEPEBK@french?9swiss?$AA@ 00525850     LIBCMTD:getqloc.obj
 0002:00012860       ??_C@_0BC@DJFJJCK@french?9luxembourg?$AA@ 00525860     LIBCMTD:getqloc.obj
 0002:00012874       ??_C@_0BA@NNCEDFIC@french?9canadian?$AA@ 00525874     LIBCMTD:getqloc.obj
 0002:00012884       ??_C@_0P@CMPOCLM@french?9belgian?$AA@ 00525884     LIBCMTD:getqloc.obj
 0002:00012894       ??_C@_0M@GHHDJOK@english?9usa?$AA@ 00525894     LIBCMTD:getqloc.obj
 0002:000128a0       ??_C@_0L@PLDJKEIL@english?9us?$AA@ 005258a0     LIBCMTD:getqloc.obj
 0002:000128ac       ??_C@_0L@HJCCDMNC@english?9uk?$AA@ 005258ac     LIBCMTD:getqloc.obj
 0002:000128b8       ??_C@_0BK@CKLIAGJB@english?9trinidad?5y?5tobago?$AA@ 005258b8     LIBCMTD:getqloc.obj
 0002:000128d4       ??_C@_0BF@JMJMGNNF@english?9south?5africa?$AA@ 005258d4     LIBCMTD:getqloc.obj
 0002:000128ec       ??_C@_0L@DKIIFDFD@english?9nz?$AA@ 005258ec     LIBCMTD:getqloc.obj
 0002:000128f8       ??_C@_0BA@ONHGJCLH@english?9jamaica?$AA@ 005258f8     LIBCMTD:getqloc.obj
 0002:00012908       ??_C@_0M@HJBGHOPO@english?9ire?$AA@ 00525908     LIBCMTD:getqloc.obj
 0002:00012914       ??_C@_0BC@LFEKMIFB@english?9caribbean?$AA@ 00525914     LIBCMTD:getqloc.obj
 0002:00012928       ??_C@_0M@OLDPFKHI@english?9can?$AA@ 00525928     LIBCMTD:getqloc.obj
 0002:00012934       ??_C@_0P@OMDEHBMP@english?9belize?$AA@ 00525934     LIBCMTD:getqloc.obj
 0002:00012944       ??_C@_0M@KFHFPFED@english?9aus?$AA@ 00525944     LIBCMTD:getqloc.obj
 0002:00012950       ??_C@_0BB@MNMBKDFE@english?9american?$AA@ 00525950     LIBCMTD:getqloc.obj
 0002:00012964       ??_C@_0O@KIDLNNBA@dutch?9belgian?$AA@ 00525964     LIBCMTD:getqloc.obj
 0002:00012974       ??_C@_0BE@JBKABBMH@chinese?9traditional?$AA@ 00525974     LIBCMTD:getqloc.obj
 0002:00012988       ??_C@_0BC@MJJMPKCG@chinese?9singapore?$AA@ 00525988     LIBCMTD:getqloc.obj
 0002:0001299c       ??_C@_0BD@FDKADDCP@chinese?9simplified?$AA@ 0052599c     LIBCMTD:getqloc.obj
 0002:000129b0       ??_C@_0BB@DBEFDDME@chinese?9hongkong?$AA@ 005259b0     LIBCMTD:getqloc.obj
 0002:000129c4       ??_C@_07DHNMFMCI@chinese?$AA@ 005259c4     LIBCMTD:getqloc.obj
 0002:000129cc       ??_C@_03FNDDCHI@chi?$AA@   005259cc     LIBCMTD:getqloc.obj
 0002:000129d0       ??_C@_03BMMIADDJ@chh?$AA@  005259d0     LIBCMTD:getqloc.obj
 0002:000129d4       ??_C@_08OAIPJDGI@canadian?$AA@ 005259d4     LIBCMTD:getqloc.obj
