; Listing generated by Microsoft (R) Optimizing Compiler Version 14.00.50727.762 

	TITLE	c:\NuanceExperimental\PrintMisc.cpp
	.686P
	.XMM
	include listing.inc
	.model	flat

INCLUDELIB LIBCMTD
INCLUDELIB OLDNAMES

CONST	SEGMENT
$SG4429	DB	'PacketStart', 00H
$SG4430	DB	0aH, 00H
$SG4431	DB	00H
$SG4441	DB	00H
$SG4432	DB	'%s%s', 00H
$SG4451	DB	00H
$SG4461	DB	00H
$SG4471	DB	00H
$SG4439	DB	'PacketEnd', 00H
	ORG $+2
$SG4440	DB	0aH, 00H
	ORG $+2
$SG4442	DB	'%s%s', 00H
	ORG $+3
$SG4449	DB	'CheckECUSkipCounter', 00H
$SG4450	DB	0aH, 00H
	ORG $+2
$SG4452	DB	'%s%s', 00H
	ORG $+3
$SG4459	DB	'SaveFlags', 00H
	ORG $+2
$SG4460	DB	0aH, 00H
	ORG $+2
$SG4462	DB	'%s%s', 00H
	ORG $+3
$SG4469	DB	'SaveRegs', 00H
	ORG $+3
$SG4470	DB	0aH, 00H
	ORG $+2
$SG4472	DB	'%s%s', 00H
CONST	ENDS
PUBLIC	?Print_PacketStart@@YAIPADAAVNuance@@_N@Z	; Print_PacketStart
EXTRN	_strlen:PROC
EXTRN	_sprintf:PROC
EXTRN	__RTC_CheckEsp:PROC
EXTRN	@_RTC_CheckStackVars@8:PROC
EXTRN	__RTC_Shutdown:PROC
EXTRN	__RTC_InitBase:PROC
;	COMDAT rtc$TMZ
; File c:\nuanceexperimental\printmisc.cpp
rtc$TMZ	SEGMENT
__RTC_Shutdown.rtc$TMZ DD FLAT:__RTC_Shutdown
rtc$TMZ	ENDS
;	COMDAT rtc$IMZ
rtc$IMZ	SEGMENT
__RTC_InitBase.rtc$IMZ DD FLAT:__RTC_InitBase
; Function compile flags: /Odtp /RTCsu
rtc$IMZ	ENDS
_TEXT	SEGMENT
tv69 = -524						; size = 4
_tempStr$ = -516					; size = 512
_buffer$ = 8						; size = 4
_nuance$ = 12						; size = 4
_bNewline$ = 16						; size = 1
?Print_PacketStart@@YAIPADAAVNuance@@_N@Z PROC		; Print_PacketStart

; 7    : {

	push	ebp
	mov	ebp, esp
	sub	esp, 524				; 0000020cH
	push	edi
	lea	edi, DWORD PTR [ebp-524]
	mov	ecx, 131				; 00000083H
	mov	eax, -858993460				; ccccccccH
	rep stosd

; 8    :   char tempStr[512];
; 9    :   sprintf(tempStr,"PacketStart");

	push	OFFSET $SG4429
	lea	eax, DWORD PTR _tempStr$[ebp]
	push	eax
	call	_sprintf
	add	esp, 8

; 10   :   sprintf(buffer,"%s%s",tempStr, bNewline ? "\n" : "");

	movzx	ecx, BYTE PTR _bNewline$[ebp]
	test	ecx, ecx
	je	SHORT $LN3@Print_Pack
	mov	DWORD PTR tv69[ebp], OFFSET $SG4430
	jmp	SHORT $LN4@Print_Pack
$LN3@Print_Pack:
	mov	DWORD PTR tv69[ebp], OFFSET $SG4431
$LN4@Print_Pack:
	mov	edx, DWORD PTR tv69[ebp]
	push	edx
	lea	eax, DWORD PTR _tempStr$[ebp]
	push	eax
	push	OFFSET $SG4432
	mov	ecx, DWORD PTR _buffer$[ebp]
	push	ecx
	call	_sprintf
	add	esp, 16					; 00000010H

; 11   :   return strlen(tempStr) + (bNewline ? 1 : 0);

	lea	edx, DWORD PTR _tempStr$[ebp]
	push	edx
	call	_strlen
	add	esp, 4
	movzx	ecx, BYTE PTR _bNewline$[ebp]
	neg	ecx
	sbb	ecx, ecx
	neg	ecx
	add	eax, ecx

; 12   : }

	push	edx
	mov	ecx, ebp
	push	eax
	lea	edx, DWORD PTR $LN7@Print_Pack
	call	@_RTC_CheckStackVars@8
	pop	eax
	pop	edx
	pop	edi
	add	esp, 524				; 0000020cH
	cmp	ebp, esp
	call	__RTC_CheckEsp
	mov	esp, ebp
	pop	ebp
	ret	0
	npad	1
$LN7@Print_Pack:
	DD	1
	DD	$LN6@Print_Pack
$LN6@Print_Pack:
	DD	-516					; fffffdfcH
	DD	512					; 00000200H
	DD	$LN5@Print_Pack
$LN5@Print_Pack:
	DB	116					; 00000074H
	DB	101					; 00000065H
	DB	109					; 0000006dH
	DB	112					; 00000070H
	DB	83					; 00000053H
	DB	116					; 00000074H
	DB	114					; 00000072H
	DB	0
?Print_PacketStart@@YAIPADAAVNuance@@_N@Z ENDP		; Print_PacketStart
_TEXT	ENDS
PUBLIC	?Print_PacketEnd@@YAIPADAAVNuance@@_N@Z		; Print_PacketEnd
; Function compile flags: /Odtp /RTCsu
_TEXT	SEGMENT
tv69 = -524						; size = 4
_tempStr$ = -516					; size = 512
_buffer$ = 8						; size = 4
_nuance$ = 12						; size = 4
_bNewline$ = 16						; size = 1
?Print_PacketEnd@@YAIPADAAVNuance@@_N@Z PROC		; Print_PacketEnd

; 15   : {

	push	ebp
	mov	ebp, esp
	sub	esp, 524				; 0000020cH
	push	edi
	lea	edi, DWORD PTR [ebp-524]
	mov	ecx, 131				; 00000083H
	mov	eax, -858993460				; ccccccccH
	rep stosd

; 16   :   char tempStr[512];
; 17   :   sprintf(tempStr,"PacketEnd");

	push	OFFSET $SG4439
	lea	eax, DWORD PTR _tempStr$[ebp]
	push	eax
	call	_sprintf
	add	esp, 8

; 18   :   sprintf(buffer,"%s%s",tempStr, bNewline ? "\n" : "");

	movzx	ecx, BYTE PTR _bNewline$[ebp]
	test	ecx, ecx
	je	SHORT $LN3@Print_Pack@2
	mov	DWORD PTR tv69[ebp], OFFSET $SG4440
	jmp	SHORT $LN4@Print_Pack@2
$LN3@Print_Pack@2:
	mov	DWORD PTR tv69[ebp], OFFSET $SG4441
$LN4@Print_Pack@2:
	mov	edx, DWORD PTR tv69[ebp]
	push	edx
	lea	eax, DWORD PTR _tempStr$[ebp]
	push	eax
	push	OFFSET $SG4442
	mov	ecx, DWORD PTR _buffer$[ebp]
	push	ecx
	call	_sprintf
	add	esp, 16					; 00000010H

; 19   :   return strlen(tempStr) + (bNewline ? 1 : 0);

	lea	edx, DWORD PTR _tempStr$[ebp]
	push	edx
	call	_strlen
	add	esp, 4
	movzx	ecx, BYTE PTR _bNewline$[ebp]
	neg	ecx
	sbb	ecx, ecx
	neg	ecx
	add	eax, ecx

; 20   : }

	push	edx
	mov	ecx, ebp
	push	eax
	lea	edx, DWORD PTR $LN7@Print_Pack@2
	call	@_RTC_CheckStackVars@8
	pop	eax
	pop	edx
	pop	edi
	add	esp, 524				; 0000020cH
	cmp	ebp, esp
	call	__RTC_CheckEsp
	mov	esp, ebp
	pop	ebp
	ret	0
	npad	1
$LN7@Print_Pack@2:
	DD	1
	DD	$LN6@Print_Pack@2
$LN6@Print_Pack@2:
	DD	-516					; fffffdfcH
	DD	512					; 00000200H
	DD	$LN5@Print_Pack@2
$LN5@Print_Pack@2:
	DB	116					; 00000074H
	DB	101					; 00000065H
	DB	109					; 0000006dH
	DB	112					; 00000070H
	DB	83					; 00000053H
	DB	116					; 00000074H
	DB	114					; 00000072H
	DB	0
?Print_PacketEnd@@YAIPADAAVNuance@@_N@Z ENDP		; Print_PacketEnd
_TEXT	ENDS
PUBLIC	?Print_CheckECUSkipCounter@@YAIPADAAVNuance@@_N@Z ; Print_CheckECUSkipCounter
; Function compile flags: /Odtp /RTCsu
_TEXT	SEGMENT
tv69 = -524						; size = 4
_tempStr$ = -516					; size = 512
_buffer$ = 8						; size = 4
_nuance$ = 12						; size = 4
_bNewline$ = 16						; size = 1
?Print_CheckECUSkipCounter@@YAIPADAAVNuance@@_N@Z PROC	; Print_CheckECUSkipCounter

; 23   : {

	push	ebp
	mov	ebp, esp
	sub	esp, 524				; 0000020cH
	push	edi
	lea	edi, DWORD PTR [ebp-524]
	mov	ecx, 131				; 00000083H
	mov	eax, -858993460				; ccccccccH
	rep stosd

; 24   :   char tempStr[512];
; 25   :   sprintf(tempStr,"CheckECUSkipCounter");

	push	OFFSET $SG4449
	lea	eax, DWORD PTR _tempStr$[ebp]
	push	eax
	call	_sprintf
	add	esp, 8

; 26   :   sprintf(buffer,"%s%s",tempStr, bNewline ? "\n" : "");

	movzx	ecx, BYTE PTR _bNewline$[ebp]
	test	ecx, ecx
	je	SHORT $LN3@Print_Chec
	mov	DWORD PTR tv69[ebp], OFFSET $SG4450
	jmp	SHORT $LN4@Print_Chec
$LN3@Print_Chec:
	mov	DWORD PTR tv69[ebp], OFFSET $SG4451
$LN4@Print_Chec:
	mov	edx, DWORD PTR tv69[ebp]
	push	edx
	lea	eax, DWORD PTR _tempStr$[ebp]
	push	eax
	push	OFFSET $SG4452
	mov	ecx, DWORD PTR _buffer$[ebp]
	push	ecx
	call	_sprintf
	add	esp, 16					; 00000010H

; 27   :   return strlen(tempStr) + (bNewline ? 1 : 0);

	lea	edx, DWORD PTR _tempStr$[ebp]
	push	edx
	call	_strlen
	add	esp, 4
	movzx	ecx, BYTE PTR _bNewline$[ebp]
	neg	ecx
	sbb	ecx, ecx
	neg	ecx
	add	eax, ecx

; 28   : }

	push	edx
	mov	ecx, ebp
	push	eax
	lea	edx, DWORD PTR $LN7@Print_Chec
	call	@_RTC_CheckStackVars@8
	pop	eax
	pop	edx
	pop	edi
	add	esp, 524				; 0000020cH
	cmp	ebp, esp
	call	__RTC_CheckEsp
	mov	esp, ebp
	pop	ebp
	ret	0
	npad	1
$LN7@Print_Chec:
	DD	1
	DD	$LN6@Print_Chec
$LN6@Print_Chec:
	DD	-516					; fffffdfcH
	DD	512					; 00000200H
	DD	$LN5@Print_Chec
$LN5@Print_Chec:
	DB	116					; 00000074H
	DB	101					; 00000065H
	DB	109					; 0000006dH
	DB	112					; 00000070H
	DB	83					; 00000053H
	DB	116					; 00000074H
	DB	114					; 00000072H
	DB	0
?Print_CheckECUSkipCounter@@YAIPADAAVNuance@@_N@Z ENDP	; Print_CheckECUSkipCounter
_TEXT	ENDS
PUBLIC	?Print_SaveFlags@@YAIPADAAVNuance@@_N@Z		; Print_SaveFlags
; Function compile flags: /Odtp /RTCsu
_TEXT	SEGMENT
tv69 = -524						; size = 4
_tempStr$ = -516					; size = 512
_buffer$ = 8						; size = 4
_nuance$ = 12						; size = 4
_bNewline$ = 16						; size = 1
?Print_SaveFlags@@YAIPADAAVNuance@@_N@Z PROC		; Print_SaveFlags

; 31   : {

	push	ebp
	mov	ebp, esp
	sub	esp, 524				; 0000020cH
	push	edi
	lea	edi, DWORD PTR [ebp-524]
	mov	ecx, 131				; 00000083H
	mov	eax, -858993460				; ccccccccH
	rep stosd

; 32   :   char tempStr[512];
; 33   :   sprintf(tempStr,"SaveFlags");

	push	OFFSET $SG4459
	lea	eax, DWORD PTR _tempStr$[ebp]
	push	eax
	call	_sprintf
	add	esp, 8

; 34   :   sprintf(buffer,"%s%s",tempStr, bNewline ? "\n" : "");

	movzx	ecx, BYTE PTR _bNewline$[ebp]
	test	ecx, ecx
	je	SHORT $LN3@Print_Save
	mov	DWORD PTR tv69[ebp], OFFSET $SG4460
	jmp	SHORT $LN4@Print_Save
$LN3@Print_Save:
	mov	DWORD PTR tv69[ebp], OFFSET $SG4461
$LN4@Print_Save:
	mov	edx, DWORD PTR tv69[ebp]
	push	edx
	lea	eax, DWORD PTR _tempStr$[ebp]
	push	eax
	push	OFFSET $SG4462
	mov	ecx, DWORD PTR _buffer$[ebp]
	push	ecx
	call	_sprintf
	add	esp, 16					; 00000010H

; 35   :   return strlen(tempStr) + (bNewline ? 1 : 0);

	lea	edx, DWORD PTR _tempStr$[ebp]
	push	edx
	call	_strlen
	add	esp, 4
	movzx	ecx, BYTE PTR _bNewline$[ebp]
	neg	ecx
	sbb	ecx, ecx
	neg	ecx
	add	eax, ecx

; 36   : }

	push	edx
	mov	ecx, ebp
	push	eax
	lea	edx, DWORD PTR $LN7@Print_Save
	call	@_RTC_CheckStackVars@8
	pop	eax
	pop	edx
	pop	edi
	add	esp, 524				; 0000020cH
	cmp	ebp, esp
	call	__RTC_CheckEsp
	mov	esp, ebp
	pop	ebp
	ret	0
	npad	1
$LN7@Print_Save:
	DD	1
	DD	$LN6@Print_Save
$LN6@Print_Save:
	DD	-516					; fffffdfcH
	DD	512					; 00000200H
	DD	$LN5@Print_Save
$LN5@Print_Save:
	DB	116					; 00000074H
	DB	101					; 00000065H
	DB	109					; 0000006dH
	DB	112					; 00000070H
	DB	83					; 00000053H
	DB	116					; 00000074H
	DB	114					; 00000072H
	DB	0
?Print_SaveFlags@@YAIPADAAVNuance@@_N@Z ENDP		; Print_SaveFlags
_TEXT	ENDS
PUBLIC	?Print_SaveRegs@@YAIPADAAVNuance@@_N@Z		; Print_SaveRegs
; Function compile flags: /Odtp /RTCsu
_TEXT	SEGMENT
tv69 = -524						; size = 4
_tempStr$ = -516					; size = 512
_buffer$ = 8						; size = 4
_nuance$ = 12						; size = 4
_bNewline$ = 16						; size = 1
?Print_SaveRegs@@YAIPADAAVNuance@@_N@Z PROC		; Print_SaveRegs

; 39   : {

	push	ebp
	mov	ebp, esp
	sub	esp, 524				; 0000020cH
	push	edi
	lea	edi, DWORD PTR [ebp-524]
	mov	ecx, 131				; 00000083H
	mov	eax, -858993460				; ccccccccH
	rep stosd

; 40   :   char tempStr[512];
; 41   :   sprintf(tempStr,"SaveRegs");

	push	OFFSET $SG4469
	lea	eax, DWORD PTR _tempStr$[ebp]
	push	eax
	call	_sprintf
	add	esp, 8

; 42   :   sprintf(buffer,"%s%s",tempStr, bNewline ? "\n" : "");

	movzx	ecx, BYTE PTR _bNewline$[ebp]
	test	ecx, ecx
	je	SHORT $LN3@Print_Save@2
	mov	DWORD PTR tv69[ebp], OFFSET $SG4470
	jmp	SHORT $LN4@Print_Save@2
$LN3@Print_Save@2:
	mov	DWORD PTR tv69[ebp], OFFSET $SG4471
$LN4@Print_Save@2:
	mov	edx, DWORD PTR tv69[ebp]
	push	edx
	lea	eax, DWORD PTR _tempStr$[ebp]
	push	eax
	push	OFFSET $SG4472
	mov	ecx, DWORD PTR _buffer$[ebp]
	push	ecx
	call	_sprintf
	add	esp, 16					; 00000010H

; 43   :   return strlen(tempStr) + (bNewline ? 1 : 0);

	lea	edx, DWORD PTR _tempStr$[ebp]
	push	edx
	call	_strlen
	add	esp, 4
	movzx	ecx, BYTE PTR _bNewline$[ebp]
	neg	ecx
	sbb	ecx, ecx
	neg	ecx
	add	eax, ecx

; 44   : }

	push	edx
	mov	ecx, ebp
	push	eax
	lea	edx, DWORD PTR $LN7@Print_Save@2
	call	@_RTC_CheckStackVars@8
	pop	eax
	pop	edx
	pop	edi
	add	esp, 524				; 0000020cH
	cmp	ebp, esp
	call	__RTC_CheckEsp
	mov	esp, ebp
	pop	ebp
	ret	0
	npad	1
$LN7@Print_Save@2:
	DD	1
	DD	$LN6@Print_Save@2
$LN6@Print_Save@2:
	DD	-516					; fffffdfcH
	DD	512					; 00000200H
	DD	$LN5@Print_Save@2
$LN5@Print_Save@2:
	DB	116					; 00000074H
	DB	101					; 00000065H
	DB	109					; 0000006dH
	DB	112					; 00000070H
	DB	83					; 00000053H
	DB	116					; 00000074H
	DB	114					; 00000072H
	DB	0
?Print_SaveRegs@@YAIPADAAVNuance@@_N@Z ENDP		; Print_SaveRegs
_TEXT	ENDS
END
