; Listing generated by Microsoft (R) Optimizing Compiler Version 14.00.50727.762 

	TITLE	c:\NuanceExperimental\PropagateConstants_MUL.cpp
	.686P
	.XMM
	include listing.inc
	.model	flat

INCLUDELIB LIBCMTD
INCLUDELIB OLDNAMES

PUBLIC	?ClearScalarRegisterConstant@SuperBlockConstants@@QAEXI@Z ; SuperBlockConstants::ClearScalarRegisterConstant
PUBLIC	?ClearScalarInputDependency@SuperBlockConstants@@QAEXI@Z ; SuperBlockConstants::ClearScalarInputDependency
PUBLIC	?GetScalarRegisterConstant@SuperBlockConstants@@QAEII@Z ; SuperBlockConstants::GetScalarRegisterConstant
PUBLIC	?IsScalarRegisterConstant@SuperBlockConstants@@QAE_NI@Z ; SuperBlockConstants::IsScalarRegisterConstant
PUBLIC	?PropagateConstants_ADDMImmediate@@YAXAAVSuperBlockConstants@@@Z ; PropagateConstants_ADDMImmediate
EXTRN	?PropagateConstants_StoreScalarRegisterConstant@@YAXAAVSuperBlockConstants@@@Z:PROC ; PropagateConstants_StoreScalarRegisterConstant
EXTRN	__RTC_CheckEsp:PROC
EXTRN	__RTC_Shutdown:PROC
EXTRN	__RTC_InitBase:PROC
;	COMDAT rtc$TMZ
; File c:\nuanceexperimental\propagateconstants_mul.cpp
rtc$TMZ	SEGMENT
__RTC_Shutdown.rtc$TMZ DD FLAT:__RTC_Shutdown
rtc$TMZ	ENDS
;	COMDAT rtc$IMZ
rtc$IMZ	SEGMENT
__RTC_InitBase.rtc$IMZ DD FLAT:__RTC_InitBase
; Function compile flags: /Odtp /RTCsu
rtc$IMZ	ENDS
_TEXT	SEGMENT
_destValue$ = -16					; size = 4
_destIndex$ = -12					; size = 4
_src2Index$ = -8					; size = 4
_src1$ = -4						; size = 4
_constants$ = 8						; size = 4
?PropagateConstants_ADDMImmediate@@YAXAAVSuperBlockConstants@@@Z PROC ; PropagateConstants_ADDMImmediate

; 12   : {

	push	ebp
	mov	ebp, esp
	sub	esp, 16					; 00000010H
	mov	eax, -858993460				; ccccccccH
	mov	DWORD PTR [ebp-16], eax
	mov	DWORD PTR [ebp-12], eax
	mov	DWORD PTR [ebp-8], eax
	mov	DWORD PTR [ebp-4], eax

; 13   :   uint32 src1 = constants.nuance->fields[FIELD_MUL_SRC1];

	mov	eax, DWORD PTR _constants$[ebp]
	mov	ecx, DWORD PTR [eax+4]
	mov	edx, DWORD PTR [ecx+8]
	mov	DWORD PTR _src1$[ebp], edx

; 14   :   uint32 src2Index = constants.nuance->fields[FIELD_MUL_SRC2];

	mov	eax, DWORD PTR _constants$[ebp]
	mov	ecx, DWORD PTR [eax+4]
	mov	edx, DWORD PTR [ecx+12]
	mov	DWORD PTR _src2Index$[ebp], edx

; 15   :   uint32 destIndex = constants.nuance->fields[FIELD_MUL_DEST];

	mov	eax, DWORD PTR _constants$[ebp]
	mov	ecx, DWORD PTR [eax+4]
	mov	edx, DWORD PTR [ecx+16]
	mov	DWORD PTR _destIndex$[ebp], edx

; 16   :   uint32 destValue;
; 17   : 
; 18   :   if(constants.IsScalarRegisterConstant(src2Index) && ALLOW_MUL_PROPAGATION)

	mov	eax, DWORD PTR _src2Index$[ebp]
	push	eax
	mov	ecx, DWORD PTR _constants$[ebp]
	call	?IsScalarRegisterConstant@SuperBlockConstants@@QAE_NI@Z ; SuperBlockConstants::IsScalarRegisterConstant
	movzx	ecx, al
	test	ecx, ecx
	je	SHORT $LN2@PropagateC
	mov	edx, 1
	test	edx, edx
	je	SHORT $LN2@PropagateC

; 19   :   {
; 20   :     destValue = src1 + constants.GetScalarRegisterConstant(src2Index);

	mov	eax, DWORD PTR _src2Index$[ebp]
	push	eax
	mov	ecx, DWORD PTR _constants$[ebp]
	call	?GetScalarRegisterConstant@SuperBlockConstants@@QAEII@Z ; SuperBlockConstants::GetScalarRegisterConstant
	add	eax, DWORD PTR _src1$[ebp]
	mov	DWORD PTR _destValue$[ebp], eax

; 21   :     constants.nuance->fields[FIELD_CONSTANT_HANDLER] = Handler_StoreScalarRegisterConstant;

	mov	ecx, DWORD PTR _constants$[ebp]
	mov	edx, DWORD PTR [ecx+4]
	mov	DWORD PTR [edx], 217			; 000000d9H

; 22   :     constants.nuance->fields[FIELD_CONSTANT_ADDRESS] = destIndex;

	mov	eax, DWORD PTR _constants$[ebp]
	mov	ecx, DWORD PTR [eax+4]
	mov	edx, DWORD PTR _destIndex$[ebp]
	mov	DWORD PTR [ecx+4], edx

; 23   :     constants.nuance->fields[FIELD_CONSTANT_VALUE] = destValue;

	mov	eax, DWORD PTR _constants$[ebp]
	mov	ecx, DWORD PTR [eax+4]
	mov	edx, DWORD PTR _destValue$[ebp]
	mov	DWORD PTR [ecx+8], edx

; 24   :     constants.nuance->fields[FIELD_CONSTANT_FLAGMASK] = 0;

	mov	eax, DWORD PTR _constants$[ebp]
	mov	ecx, DWORD PTR [eax+4]
	mov	DWORD PTR [ecx+12], 0

; 25   :     constants.ClearScalarInputDependency(src2Index);

	mov	edx, DWORD PTR _src2Index$[ebp]
	push	edx
	mov	ecx, DWORD PTR _constants$[ebp]
	call	?ClearScalarInputDependency@SuperBlockConstants@@QAEXI@Z ; SuperBlockConstants::ClearScalarInputDependency

; 26   :     PropagateConstants_StoreScalarRegisterConstant(constants); 

	mov	eax, DWORD PTR _constants$[ebp]
	push	eax
	call	?PropagateConstants_StoreScalarRegisterConstant@@YAXAAVSuperBlockConstants@@@Z ; PropagateConstants_StoreScalarRegisterConstant
	add	esp, 4

; 27   :   }
; 28   :   else

	jmp	SHORT $LN3@PropagateC
$LN2@PropagateC:

; 29   :   {
; 30   :     constants.ClearScalarRegisterConstant(destIndex);

	mov	ecx, DWORD PTR _destIndex$[ebp]
	push	ecx
	mov	ecx, DWORD PTR _constants$[ebp]
	call	?ClearScalarRegisterConstant@SuperBlockConstants@@QAEXI@Z ; SuperBlockConstants::ClearScalarRegisterConstant

; 31   :     constants.status.status = PROPAGATE_CONSTANTS_STATUS_MUL_OK;

	mov	edx, DWORD PTR _constants$[ebp]
	mov	DWORD PTR [edx+12], 3
$LN3@PropagateC:

; 32   :   }
; 33   : }

	add	esp, 16					; 00000010H
	cmp	ebp, esp
	call	__RTC_CheckEsp
	mov	esp, ebp
	pop	ebp
	ret	0
?PropagateConstants_ADDMImmediate@@YAXAAVSuperBlockConstants@@@Z ENDP ; PropagateConstants_ADDMImmediate
; Function compile flags: /Odtp /RTCsu
; File c:\nuanceexperimental\superblockconstants.h
_TEXT	ENDS
;	COMDAT ?ClearScalarInputDependency@SuperBlockConstants@@QAEXI@Z
_TEXT	SEGMENT
_this$ = -4						; size = 4
_index$ = 8						; size = 4
?ClearScalarInputDependency@SuperBlockConstants@@QAEXI@Z PROC ; SuperBlockConstants::ClearScalarInputDependency, COMDAT
; _this$ = ecx

; 93   :   {

	push	ebp
	mov	ebp, esp
	push	ecx
	mov	DWORD PTR [ebp-4], -858993460		; ccccccccH
	mov	DWORD PTR _this$[ebp], ecx

; 94   :     pCurrentInstructionEntry->scalarInputDependencies &= ~(1UL << index);

	mov	eax, DWORD PTR _this$[ebp]
	mov	edx, DWORD PTR [eax+8]
	mov	eax, 1
	mov	ecx, DWORD PTR _index$[ebp]
	shl	eax, cl
	not	eax
	and	eax, DWORD PTR [edx+32]
	mov	ecx, DWORD PTR _this$[ebp]
	mov	edx, DWORD PTR [ecx+8]
	mov	DWORD PTR [edx+32], eax

; 95   :   }

	mov	esp, ebp
	pop	ebp
	ret	4
?ClearScalarInputDependency@SuperBlockConstants@@QAEXI@Z ENDP ; SuperBlockConstants::ClearScalarInputDependency
; Function compile flags: /Odtp /RTCsu
_TEXT	ENDS
;	COMDAT ?ClearScalarRegisterConstant@SuperBlockConstants@@QAEXI@Z
_TEXT	SEGMENT
_this$ = -4						; size = 4
_index$ = 8						; size = 4
?ClearScalarRegisterConstant@SuperBlockConstants@@QAEXI@Z PROC ; SuperBlockConstants::ClearScalarRegisterConstant, COMDAT
; _this$ = ecx

; 141  :   {

	push	ebp
	mov	ebp, esp
	push	ecx
	mov	DWORD PTR [ebp-4], -858993460		; ccccccccH
	mov	DWORD PTR _this$[ebp], ecx

; 142  :     tempScalarRegisterConstantsStatus &= ~(0x1UL << index);

	mov	eax, 1
	mov	ecx, DWORD PTR _index$[ebp]
	shl	eax, cl
	not	eax
	mov	ecx, DWORD PTR _this$[ebp]
	and	eax, DWORD PTR [ecx+564]
	mov	edx, DWORD PTR _this$[ebp]
	mov	DWORD PTR [edx+564], eax

; 143  :   }

	mov	esp, ebp
	pop	ebp
	ret	4
?ClearScalarRegisterConstant@SuperBlockConstants@@QAEXI@Z ENDP ; SuperBlockConstants::ClearScalarRegisterConstant
; Function compile flags: /Odtp /RTCsu
_TEXT	ENDS
;	COMDAT ?IsScalarRegisterConstant@SuperBlockConstants@@QAE_NI@Z
_TEXT	SEGMENT
_this$ = -4						; size = 4
_index$ = 8						; size = 4
?IsScalarRegisterConstant@SuperBlockConstants@@QAE_NI@Z PROC ; SuperBlockConstants::IsScalarRegisterConstant, COMDAT
; _this$ = ecx

; 205  :   {

	push	ebp
	mov	ebp, esp
	push	ecx
	mov	DWORD PTR [ebp-4], -858993460		; ccccccccH
	mov	DWORD PTR _this$[ebp], ecx

; 206  :     return (scalarRegisterConstantsStatus & (1UL << index)) != 0;

	mov	eax, 1
	mov	ecx, DWORD PTR _index$[ebp]
	shl	eax, cl
	mov	ecx, DWORD PTR _this$[ebp]
	and	eax, DWORD PTR [ecx+556]
	neg	eax
	sbb	eax, eax
	neg	eax

; 207  :   }

	mov	esp, ebp
	pop	ebp
	ret	4
?IsScalarRegisterConstant@SuperBlockConstants@@QAE_NI@Z ENDP ; SuperBlockConstants::IsScalarRegisterConstant
; Function compile flags: /Odtp /RTCsu
_TEXT	ENDS
;	COMDAT ?GetScalarRegisterConstant@SuperBlockConstants@@QAEII@Z
_TEXT	SEGMENT
_this$ = -4						; size = 4
_index$ = 8						; size = 4
?GetScalarRegisterConstant@SuperBlockConstants@@QAEII@Z PROC ; SuperBlockConstants::GetScalarRegisterConstant, COMDAT
; _this$ = ecx

; 213  :   {

	push	ebp
	mov	ebp, esp
	push	ecx
	mov	DWORD PTR [ebp-4], -858993460		; ccccccccH
	mov	DWORD PTR _this$[ebp], ecx

; 214  :     return scalarRegisterConstants[index];

	mov	eax, DWORD PTR _index$[ebp]
	mov	ecx, DWORD PTR _this$[ebp]
	mov	eax, DWORD PTR [ecx+eax*4+300]

; 215  :   }

	mov	esp, ebp
	pop	ebp
	ret	4
?GetScalarRegisterConstant@SuperBlockConstants@@QAEII@Z ENDP ; SuperBlockConstants::GetScalarRegisterConstant
_TEXT	ENDS
PUBLIC	?SetScalarInputDependency@SuperBlockConstants@@QAEXI@Z ; SuperBlockConstants::SetScalarInputDependency
PUBLIC	?PropagateConstants_ADDM@@YAXAAVSuperBlockConstants@@@Z ; PropagateConstants_ADDM
; Function compile flags: /Odtp /RTCsu
; File c:\nuanceexperimental\propagateconstants_mul.cpp
_TEXT	SEGMENT
_destIndex$ = -12					; size = 4
_src2Index$ = -8					; size = 4
_src1Index$ = -4					; size = 4
_constants$ = 8						; size = 4
?PropagateConstants_ADDM@@YAXAAVSuperBlockConstants@@@Z PROC ; PropagateConstants_ADDM

; 35   : {

	push	ebp
	mov	ebp, esp
	sub	esp, 12					; 0000000cH
	mov	DWORD PTR [ebp-12], -858993460		; ccccccccH
	mov	DWORD PTR [ebp-8], -858993460		; ccccccccH
	mov	DWORD PTR [ebp-4], -858993460		; ccccccccH

; 36   :   uint32 src1Index = constants.nuance->fields[FIELD_MUL_SRC1];

	mov	eax, DWORD PTR _constants$[ebp]
	mov	ecx, DWORD PTR [eax+4]
	mov	edx, DWORD PTR [ecx+8]
	mov	DWORD PTR _src1Index$[ebp], edx

; 37   :   uint32 src2Index  = constants.nuance->fields[FIELD_MUL_SRC2];

	mov	eax, DWORD PTR _constants$[ebp]
	mov	ecx, DWORD PTR [eax+4]
	mov	edx, DWORD PTR [ecx+12]
	mov	DWORD PTR _src2Index$[ebp], edx

; 38   :   uint32 destIndex  = constants.nuance->fields[FIELD_MUL_DEST];

	mov	eax, DWORD PTR _constants$[ebp]
	mov	ecx, DWORD PTR [eax+4]
	mov	edx, DWORD PTR [ecx+16]
	mov	DWORD PTR _destIndex$[ebp], edx

; 39   : 
; 40   :   if(constants.IsScalarRegisterConstant(src1Index) && ALLOW_MUL_PROPAGATION)

	mov	eax, DWORD PTR _src1Index$[ebp]
	push	eax
	mov	ecx, DWORD PTR _constants$[ebp]
	call	?IsScalarRegisterConstant@SuperBlockConstants@@QAE_NI@Z ; SuperBlockConstants::IsScalarRegisterConstant
	movzx	ecx, al
	test	ecx, ecx
	je	SHORT $LN4@PropagateC@2
	mov	edx, 1
	test	edx, edx
	je	SHORT $LN4@PropagateC@2

; 41   :   {
; 42   :     constants.nuance->fields[FIELD_ALU_HANDLER] = Handler_ADDMImmediate;

	mov	eax, DWORD PTR _constants$[ebp]
	mov	ecx, DWORD PTR [eax+4]
	mov	DWORD PTR [ecx], 118			; 00000076H

; 43   :     constants.nuance->fields[FIELD_ALU_SRC1] = constants.GetScalarRegisterConstant(src1Index);

	mov	edx, DWORD PTR _src1Index$[ebp]
	push	edx
	mov	ecx, DWORD PTR _constants$[ebp]
	call	?GetScalarRegisterConstant@SuperBlockConstants@@QAEII@Z ; SuperBlockConstants::GetScalarRegisterConstant
	mov	ecx, DWORD PTR _constants$[ebp]
	mov	edx, DWORD PTR [ecx+4]
	mov	DWORD PTR [edx+8], eax

; 44   :     constants.ClearScalarInputDependency(src1Index);

	mov	eax, DWORD PTR _src1Index$[ebp]
	push	eax
	mov	ecx, DWORD PTR _constants$[ebp]
	call	?ClearScalarInputDependency@SuperBlockConstants@@QAEXI@Z ; SuperBlockConstants::ClearScalarInputDependency

; 45   :     constants.SetScalarInputDependency(src2Index);

	mov	ecx, DWORD PTR _src2Index$[ebp]
	push	ecx
	mov	ecx, DWORD PTR _constants$[ebp]
	call	?SetScalarInputDependency@SuperBlockConstants@@QAEXI@Z ; SuperBlockConstants::SetScalarInputDependency

; 46   :     PropagateConstants_ADDMImmediate(constants);

	mov	edx, DWORD PTR _constants$[ebp]
	push	edx
	call	?PropagateConstants_ADDMImmediate@@YAXAAVSuperBlockConstants@@@Z ; PropagateConstants_ADDMImmediate
	add	esp, 4
	jmp	$LN5@PropagateC@2
$LN4@PropagateC@2:

; 47   :   }
; 48   :   else if(constants.IsScalarRegisterConstant(src2Index) && ALLOW_MUL_PROPAGATION)

	mov	eax, DWORD PTR _src2Index$[ebp]
	push	eax
	mov	ecx, DWORD PTR _constants$[ebp]
	call	?IsScalarRegisterConstant@SuperBlockConstants@@QAE_NI@Z ; SuperBlockConstants::IsScalarRegisterConstant
	movzx	ecx, al
	test	ecx, ecx
	je	SHORT $LN2@PropagateC@2
	mov	edx, 1
	test	edx, edx
	je	SHORT $LN2@PropagateC@2

; 49   :   {
; 50   :     constants.nuance->fields[FIELD_MUL_HANDLER] = Handler_ADDMImmediate;

	mov	eax, DWORD PTR _constants$[ebp]
	mov	ecx, DWORD PTR [eax+4]
	mov	DWORD PTR [ecx], 118			; 00000076H

; 51   :     constants.nuance->fields[FIELD_MUL_SRC1] = constants.GetScalarRegisterConstant(src2Index);

	mov	edx, DWORD PTR _src2Index$[ebp]
	push	edx
	mov	ecx, DWORD PTR _constants$[ebp]
	call	?GetScalarRegisterConstant@SuperBlockConstants@@QAEII@Z ; SuperBlockConstants::GetScalarRegisterConstant
	mov	ecx, DWORD PTR _constants$[ebp]
	mov	edx, DWORD PTR [ecx+4]
	mov	DWORD PTR [edx+8], eax

; 52   :     constants.nuance->fields[FIELD_MUL_SRC2] = src1Index;

	mov	eax, DWORD PTR _constants$[ebp]
	mov	ecx, DWORD PTR [eax+4]
	mov	edx, DWORD PTR _src1Index$[ebp]
	mov	DWORD PTR [ecx+12], edx

; 53   :     constants.ClearScalarInputDependency(src2Index);

	mov	eax, DWORD PTR _src2Index$[ebp]
	push	eax
	mov	ecx, DWORD PTR _constants$[ebp]
	call	?ClearScalarInputDependency@SuperBlockConstants@@QAEXI@Z ; SuperBlockConstants::ClearScalarInputDependency

; 54   :     constants.SetScalarInputDependency(src1Index);

	mov	ecx, DWORD PTR _src1Index$[ebp]
	push	ecx
	mov	ecx, DWORD PTR _constants$[ebp]
	call	?SetScalarInputDependency@SuperBlockConstants@@QAEXI@Z ; SuperBlockConstants::SetScalarInputDependency

; 55   :     PropagateConstants_ADDMImmediate(constants);

	mov	edx, DWORD PTR _constants$[ebp]
	push	edx
	call	?PropagateConstants_ADDMImmediate@@YAXAAVSuperBlockConstants@@@Z ; PropagateConstants_ADDMImmediate
	add	esp, 4

; 56   :   }
; 57   :   else

	jmp	SHORT $LN5@PropagateC@2
$LN2@PropagateC@2:

; 58   :   {
; 59   :     constants.ClearScalarRegisterConstant(destIndex);

	mov	eax, DWORD PTR _destIndex$[ebp]
	push	eax
	mov	ecx, DWORD PTR _constants$[ebp]
	call	?ClearScalarRegisterConstant@SuperBlockConstants@@QAEXI@Z ; SuperBlockConstants::ClearScalarRegisterConstant

; 60   :     constants.status.status = PROPAGATE_CONSTANTS_STATUS_MUL_OK;

	mov	ecx, DWORD PTR _constants$[ebp]
	mov	DWORD PTR [ecx+12], 3
$LN5@PropagateC@2:

; 61   :   }
; 62   : }

	add	esp, 12					; 0000000cH
	cmp	ebp, esp
	call	__RTC_CheckEsp
	mov	esp, ebp
	pop	ebp
	ret	0
?PropagateConstants_ADDM@@YAXAAVSuperBlockConstants@@@Z ENDP ; PropagateConstants_ADDM
; Function compile flags: /Odtp /RTCsu
; File c:\nuanceexperimental\superblockconstants.h
_TEXT	ENDS
;	COMDAT ?SetScalarInputDependency@SuperBlockConstants@@QAEXI@Z
_TEXT	SEGMENT
_this$ = -4						; size = 4
_index$ = 8						; size = 4
?SetScalarInputDependency@SuperBlockConstants@@QAEXI@Z PROC ; SuperBlockConstants::SetScalarInputDependency, COMDAT
; _this$ = ecx

; 121  :   {

	push	ebp
	mov	ebp, esp
	push	ecx
	mov	DWORD PTR [ebp-4], -858993460		; ccccccccH
	mov	DWORD PTR _this$[ebp], ecx

; 122  :     pCurrentInstructionEntry->scalarInputDependencies |= (1UL << index);

	mov	eax, DWORD PTR _this$[ebp]
	mov	edx, DWORD PTR [eax+8]
	mov	eax, 1
	mov	ecx, DWORD PTR _index$[ebp]
	shl	eax, cl
	or	eax, DWORD PTR [edx+32]
	mov	ecx, DWORD PTR _this$[ebp]
	mov	edx, DWORD PTR [ecx+8]
	mov	DWORD PTR [edx+32], eax

; 123  :   }

	mov	esp, ebp
	pop	ebp
	ret	4
?SetScalarInputDependency@SuperBlockConstants@@QAEXI@Z ENDP ; SuperBlockConstants::SetScalarInputDependency
_TEXT	ENDS
PUBLIC	?PropagateConstants_SUBMImmediateReverse@@YAXAAVSuperBlockConstants@@@Z ; PropagateConstants_SUBMImmediateReverse
; Function compile flags: /Odtp /RTCsu
; File c:\nuanceexperimental\propagateconstants_mul.cpp
_TEXT	SEGMENT
_destValue$ = -16					; size = 4
_destIndex$ = -12					; size = 4
_src2Index$ = -8					; size = 4
_src1$ = -4						; size = 4
_constants$ = 8						; size = 4
?PropagateConstants_SUBMImmediateReverse@@YAXAAVSuperBlockConstants@@@Z PROC ; PropagateConstants_SUBMImmediateReverse

; 65   : {

	push	ebp
	mov	ebp, esp
	sub	esp, 16					; 00000010H
	mov	eax, -858993460				; ccccccccH
	mov	DWORD PTR [ebp-16], eax
	mov	DWORD PTR [ebp-12], eax
	mov	DWORD PTR [ebp-8], eax
	mov	DWORD PTR [ebp-4], eax

; 66   :   uint32 src1 = constants.nuance->fields[FIELD_MUL_SRC1];

	mov	eax, DWORD PTR _constants$[ebp]
	mov	ecx, DWORD PTR [eax+4]
	mov	edx, DWORD PTR [ecx+8]
	mov	DWORD PTR _src1$[ebp], edx

; 67   :   uint32 src2Index = constants.nuance->fields[FIELD_MUL_SRC2];

	mov	eax, DWORD PTR _constants$[ebp]
	mov	ecx, DWORD PTR [eax+4]
	mov	edx, DWORD PTR [ecx+12]
	mov	DWORD PTR _src2Index$[ebp], edx

; 68   :   uint32 destIndex = constants.nuance->fields[FIELD_MUL_DEST];

	mov	eax, DWORD PTR _constants$[ebp]
	mov	ecx, DWORD PTR [eax+4]
	mov	edx, DWORD PTR [ecx+16]
	mov	DWORD PTR _destIndex$[ebp], edx

; 69   :   uint32 destValue;
; 70   : 
; 71   :   if(constants.IsScalarRegisterConstant(src2Index) && ALLOW_MUL_PROPAGATION)

	mov	eax, DWORD PTR _src2Index$[ebp]
	push	eax
	mov	ecx, DWORD PTR _constants$[ebp]
	call	?IsScalarRegisterConstant@SuperBlockConstants@@QAE_NI@Z ; SuperBlockConstants::IsScalarRegisterConstant
	movzx	ecx, al
	test	ecx, ecx
	je	SHORT $LN2@PropagateC@3
	mov	edx, 1
	test	edx, edx
	je	SHORT $LN2@PropagateC@3

; 72   :   {
; 73   :     destValue = src1 - constants.GetScalarRegisterConstant(src2Index);

	mov	eax, DWORD PTR _src2Index$[ebp]
	push	eax
	mov	ecx, DWORD PTR _constants$[ebp]
	call	?GetScalarRegisterConstant@SuperBlockConstants@@QAEII@Z ; SuperBlockConstants::GetScalarRegisterConstant
	mov	ecx, DWORD PTR _src1$[ebp]
	sub	ecx, eax
	mov	DWORD PTR _destValue$[ebp], ecx

; 74   :     constants.nuance->fields[FIELD_CONSTANT_HANDLER] = Handler_StoreScalarRegisterConstant;

	mov	edx, DWORD PTR _constants$[ebp]
	mov	eax, DWORD PTR [edx+4]
	mov	DWORD PTR [eax], 217			; 000000d9H

; 75   :     constants.nuance->fields[FIELD_CONSTANT_ADDRESS] = destIndex;

	mov	ecx, DWORD PTR _constants$[ebp]
	mov	edx, DWORD PTR [ecx+4]
	mov	eax, DWORD PTR _destIndex$[ebp]
	mov	DWORD PTR [edx+4], eax

; 76   :     constants.nuance->fields[FIELD_CONSTANT_VALUE] = destValue;

	mov	ecx, DWORD PTR _constants$[ebp]
	mov	edx, DWORD PTR [ecx+4]
	mov	eax, DWORD PTR _destValue$[ebp]
	mov	DWORD PTR [edx+8], eax

; 77   :     constants.nuance->fields[FIELD_CONSTANT_FLAGMASK] = 0;

	mov	ecx, DWORD PTR _constants$[ebp]
	mov	edx, DWORD PTR [ecx+4]
	mov	DWORD PTR [edx+12], 0

; 78   :     constants.ClearScalarInputDependency(src2Index);

	mov	eax, DWORD PTR _src2Index$[ebp]
	push	eax
	mov	ecx, DWORD PTR _constants$[ebp]
	call	?ClearScalarInputDependency@SuperBlockConstants@@QAEXI@Z ; SuperBlockConstants::ClearScalarInputDependency

; 79   :     PropagateConstants_StoreScalarRegisterConstant(constants); 

	mov	ecx, DWORD PTR _constants$[ebp]
	push	ecx
	call	?PropagateConstants_StoreScalarRegisterConstant@@YAXAAVSuperBlockConstants@@@Z ; PropagateConstants_StoreScalarRegisterConstant
	add	esp, 4

; 80   :   }
; 81   :   else

	jmp	SHORT $LN3@PropagateC@3
$LN2@PropagateC@3:

; 82   :   {
; 83   :     constants.ClearScalarRegisterConstant(destIndex);

	mov	edx, DWORD PTR _destIndex$[ebp]
	push	edx
	mov	ecx, DWORD PTR _constants$[ebp]
	call	?ClearScalarRegisterConstant@SuperBlockConstants@@QAEXI@Z ; SuperBlockConstants::ClearScalarRegisterConstant

; 84   :     constants.status.status = PROPAGATE_CONSTANTS_STATUS_MUL_OK;

	mov	eax, DWORD PTR _constants$[ebp]
	mov	DWORD PTR [eax+12], 3
$LN3@PropagateC@3:

; 85   :   }
; 86   : }

	add	esp, 16					; 00000010H
	cmp	ebp, esp
	call	__RTC_CheckEsp
	mov	esp, ebp
	pop	ebp
	ret	0
?PropagateConstants_SUBMImmediateReverse@@YAXAAVSuperBlockConstants@@@Z ENDP ; PropagateConstants_SUBMImmediateReverse
_TEXT	ENDS
PUBLIC	?PropagateConstants_SUBM@@YAXAAVSuperBlockConstants@@@Z ; PropagateConstants_SUBM
; Function compile flags: /Odtp /RTCsu
_TEXT	SEGMENT
_destIndex$ = -12					; size = 4
_src2Index$ = -8					; size = 4
_src1Index$ = -4					; size = 4
_constants$ = 8						; size = 4
?PropagateConstants_SUBM@@YAXAAVSuperBlockConstants@@@Z PROC ; PropagateConstants_SUBM

; 88   : {

	push	ebp
	mov	ebp, esp
	sub	esp, 12					; 0000000cH
	mov	DWORD PTR [ebp-12], -858993460		; ccccccccH
	mov	DWORD PTR [ebp-8], -858993460		; ccccccccH
	mov	DWORD PTR [ebp-4], -858993460		; ccccccccH

; 89   :   uint32 src1Index = constants.nuance->fields[FIELD_MUL_SRC1];

	mov	eax, DWORD PTR _constants$[ebp]
	mov	ecx, DWORD PTR [eax+4]
	mov	edx, DWORD PTR [ecx+8]
	mov	DWORD PTR _src1Index$[ebp], edx

; 90   :   uint32 src2Index  = constants.nuance->fields[FIELD_MUL_SRC2];

	mov	eax, DWORD PTR _constants$[ebp]
	mov	ecx, DWORD PTR [eax+4]
	mov	edx, DWORD PTR [ecx+12]
	mov	DWORD PTR _src2Index$[ebp], edx

; 91   :   uint32 destIndex  = constants.nuance->fields[FIELD_MUL_DEST];

	mov	eax, DWORD PTR _constants$[ebp]
	mov	ecx, DWORD PTR [eax+4]
	mov	edx, DWORD PTR [ecx+16]
	mov	DWORD PTR _destIndex$[ebp], edx

; 92   : 
; 93   :   if((src1Index == src2Index) && ALLOW_MUL_PROPAGATION)

	mov	eax, DWORD PTR _src1Index$[ebp]
	cmp	eax, DWORD PTR _src2Index$[ebp]
	jne	SHORT $LN6@PropagateC@4
	mov	ecx, 1
	test	ecx, ecx
	je	SHORT $LN6@PropagateC@4

; 94   :   {
; 95   :     constants.nuance->fields[FIELD_CONSTANT_HANDLER] = Handler_StoreScalarRegisterConstant;

	mov	edx, DWORD PTR _constants$[ebp]
	mov	eax, DWORD PTR [edx+4]
	mov	DWORD PTR [eax], 217			; 000000d9H

; 96   :     constants.nuance->fields[FIELD_CONSTANT_ADDRESS] = destIndex;

	mov	ecx, DWORD PTR _constants$[ebp]
	mov	edx, DWORD PTR [ecx+4]
	mov	eax, DWORD PTR _destIndex$[ebp]
	mov	DWORD PTR [edx+4], eax

; 97   :     constants.nuance->fields[FIELD_CONSTANT_VALUE] = 0;

	mov	ecx, DWORD PTR _constants$[ebp]
	mov	edx, DWORD PTR [ecx+4]
	mov	DWORD PTR [edx+8], 0

; 98   :     constants.nuance->fields[FIELD_CONSTANT_FLAGMASK] = 0;

	mov	eax, DWORD PTR _constants$[ebp]
	mov	ecx, DWORD PTR [eax+4]
	mov	DWORD PTR [ecx+12], 0

; 99   :     constants.ClearScalarInputDependency(src2Index);

	mov	edx, DWORD PTR _src2Index$[ebp]
	push	edx
	mov	ecx, DWORD PTR _constants$[ebp]
	call	?ClearScalarInputDependency@SuperBlockConstants@@QAEXI@Z ; SuperBlockConstants::ClearScalarInputDependency

; 100  :     constants.ClearScalarInputDependency(src1Index);

	mov	eax, DWORD PTR _src1Index$[ebp]
	push	eax
	mov	ecx, DWORD PTR _constants$[ebp]
	call	?ClearScalarInputDependency@SuperBlockConstants@@QAEXI@Z ; SuperBlockConstants::ClearScalarInputDependency

; 101  :     PropagateConstants_StoreScalarRegisterConstant(constants);      

	mov	ecx, DWORD PTR _constants$[ebp]
	push	ecx
	call	?PropagateConstants_StoreScalarRegisterConstant@@YAXAAVSuperBlockConstants@@@Z ; PropagateConstants_StoreScalarRegisterConstant
	add	esp, 4
	jmp	$LN7@PropagateC@4
$LN6@PropagateC@4:

; 102  :   }
; 103  :   else if(constants.IsScalarRegisterConstant(src1Index) && ALLOW_MUL_PROPAGATION)

	mov	edx, DWORD PTR _src1Index$[ebp]
	push	edx
	mov	ecx, DWORD PTR _constants$[ebp]
	call	?IsScalarRegisterConstant@SuperBlockConstants@@QAE_NI@Z ; SuperBlockConstants::IsScalarRegisterConstant
	movzx	eax, al
	test	eax, eax
	je	SHORT $LN4@PropagateC@4
	mov	ecx, 1
	test	ecx, ecx
	je	SHORT $LN4@PropagateC@4

; 104  :   {
; 105  :     constants.nuance->fields[FIELD_MUL_HANDLER] = Handler_SUBMImmediateReverse;

	mov	edx, DWORD PTR _constants$[ebp]
	mov	eax, DWORD PTR [edx+4]
	mov	DWORD PTR [eax], 120			; 00000078H

; 106  :     constants.nuance->fields[FIELD_MUL_SRC1] = constants.GetScalarRegisterConstant(src1Index);

	mov	ecx, DWORD PTR _src1Index$[ebp]
	push	ecx
	mov	ecx, DWORD PTR _constants$[ebp]
	call	?GetScalarRegisterConstant@SuperBlockConstants@@QAEII@Z ; SuperBlockConstants::GetScalarRegisterConstant
	mov	edx, DWORD PTR _constants$[ebp]
	mov	ecx, DWORD PTR [edx+4]
	mov	DWORD PTR [ecx+8], eax

; 107  :     constants.ClearScalarInputDependency(src1Index);

	mov	edx, DWORD PTR _src1Index$[ebp]
	push	edx
	mov	ecx, DWORD PTR _constants$[ebp]
	call	?ClearScalarInputDependency@SuperBlockConstants@@QAEXI@Z ; SuperBlockConstants::ClearScalarInputDependency

; 108  :     constants.SetScalarInputDependency(src2Index);

	mov	eax, DWORD PTR _src2Index$[ebp]
	push	eax
	mov	ecx, DWORD PTR _constants$[ebp]
	call	?SetScalarInputDependency@SuperBlockConstants@@QAEXI@Z ; SuperBlockConstants::SetScalarInputDependency

; 109  :     PropagateConstants_SUBMImmediateReverse(constants);

	mov	ecx, DWORD PTR _constants$[ebp]
	push	ecx
	call	?PropagateConstants_SUBMImmediateReverse@@YAXAAVSuperBlockConstants@@@Z ; PropagateConstants_SUBMImmediateReverse
	add	esp, 4
	jmp	$LN7@PropagateC@4
$LN4@PropagateC@4:

; 110  :   }
; 111  :   else if(constants.IsScalarRegisterConstant(src2Index) && ALLOW_MUL_PROPAGATION)

	mov	edx, DWORD PTR _src2Index$[ebp]
	push	edx
	mov	ecx, DWORD PTR _constants$[ebp]
	call	?IsScalarRegisterConstant@SuperBlockConstants@@QAE_NI@Z ; SuperBlockConstants::IsScalarRegisterConstant
	movzx	eax, al
	test	eax, eax
	je	SHORT $LN2@PropagateC@4
	mov	ecx, 1
	test	ecx, ecx
	je	SHORT $LN2@PropagateC@4

; 112  :   {
; 113  :     //Convert <Scalar - Immediate> to <(-Immediate) + Scalar>
; 114  :     constants.nuance->fields[FIELD_ALU_HANDLER] = Handler_ADDMImmediate;

	mov	edx, DWORD PTR _constants$[ebp]
	mov	eax, DWORD PTR [edx+4]
	mov	DWORD PTR [eax], 118			; 00000076H

; 115  :     constants.nuance->fields[FIELD_ALU_SRC1] = -((int32)constants.GetScalarRegisterConstant(src2Index));

	mov	ecx, DWORD PTR _src2Index$[ebp]
	push	ecx
	mov	ecx, DWORD PTR _constants$[ebp]
	call	?GetScalarRegisterConstant@SuperBlockConstants@@QAEII@Z ; SuperBlockConstants::GetScalarRegisterConstant
	neg	eax
	mov	edx, DWORD PTR _constants$[ebp]
	mov	ecx, DWORD PTR [edx+4]
	mov	DWORD PTR [ecx+8], eax

; 116  :     constants.nuance->fields[FIELD_ALU_SRC2] = src1Index;

	mov	edx, DWORD PTR _constants$[ebp]
	mov	eax, DWORD PTR [edx+4]
	mov	ecx, DWORD PTR _src1Index$[ebp]
	mov	DWORD PTR [eax+12], ecx

; 117  :     constants.ClearScalarInputDependency(src2Index);

	mov	edx, DWORD PTR _src2Index$[ebp]
	push	edx
	mov	ecx, DWORD PTR _constants$[ebp]
	call	?ClearScalarInputDependency@SuperBlockConstants@@QAEXI@Z ; SuperBlockConstants::ClearScalarInputDependency

; 118  :     constants.SetScalarInputDependency(src1Index);

	mov	eax, DWORD PTR _src1Index$[ebp]
	push	eax
	mov	ecx, DWORD PTR _constants$[ebp]
	call	?SetScalarInputDependency@SuperBlockConstants@@QAEXI@Z ; SuperBlockConstants::SetScalarInputDependency

; 119  :     //No ADDMImmediate propogation: just execute the following two lines
; 120  :     constants.ClearScalarRegisterConstant(destIndex);

	mov	ecx, DWORD PTR _destIndex$[ebp]
	push	ecx
	mov	ecx, DWORD PTR _constants$[ebp]
	call	?ClearScalarRegisterConstant@SuperBlockConstants@@QAEXI@Z ; SuperBlockConstants::ClearScalarRegisterConstant

; 121  :     constants.status.status = PROPAGATE_CONSTANTS_STATUS_MUL_OK;

	mov	edx, DWORD PTR _constants$[ebp]
	mov	DWORD PTR [edx+12], 3

; 122  :   }
; 123  :   else

	jmp	SHORT $LN7@PropagateC@4
$LN2@PropagateC@4:

; 124  :   {
; 125  :     constants.ClearScalarRegisterConstant(destIndex);

	mov	eax, DWORD PTR _destIndex$[ebp]
	push	eax
	mov	ecx, DWORD PTR _constants$[ebp]
	call	?ClearScalarRegisterConstant@SuperBlockConstants@@QAEXI@Z ; SuperBlockConstants::ClearScalarRegisterConstant

; 126  :     constants.status.status = PROPAGATE_CONSTANTS_STATUS_MUL_OK;

	mov	ecx, DWORD PTR _constants$[ebp]
	mov	DWORD PTR [ecx+12], 3
$LN7@PropagateC@4:

; 127  :   }
; 128  : }

	add	esp, 12					; 0000000cH
	cmp	ebp, esp
	call	__RTC_CheckEsp
	mov	esp, ebp
	pop	ebp
	ret	0
?PropagateConstants_SUBM@@YAXAAVSuperBlockConstants@@@Z ENDP ; PropagateConstants_SUBM
_TEXT	ENDS
PUBLIC	?ClearMiscRegisterConstant@SuperBlockConstants@@QAEXI@Z ; SuperBlockConstants::ClearMiscRegisterConstant
PUBLIC	?PropagateConstants_MULImmediateShiftRightImmediate@@YAXAAVSuperBlockConstants@@@Z ; PropagateConstants_MULImmediateShiftRightImmediate
EXTRN	__allmul:PROC
EXTRN	__allshr:PROC
EXTRN	__allshl:PROC
; Function compile flags: /Odtp /RTCsu
_TEXT	SEGMENT
tv250 = -60						; size = 8
tv240 = -52						; size = 8
tv230 = -44						; size = 8
_result$ = -36						; size = 8
_mulop2$ = -28						; size = 8
_mulop1$ = -20						; size = 8
_flagValue$ = -12					; size = 4
_destIndex$ = -8					; size = 4
_src2Index$ = -4					; size = 4
_constants$ = 8						; size = 4
?PropagateConstants_MULImmediateShiftRightImmediate@@YAXAAVSuperBlockConstants@@@Z PROC ; PropagateConstants_MULImmediateShiftRightImmediate

; 131  : {

	push	ebp
	mov	ebp, esp
	sub	esp, 60					; 0000003cH
	push	esi
	push	edi
	lea	edi, DWORD PTR [ebp-60]
	mov	ecx, 15					; 0000000fH
	mov	eax, -858993460				; ccccccccH
	rep stosd

; 132  :   uint32 src2Index  = constants.nuance->fields[FIELD_MUL_SRC2];

	mov	eax, DWORD PTR _constants$[ebp]
	mov	ecx, DWORD PTR [eax+4]
	mov	edx, DWORD PTR [ecx+12]
	mov	DWORD PTR _src2Index$[ebp], edx

; 133  :   uint32 destIndex  = constants.nuance->fields[FIELD_MUL_DEST];

	mov	eax, DWORD PTR _constants$[ebp]
	mov	ecx, DWORD PTR [eax+4]
	mov	edx, DWORD PTR [ecx+16]
	mov	DWORD PTR _destIndex$[ebp], edx

; 134  :   uint32 flagValue = 0;

	mov	DWORD PTR _flagValue$[ebp], 0

; 135  :   int64 mulop1, mulop2, result;
; 136  : 
; 137  :   if(constants.IsScalarRegisterConstant(src2Index) && ALLOW_MUL_PROPAGATION)

	mov	eax, DWORD PTR _src2Index$[ebp]
	push	eax
	mov	ecx, DWORD PTR _constants$[ebp]
	call	?IsScalarRegisterConstant@SuperBlockConstants@@QAE_NI@Z ; SuperBlockConstants::IsScalarRegisterConstant
	movzx	ecx, al
	test	ecx, ecx
	je	$LN6@PropagateC@5
	mov	edx, 1
	test	edx, edx
	je	$LN6@PropagateC@5

; 138  :   {
; 139  :     mulop1 = constants.nuance->fields[FIELD_MUL_SRC1];

	mov	eax, DWORD PTR _constants$[ebp]
	mov	ecx, DWORD PTR [eax+4]
	mov	edx, DWORD PTR [ecx+8]
	xor	eax, eax
	mov	DWORD PTR _mulop1$[ebp], edx
	mov	DWORD PTR _mulop1$[ebp+4], eax

; 140  :     mulop2 = constants.GetScalarRegisterConstant(src2Index);

	mov	ecx, DWORD PTR _src2Index$[ebp]
	push	ecx
	mov	ecx, DWORD PTR _constants$[ebp]
	call	?GetScalarRegisterConstant@SuperBlockConstants@@QAEII@Z ; SuperBlockConstants::GetScalarRegisterConstant
	xor	edx, edx
	mov	DWORD PTR _mulop2$[ebp], eax
	mov	DWORD PTR _mulop2$[ebp+4], edx

; 141  :     result = (((mulop1 << 32) >> 32) * ((mulop2 << 32) >> 32)) >> constants.nuance->fields[FIELD_MUL_INFO];

	mov	eax, DWORD PTR _mulop1$[ebp]
	mov	edx, DWORD PTR _mulop1$[ebp+4]
	mov	cl, 32					; 00000020H
	call	__allshl
	mov	cl, 32					; 00000020H
	call	__allshr
	mov	esi, eax
	mov	edi, edx
	mov	eax, DWORD PTR _mulop2$[ebp]
	mov	edx, DWORD PTR _mulop2$[ebp+4]
	mov	cl, 32					; 00000020H
	call	__allshl
	mov	cl, 32					; 00000020H
	call	__allshr
	push	edx
	push	eax
	push	edi
	push	esi
	call	__allmul
	mov	ecx, DWORD PTR _constants$[ebp]
	mov	ecx, DWORD PTR [ecx+4]
	mov	ecx, DWORD PTR [ecx+4]
	call	__allshr
	mov	DWORD PTR _result$[ebp], eax
	mov	DWORD PTR _result$[ebp+4], edx

; 142  :     if((result & 0x0000000080000000i64) == 0i64)

	mov	edx, DWORD PTR _result$[ebp]
	and	edx, -2147483648			; 80000000H
	mov	eax, DWORD PTR _result$[ebp+4]
	and	eax, 0
	mov	DWORD PTR tv230[ebp], edx
	mov	DWORD PTR tv230[ebp+4], eax
	mov	ecx, DWORD PTR tv230[ebp]
	or	ecx, DWORD PTR tv230[ebp+4]
	jne	SHORT $LN5@PropagateC@5

; 143  :     {
; 144  :       if((result & 0xFFFFFFFF00000000i64) != 0i64)

	mov	edx, DWORD PTR _result$[ebp]
	and	edx, 0
	mov	eax, DWORD PTR _result$[ebp+4]
	mov	DWORD PTR tv240[ebp], edx
	mov	DWORD PTR tv240[ebp+4], eax
	mov	ecx, DWORD PTR tv240[ebp]
	or	ecx, DWORD PTR tv240[ebp+4]
	je	SHORT $LN4@PropagateC@5

; 145  :       {
; 146  :         flagValue = CC_MUL_OVERFLOW;

	mov	DWORD PTR _flagValue$[ebp], 16		; 00000010H
$LN4@PropagateC@5:

; 147  :       }
; 148  :     }
; 149  :     else

	jmp	SHORT $LN3@PropagateC@5
$LN5@PropagateC@5:

; 150  :     {
; 151  :       if((result & 0xFFFFFFFF00000000i64) != 0xFFFFFFFF00000000i64)

	mov	edx, DWORD PTR _result$[ebp]
	and	edx, 0
	mov	eax, DWORD PTR _result$[ebp+4]
	mov	DWORD PTR tv250[ebp], edx
	mov	DWORD PTR tv250[ebp+4], eax
	jne	SHORT $LN9@PropagateC@5
	cmp	DWORD PTR tv250[ebp+4], -1
	je	SHORT $LN3@PropagateC@5
$LN9@PropagateC@5:

; 152  :       {
; 153  :         flagValue = CC_MUL_OVERFLOW;

	mov	DWORD PTR _flagValue$[ebp], 16		; 00000010H
$LN3@PropagateC@5:

; 154  :       }
; 155  :     }
; 156  :     
; 157  :     constants.nuance->fields[FIELD_CONSTANT_HANDLER] = Handler_StoreScalarRegisterConstant;

	mov	ecx, DWORD PTR _constants$[ebp]
	mov	edx, DWORD PTR [ecx+4]
	mov	DWORD PTR [edx], 217			; 000000d9H

; 158  :     constants.nuance->fields[FIELD_CONSTANT_ADDRESS] = destIndex;

	mov	eax, DWORD PTR _constants$[ebp]
	mov	ecx, DWORD PTR [eax+4]
	mov	edx, DWORD PTR _destIndex$[ebp]
	mov	DWORD PTR [ecx+4], edx

; 159  :     constants.nuance->fields[FIELD_CONSTANT_VALUE] = (uint32)result;

	mov	eax, DWORD PTR _result$[ebp]
	mov	ecx, DWORD PTR _constants$[ebp]
	mov	edx, DWORD PTR [ecx+4]
	mov	DWORD PTR [edx+8], eax

; 160  :     constants.nuance->fields[FIELD_CONSTANT_FLAGMASK] = CC_MUL_OVERFLOW;

	mov	eax, DWORD PTR _constants$[ebp]
	mov	ecx, DWORD PTR [eax+4]
	mov	DWORD PTR [ecx+12], 16			; 00000010H

; 161  :     constants.nuance->fields[FIELD_CONSTANT_FLAGVALUES] = flagValue;

	mov	edx, DWORD PTR _constants$[ebp]
	mov	eax, DWORD PTR [edx+4]
	mov	ecx, DWORD PTR _flagValue$[ebp]
	mov	DWORD PTR [eax+16], ecx

; 162  :     constants.ClearScalarInputDependency(src2Index);

	mov	edx, DWORD PTR _src2Index$[ebp]
	push	edx
	mov	ecx, DWORD PTR _constants$[ebp]
	call	?ClearScalarInputDependency@SuperBlockConstants@@QAEXI@Z ; SuperBlockConstants::ClearScalarInputDependency

; 163  :     PropagateConstants_StoreScalarRegisterConstant(constants);

	mov	eax, DWORD PTR _constants$[ebp]
	push	eax
	call	?PropagateConstants_StoreScalarRegisterConstant@@YAXAAVSuperBlockConstants@@@Z ; PropagateConstants_StoreScalarRegisterConstant
	add	esp, 4

; 164  :   }
; 165  :   else

	jmp	SHORT $LN7@PropagateC@5
$LN6@PropagateC@5:

; 166  :   {
; 167  :     constants.ClearScalarRegisterConstant(destIndex);

	mov	ecx, DWORD PTR _destIndex$[ebp]
	push	ecx
	mov	ecx, DWORD PTR _constants$[ebp]
	call	?ClearScalarRegisterConstant@SuperBlockConstants@@QAEXI@Z ; SuperBlockConstants::ClearScalarRegisterConstant

; 168  :     constants.ClearMiscRegisterConstant(CONSTANT_REG_MV);

	push	19					; 00000013H
	mov	ecx, DWORD PTR _constants$[ebp]
	call	?ClearMiscRegisterConstant@SuperBlockConstants@@QAEXI@Z ; SuperBlockConstants::ClearMiscRegisterConstant

; 169  :     constants.status.status = PROPAGATE_CONSTANTS_STATUS_MUL_OK;

	mov	edx, DWORD PTR _constants$[ebp]
	mov	DWORD PTR [edx+12], 3
$LN7@PropagateC@5:

; 170  :   }
; 171  : }

	pop	edi
	pop	esi
	add	esp, 60					; 0000003cH
	cmp	ebp, esp
	call	__RTC_CheckEsp
	mov	esp, ebp
	pop	ebp
	ret	0
?PropagateConstants_MULImmediateShiftRightImmediate@@YAXAAVSuperBlockConstants@@@Z ENDP ; PropagateConstants_MULImmediateShiftRightImmediate
; Function compile flags: /Odtp /RTCsu
; File c:\nuanceexperimental\superblockconstants.h
_TEXT	ENDS
;	COMDAT ?ClearMiscRegisterConstant@SuperBlockConstants@@QAEXI@Z
_TEXT	SEGMENT
_this$ = -4						; size = 4
_index$ = 8						; size = 4
?ClearMiscRegisterConstant@SuperBlockConstants@@QAEXI@Z PROC ; SuperBlockConstants::ClearMiscRegisterConstant, COMDAT
; _this$ = ecx

; 157  :   {

	push	ebp
	mov	ebp, esp
	push	ecx
	mov	DWORD PTR [ebp-4], -858993460		; ccccccccH
	mov	DWORD PTR _this$[ebp], ecx

; 158  :     if(index != CONSTANT_REG_ALLFLAGS)

	cmp	DWORD PTR _index$[ebp], -1
	je	SHORT $LN2@ClearMiscR

; 159  :     {
; 160  :       tempMiscRegisterConstantsStatus &= ~(1UL << index);

	mov	eax, 1
	mov	ecx, DWORD PTR _index$[ebp]
	shl	eax, cl
	not	eax
	mov	ecx, DWORD PTR _this$[ebp]
	and	eax, DWORD PTR [ecx+568]
	mov	edx, DWORD PTR _this$[ebp]
	mov	DWORD PTR [edx+568], eax

; 161  :     }
; 162  :     else

	jmp	SHORT $LN3@ClearMiscR
$LN2@ClearMiscR:

; 163  :     {
; 164  :       tempMiscRegisterConstantsStatus &= ~DEPENDENCY_FLAG_ALLFLAGS;

	mov	eax, DWORD PTR _this$[ebp]
	mov	ecx, DWORD PTR [eax+568]
	and	ecx, -67076097				; fc007fffH
	mov	edx, DWORD PTR _this$[ebp]
	mov	DWORD PTR [edx+568], ecx
$LN3@ClearMiscR:

; 165  :     }
; 166  :   }

	mov	esp, ebp
	pop	ebp
	ret	4
?ClearMiscRegisterConstant@SuperBlockConstants@@QAEXI@Z ENDP ; SuperBlockConstants::ClearMiscRegisterConstant
_TEXT	ENDS
PUBLIC	?PropagateConstants_MULImmediateShiftLeftImmediate@@YAXAAVSuperBlockConstants@@@Z ; PropagateConstants_MULImmediateShiftLeftImmediate
; Function compile flags: /Odtp /RTCsu
; File c:\nuanceexperimental\propagateconstants_mul.cpp
_TEXT	SEGMENT
tv250 = -60						; size = 8
tv240 = -52						; size = 8
tv230 = -44						; size = 8
_result$ = -36						; size = 8
_mulop2$ = -28						; size = 8
_mulop1$ = -20						; size = 8
_flagValue$ = -12					; size = 4
_destIndex$ = -8					; size = 4
_src2Index$ = -4					; size = 4
_constants$ = 8						; size = 4
?PropagateConstants_MULImmediateShiftLeftImmediate@@YAXAAVSuperBlockConstants@@@Z PROC ; PropagateConstants_MULImmediateShiftLeftImmediate

; 173  : {

	push	ebp
	mov	ebp, esp
	sub	esp, 60					; 0000003cH
	push	esi
	push	edi
	lea	edi, DWORD PTR [ebp-60]
	mov	ecx, 15					; 0000000fH
	mov	eax, -858993460				; ccccccccH
	rep stosd

; 174  :   uint32 src2Index  = constants.nuance->fields[FIELD_MUL_SRC2];

	mov	eax, DWORD PTR _constants$[ebp]
	mov	ecx, DWORD PTR [eax+4]
	mov	edx, DWORD PTR [ecx+12]
	mov	DWORD PTR _src2Index$[ebp], edx

; 175  :   uint32 destIndex  = constants.nuance->fields[FIELD_MUL_DEST];

	mov	eax, DWORD PTR _constants$[ebp]
	mov	ecx, DWORD PTR [eax+4]
	mov	edx, DWORD PTR [ecx+16]
	mov	DWORD PTR _destIndex$[ebp], edx

; 176  :   uint32 flagValue = 0;

	mov	DWORD PTR _flagValue$[ebp], 0

; 177  :   int64 mulop1, mulop2, result;
; 178  : 
; 179  :   if(constants.IsScalarRegisterConstant(src2Index) && ALLOW_MUL_PROPAGATION)

	mov	eax, DWORD PTR _src2Index$[ebp]
	push	eax
	mov	ecx, DWORD PTR _constants$[ebp]
	call	?IsScalarRegisterConstant@SuperBlockConstants@@QAE_NI@Z ; SuperBlockConstants::IsScalarRegisterConstant
	movzx	ecx, al
	test	ecx, ecx
	je	$LN6@PropagateC@6
	mov	edx, 1
	test	edx, edx
	je	$LN6@PropagateC@6

; 180  :   {
; 181  :     mulop1 = constants.nuance->fields[FIELD_MUL_SRC1];

	mov	eax, DWORD PTR _constants$[ebp]
	mov	ecx, DWORD PTR [eax+4]
	mov	edx, DWORD PTR [ecx+8]
	xor	eax, eax
	mov	DWORD PTR _mulop1$[ebp], edx
	mov	DWORD PTR _mulop1$[ebp+4], eax

; 182  :     mulop2 = constants.GetScalarRegisterConstant(src2Index);

	mov	ecx, DWORD PTR _src2Index$[ebp]
	push	ecx
	mov	ecx, DWORD PTR _constants$[ebp]
	call	?GetScalarRegisterConstant@SuperBlockConstants@@QAEII@Z ; SuperBlockConstants::GetScalarRegisterConstant
	xor	edx, edx
	mov	DWORD PTR _mulop2$[ebp], eax
	mov	DWORD PTR _mulop2$[ebp+4], edx

; 183  :     result = (((mulop1 << 32) >> 32) * ((mulop2 << 32) >> 32)) << constants.nuance->fields[FIELD_MUL_INFO];

	mov	eax, DWORD PTR _mulop1$[ebp]
	mov	edx, DWORD PTR _mulop1$[ebp+4]
	mov	cl, 32					; 00000020H
	call	__allshl
	mov	cl, 32					; 00000020H
	call	__allshr
	mov	esi, eax
	mov	edi, edx
	mov	eax, DWORD PTR _mulop2$[ebp]
	mov	edx, DWORD PTR _mulop2$[ebp+4]
	mov	cl, 32					; 00000020H
	call	__allshl
	mov	cl, 32					; 00000020H
	call	__allshr
	push	edx
	push	eax
	push	edi
	push	esi
	call	__allmul
	mov	ecx, DWORD PTR _constants$[ebp]
	mov	ecx, DWORD PTR [ecx+4]
	mov	ecx, DWORD PTR [ecx+4]
	call	__allshl
	mov	DWORD PTR _result$[ebp], eax
	mov	DWORD PTR _result$[ebp+4], edx

; 184  :     if((result & 0x0000000080000000i64) == 0i64)

	mov	edx, DWORD PTR _result$[ebp]
	and	edx, -2147483648			; 80000000H
	mov	eax, DWORD PTR _result$[ebp+4]
	and	eax, 0
	mov	DWORD PTR tv230[ebp], edx
	mov	DWORD PTR tv230[ebp+4], eax
	mov	ecx, DWORD PTR tv230[ebp]
	or	ecx, DWORD PTR tv230[ebp+4]
	jne	SHORT $LN5@PropagateC@6

; 185  :     {
; 186  :       if((result & 0xFFFFFFFF00000000i64) != 0i64)

	mov	edx, DWORD PTR _result$[ebp]
	and	edx, 0
	mov	eax, DWORD PTR _result$[ebp+4]
	mov	DWORD PTR tv240[ebp], edx
	mov	DWORD PTR tv240[ebp+4], eax
	mov	ecx, DWORD PTR tv240[ebp]
	or	ecx, DWORD PTR tv240[ebp+4]
	je	SHORT $LN4@PropagateC@6

; 187  :       {
; 188  :         flagValue = CC_MUL_OVERFLOW;

	mov	DWORD PTR _flagValue$[ebp], 16		; 00000010H
$LN4@PropagateC@6:

; 189  :       }
; 190  :     }
; 191  :     else

	jmp	SHORT $LN3@PropagateC@6
$LN5@PropagateC@6:

; 192  :     {
; 193  :       if((result & 0xFFFFFFFF00000000i64) != 0xFFFFFFFF00000000i64)

	mov	edx, DWORD PTR _result$[ebp]
	and	edx, 0
	mov	eax, DWORD PTR _result$[ebp+4]
	mov	DWORD PTR tv250[ebp], edx
	mov	DWORD PTR tv250[ebp+4], eax
	jne	SHORT $LN9@PropagateC@6
	cmp	DWORD PTR tv250[ebp+4], -1
	je	SHORT $LN3@PropagateC@6
$LN9@PropagateC@6:

; 194  :       {
; 195  :         flagValue = CC_MUL_OVERFLOW;

	mov	DWORD PTR _flagValue$[ebp], 16		; 00000010H
$LN3@PropagateC@6:

; 196  :       }
; 197  :     }
; 198  :     
; 199  :     constants.nuance->fields[FIELD_CONSTANT_HANDLER] = Handler_StoreScalarRegisterConstant;

	mov	ecx, DWORD PTR _constants$[ebp]
	mov	edx, DWORD PTR [ecx+4]
	mov	DWORD PTR [edx], 217			; 000000d9H

; 200  :     constants.nuance->fields[FIELD_CONSTANT_ADDRESS] = destIndex;

	mov	eax, DWORD PTR _constants$[ebp]
	mov	ecx, DWORD PTR [eax+4]
	mov	edx, DWORD PTR _destIndex$[ebp]
	mov	DWORD PTR [ecx+4], edx

; 201  :     constants.nuance->fields[FIELD_CONSTANT_VALUE] = (uint32)result;

	mov	eax, DWORD PTR _result$[ebp]
	mov	ecx, DWORD PTR _constants$[ebp]
	mov	edx, DWORD PTR [ecx+4]
	mov	DWORD PTR [edx+8], eax

; 202  :     constants.nuance->fields[FIELD_CONSTANT_FLAGMASK] = CC_MUL_OVERFLOW;

	mov	eax, DWORD PTR _constants$[ebp]
	mov	ecx, DWORD PTR [eax+4]
	mov	DWORD PTR [ecx+12], 16			; 00000010H

; 203  :     constants.nuance->fields[FIELD_CONSTANT_FLAGVALUES] = flagValue;

	mov	edx, DWORD PTR _constants$[ebp]
	mov	eax, DWORD PTR [edx+4]
	mov	ecx, DWORD PTR _flagValue$[ebp]
	mov	DWORD PTR [eax+16], ecx

; 204  :     constants.ClearScalarInputDependency(src2Index);

	mov	edx, DWORD PTR _src2Index$[ebp]
	push	edx
	mov	ecx, DWORD PTR _constants$[ebp]
	call	?ClearScalarInputDependency@SuperBlockConstants@@QAEXI@Z ; SuperBlockConstants::ClearScalarInputDependency

; 205  :     PropagateConstants_StoreScalarRegisterConstant(constants);

	mov	eax, DWORD PTR _constants$[ebp]
	push	eax
	call	?PropagateConstants_StoreScalarRegisterConstant@@YAXAAVSuperBlockConstants@@@Z ; PropagateConstants_StoreScalarRegisterConstant
	add	esp, 4

; 206  :   }
; 207  :   else

	jmp	SHORT $LN7@PropagateC@6
$LN6@PropagateC@6:

; 208  :   {
; 209  :     constants.ClearScalarRegisterConstant(destIndex);

	mov	ecx, DWORD PTR _destIndex$[ebp]
	push	ecx
	mov	ecx, DWORD PTR _constants$[ebp]
	call	?ClearScalarRegisterConstant@SuperBlockConstants@@QAEXI@Z ; SuperBlockConstants::ClearScalarRegisterConstant

; 210  :     constants.ClearMiscRegisterConstant(CONSTANT_REG_MV);

	push	19					; 00000013H
	mov	ecx, DWORD PTR _constants$[ebp]
	call	?ClearMiscRegisterConstant@SuperBlockConstants@@QAEXI@Z ; SuperBlockConstants::ClearMiscRegisterConstant

; 211  :     constants.status.status = PROPAGATE_CONSTANTS_STATUS_MUL_OK;

	mov	edx, DWORD PTR _constants$[ebp]
	mov	DWORD PTR [edx+12], 3
$LN7@PropagateC@6:

; 212  :   }
; 213  : }

	pop	edi
	pop	esi
	add	esp, 60					; 0000003cH
	cmp	ebp, esp
	call	__RTC_CheckEsp
	mov	esp, ebp
	pop	ebp
	ret	0
?PropagateConstants_MULImmediateShiftLeftImmediate@@YAXAAVSuperBlockConstants@@@Z ENDP ; PropagateConstants_MULImmediateShiftLeftImmediate
_TEXT	ENDS
PUBLIC	?PropagateConstants_MULScalarShiftRightImmediate@@YAXAAVSuperBlockConstants@@@Z ; PropagateConstants_MULScalarShiftRightImmediate
; Function compile flags: /Odtp /RTCsu
_TEXT	SEGMENT
_destIndex$ = -12					; size = 4
_src2Index$ = -8					; size = 4
_src1Index$ = -4					; size = 4
_constants$ = 8						; size = 4
?PropagateConstants_MULScalarShiftRightImmediate@@YAXAAVSuperBlockConstants@@@Z PROC ; PropagateConstants_MULScalarShiftRightImmediate

; 215  : {

	push	ebp
	mov	ebp, esp
	sub	esp, 12					; 0000000cH
	mov	DWORD PTR [ebp-12], -858993460		; ccccccccH
	mov	DWORD PTR [ebp-8], -858993460		; ccccccccH
	mov	DWORD PTR [ebp-4], -858993460		; ccccccccH

; 216  :   uint32 src1Index = constants.nuance->fields[FIELD_MUL_SRC1];

	mov	eax, DWORD PTR _constants$[ebp]
	mov	ecx, DWORD PTR [eax+4]
	mov	edx, DWORD PTR [ecx+8]
	mov	DWORD PTR _src1Index$[ebp], edx

; 217  :   uint32 src2Index = constants.nuance->fields[FIELD_MUL_SRC2];

	mov	eax, DWORD PTR _constants$[ebp]
	mov	ecx, DWORD PTR [eax+4]
	mov	edx, DWORD PTR [ecx+12]
	mov	DWORD PTR _src2Index$[ebp], edx

; 218  :   uint32 destIndex = constants.nuance->fields[FIELD_MUL_DEST];

	mov	eax, DWORD PTR _constants$[ebp]
	mov	ecx, DWORD PTR [eax+4]
	mov	edx, DWORD PTR [ecx+16]
	mov	DWORD PTR _destIndex$[ebp], edx

; 219  : 
; 220  :   if(constants.IsScalarRegisterConstant(src1Index) && ALLOW_MUL_PROPAGATION)

	mov	eax, DWORD PTR _src1Index$[ebp]
	push	eax
	mov	ecx, DWORD PTR _constants$[ebp]
	call	?IsScalarRegisterConstant@SuperBlockConstants@@QAE_NI@Z ; SuperBlockConstants::IsScalarRegisterConstant
	movzx	ecx, al
	test	ecx, ecx
	je	SHORT $LN2@PropagateC@7
	mov	edx, 1
	test	edx, edx
	je	SHORT $LN2@PropagateC@7

; 221  :   {
; 222  :     constants.nuance->fields[FIELD_MUL_HANDLER] = Handler_MULImmediateShiftRightImmediate;

	mov	eax, DWORD PTR _constants$[ebp]
	mov	ecx, DWORD PTR [eax+4]
	mov	DWORD PTR [ecx], 127			; 0000007fH

; 223  :     constants.nuance->fields[FIELD_MUL_SRC1] = constants.GetScalarRegisterConstant(src1Index);

	mov	edx, DWORD PTR _src1Index$[ebp]
	push	edx
	mov	ecx, DWORD PTR _constants$[ebp]
	call	?GetScalarRegisterConstant@SuperBlockConstants@@QAEII@Z ; SuperBlockConstants::GetScalarRegisterConstant
	mov	ecx, DWORD PTR _constants$[ebp]
	mov	edx, DWORD PTR [ecx+4]
	mov	DWORD PTR [edx+8], eax

; 224  :     constants.ClearScalarInputDependency(src1Index);

	mov	eax, DWORD PTR _src1Index$[ebp]
	push	eax
	mov	ecx, DWORD PTR _constants$[ebp]
	call	?ClearScalarInputDependency@SuperBlockConstants@@QAEXI@Z ; SuperBlockConstants::ClearScalarInputDependency

; 225  :     constants.SetScalarInputDependency(src2Index);

	mov	ecx, DWORD PTR _src2Index$[ebp]
	push	ecx
	mov	ecx, DWORD PTR _constants$[ebp]
	call	?SetScalarInputDependency@SuperBlockConstants@@QAEXI@Z ; SuperBlockConstants::SetScalarInputDependency

; 226  :     PropagateConstants_MULImmediateShiftRightImmediate(constants);

	mov	edx, DWORD PTR _constants$[ebp]
	push	edx
	call	?PropagateConstants_MULImmediateShiftRightImmediate@@YAXAAVSuperBlockConstants@@@Z ; PropagateConstants_MULImmediateShiftRightImmediate
	add	esp, 4

; 227  :   }
; 228  :   else

	jmp	SHORT $LN3@PropagateC@7
$LN2@PropagateC@7:

; 229  :   {
; 230  :     constants.ClearScalarRegisterConstant(destIndex);

	mov	eax, DWORD PTR _destIndex$[ebp]
	push	eax
	mov	ecx, DWORD PTR _constants$[ebp]
	call	?ClearScalarRegisterConstant@SuperBlockConstants@@QAEXI@Z ; SuperBlockConstants::ClearScalarRegisterConstant

; 231  :     constants.ClearMiscRegisterConstant(CONSTANT_REG_MV);

	push	19					; 00000013H
	mov	ecx, DWORD PTR _constants$[ebp]
	call	?ClearMiscRegisterConstant@SuperBlockConstants@@QAEXI@Z ; SuperBlockConstants::ClearMiscRegisterConstant

; 232  :     constants.status.status = PROPAGATE_CONSTANTS_STATUS_MUL_OK;

	mov	ecx, DWORD PTR _constants$[ebp]
	mov	DWORD PTR [ecx+12], 3
$LN3@PropagateC@7:

; 233  :   }
; 234  : }

	add	esp, 12					; 0000000cH
	cmp	ebp, esp
	call	__RTC_CheckEsp
	mov	esp, ebp
	pop	ebp
	ret	0
?PropagateConstants_MULScalarShiftRightImmediate@@YAXAAVSuperBlockConstants@@@Z ENDP ; PropagateConstants_MULScalarShiftRightImmediate
_TEXT	ENDS
PUBLIC	?PropagateConstants_MULScalarShiftLeftImmediate@@YAXAAVSuperBlockConstants@@@Z ; PropagateConstants_MULScalarShiftLeftImmediate
; Function compile flags: /Odtp /RTCsu
_TEXT	SEGMENT
_destIndex$ = -12					; size = 4
_src2Index$ = -8					; size = 4
_src1Index$ = -4					; size = 4
_constants$ = 8						; size = 4
?PropagateConstants_MULScalarShiftLeftImmediate@@YAXAAVSuperBlockConstants@@@Z PROC ; PropagateConstants_MULScalarShiftLeftImmediate

; 236  : {

	push	ebp
	mov	ebp, esp
	sub	esp, 12					; 0000000cH
	mov	DWORD PTR [ebp-12], -858993460		; ccccccccH
	mov	DWORD PTR [ebp-8], -858993460		; ccccccccH
	mov	DWORD PTR [ebp-4], -858993460		; ccccccccH

; 237  :   uint32 src1Index = constants.nuance->fields[FIELD_MUL_SRC1];

	mov	eax, DWORD PTR _constants$[ebp]
	mov	ecx, DWORD PTR [eax+4]
	mov	edx, DWORD PTR [ecx+8]
	mov	DWORD PTR _src1Index$[ebp], edx

; 238  :   uint32 src2Index = constants.nuance->fields[FIELD_MUL_SRC2];

	mov	eax, DWORD PTR _constants$[ebp]
	mov	ecx, DWORD PTR [eax+4]
	mov	edx, DWORD PTR [ecx+12]
	mov	DWORD PTR _src2Index$[ebp], edx

; 239  :   uint32 destIndex = constants.nuance->fields[FIELD_MUL_DEST];

	mov	eax, DWORD PTR _constants$[ebp]
	mov	ecx, DWORD PTR [eax+4]
	mov	edx, DWORD PTR [ecx+16]
	mov	DWORD PTR _destIndex$[ebp], edx

; 240  : 
; 241  :   if(constants.IsScalarRegisterConstant(src1Index) && ALLOW_MUL_PROPAGATION)

	mov	eax, DWORD PTR _src1Index$[ebp]
	push	eax
	mov	ecx, DWORD PTR _constants$[ebp]
	call	?IsScalarRegisterConstant@SuperBlockConstants@@QAE_NI@Z ; SuperBlockConstants::IsScalarRegisterConstant
	movzx	ecx, al
	test	ecx, ecx
	je	SHORT $LN2@PropagateC@8
	mov	edx, 1
	test	edx, edx
	je	SHORT $LN2@PropagateC@8

; 242  :   {
; 243  :     constants.nuance->fields[FIELD_MUL_HANDLER] = Handler_MULImmediateShiftLeftImmediate;

	mov	eax, DWORD PTR _constants$[ebp]
	mov	ecx, DWORD PTR [eax+4]
	mov	DWORD PTR [ecx], 128			; 00000080H

; 244  :     constants.nuance->fields[FIELD_MUL_SRC1] = constants.GetScalarRegisterConstant(src1Index);

	mov	edx, DWORD PTR _src1Index$[ebp]
	push	edx
	mov	ecx, DWORD PTR _constants$[ebp]
	call	?GetScalarRegisterConstant@SuperBlockConstants@@QAEII@Z ; SuperBlockConstants::GetScalarRegisterConstant
	mov	ecx, DWORD PTR _constants$[ebp]
	mov	edx, DWORD PTR [ecx+4]
	mov	DWORD PTR [edx+8], eax

; 245  :     constants.ClearScalarInputDependency(src1Index);

	mov	eax, DWORD PTR _src1Index$[ebp]
	push	eax
	mov	ecx, DWORD PTR _constants$[ebp]
	call	?ClearScalarInputDependency@SuperBlockConstants@@QAEXI@Z ; SuperBlockConstants::ClearScalarInputDependency

; 246  :     constants.SetScalarInputDependency(src2Index);

	mov	ecx, DWORD PTR _src2Index$[ebp]
	push	ecx
	mov	ecx, DWORD PTR _constants$[ebp]
	call	?SetScalarInputDependency@SuperBlockConstants@@QAEXI@Z ; SuperBlockConstants::SetScalarInputDependency

; 247  :     PropagateConstants_MULImmediateShiftLeftImmediate(constants);

	mov	edx, DWORD PTR _constants$[ebp]
	push	edx
	call	?PropagateConstants_MULImmediateShiftLeftImmediate@@YAXAAVSuperBlockConstants@@@Z ; PropagateConstants_MULImmediateShiftLeftImmediate
	add	esp, 4

; 248  :   }
; 249  :   else

	jmp	SHORT $LN3@PropagateC@8
$LN2@PropagateC@8:

; 250  :   {
; 251  :     constants.ClearScalarRegisterConstant(destIndex);

	mov	eax, DWORD PTR _destIndex$[ebp]
	push	eax
	mov	ecx, DWORD PTR _constants$[ebp]
	call	?ClearScalarRegisterConstant@SuperBlockConstants@@QAEXI@Z ; SuperBlockConstants::ClearScalarRegisterConstant

; 252  :     constants.ClearMiscRegisterConstant(CONSTANT_REG_MV);

	push	19					; 00000013H
	mov	ecx, DWORD PTR _constants$[ebp]
	call	?ClearMiscRegisterConstant@SuperBlockConstants@@QAEXI@Z ; SuperBlockConstants::ClearMiscRegisterConstant

; 253  :     constants.status.status = PROPAGATE_CONSTANTS_STATUS_MUL_OK;

	mov	ecx, DWORD PTR _constants$[ebp]
	mov	DWORD PTR [ecx+12], 3
$LN3@PropagateC@8:

; 254  :   }
; 255  : }

	add	esp, 12					; 0000000cH
	cmp	ebp, esp
	call	__RTC_CheckEsp
	mov	esp, ebp
	pop	ebp
	ret	0
?PropagateConstants_MULScalarShiftLeftImmediate@@YAXAAVSuperBlockConstants@@@Z ENDP ; PropagateConstants_MULScalarShiftLeftImmediate
_TEXT	ENDS
PUBLIC	?ClearMiscInputDependency@SuperBlockConstants@@QAEXI@Z ; SuperBlockConstants::ClearMiscInputDependency
PUBLIC	?GetMiscRegisterConstant@SuperBlockConstants@@QAEII@Z ; SuperBlockConstants::GetMiscRegisterConstant
PUBLIC	?IsMiscRegisterConstant@SuperBlockConstants@@QAE_NI@Z ; SuperBlockConstants::IsMiscRegisterConstant
PUBLIC	?PropagateConstants_MULImmediateShiftAcshift@@YAXAAVSuperBlockConstants@@@Z ; PropagateConstants_MULImmediateShiftAcshift
; Function compile flags: /Odtp /RTCsu
_TEXT	SEGMENT
_destIndex$ = -8					; size = 4
_shiftVal$ = -4						; size = 4
_constants$ = 8						; size = 4
?PropagateConstants_MULImmediateShiftAcshift@@YAXAAVSuperBlockConstants@@@Z PROC ; PropagateConstants_MULImmediateShiftAcshift

; 257  : {

	push	ebp
	mov	ebp, esp
	sub	esp, 8
	mov	DWORD PTR [ebp-8], -858993460		; ccccccccH
	mov	DWORD PTR [ebp-4], -858993460		; ccccccccH

; 258  :   uint32 shiftVal;
; 259  :   uint32 destIndex = constants.nuance->fields[FIELD_MUL_DEST];

	mov	eax, DWORD PTR _constants$[ebp]
	mov	ecx, DWORD PTR [eax+4]
	mov	edx, DWORD PTR [ecx+16]
	mov	DWORD PTR _destIndex$[ebp], edx

; 260  : 
; 261  :   if(constants.IsMiscRegisterConstant(CONSTANT_REG_ACSHIFT) && ALLOW_MUL_PROPAGATION)

	push	13					; 0000000dH
	mov	ecx, DWORD PTR _constants$[ebp]
	call	?IsMiscRegisterConstant@SuperBlockConstants@@QAE_NI@Z ; SuperBlockConstants::IsMiscRegisterConstant
	movzx	eax, al
	test	eax, eax
	je	$LN4@PropagateC@9
	mov	ecx, 1
	test	ecx, ecx
	je	$LN4@PropagateC@9

; 262  :   {
; 263  :     shiftVal = constants.GetMiscRegisterConstant(CONSTANT_REG_ACSHIFT) & 0x7FUL;

	push	13					; 0000000dH
	mov	ecx, DWORD PTR _constants$[ebp]
	call	?GetMiscRegisterConstant@SuperBlockConstants@@QAEII@Z ; SuperBlockConstants::GetMiscRegisterConstant
	and	eax, 127				; 0000007fH
	mov	DWORD PTR _shiftVal$[ebp], eax

; 264  :     if(shiftVal & 0x40)

	mov	edx, DWORD PTR _shiftVal$[ebp]
	and	edx, 64					; 00000040H
	je	SHORT $LN3@PropagateC@9

; 265  :     {
; 266  :       shiftVal = 128 - shiftVal;

	mov	eax, 128				; 00000080H
	sub	eax, DWORD PTR _shiftVal$[ebp]
	mov	DWORD PTR _shiftVal$[ebp], eax

; 267  :       constants.nuance->fields[FIELD_MUL_HANDLER] = Handler_MULImmediateShiftLeftImmediate;

	mov	ecx, DWORD PTR _constants$[ebp]
	mov	edx, DWORD PTR [ecx+4]
	mov	DWORD PTR [edx], 128			; 00000080H

; 268  :       constants.nuance->fields[FIELD_MUL_INFO] = shiftVal;

	mov	eax, DWORD PTR _constants$[ebp]
	mov	ecx, DWORD PTR [eax+4]
	mov	edx, DWORD PTR _shiftVal$[ebp]
	mov	DWORD PTR [ecx+4], edx

; 269  :       constants.ClearMiscInputDependency(CONSTANT_REG_ACSHIFT);

	push	13					; 0000000dH
	mov	ecx, DWORD PTR _constants$[ebp]
	call	?ClearMiscInputDependency@SuperBlockConstants@@QAEXI@Z ; SuperBlockConstants::ClearMiscInputDependency

; 270  :       PropagateConstants_MULImmediateShiftLeftImmediate(constants);

	mov	eax, DWORD PTR _constants$[ebp]
	push	eax
	call	?PropagateConstants_MULImmediateShiftLeftImmediate@@YAXAAVSuperBlockConstants@@@Z ; PropagateConstants_MULImmediateShiftLeftImmediate
	add	esp, 4

; 271  :     }
; 272  :     else

	jmp	SHORT $LN2@PropagateC@9
$LN3@PropagateC@9:

; 273  :     {
; 274  :       constants.nuance->fields[FIELD_MUL_HANDLER] = Handler_MULImmediateShiftRightImmediate;

	mov	ecx, DWORD PTR _constants$[ebp]
	mov	edx, DWORD PTR [ecx+4]
	mov	DWORD PTR [edx], 127			; 0000007fH

; 275  :       constants.nuance->fields[FIELD_MUL_INFO] = shiftVal;

	mov	eax, DWORD PTR _constants$[ebp]
	mov	ecx, DWORD PTR [eax+4]
	mov	edx, DWORD PTR _shiftVal$[ebp]
	mov	DWORD PTR [ecx+4], edx

; 276  :       constants.ClearMiscInputDependency(CONSTANT_REG_ACSHIFT);

	push	13					; 0000000dH
	mov	ecx, DWORD PTR _constants$[ebp]
	call	?ClearMiscInputDependency@SuperBlockConstants@@QAEXI@Z ; SuperBlockConstants::ClearMiscInputDependency

; 277  :       PropagateConstants_MULImmediateShiftRightImmediate(constants);

	mov	eax, DWORD PTR _constants$[ebp]
	push	eax
	call	?PropagateConstants_MULImmediateShiftRightImmediate@@YAXAAVSuperBlockConstants@@@Z ; PropagateConstants_MULImmediateShiftRightImmediate
	add	esp, 4
$LN2@PropagateC@9:

; 278  :     }
; 279  :   }
; 280  :   else

	jmp	SHORT $LN5@PropagateC@9
$LN4@PropagateC@9:

; 281  :   {
; 282  :     constants.ClearScalarRegisterConstant(destIndex);

	mov	ecx, DWORD PTR _destIndex$[ebp]
	push	ecx
	mov	ecx, DWORD PTR _constants$[ebp]
	call	?ClearScalarRegisterConstant@SuperBlockConstants@@QAEXI@Z ; SuperBlockConstants::ClearScalarRegisterConstant

; 283  :     constants.ClearMiscRegisterConstant(CONSTANT_REG_MV);

	push	19					; 00000013H
	mov	ecx, DWORD PTR _constants$[ebp]
	call	?ClearMiscRegisterConstant@SuperBlockConstants@@QAEXI@Z ; SuperBlockConstants::ClearMiscRegisterConstant

; 284  :     constants.status.status = PROPAGATE_CONSTANTS_STATUS_MUL_OK;

	mov	edx, DWORD PTR _constants$[ebp]
	mov	DWORD PTR [edx+12], 3
$LN5@PropagateC@9:

; 285  :   }
; 286  : }

	add	esp, 8
	cmp	ebp, esp
	call	__RTC_CheckEsp
	mov	esp, ebp
	pop	ebp
	ret	0
?PropagateConstants_MULImmediateShiftAcshift@@YAXAAVSuperBlockConstants@@@Z ENDP ; PropagateConstants_MULImmediateShiftAcshift
; Function compile flags: /Odtp /RTCsu
; File c:\nuanceexperimental\superblockconstants.h
_TEXT	ENDS
;	COMDAT ?ClearMiscInputDependency@SuperBlockConstants@@QAEXI@Z
_TEXT	SEGMENT
_this$ = -4						; size = 4
_index$ = 8						; size = 4
?ClearMiscInputDependency@SuperBlockConstants@@QAEXI@Z PROC ; SuperBlockConstants::ClearMiscInputDependency, COMDAT
; _this$ = ecx

; 117  :   {

	push	ebp
	mov	ebp, esp
	push	ecx
	mov	DWORD PTR [ebp-4], -858993460		; ccccccccH
	mov	DWORD PTR _this$[ebp], ecx

; 118  :     pCurrentInstructionEntry->miscInputDependencies &= ~(1UL << index);

	mov	eax, DWORD PTR _this$[ebp]
	mov	edx, DWORD PTR [eax+8]
	mov	eax, 1
	mov	ecx, DWORD PTR _index$[ebp]
	shl	eax, cl
	not	eax
	and	eax, DWORD PTR [edx+36]
	mov	ecx, DWORD PTR _this$[ebp]
	mov	edx, DWORD PTR [ecx+8]
	mov	DWORD PTR [edx+36], eax

; 119  :   }

	mov	esp, ebp
	pop	ebp
	ret	4
?ClearMiscInputDependency@SuperBlockConstants@@QAEXI@Z ENDP ; SuperBlockConstants::ClearMiscInputDependency
; Function compile flags: /Odtp /RTCsu
_TEXT	ENDS
;	COMDAT ?IsMiscRegisterConstant@SuperBlockConstants@@QAE_NI@Z
_TEXT	SEGMENT
_this$ = -4						; size = 4
_index$ = 8						; size = 4
?IsMiscRegisterConstant@SuperBlockConstants@@QAE_NI@Z PROC ; SuperBlockConstants::IsMiscRegisterConstant, COMDAT
; _this$ = ecx

; 209  :   {

	push	ebp
	mov	ebp, esp
	push	ecx
	mov	DWORD PTR [ebp-4], -858993460		; ccccccccH
	mov	DWORD PTR _this$[ebp], ecx

; 210  :     return (miscRegisterConstantsStatus & (1UL << index)) != 0;

	mov	eax, 1
	mov	ecx, DWORD PTR _index$[ebp]
	shl	eax, cl
	mov	ecx, DWORD PTR _this$[ebp]
	and	eax, DWORD PTR [ecx+560]
	neg	eax
	sbb	eax, eax
	neg	eax

; 211  :   }

	mov	esp, ebp
	pop	ebp
	ret	4
?IsMiscRegisterConstant@SuperBlockConstants@@QAE_NI@Z ENDP ; SuperBlockConstants::IsMiscRegisterConstant
; Function compile flags: /Odtp /RTCsu
_TEXT	ENDS
;	COMDAT ?GetMiscRegisterConstant@SuperBlockConstants@@QAEII@Z
_TEXT	SEGMENT
_this$ = -4						; size = 4
_index$ = 8						; size = 4
?GetMiscRegisterConstant@SuperBlockConstants@@QAEII@Z PROC ; SuperBlockConstants::GetMiscRegisterConstant, COMDAT
; _this$ = ecx

; 217  :   {

	push	ebp
	mov	ebp, esp
	push	ecx
	mov	DWORD PTR [ebp-4], -858993460		; ccccccccH
	mov	DWORD PTR _this$[ebp], ecx

; 218  :     return miscRegisterConstants[index];

	mov	eax, DWORD PTR _index$[ebp]
	mov	ecx, DWORD PTR _this$[ebp]
	mov	eax, DWORD PTR [ecx+eax*4+428]

; 219  :   }

	mov	esp, ebp
	pop	ebp
	ret	4
?GetMiscRegisterConstant@SuperBlockConstants@@QAEII@Z ENDP ; SuperBlockConstants::GetMiscRegisterConstant
_TEXT	ENDS
PUBLIC	?PropagateConstants_MULScalarShiftAcshift@@YAXAAVSuperBlockConstants@@@Z ; PropagateConstants_MULScalarShiftAcshift
; Function compile flags: /Odtp /RTCsu
; File c:\nuanceexperimental\propagateconstants_mul.cpp
_TEXT	SEGMENT
_shiftValue$ = -16					; size = 4
_destIndex$ = -12					; size = 4
_src2Index$ = -8					; size = 4
_src1Index$ = -4					; size = 4
_constants$ = 8						; size = 4
?PropagateConstants_MULScalarShiftAcshift@@YAXAAVSuperBlockConstants@@@Z PROC ; PropagateConstants_MULScalarShiftAcshift

; 288  : {

	push	ebp
	mov	ebp, esp
	sub	esp, 16					; 00000010H
	mov	eax, -858993460				; ccccccccH
	mov	DWORD PTR [ebp-16], eax
	mov	DWORD PTR [ebp-12], eax
	mov	DWORD PTR [ebp-8], eax
	mov	DWORD PTR [ebp-4], eax

; 289  :   uint32 src1Index = constants.nuance->fields[FIELD_MUL_SRC1];

	mov	eax, DWORD PTR _constants$[ebp]
	mov	ecx, DWORD PTR [eax+4]
	mov	edx, DWORD PTR [ecx+8]
	mov	DWORD PTR _src1Index$[ebp], edx

; 290  :   uint32 src2Index = constants.nuance->fields[FIELD_MUL_SRC2];

	mov	eax, DWORD PTR _constants$[ebp]
	mov	ecx, DWORD PTR [eax+4]
	mov	edx, DWORD PTR [ecx+12]
	mov	DWORD PTR _src2Index$[ebp], edx

; 291  :   uint32 destIndex  = constants.nuance->fields[FIELD_MUL_DEST];

	mov	eax, DWORD PTR _constants$[ebp]
	mov	ecx, DWORD PTR [eax+4]
	mov	edx, DWORD PTR [ecx+16]
	mov	DWORD PTR _destIndex$[ebp], edx

; 292  :   int32 shiftValue;
; 293  : 
; 294  :   if(constants.IsMiscRegisterConstant(CONSTANT_REG_ACSHIFT))

	push	13					; 0000000dH
	mov	ecx, DWORD PTR _constants$[ebp]
	call	?IsMiscRegisterConstant@SuperBlockConstants@@QAE_NI@Z ; SuperBlockConstants::IsMiscRegisterConstant
	movzx	eax, al
	test	eax, eax
	je	SHORT $LN8@PropagateC@10

; 295  :   {
; 296  :     shiftValue = constants.GetMiscRegisterConstant(CONSTANT_REG_ACSHIFT);

	push	13					; 0000000dH
	mov	ecx, DWORD PTR _constants$[ebp]
	call	?GetMiscRegisterConstant@SuperBlockConstants@@QAEII@Z ; SuperBlockConstants::GetMiscRegisterConstant
	mov	DWORD PTR _shiftValue$[ebp], eax

; 297  :     constants.ClearMiscInputDependency(CONSTANT_REG_ACSHIFT);

	push	13					; 0000000dH
	mov	ecx, DWORD PTR _constants$[ebp]
	call	?ClearMiscInputDependency@SuperBlockConstants@@QAEXI@Z ; SuperBlockConstants::ClearMiscInputDependency

; 298  : 
; 299  :     if(shiftValue >= 0)

	cmp	DWORD PTR _shiftValue$[ebp], 0
	jl	SHORT $LN7@PropagateC@10

; 300  :     {
; 301  :       constants.nuance->fields[FIELD_MUL_HANDLER] = Handler_MULScalarShiftRightImmediate;

	mov	ecx, DWORD PTR _constants$[ebp]
	mov	edx, DWORD PTR [ecx+4]
	mov	DWORD PTR [edx], 122			; 0000007aH

; 302  :       constants.nuance->fields[FIELD_MUL_INFO] = shiftValue;

	mov	eax, DWORD PTR _constants$[ebp]
	mov	ecx, DWORD PTR [eax+4]
	mov	edx, DWORD PTR _shiftValue$[ebp]
	mov	DWORD PTR [ecx+4], edx

; 303  :       PropagateConstants_MULScalarShiftRightImmediate(constants);

	mov	eax, DWORD PTR _constants$[ebp]
	push	eax
	call	?PropagateConstants_MULScalarShiftRightImmediate@@YAXAAVSuperBlockConstants@@@Z ; PropagateConstants_MULScalarShiftRightImmediate
	add	esp, 4

; 304  :     }
; 305  :     else

	jmp	SHORT $LN6@PropagateC@10
$LN7@PropagateC@10:

; 306  :     {
; 307  :       constants.nuance->fields[FIELD_MUL_HANDLER] = Handler_MULScalarShiftLeftImmediate;

	mov	ecx, DWORD PTR _constants$[ebp]
	mov	edx, DWORD PTR [ecx+4]
	mov	DWORD PTR [edx], 123			; 0000007bH

; 308  :       constants.nuance->fields[FIELD_MUL_INFO] = -shiftValue;

	mov	eax, DWORD PTR _shiftValue$[ebp]
	neg	eax
	mov	ecx, DWORD PTR _constants$[ebp]
	mov	edx, DWORD PTR [ecx+4]
	mov	DWORD PTR [edx+4], eax

; 309  :       PropagateConstants_MULScalarShiftLeftImmediate(constants);

	mov	eax, DWORD PTR _constants$[ebp]
	push	eax
	call	?PropagateConstants_MULScalarShiftLeftImmediate@@YAXAAVSuperBlockConstants@@@Z ; PropagateConstants_MULScalarShiftLeftImmediate
	add	esp, 4
$LN6@PropagateC@10:

; 310  :     }

	jmp	$LN9@PropagateC@10
$LN8@PropagateC@10:

; 311  :   }
; 312  :   else if(constants.IsScalarRegisterConstant(src1Index) && ALLOW_MUL_PROPAGATION)

	mov	ecx, DWORD PTR _src1Index$[ebp]
	push	ecx
	mov	ecx, DWORD PTR _constants$[ebp]
	call	?IsScalarRegisterConstant@SuperBlockConstants@@QAE_NI@Z ; SuperBlockConstants::IsScalarRegisterConstant
	movzx	edx, al
	test	edx, edx
	je	SHORT $LN4@PropagateC@10
	mov	eax, 1
	test	eax, eax
	je	SHORT $LN4@PropagateC@10

; 313  :   {
; 314  :     constants.nuance->fields[FIELD_MUL_HANDLER] = Handler_MULImmediateShiftAcshift;

	mov	ecx, DWORD PTR _constants$[ebp]
	mov	edx, DWORD PTR [ecx+4]
	mov	DWORD PTR [edx], 124			; 0000007cH

; 315  :     constants.nuance->fields[FIELD_MUL_SRC1] = constants.GetScalarRegisterConstant(src1Index);

	mov	eax, DWORD PTR _src1Index$[ebp]
	push	eax
	mov	ecx, DWORD PTR _constants$[ebp]
	call	?GetScalarRegisterConstant@SuperBlockConstants@@QAEII@Z ; SuperBlockConstants::GetScalarRegisterConstant
	mov	ecx, DWORD PTR _constants$[ebp]
	mov	edx, DWORD PTR [ecx+4]
	mov	DWORD PTR [edx+8], eax

; 316  :     constants.ClearScalarInputDependency(src1Index);

	mov	eax, DWORD PTR _src1Index$[ebp]
	push	eax
	mov	ecx, DWORD PTR _constants$[ebp]
	call	?ClearScalarInputDependency@SuperBlockConstants@@QAEXI@Z ; SuperBlockConstants::ClearScalarInputDependency

; 317  :     constants.SetScalarInputDependency(src2Index);

	mov	ecx, DWORD PTR _src2Index$[ebp]
	push	ecx
	mov	ecx, DWORD PTR _constants$[ebp]
	call	?SetScalarInputDependency@SuperBlockConstants@@QAEXI@Z ; SuperBlockConstants::SetScalarInputDependency

; 318  :     PropagateConstants_MULImmediateShiftAcshift(constants);

	mov	edx, DWORD PTR _constants$[ebp]
	push	edx
	call	?PropagateConstants_MULImmediateShiftAcshift@@YAXAAVSuperBlockConstants@@@Z ; PropagateConstants_MULImmediateShiftAcshift
	add	esp, 4
	jmp	$LN9@PropagateC@10
$LN4@PropagateC@10:

; 319  :   }
; 320  :   else if(constants.IsScalarRegisterConstant(src2Index) && ALLOW_MUL_PROPAGATION)

	mov	eax, DWORD PTR _src2Index$[ebp]
	push	eax
	mov	ecx, DWORD PTR _constants$[ebp]
	call	?IsScalarRegisterConstant@SuperBlockConstants@@QAE_NI@Z ; SuperBlockConstants::IsScalarRegisterConstant
	movzx	ecx, al
	test	ecx, ecx
	je	SHORT $LN2@PropagateC@10
	mov	edx, 1
	test	edx, edx
	je	SHORT $LN2@PropagateC@10

; 321  :   {
; 322  :     constants.nuance->fields[FIELD_MUL_HANDLER] = Handler_MULImmediateShiftAcshift;

	mov	eax, DWORD PTR _constants$[ebp]
	mov	ecx, DWORD PTR [eax+4]
	mov	DWORD PTR [ecx], 124			; 0000007cH

; 323  :     constants.nuance->fields[FIELD_MUL_SRC1] = constants.GetScalarRegisterConstant(src2Index);

	mov	edx, DWORD PTR _src2Index$[ebp]
	push	edx
	mov	ecx, DWORD PTR _constants$[ebp]
	call	?GetScalarRegisterConstant@SuperBlockConstants@@QAEII@Z ; SuperBlockConstants::GetScalarRegisterConstant
	mov	ecx, DWORD PTR _constants$[ebp]
	mov	edx, DWORD PTR [ecx+4]
	mov	DWORD PTR [edx+8], eax

; 324  :     constants.nuance->fields[FIELD_MUL_SRC2] = src1Index;

	mov	eax, DWORD PTR _constants$[ebp]
	mov	ecx, DWORD PTR [eax+4]
	mov	edx, DWORD PTR _src1Index$[ebp]
	mov	DWORD PTR [ecx+12], edx

; 325  :     constants.ClearScalarInputDependency(src2Index);

	mov	eax, DWORD PTR _src2Index$[ebp]
	push	eax
	mov	ecx, DWORD PTR _constants$[ebp]
	call	?ClearScalarInputDependency@SuperBlockConstants@@QAEXI@Z ; SuperBlockConstants::ClearScalarInputDependency

; 326  :     constants.SetScalarInputDependency(src1Index);

	mov	ecx, DWORD PTR _src1Index$[ebp]
	push	ecx
	mov	ecx, DWORD PTR _constants$[ebp]
	call	?SetScalarInputDependency@SuperBlockConstants@@QAEXI@Z ; SuperBlockConstants::SetScalarInputDependency

; 327  :     PropagateConstants_MULImmediateShiftAcshift(constants);

	mov	edx, DWORD PTR _constants$[ebp]
	push	edx
	call	?PropagateConstants_MULImmediateShiftAcshift@@YAXAAVSuperBlockConstants@@@Z ; PropagateConstants_MULImmediateShiftAcshift
	add	esp, 4

; 328  :   }
; 329  :   else

	jmp	SHORT $LN9@PropagateC@10
$LN2@PropagateC@10:

; 330  :   {
; 331  :     constants.ClearScalarRegisterConstant(destIndex);

	mov	eax, DWORD PTR _destIndex$[ebp]
	push	eax
	mov	ecx, DWORD PTR _constants$[ebp]
	call	?ClearScalarRegisterConstant@SuperBlockConstants@@QAEXI@Z ; SuperBlockConstants::ClearScalarRegisterConstant

; 332  :     constants.ClearMiscRegisterConstant(CONSTANT_REG_MV);

	push	19					; 00000013H
	mov	ecx, DWORD PTR _constants$[ebp]
	call	?ClearMiscRegisterConstant@SuperBlockConstants@@QAEXI@Z ; SuperBlockConstants::ClearMiscRegisterConstant

; 333  :     constants.status.status = PROPAGATE_CONSTANTS_STATUS_MUL_OK;

	mov	ecx, DWORD PTR _constants$[ebp]
	mov	DWORD PTR [ecx+12], 3
$LN9@PropagateC@10:

; 334  :   }
; 335  : }

	add	esp, 16					; 00000010H
	cmp	ebp, esp
	call	__RTC_CheckEsp
	mov	esp, ebp
	pop	ebp
	ret	0
?PropagateConstants_MULScalarShiftAcshift@@YAXAAVSuperBlockConstants@@@Z ENDP ; PropagateConstants_MULScalarShiftAcshift
_TEXT	ENDS
PUBLIC	?PropagateConstants_MULImmediateShiftScalar@@YAXAAVSuperBlockConstants@@@Z ; PropagateConstants_MULImmediateShiftScalar
; Function compile flags: /Odtp /RTCsu
_TEXT	SEGMENT
_shiftVal$ = -16					; size = 4
_destIndex$ = -12					; size = 4
_shiftIndex$ = -8					; size = 4
_src2Index$ = -4					; size = 4
_constants$ = 8						; size = 4
?PropagateConstants_MULImmediateShiftScalar@@YAXAAVSuperBlockConstants@@@Z PROC ; PropagateConstants_MULImmediateShiftScalar

; 337  : {

	push	ebp
	mov	ebp, esp
	sub	esp, 16					; 00000010H
	mov	eax, -858993460				; ccccccccH
	mov	DWORD PTR [ebp-16], eax
	mov	DWORD PTR [ebp-12], eax
	mov	DWORD PTR [ebp-8], eax
	mov	DWORD PTR [ebp-4], eax

; 338  :   uint32 src2Index = constants.nuance->fields[FIELD_MUL_SRC2];

	mov	eax, DWORD PTR _constants$[ebp]
	mov	ecx, DWORD PTR [eax+4]
	mov	edx, DWORD PTR [ecx+12]
	mov	DWORD PTR _src2Index$[ebp], edx

; 339  :   uint32 shiftIndex  = constants.nuance->fields[FIELD_MUL_INFO];

	mov	eax, DWORD PTR _constants$[ebp]
	mov	ecx, DWORD PTR [eax+4]
	mov	edx, DWORD PTR [ecx+4]
	mov	DWORD PTR _shiftIndex$[ebp], edx

; 340  :   uint32 destIndex  = constants.nuance->fields[FIELD_MUL_DEST];

	mov	eax, DWORD PTR _constants$[ebp]
	mov	ecx, DWORD PTR [eax+4]
	mov	edx, DWORD PTR [ecx+16]
	mov	DWORD PTR _destIndex$[ebp], edx

; 341  :   uint32 shiftVal;
; 342  : 
; 343  :   if(constants.IsScalarRegisterConstant(shiftIndex) && ALLOW_MUL_PROPAGATION)

	mov	eax, DWORD PTR _shiftIndex$[ebp]
	push	eax
	mov	ecx, DWORD PTR _constants$[ebp]
	call	?IsScalarRegisterConstant@SuperBlockConstants@@QAE_NI@Z ; SuperBlockConstants::IsScalarRegisterConstant
	movzx	ecx, al
	test	ecx, ecx
	je	$LN4@PropagateC@11
	mov	edx, 1
	test	edx, edx
	je	$LN4@PropagateC@11

; 344  :   {
; 345  :     shiftVal = constants.GetScalarRegisterConstant(shiftIndex) & 0x7FUL;

	mov	eax, DWORD PTR _shiftIndex$[ebp]
	push	eax
	mov	ecx, DWORD PTR _constants$[ebp]
	call	?GetScalarRegisterConstant@SuperBlockConstants@@QAEII@Z ; SuperBlockConstants::GetScalarRegisterConstant
	and	eax, 127				; 0000007fH
	mov	DWORD PTR _shiftVal$[ebp], eax

; 346  :     if(shiftVal & 0x40)

	mov	ecx, DWORD PTR _shiftVal$[ebp]
	and	ecx, 64					; 00000040H
	je	SHORT $LN3@PropagateC@11

; 347  :     {
; 348  :       shiftVal = 128 - shiftVal;

	mov	edx, 128				; 00000080H
	sub	edx, DWORD PTR _shiftVal$[ebp]
	mov	DWORD PTR _shiftVal$[ebp], edx

; 349  :       constants.nuance->fields[FIELD_MUL_HANDLER] = Handler_MULImmediateShiftLeftImmediate;

	mov	eax, DWORD PTR _constants$[ebp]
	mov	ecx, DWORD PTR [eax+4]
	mov	DWORD PTR [ecx], 128			; 00000080H

; 350  :       constants.nuance->fields[FIELD_MUL_INFO] = shiftVal;

	mov	edx, DWORD PTR _constants$[ebp]
	mov	eax, DWORD PTR [edx+4]
	mov	ecx, DWORD PTR _shiftVal$[ebp]
	mov	DWORD PTR [eax+4], ecx

; 351  :       constants.ClearScalarInputDependency(shiftIndex);

	mov	edx, DWORD PTR _shiftIndex$[ebp]
	push	edx
	mov	ecx, DWORD PTR _constants$[ebp]
	call	?ClearScalarInputDependency@SuperBlockConstants@@QAEXI@Z ; SuperBlockConstants::ClearScalarInputDependency

; 352  :       constants.SetScalarInputDependency(src2Index);

	mov	eax, DWORD PTR _src2Index$[ebp]
	push	eax
	mov	ecx, DWORD PTR _constants$[ebp]
	call	?SetScalarInputDependency@SuperBlockConstants@@QAEXI@Z ; SuperBlockConstants::SetScalarInputDependency

; 353  :       PropagateConstants_MULImmediateShiftLeftImmediate(constants);

	mov	ecx, DWORD PTR _constants$[ebp]
	push	ecx
	call	?PropagateConstants_MULImmediateShiftLeftImmediate@@YAXAAVSuperBlockConstants@@@Z ; PropagateConstants_MULImmediateShiftLeftImmediate
	add	esp, 4

; 354  :     }
; 355  :     else

	jmp	SHORT $LN2@PropagateC@11
$LN3@PropagateC@11:

; 356  :     {
; 357  :       constants.nuance->fields[FIELD_MUL_HANDLER] = Handler_MULImmediateShiftRightImmediate;

	mov	edx, DWORD PTR _constants$[ebp]
	mov	eax, DWORD PTR [edx+4]
	mov	DWORD PTR [eax], 127			; 0000007fH

; 358  :       constants.nuance->fields[FIELD_MUL_INFO] = shiftVal;

	mov	ecx, DWORD PTR _constants$[ebp]
	mov	edx, DWORD PTR [ecx+4]
	mov	eax, DWORD PTR _shiftVal$[ebp]
	mov	DWORD PTR [edx+4], eax

; 359  :       constants.ClearScalarInputDependency(shiftIndex);

	mov	ecx, DWORD PTR _shiftIndex$[ebp]
	push	ecx
	mov	ecx, DWORD PTR _constants$[ebp]
	call	?ClearScalarInputDependency@SuperBlockConstants@@QAEXI@Z ; SuperBlockConstants::ClearScalarInputDependency

; 360  :       constants.SetScalarInputDependency(src2Index);

	mov	edx, DWORD PTR _src2Index$[ebp]
	push	edx
	mov	ecx, DWORD PTR _constants$[ebp]
	call	?SetScalarInputDependency@SuperBlockConstants@@QAEXI@Z ; SuperBlockConstants::SetScalarInputDependency

; 361  :       PropagateConstants_MULImmediateShiftRightImmediate(constants);

	mov	eax, DWORD PTR _constants$[ebp]
	push	eax
	call	?PropagateConstants_MULImmediateShiftRightImmediate@@YAXAAVSuperBlockConstants@@@Z ; PropagateConstants_MULImmediateShiftRightImmediate
	add	esp, 4
$LN2@PropagateC@11:

; 362  :     }
; 363  :   }
; 364  :   else

	jmp	SHORT $LN5@PropagateC@11
$LN4@PropagateC@11:

; 365  :   {
; 366  :     constants.ClearScalarRegisterConstant(destIndex);

	mov	ecx, DWORD PTR _destIndex$[ebp]
	push	ecx
	mov	ecx, DWORD PTR _constants$[ebp]
	call	?ClearScalarRegisterConstant@SuperBlockConstants@@QAEXI@Z ; SuperBlockConstants::ClearScalarRegisterConstant

; 367  :     constants.ClearMiscRegisterConstant(CONSTANT_REG_MV);

	push	19					; 00000013H
	mov	ecx, DWORD PTR _constants$[ebp]
	call	?ClearMiscRegisterConstant@SuperBlockConstants@@QAEXI@Z ; SuperBlockConstants::ClearMiscRegisterConstant

; 368  :     constants.status.status = PROPAGATE_CONSTANTS_STATUS_MUL_OK;

	mov	edx, DWORD PTR _constants$[ebp]
	mov	DWORD PTR [edx+12], 3
$LN5@PropagateC@11:

; 369  :   }
; 370  : }

	add	esp, 16					; 00000010H
	cmp	ebp, esp
	call	__RTC_CheckEsp
	mov	esp, ebp
	pop	ebp
	ret	0
?PropagateConstants_MULImmediateShiftScalar@@YAXAAVSuperBlockConstants@@@Z ENDP ; PropagateConstants_MULImmediateShiftScalar
_TEXT	ENDS
PUBLIC	?PropagateConstants_MULScalarShiftScalar@@YAXAAVSuperBlockConstants@@@Z ; PropagateConstants_MULScalarShiftScalar
; Function compile flags: /Odtp /RTCsu
_TEXT	SEGMENT
_destIndex$ = -12					; size = 4
_src2Index$ = -8					; size = 4
_src1Index$ = -4					; size = 4
_constants$ = 8						; size = 4
?PropagateConstants_MULScalarShiftScalar@@YAXAAVSuperBlockConstants@@@Z PROC ; PropagateConstants_MULScalarShiftScalar

; 372  : {

	push	ebp
	mov	ebp, esp
	sub	esp, 12					; 0000000cH
	mov	DWORD PTR [ebp-12], -858993460		; ccccccccH
	mov	DWORD PTR [ebp-8], -858993460		; ccccccccH
	mov	DWORD PTR [ebp-4], -858993460		; ccccccccH

; 373  :   uint32 src1Index  = constants.nuance->fields[FIELD_MUL_SRC1];

	mov	eax, DWORD PTR _constants$[ebp]
	mov	ecx, DWORD PTR [eax+4]
	mov	edx, DWORD PTR [ecx+8]
	mov	DWORD PTR _src1Index$[ebp], edx

; 374  :   uint32 src2Index  = constants.nuance->fields[FIELD_MUL_SRC2];

	mov	eax, DWORD PTR _constants$[ebp]
	mov	ecx, DWORD PTR [eax+4]
	mov	edx, DWORD PTR [ecx+12]
	mov	DWORD PTR _src2Index$[ebp], edx

; 375  :   uint32 destIndex  = constants.nuance->fields[FIELD_MUL_DEST];

	mov	eax, DWORD PTR _constants$[ebp]
	mov	ecx, DWORD PTR [eax+4]
	mov	edx, DWORD PTR [ecx+16]
	mov	DWORD PTR _destIndex$[ebp], edx

; 376  : 
; 377  :   if(constants.IsScalarRegisterConstant(src1Index) && ALLOW_MUL_PROPAGATION)

	mov	eax, DWORD PTR _src1Index$[ebp]
	push	eax
	mov	ecx, DWORD PTR _constants$[ebp]
	call	?IsScalarRegisterConstant@SuperBlockConstants@@QAE_NI@Z ; SuperBlockConstants::IsScalarRegisterConstant
	movzx	ecx, al
	test	ecx, ecx
	je	SHORT $LN2@PropagateC@12
	mov	edx, 1
	test	edx, edx
	je	SHORT $LN2@PropagateC@12

; 378  :   {
; 379  :     constants.nuance->fields[FIELD_MUL_HANDLER] = Handler_MULImmediateShiftScalar;

	mov	eax, DWORD PTR _constants$[ebp]
	mov	ecx, DWORD PTR [eax+4]
	mov	DWORD PTR [ecx], 126			; 0000007eH

; 380  :     constants.nuance->fields[FIELD_MUL_SRC1] = constants.GetScalarRegisterConstant(src1Index);

	mov	edx, DWORD PTR _src1Index$[ebp]
	push	edx
	mov	ecx, DWORD PTR _constants$[ebp]
	call	?GetScalarRegisterConstant@SuperBlockConstants@@QAEII@Z ; SuperBlockConstants::GetScalarRegisterConstant
	mov	ecx, DWORD PTR _constants$[ebp]
	mov	edx, DWORD PTR [ecx+4]
	mov	DWORD PTR [edx+8], eax

; 381  :     constants.ClearScalarInputDependency(src1Index);

	mov	eax, DWORD PTR _src1Index$[ebp]
	push	eax
	mov	ecx, DWORD PTR _constants$[ebp]
	call	?ClearScalarInputDependency@SuperBlockConstants@@QAEXI@Z ; SuperBlockConstants::ClearScalarInputDependency

; 382  :     constants.SetScalarInputDependency(src2Index);

	mov	ecx, DWORD PTR _src2Index$[ebp]
	push	ecx
	mov	ecx, DWORD PTR _constants$[ebp]
	call	?SetScalarInputDependency@SuperBlockConstants@@QAEXI@Z ; SuperBlockConstants::SetScalarInputDependency

; 383  :     PropagateConstants_MULImmediateShiftScalar(constants);

	mov	edx, DWORD PTR _constants$[ebp]
	push	edx
	call	?PropagateConstants_MULImmediateShiftScalar@@YAXAAVSuperBlockConstants@@@Z ; PropagateConstants_MULImmediateShiftScalar
	add	esp, 4

; 384  :   }
; 385  :   else

	jmp	SHORT $LN3@PropagateC@12
$LN2@PropagateC@12:

; 386  :   {
; 387  :     constants.ClearScalarRegisterConstant(destIndex);

	mov	eax, DWORD PTR _destIndex$[ebp]
	push	eax
	mov	ecx, DWORD PTR _constants$[ebp]
	call	?ClearScalarRegisterConstant@SuperBlockConstants@@QAEXI@Z ; SuperBlockConstants::ClearScalarRegisterConstant

; 388  :     constants.ClearMiscRegisterConstant(CONSTANT_REG_MV);

	push	19					; 00000013H
	mov	ecx, DWORD PTR _constants$[ebp]
	call	?ClearMiscRegisterConstant@SuperBlockConstants@@QAEXI@Z ; SuperBlockConstants::ClearMiscRegisterConstant

; 389  :     constants.status.status = PROPAGATE_CONSTANTS_STATUS_MUL_OK;

	mov	ecx, DWORD PTR _constants$[ebp]
	mov	DWORD PTR [ecx+12], 3
$LN3@PropagateC@12:

; 390  :   }
; 391  : }

	add	esp, 12					; 0000000cH
	cmp	ebp, esp
	call	__RTC_CheckEsp
	mov	esp, ebp
	pop	ebp
	ret	0
?PropagateConstants_MULScalarShiftScalar@@YAXAAVSuperBlockConstants@@@Z ENDP ; PropagateConstants_MULScalarShiftScalar
_TEXT	ENDS
PUBLIC	?ClearVectorRegisterConstant@SuperBlockConstants@@QAEXI@Z ; SuperBlockConstants::ClearVectorRegisterConstant
PUBLIC	?PropagateConstants_MUL_SVImmediateShiftImmediate@@YAXAAVSuperBlockConstants@@@Z ; PropagateConstants_MUL_SVImmediateShiftImmediate
; Function compile flags: /Odtp /RTCsu
_TEXT	SEGMENT
_destIndex$ = -4					; size = 4
_constants$ = 8						; size = 4
?PropagateConstants_MUL_SVImmediateShiftImmediate@@YAXAAVSuperBlockConstants@@@Z PROC ; PropagateConstants_MUL_SVImmediateShiftImmediate

; 394  : {

	push	ebp
	mov	ebp, esp
	push	ecx
	mov	DWORD PTR [ebp-4], -858993460		; ccccccccH

; 395  :   uint32 destIndex = constants.nuance->fields[FIELD_MUL_DEST];

	mov	eax, DWORD PTR _constants$[ebp]
	mov	ecx, DWORD PTR [eax+4]
	mov	edx, DWORD PTR [ecx+16]
	mov	DWORD PTR _destIndex$[ebp], edx

; 396  :   constants.ClearVectorRegisterConstant(destIndex);

	mov	eax, DWORD PTR _destIndex$[ebp]
	push	eax
	mov	ecx, DWORD PTR _constants$[ebp]
	call	?ClearVectorRegisterConstant@SuperBlockConstants@@QAEXI@Z ; SuperBlockConstants::ClearVectorRegisterConstant

; 397  :   constants.status.status = PROPAGATE_CONSTANTS_STATUS_MUL_OK;

	mov	ecx, DWORD PTR _constants$[ebp]
	mov	DWORD PTR [ecx+12], 3

; 398  : }

	add	esp, 4
	cmp	ebp, esp
	call	__RTC_CheckEsp
	mov	esp, ebp
	pop	ebp
	ret	0
?PropagateConstants_MUL_SVImmediateShiftImmediate@@YAXAAVSuperBlockConstants@@@Z ENDP ; PropagateConstants_MUL_SVImmediateShiftImmediate
; Function compile flags: /Odtp /RTCsu
; File c:\nuanceexperimental\superblockconstants.h
_TEXT	ENDS
;	COMDAT ?ClearVectorRegisterConstant@SuperBlockConstants@@QAEXI@Z
_TEXT	SEGMENT
_this$ = -4						; size = 4
_index$ = 8						; size = 4
?ClearVectorRegisterConstant@SuperBlockConstants@@QAEXI@Z PROC ; SuperBlockConstants::ClearVectorRegisterConstant, COMDAT
; _this$ = ecx

; 153  :   {

	push	ebp
	mov	ebp, esp
	push	ecx
	mov	DWORD PTR [ebp-4], -858993460		; ccccccccH
	mov	DWORD PTR _this$[ebp], ecx

; 154  :     tempScalarRegisterConstantsStatus &= ~(0xFUL << index);

	mov	eax, 15					; 0000000fH
	mov	ecx, DWORD PTR _index$[ebp]
	shl	eax, cl
	not	eax
	mov	ecx, DWORD PTR _this$[ebp]
	and	eax, DWORD PTR [ecx+564]
	mov	edx, DWORD PTR _this$[ebp]
	mov	DWORD PTR [edx+564], eax

; 155  :   }

	mov	esp, ebp
	pop	ebp
	ret	4
?ClearVectorRegisterConstant@SuperBlockConstants@@QAEXI@Z ENDP ; SuperBlockConstants::ClearVectorRegisterConstant
_TEXT	ENDS
PUBLIC	?SetShortVectorInputDependency@SuperBlockConstants@@QAEXI@Z ; SuperBlockConstants::SetShortVectorInputDependency
PUBLIC	?PropagateConstants_MUL_SVScalarShiftImmediate@@YAXAAVSuperBlockConstants@@@Z ; PropagateConstants_MUL_SVScalarShiftImmediate
; Function compile flags: /Odtp /RTCsu
; File c:\nuanceexperimental\propagateconstants_mul.cpp
_TEXT	SEGMENT
_destIndex$ = -12					; size = 4
_src2Index$ = -8					; size = 4
_src1Index$ = -4					; size = 4
_constants$ = 8						; size = 4
?PropagateConstants_MUL_SVScalarShiftImmediate@@YAXAAVSuperBlockConstants@@@Z PROC ; PropagateConstants_MUL_SVScalarShiftImmediate

; 401  : {

	push	ebp
	mov	ebp, esp
	sub	esp, 12					; 0000000cH
	mov	DWORD PTR [ebp-12], -858993460		; ccccccccH
	mov	DWORD PTR [ebp-8], -858993460		; ccccccccH
	mov	DWORD PTR [ebp-4], -858993460		; ccccccccH

; 402  :   uint32 src1Index = constants.nuance->fields[FIELD_MUL_SRC1];

	mov	eax, DWORD PTR _constants$[ebp]
	mov	ecx, DWORD PTR [eax+4]
	mov	edx, DWORD PTR [ecx+8]
	mov	DWORD PTR _src1Index$[ebp], edx

; 403  :   uint32 src2Index = constants.nuance->fields[FIELD_MUL_SRC2];

	mov	eax, DWORD PTR _constants$[ebp]
	mov	ecx, DWORD PTR [eax+4]
	mov	edx, DWORD PTR [ecx+12]
	mov	DWORD PTR _src2Index$[ebp], edx

; 404  :   uint32 destIndex = constants.nuance->fields[FIELD_MUL_DEST];

	mov	eax, DWORD PTR _constants$[ebp]
	mov	ecx, DWORD PTR [eax+4]
	mov	edx, DWORD PTR [ecx+16]
	mov	DWORD PTR _destIndex$[ebp], edx

; 405  : 
; 406  :   if(constants.IsScalarRegisterConstant(src1Index) && ALLOW_MUL_PROPAGATION)

	mov	eax, DWORD PTR _src1Index$[ebp]
	push	eax
	mov	ecx, DWORD PTR _constants$[ebp]
	call	?IsScalarRegisterConstant@SuperBlockConstants@@QAE_NI@Z ; SuperBlockConstants::IsScalarRegisterConstant
	movzx	ecx, al
	test	ecx, ecx
	je	SHORT $LN2@PropagateC@13
	mov	edx, 1
	test	edx, edx
	je	SHORT $LN2@PropagateC@13

; 407  :   {
; 408  :     constants.nuance->fields[FIELD_MUL_HANDLER] = Handler_MUL_SVImmediateShiftImmediate;

	mov	eax, DWORD PTR _constants$[ebp]
	mov	ecx, DWORD PTR [eax+4]
	mov	DWORD PTR [ecx], 129			; 00000081H

; 409  :     constants.nuance->fields[FIELD_MUL_SRC1] = constants.GetScalarRegisterConstant(src1Index);

	mov	edx, DWORD PTR _src1Index$[ebp]
	push	edx
	mov	ecx, DWORD PTR _constants$[ebp]
	call	?GetScalarRegisterConstant@SuperBlockConstants@@QAEII@Z ; SuperBlockConstants::GetScalarRegisterConstant
	mov	ecx, DWORD PTR _constants$[ebp]
	mov	edx, DWORD PTR [ecx+4]
	mov	DWORD PTR [edx+8], eax

; 410  :     constants.ClearScalarInputDependency(src1Index);

	mov	eax, DWORD PTR _src1Index$[ebp]
	push	eax
	mov	ecx, DWORD PTR _constants$[ebp]
	call	?ClearScalarInputDependency@SuperBlockConstants@@QAEXI@Z ; SuperBlockConstants::ClearScalarInputDependency

; 411  :     constants.SetShortVectorInputDependency(src2Index);

	mov	ecx, DWORD PTR _src2Index$[ebp]
	push	ecx
	mov	ecx, DWORD PTR _constants$[ebp]
	call	?SetShortVectorInputDependency@SuperBlockConstants@@QAEXI@Z ; SuperBlockConstants::SetShortVectorInputDependency

; 412  :     PropagateConstants_MUL_SVImmediateShiftImmediate(constants);

	mov	edx, DWORD PTR _constants$[ebp]
	push	edx
	call	?PropagateConstants_MUL_SVImmediateShiftImmediate@@YAXAAVSuperBlockConstants@@@Z ; PropagateConstants_MUL_SVImmediateShiftImmediate
	add	esp, 4

; 413  :   }
; 414  :   else

	jmp	SHORT $LN3@PropagateC@13
$LN2@PropagateC@13:

; 415  :   {
; 416  :     constants.ClearVectorRegisterConstant(destIndex);

	mov	eax, DWORD PTR _destIndex$[ebp]
	push	eax
	mov	ecx, DWORD PTR _constants$[ebp]
	call	?ClearVectorRegisterConstant@SuperBlockConstants@@QAEXI@Z ; SuperBlockConstants::ClearVectorRegisterConstant

; 417  :     constants.status.status = PROPAGATE_CONSTANTS_STATUS_MUL_OK;

	mov	ecx, DWORD PTR _constants$[ebp]
	mov	DWORD PTR [ecx+12], 3
$LN3@PropagateC@13:

; 418  :   }
; 419  : }

	add	esp, 12					; 0000000cH
	cmp	ebp, esp
	call	__RTC_CheckEsp
	mov	esp, ebp
	pop	ebp
	ret	0
?PropagateConstants_MUL_SVScalarShiftImmediate@@YAXAAVSuperBlockConstants@@@Z ENDP ; PropagateConstants_MUL_SVScalarShiftImmediate
; Function compile flags: /Odtp /RTCsu
; File c:\nuanceexperimental\superblockconstants.h
_TEXT	ENDS
;	COMDAT ?SetShortVectorInputDependency@SuperBlockConstants@@QAEXI@Z
_TEXT	SEGMENT
_this$ = -4						; size = 4
_index$ = 8						; size = 4
?SetShortVectorInputDependency@SuperBlockConstants@@QAEXI@Z PROC ; SuperBlockConstants::SetShortVectorInputDependency, COMDAT
; _this$ = ecx

; 129  :   {

	push	ebp
	mov	ebp, esp
	push	ecx
	mov	DWORD PTR [ebp-4], -858993460		; ccccccccH
	mov	DWORD PTR _this$[ebp], ecx

; 130  :     pCurrentInstructionEntry->scalarInputDependencies |= (0xFUL << index);

	mov	eax, DWORD PTR _this$[ebp]
	mov	edx, DWORD PTR [eax+8]
	mov	eax, 15					; 0000000fH
	mov	ecx, DWORD PTR _index$[ebp]
	shl	eax, cl
	or	eax, DWORD PTR [edx+32]
	mov	ecx, DWORD PTR _this$[ebp]
	mov	edx, DWORD PTR [ecx+8]
	mov	DWORD PTR [edx+32], eax

; 131  :   }

	mov	esp, ebp
	pop	ebp
	ret	4
?SetShortVectorInputDependency@SuperBlockConstants@@QAEXI@Z ENDP ; SuperBlockConstants::SetShortVectorInputDependency
_TEXT	ENDS
PUBLIC	?PropagateConstants_MUL_SVScalarShiftSvshift@@YAXAAVSuperBlockConstants@@@Z ; PropagateConstants_MUL_SVScalarShiftSvshift
; Function compile flags: /Odtp /RTCsu
; File c:\nuanceexperimental\propagateconstants_mul.cpp
_TEXT	SEGMENT
_destIndex$ = -8					; size = 4
_src2Index$ = -4					; size = 4
_constants$ = 8						; size = 4
?PropagateConstants_MUL_SVScalarShiftSvshift@@YAXAAVSuperBlockConstants@@@Z PROC ; PropagateConstants_MUL_SVScalarShiftSvshift

; 421  : {

	push	ebp
	mov	ebp, esp
	sub	esp, 8
	mov	DWORD PTR [ebp-8], -858993460		; ccccccccH
	mov	DWORD PTR [ebp-4], -858993460		; ccccccccH

; 422  :   uint32 src2Index  = constants.nuance->fields[FIELD_MUL_SRC2];

	mov	eax, DWORD PTR _constants$[ebp]
	mov	ecx, DWORD PTR [eax+4]
	mov	edx, DWORD PTR [ecx+12]
	mov	DWORD PTR _src2Index$[ebp], edx

; 423  :   uint32 destIndex  = constants.nuance->fields[FIELD_MUL_DEST];

	mov	eax, DWORD PTR _constants$[ebp]
	mov	ecx, DWORD PTR [eax+4]
	mov	edx, DWORD PTR [ecx+16]
	mov	DWORD PTR _destIndex$[ebp], edx

; 424  : 
; 425  :   if(constants.IsMiscRegisterConstant(CONSTANT_REG_SVSHIFT) && ALLOW_MUL_PROPAGATION)

	push	14					; 0000000eH
	mov	ecx, DWORD PTR _constants$[ebp]
	call	?IsMiscRegisterConstant@SuperBlockConstants@@QAE_NI@Z ; SuperBlockConstants::IsMiscRegisterConstant
	movzx	eax, al
	test	eax, eax
	je	SHORT $LN2@PropagateC@14
	mov	ecx, 1
	test	ecx, ecx
	je	SHORT $LN2@PropagateC@14

; 426  :   {
; 427  :     constants.nuance->fields[FIELD_MUL_HANDLER] = Handler_MUL_SVScalarShiftImmediate;

	mov	edx, DWORD PTR _constants$[ebp]
	mov	eax, DWORD PTR [edx+4]
	mov	DWORD PTR [eax], 130			; 00000082H

; 428  :     constants.nuance->fields[FIELD_MUL_INFO] = constants.GetMiscRegisterConstant(CONSTANT_REG_SVSHIFT);

	push	14					; 0000000eH
	mov	ecx, DWORD PTR _constants$[ebp]
	call	?GetMiscRegisterConstant@SuperBlockConstants@@QAEII@Z ; SuperBlockConstants::GetMiscRegisterConstant
	mov	ecx, DWORD PTR _constants$[ebp]
	mov	edx, DWORD PTR [ecx+4]
	mov	DWORD PTR [edx+4], eax

; 429  :     constants.ClearMiscInputDependency(CONSTANT_REG_SVSHIFT);

	push	14					; 0000000eH
	mov	ecx, DWORD PTR _constants$[ebp]
	call	?ClearMiscInputDependency@SuperBlockConstants@@QAEXI@Z ; SuperBlockConstants::ClearMiscInputDependency

; 430  :     PropagateConstants_MUL_SVScalarShiftImmediate(constants);

	mov	eax, DWORD PTR _constants$[ebp]
	push	eax
	call	?PropagateConstants_MUL_SVScalarShiftImmediate@@YAXAAVSuperBlockConstants@@@Z ; PropagateConstants_MUL_SVScalarShiftImmediate
	add	esp, 4

; 431  :   }
; 432  :   else

	jmp	SHORT $LN3@PropagateC@14
$LN2@PropagateC@14:

; 433  :   {
; 434  :     constants.ClearVectorRegisterConstant(destIndex);

	mov	ecx, DWORD PTR _destIndex$[ebp]
	push	ecx
	mov	ecx, DWORD PTR _constants$[ebp]
	call	?ClearVectorRegisterConstant@SuperBlockConstants@@QAEXI@Z ; SuperBlockConstants::ClearVectorRegisterConstant

; 435  :     constants.status.status = PROPAGATE_CONSTANTS_STATUS_MUL_OK;

	mov	edx, DWORD PTR _constants$[ebp]
	mov	DWORD PTR [edx+12], 3
$LN3@PropagateC@14:

; 436  :   }
; 437  : }

	add	esp, 8
	cmp	ebp, esp
	call	__RTC_CheckEsp
	mov	esp, ebp
	pop	ebp
	ret	0
?PropagateConstants_MUL_SVScalarShiftSvshift@@YAXAAVSuperBlockConstants@@@Z ENDP ; PropagateConstants_MUL_SVScalarShiftSvshift
_TEXT	ENDS
PUBLIC	?PropagateConstants_MUL_SVRuShiftImmediate@@YAXAAVSuperBlockConstants@@@Z ; PropagateConstants_MUL_SVRuShiftImmediate
; Function compile flags: /Odtp /RTCsu
_TEXT	SEGMENT
_destIndex$ = -4					; size = 4
_constants$ = 8						; size = 4
?PropagateConstants_MUL_SVRuShiftImmediate@@YAXAAVSuperBlockConstants@@@Z PROC ; PropagateConstants_MUL_SVRuShiftImmediate

; 440  : {

	push	ebp
	mov	ebp, esp
	push	ecx
	mov	DWORD PTR [ebp-4], -858993460		; ccccccccH

; 441  :   uint32 destIndex = constants.nuance->fields[FIELD_MUL_DEST];

	mov	eax, DWORD PTR _constants$[ebp]
	mov	ecx, DWORD PTR [eax+4]
	mov	edx, DWORD PTR [ecx+16]
	mov	DWORD PTR _destIndex$[ebp], edx

; 442  :   constants.ClearVectorRegisterConstant(destIndex);

	mov	eax, DWORD PTR _destIndex$[ebp]
	push	eax
	mov	ecx, DWORD PTR _constants$[ebp]
	call	?ClearVectorRegisterConstant@SuperBlockConstants@@QAEXI@Z ; SuperBlockConstants::ClearVectorRegisterConstant

; 443  :   constants.status.status = PROPAGATE_CONSTANTS_STATUS_MUL_OK;

	mov	ecx, DWORD PTR _constants$[ebp]
	mov	DWORD PTR [ecx+12], 3

; 444  : }

	add	esp, 4
	cmp	ebp, esp
	call	__RTC_CheckEsp
	mov	esp, ebp
	pop	ebp
	ret	0
?PropagateConstants_MUL_SVRuShiftImmediate@@YAXAAVSuperBlockConstants@@@Z ENDP ; PropagateConstants_MUL_SVRuShiftImmediate
_TEXT	ENDS
PUBLIC	?PropagateConstants_MUL_SVRuShiftSvshift@@YAXAAVSuperBlockConstants@@@Z ; PropagateConstants_MUL_SVRuShiftSvshift
; Function compile flags: /Odtp /RTCsu
_TEXT	SEGMENT
_destIndex$ = -4					; size = 4
_constants$ = 8						; size = 4
?PropagateConstants_MUL_SVRuShiftSvshift@@YAXAAVSuperBlockConstants@@@Z PROC ; PropagateConstants_MUL_SVRuShiftSvshift

; 446  : {

	push	ebp
	mov	ebp, esp
	push	ecx
	mov	DWORD PTR [ebp-4], -858993460		; ccccccccH

; 447  :   uint32 destIndex = constants.nuance->fields[FIELD_MUL_DEST];

	mov	eax, DWORD PTR _constants$[ebp]
	mov	ecx, DWORD PTR [eax+4]
	mov	edx, DWORD PTR [ecx+16]
	mov	DWORD PTR _destIndex$[ebp], edx

; 448  : 
; 449  :   if(constants.IsMiscRegisterConstant(CONSTANT_REG_SVSHIFT) && ALLOW_MUL_PROPAGATION)

	push	14					; 0000000eH
	mov	ecx, DWORD PTR _constants$[ebp]
	call	?IsMiscRegisterConstant@SuperBlockConstants@@QAE_NI@Z ; SuperBlockConstants::IsMiscRegisterConstant
	movzx	eax, al
	test	eax, eax
	je	SHORT $LN2@PropagateC@15
	mov	ecx, 1
	test	ecx, ecx
	je	SHORT $LN2@PropagateC@15

; 450  :   {
; 451  :     constants.nuance->fields[FIELD_MUL_HANDLER] = Handler_MUL_SVRuShiftImmediate;

	mov	edx, DWORD PTR _constants$[ebp]
	mov	eax, DWORD PTR [edx+4]
	mov	DWORD PTR [eax], 132			; 00000084H

; 452  :     constants.nuance->fields[FIELD_MUL_INFO] = constants.GetMiscRegisterConstant(CONSTANT_REG_SVSHIFT);

	push	14					; 0000000eH
	mov	ecx, DWORD PTR _constants$[ebp]
	call	?GetMiscRegisterConstant@SuperBlockConstants@@QAEII@Z ; SuperBlockConstants::GetMiscRegisterConstant
	mov	ecx, DWORD PTR _constants$[ebp]
	mov	edx, DWORD PTR [ecx+4]
	mov	DWORD PTR [edx+4], eax

; 453  :     constants.ClearMiscInputDependency(CONSTANT_REG_SVSHIFT);

	push	14					; 0000000eH
	mov	ecx, DWORD PTR _constants$[ebp]
	call	?ClearMiscInputDependency@SuperBlockConstants@@QAEXI@Z ; SuperBlockConstants::ClearMiscInputDependency

; 454  :     PropagateConstants_MUL_SVRuShiftImmediate(constants);

	mov	eax, DWORD PTR _constants$[ebp]
	push	eax
	call	?PropagateConstants_MUL_SVRuShiftImmediate@@YAXAAVSuperBlockConstants@@@Z ; PropagateConstants_MUL_SVRuShiftImmediate
	add	esp, 4

; 455  :   }
; 456  :   else

	jmp	SHORT $LN3@PropagateC@15
$LN2@PropagateC@15:

; 457  :   {
; 458  :     constants.ClearVectorRegisterConstant(destIndex);

	mov	ecx, DWORD PTR _destIndex$[ebp]
	push	ecx
	mov	ecx, DWORD PTR _constants$[ebp]
	call	?ClearVectorRegisterConstant@SuperBlockConstants@@QAEXI@Z ; SuperBlockConstants::ClearVectorRegisterConstant

; 459  :     constants.status.status = PROPAGATE_CONSTANTS_STATUS_MUL_OK;

	mov	edx, DWORD PTR _constants$[ebp]
	mov	DWORD PTR [edx+12], 3
$LN3@PropagateC@15:

; 460  :   }
; 461  : }

	add	esp, 4
	cmp	ebp, esp
	call	__RTC_CheckEsp
	mov	esp, ebp
	pop	ebp
	ret	0
?PropagateConstants_MUL_SVRuShiftSvshift@@YAXAAVSuperBlockConstants@@@Z ENDP ; PropagateConstants_MUL_SVRuShiftSvshift
_TEXT	ENDS
PUBLIC	?PropagateConstants_MUL_SVRvShiftImmediate@@YAXAAVSuperBlockConstants@@@Z ; PropagateConstants_MUL_SVRvShiftImmediate
; Function compile flags: /Odtp /RTCsu
_TEXT	SEGMENT
_destIndex$ = -4					; size = 4
_constants$ = 8						; size = 4
?PropagateConstants_MUL_SVRvShiftImmediate@@YAXAAVSuperBlockConstants@@@Z PROC ; PropagateConstants_MUL_SVRvShiftImmediate

; 463  : {

	push	ebp
	mov	ebp, esp
	push	ecx
	mov	DWORD PTR [ebp-4], -858993460		; ccccccccH

; 464  :   uint32 destIndex = constants.nuance->fields[FIELD_MUL_DEST];

	mov	eax, DWORD PTR _constants$[ebp]
	mov	ecx, DWORD PTR [eax+4]
	mov	edx, DWORD PTR [ecx+16]
	mov	DWORD PTR _destIndex$[ebp], edx

; 465  :   constants.ClearVectorRegisterConstant(destIndex);

	mov	eax, DWORD PTR _destIndex$[ebp]
	push	eax
	mov	ecx, DWORD PTR _constants$[ebp]
	call	?ClearVectorRegisterConstant@SuperBlockConstants@@QAEXI@Z ; SuperBlockConstants::ClearVectorRegisterConstant

; 466  :   constants.status.status = PROPAGATE_CONSTANTS_STATUS_MUL_OK;

	mov	ecx, DWORD PTR _constants$[ebp]
	mov	DWORD PTR [ecx+12], 3

; 467  : }

	add	esp, 4
	cmp	ebp, esp
	call	__RTC_CheckEsp
	mov	esp, ebp
	pop	ebp
	ret	0
?PropagateConstants_MUL_SVRvShiftImmediate@@YAXAAVSuperBlockConstants@@@Z ENDP ; PropagateConstants_MUL_SVRvShiftImmediate
_TEXT	ENDS
PUBLIC	?PropagateConstants_MUL_SVRvShiftSvshift@@YAXAAVSuperBlockConstants@@@Z ; PropagateConstants_MUL_SVRvShiftSvshift
; Function compile flags: /Odtp /RTCsu
_TEXT	SEGMENT
_destIndex$ = -4					; size = 4
_constants$ = 8						; size = 4
?PropagateConstants_MUL_SVRvShiftSvshift@@YAXAAVSuperBlockConstants@@@Z PROC ; PropagateConstants_MUL_SVRvShiftSvshift

; 469  : {

	push	ebp
	mov	ebp, esp
	push	ecx
	mov	DWORD PTR [ebp-4], -858993460		; ccccccccH

; 470  :   uint32 destIndex = constants.nuance->fields[FIELD_MUL_DEST];

	mov	eax, DWORD PTR _constants$[ebp]
	mov	ecx, DWORD PTR [eax+4]
	mov	edx, DWORD PTR [ecx+16]
	mov	DWORD PTR _destIndex$[ebp], edx

; 471  : 
; 472  :   if(constants.IsMiscRegisterConstant(CONSTANT_REG_SVSHIFT) && ALLOW_MUL_PROPAGATION)

	push	14					; 0000000eH
	mov	ecx, DWORD PTR _constants$[ebp]
	call	?IsMiscRegisterConstant@SuperBlockConstants@@QAE_NI@Z ; SuperBlockConstants::IsMiscRegisterConstant
	movzx	eax, al
	test	eax, eax
	je	SHORT $LN2@PropagateC@16
	mov	ecx, 1
	test	ecx, ecx
	je	SHORT $LN2@PropagateC@16

; 473  :   {
; 474  :     constants.nuance->fields[FIELD_MUL_HANDLER] = Handler_MUL_SVRvShiftImmediate;

	mov	edx, DWORD PTR _constants$[ebp]
	mov	eax, DWORD PTR [edx+4]
	mov	DWORD PTR [eax], 134			; 00000086H

; 475  :     constants.nuance->fields[FIELD_MUL_INFO] = constants.GetMiscRegisterConstant(CONSTANT_REG_SVSHIFT);

	push	14					; 0000000eH
	mov	ecx, DWORD PTR _constants$[ebp]
	call	?GetMiscRegisterConstant@SuperBlockConstants@@QAEII@Z ; SuperBlockConstants::GetMiscRegisterConstant
	mov	ecx, DWORD PTR _constants$[ebp]
	mov	edx, DWORD PTR [ecx+4]
	mov	DWORD PTR [edx+4], eax

; 476  :     constants.ClearMiscInputDependency(CONSTANT_REG_SVSHIFT);

	push	14					; 0000000eH
	mov	ecx, DWORD PTR _constants$[ebp]
	call	?ClearMiscInputDependency@SuperBlockConstants@@QAEXI@Z ; SuperBlockConstants::ClearMiscInputDependency

; 477  :     PropagateConstants_MUL_SVRvShiftImmediate(constants);

	mov	eax, DWORD PTR _constants$[ebp]
	push	eax
	call	?PropagateConstants_MUL_SVRvShiftImmediate@@YAXAAVSuperBlockConstants@@@Z ; PropagateConstants_MUL_SVRvShiftImmediate
	add	esp, 4

; 478  :   }
; 479  :   else

	jmp	SHORT $LN3@PropagateC@16
$LN2@PropagateC@16:

; 480  :   {
; 481  :     constants.ClearVectorRegisterConstant(destIndex);

	mov	ecx, DWORD PTR _destIndex$[ebp]
	push	ecx
	mov	ecx, DWORD PTR _constants$[ebp]
	call	?ClearVectorRegisterConstant@SuperBlockConstants@@QAEXI@Z ; SuperBlockConstants::ClearVectorRegisterConstant

; 482  :     constants.status.status = PROPAGATE_CONSTANTS_STATUS_MUL_OK;

	mov	edx, DWORD PTR _constants$[ebp]
	mov	DWORD PTR [edx+12], 3
$LN3@PropagateC@16:

; 483  :   }
; 484  : }

	add	esp, 4
	cmp	ebp, esp
	call	__RTC_CheckEsp
	mov	esp, ebp
	pop	ebp
	ret	0
?PropagateConstants_MUL_SVRvShiftSvshift@@YAXAAVSuperBlockConstants@@@Z ENDP ; PropagateConstants_MUL_SVRvShiftSvshift
_TEXT	ENDS
PUBLIC	?PropagateConstants_MUL_SVVectorShiftImmediate@@YAXAAVSuperBlockConstants@@@Z ; PropagateConstants_MUL_SVVectorShiftImmediate
; Function compile flags: /Odtp /RTCsu
_TEXT	SEGMENT
_destIndex$ = -4					; size = 4
_constants$ = 8						; size = 4
?PropagateConstants_MUL_SVVectorShiftImmediate@@YAXAAVSuperBlockConstants@@@Z PROC ; PropagateConstants_MUL_SVVectorShiftImmediate

; 486  : {

	push	ebp
	mov	ebp, esp
	push	ecx
	mov	DWORD PTR [ebp-4], -858993460		; ccccccccH

; 487  :   uint32 destIndex  = constants.nuance->fields[FIELD_MUL_DEST];

	mov	eax, DWORD PTR _constants$[ebp]
	mov	ecx, DWORD PTR [eax+4]
	mov	edx, DWORD PTR [ecx+16]
	mov	DWORD PTR _destIndex$[ebp], edx

; 488  :   constants.ClearVectorRegisterConstant(destIndex);

	mov	eax, DWORD PTR _destIndex$[ebp]
	push	eax
	mov	ecx, DWORD PTR _constants$[ebp]
	call	?ClearVectorRegisterConstant@SuperBlockConstants@@QAEXI@Z ; SuperBlockConstants::ClearVectorRegisterConstant

; 489  :   constants.status.status = PROPAGATE_CONSTANTS_STATUS_MUL_OK;

	mov	ecx, DWORD PTR _constants$[ebp]
	mov	DWORD PTR [ecx+12], 3

; 490  : }

	add	esp, 4
	cmp	ebp, esp
	call	__RTC_CheckEsp
	mov	esp, ebp
	pop	ebp
	ret	0
?PropagateConstants_MUL_SVVectorShiftImmediate@@YAXAAVSuperBlockConstants@@@Z ENDP ; PropagateConstants_MUL_SVVectorShiftImmediate
_TEXT	ENDS
PUBLIC	?PropagateConstants_MUL_SVVectorShiftSvshift@@YAXAAVSuperBlockConstants@@@Z ; PropagateConstants_MUL_SVVectorShiftSvshift
; Function compile flags: /Odtp /RTCsu
_TEXT	SEGMENT
_destIndex$ = -4					; size = 4
_constants$ = 8						; size = 4
?PropagateConstants_MUL_SVVectorShiftSvshift@@YAXAAVSuperBlockConstants@@@Z PROC ; PropagateConstants_MUL_SVVectorShiftSvshift

; 492  : {

	push	ebp
	mov	ebp, esp
	push	ecx
	mov	DWORD PTR [ebp-4], -858993460		; ccccccccH

; 493  :   uint32 destIndex  = constants.nuance->fields[FIELD_MUL_DEST];

	mov	eax, DWORD PTR _constants$[ebp]
	mov	ecx, DWORD PTR [eax+4]
	mov	edx, DWORD PTR [ecx+16]
	mov	DWORD PTR _destIndex$[ebp], edx

; 494  : 
; 495  :   if(constants.IsMiscRegisterConstant(CONSTANT_REG_SVSHIFT) && ALLOW_MUL_PROPAGATION)

	push	14					; 0000000eH
	mov	ecx, DWORD PTR _constants$[ebp]
	call	?IsMiscRegisterConstant@SuperBlockConstants@@QAE_NI@Z ; SuperBlockConstants::IsMiscRegisterConstant
	movzx	eax, al
	test	eax, eax
	je	SHORT $LN2@PropagateC@17
	mov	ecx, 1
	test	ecx, ecx
	je	SHORT $LN2@PropagateC@17

; 496  :   {
; 497  :     constants.nuance->fields[FIELD_MUL_HANDLER] = Handler_MUL_SVVectorShiftImmediate;

	mov	edx, DWORD PTR _constants$[ebp]
	mov	eax, DWORD PTR [edx+4]
	mov	DWORD PTR [eax], 136			; 00000088H

; 498  :     constants.nuance->fields[FIELD_MUL_INFO] = constants.GetMiscRegisterConstant(CONSTANT_REG_SVSHIFT);

	push	14					; 0000000eH
	mov	ecx, DWORD PTR _constants$[ebp]
	call	?GetMiscRegisterConstant@SuperBlockConstants@@QAEII@Z ; SuperBlockConstants::GetMiscRegisterConstant
	mov	ecx, DWORD PTR _constants$[ebp]
	mov	edx, DWORD PTR [ecx+4]
	mov	DWORD PTR [edx+4], eax

; 499  :     constants.ClearMiscInputDependency(CONSTANT_REG_SVSHIFT);

	push	14					; 0000000eH
	mov	ecx, DWORD PTR _constants$[ebp]
	call	?ClearMiscInputDependency@SuperBlockConstants@@QAEXI@Z ; SuperBlockConstants::ClearMiscInputDependency

; 500  :     PropagateConstants_MUL_SVVectorShiftImmediate(constants);

	mov	eax, DWORD PTR _constants$[ebp]
	push	eax
	call	?PropagateConstants_MUL_SVVectorShiftImmediate@@YAXAAVSuperBlockConstants@@@Z ; PropagateConstants_MUL_SVVectorShiftImmediate
	add	esp, 4

; 501  :   }
; 502  :   else

	jmp	SHORT $LN3@PropagateC@17
$LN2@PropagateC@17:

; 503  :   {
; 504  :     constants.ClearVectorRegisterConstant(destIndex);

	mov	ecx, DWORD PTR _destIndex$[ebp]
	push	ecx
	mov	ecx, DWORD PTR _constants$[ebp]
	call	?ClearVectorRegisterConstant@SuperBlockConstants@@QAEXI@Z ; SuperBlockConstants::ClearVectorRegisterConstant

; 505  :     constants.status.status = PROPAGATE_CONSTANTS_STATUS_MUL_OK;

	mov	edx, DWORD PTR _constants$[ebp]
	mov	DWORD PTR [edx+12], 3
$LN3@PropagateC@17:

; 506  :   }
; 507  : }

	add	esp, 4
	cmp	ebp, esp
	call	__RTC_CheckEsp
	mov	esp, ebp
	pop	ebp
	ret	0
?PropagateConstants_MUL_SVVectorShiftSvshift@@YAXAAVSuperBlockConstants@@@Z ENDP ; PropagateConstants_MUL_SVVectorShiftSvshift
_TEXT	ENDS
PUBLIC	?ClearPixelRegisterConstant@SuperBlockConstants@@QAEXI@Z ; SuperBlockConstants::ClearPixelRegisterConstant
PUBLIC	?PropagateConstants_MUL_PImmediateShiftImmediate@@YAXAAVSuperBlockConstants@@@Z ; PropagateConstants_MUL_PImmediateShiftImmediate
; Function compile flags: /Odtp /RTCsu
_TEXT	SEGMENT
_destIndex$ = -4					; size = 4
_constants$ = 8						; size = 4
?PropagateConstants_MUL_PImmediateShiftImmediate@@YAXAAVSuperBlockConstants@@@Z PROC ; PropagateConstants_MUL_PImmediateShiftImmediate

; 510  : {

	push	ebp
	mov	ebp, esp
	push	ecx
	mov	DWORD PTR [ebp-4], -858993460		; ccccccccH

; 511  :   uint32 destIndex = constants.nuance->fields[FIELD_MUL_DEST];

	mov	eax, DWORD PTR _constants$[ebp]
	mov	ecx, DWORD PTR [eax+4]
	mov	edx, DWORD PTR [ecx+16]
	mov	DWORD PTR _destIndex$[ebp], edx

; 512  :   constants.ClearPixelRegisterConstant(destIndex);

	mov	eax, DWORD PTR _destIndex$[ebp]
	push	eax
	mov	ecx, DWORD PTR _constants$[ebp]
	call	?ClearPixelRegisterConstant@SuperBlockConstants@@QAEXI@Z ; SuperBlockConstants::ClearPixelRegisterConstant

; 513  :   constants.status.status = PROPAGATE_CONSTANTS_STATUS_MUL_OK;

	mov	ecx, DWORD PTR _constants$[ebp]
	mov	DWORD PTR [ecx+12], 3

; 514  : }

	add	esp, 4
	cmp	ebp, esp
	call	__RTC_CheckEsp
	mov	esp, ebp
	pop	ebp
	ret	0
?PropagateConstants_MUL_PImmediateShiftImmediate@@YAXAAVSuperBlockConstants@@@Z ENDP ; PropagateConstants_MUL_PImmediateShiftImmediate
; Function compile flags: /Odtp /RTCsu
; File c:\nuanceexperimental\superblockconstants.h
_TEXT	ENDS
;	COMDAT ?ClearPixelRegisterConstant@SuperBlockConstants@@QAEXI@Z
_TEXT	SEGMENT
_this$ = -4						; size = 4
_index$ = 8						; size = 4
?ClearPixelRegisterConstant@SuperBlockConstants@@QAEXI@Z PROC ; SuperBlockConstants::ClearPixelRegisterConstant, COMDAT
; _this$ = ecx

; 145  :   {

	push	ebp
	mov	ebp, esp
	push	ecx
	mov	DWORD PTR [ebp-4], -858993460		; ccccccccH
	mov	DWORD PTR _this$[ebp], ecx

; 146  :     tempScalarRegisterConstantsStatus &= ~(0x7UL << index);

	mov	eax, 7
	mov	ecx, DWORD PTR _index$[ebp]
	shl	eax, cl
	not	eax
	mov	ecx, DWORD PTR _this$[ebp]
	and	eax, DWORD PTR [ecx+564]
	mov	edx, DWORD PTR _this$[ebp]
	mov	DWORD PTR [edx+564], eax

; 147  :   }

	mov	esp, ebp
	pop	ebp
	ret	4
?ClearPixelRegisterConstant@SuperBlockConstants@@QAEXI@Z ENDP ; SuperBlockConstants::ClearPixelRegisterConstant
_TEXT	ENDS
PUBLIC	?SetPixelInputDependency@SuperBlockConstants@@QAEXI@Z ; SuperBlockConstants::SetPixelInputDependency
PUBLIC	?PropagateConstants_MUL_PScalarShiftImmediate@@YAXAAVSuperBlockConstants@@@Z ; PropagateConstants_MUL_PScalarShiftImmediate
; Function compile flags: /Odtp /RTCsu
; File c:\nuanceexperimental\propagateconstants_mul.cpp
_TEXT	SEGMENT
_destIndex$ = -12					; size = 4
_src2Index$ = -8					; size = 4
_src1Index$ = -4					; size = 4
_constants$ = 8						; size = 4
?PropagateConstants_MUL_PScalarShiftImmediate@@YAXAAVSuperBlockConstants@@@Z PROC ; PropagateConstants_MUL_PScalarShiftImmediate

; 516  : {

	push	ebp
	mov	ebp, esp
	sub	esp, 12					; 0000000cH
	mov	DWORD PTR [ebp-12], -858993460		; ccccccccH
	mov	DWORD PTR [ebp-8], -858993460		; ccccccccH
	mov	DWORD PTR [ebp-4], -858993460		; ccccccccH

; 517  :   uint32 src1Index = constants.nuance->fields[FIELD_MUL_SRC1];

	mov	eax, DWORD PTR _constants$[ebp]
	mov	ecx, DWORD PTR [eax+4]
	mov	edx, DWORD PTR [ecx+8]
	mov	DWORD PTR _src1Index$[ebp], edx

; 518  :   uint32 src2Index = constants.nuance->fields[FIELD_MUL_SRC2];

	mov	eax, DWORD PTR _constants$[ebp]
	mov	ecx, DWORD PTR [eax+4]
	mov	edx, DWORD PTR [ecx+12]
	mov	DWORD PTR _src2Index$[ebp], edx

; 519  :   uint32 destIndex = constants.nuance->fields[FIELD_MUL_DEST];

	mov	eax, DWORD PTR _constants$[ebp]
	mov	ecx, DWORD PTR [eax+4]
	mov	edx, DWORD PTR [ecx+16]
	mov	DWORD PTR _destIndex$[ebp], edx

; 520  : 
; 521  :   if(constants.IsScalarRegisterConstant(src1Index) && ALLOW_MUL_PROPAGATION)

	mov	eax, DWORD PTR _src1Index$[ebp]
	push	eax
	mov	ecx, DWORD PTR _constants$[ebp]
	call	?IsScalarRegisterConstant@SuperBlockConstants@@QAE_NI@Z ; SuperBlockConstants::IsScalarRegisterConstant
	movzx	ecx, al
	test	ecx, ecx
	je	SHORT $LN2@PropagateC@18
	mov	edx, 1
	test	edx, edx
	je	SHORT $LN2@PropagateC@18

; 522  :   {
; 523  :     constants.nuance->fields[FIELD_MUL_HANDLER] = Handler_MUL_PImmediateShiftImmediate;

	mov	eax, DWORD PTR _constants$[ebp]
	mov	ecx, DWORD PTR [eax+4]
	mov	DWORD PTR [ecx], 138			; 0000008aH

; 524  :     constants.nuance->fields[FIELD_MUL_SRC1] = constants.GetScalarRegisterConstant(src1Index);

	mov	edx, DWORD PTR _src1Index$[ebp]
	push	edx
	mov	ecx, DWORD PTR _constants$[ebp]
	call	?GetScalarRegisterConstant@SuperBlockConstants@@QAEII@Z ; SuperBlockConstants::GetScalarRegisterConstant
	mov	ecx, DWORD PTR _constants$[ebp]
	mov	edx, DWORD PTR [ecx+4]
	mov	DWORD PTR [edx+8], eax

; 525  :     constants.ClearScalarInputDependency(src1Index);

	mov	eax, DWORD PTR _src1Index$[ebp]
	push	eax
	mov	ecx, DWORD PTR _constants$[ebp]
	call	?ClearScalarInputDependency@SuperBlockConstants@@QAEXI@Z ; SuperBlockConstants::ClearScalarInputDependency

; 526  :     constants.SetPixelInputDependency(src2Index);

	mov	ecx, DWORD PTR _src2Index$[ebp]
	push	ecx
	mov	ecx, DWORD PTR _constants$[ebp]
	call	?SetPixelInputDependency@SuperBlockConstants@@QAEXI@Z ; SuperBlockConstants::SetPixelInputDependency

; 527  :     PropagateConstants_MUL_PImmediateShiftImmediate(constants);

	mov	edx, DWORD PTR _constants$[ebp]
	push	edx
	call	?PropagateConstants_MUL_PImmediateShiftImmediate@@YAXAAVSuperBlockConstants@@@Z ; PropagateConstants_MUL_PImmediateShiftImmediate
	add	esp, 4

; 528  :   }
; 529  :   else

	jmp	SHORT $LN3@PropagateC@18
$LN2@PropagateC@18:

; 530  :   {
; 531  :     constants.ClearPixelRegisterConstant(destIndex);

	mov	eax, DWORD PTR _destIndex$[ebp]
	push	eax
	mov	ecx, DWORD PTR _constants$[ebp]
	call	?ClearPixelRegisterConstant@SuperBlockConstants@@QAEXI@Z ; SuperBlockConstants::ClearPixelRegisterConstant

; 532  :     constants.status.status = PROPAGATE_CONSTANTS_STATUS_MUL_OK;

	mov	ecx, DWORD PTR _constants$[ebp]
	mov	DWORD PTR [ecx+12], 3
$LN3@PropagateC@18:

; 533  :   }
; 534  : }

	add	esp, 12					; 0000000cH
	cmp	ebp, esp
	call	__RTC_CheckEsp
	mov	esp, ebp
	pop	ebp
	ret	0
?PropagateConstants_MUL_PScalarShiftImmediate@@YAXAAVSuperBlockConstants@@@Z ENDP ; PropagateConstants_MUL_PScalarShiftImmediate
; Function compile flags: /Odtp /RTCsu
; File c:\nuanceexperimental\superblockconstants.h
_TEXT	ENDS
;	COMDAT ?SetPixelInputDependency@SuperBlockConstants@@QAEXI@Z
_TEXT	SEGMENT
_this$ = -4						; size = 4
_index$ = 8						; size = 4
?SetPixelInputDependency@SuperBlockConstants@@QAEXI@Z PROC ; SuperBlockConstants::SetPixelInputDependency, COMDAT
; _this$ = ecx

; 125  :   {

	push	ebp
	mov	ebp, esp
	push	ecx
	mov	DWORD PTR [ebp-4], -858993460		; ccccccccH
	mov	DWORD PTR _this$[ebp], ecx

; 126  :     pCurrentInstructionEntry->scalarInputDependencies |= (0x7UL << index);

	mov	eax, DWORD PTR _this$[ebp]
	mov	edx, DWORD PTR [eax+8]
	mov	eax, 7
	mov	ecx, DWORD PTR _index$[ebp]
	shl	eax, cl
	or	eax, DWORD PTR [edx+32]
	mov	ecx, DWORD PTR _this$[ebp]
	mov	edx, DWORD PTR [ecx+8]
	mov	DWORD PTR [edx+32], eax

; 127  :   }

	mov	esp, ebp
	pop	ebp
	ret	4
?SetPixelInputDependency@SuperBlockConstants@@QAEXI@Z ENDP ; SuperBlockConstants::SetPixelInputDependency
_TEXT	ENDS
PUBLIC	?PropagateConstants_MUL_PScalarShiftSvshift@@YAXAAVSuperBlockConstants@@@Z ; PropagateConstants_MUL_PScalarShiftSvshift
; Function compile flags: /Odtp /RTCsu
; File c:\nuanceexperimental\propagateconstants_mul.cpp
_TEXT	SEGMENT
_destIndex$ = -4					; size = 4
_constants$ = 8						; size = 4
?PropagateConstants_MUL_PScalarShiftSvshift@@YAXAAVSuperBlockConstants@@@Z PROC ; PropagateConstants_MUL_PScalarShiftSvshift

; 536  : {

	push	ebp
	mov	ebp, esp
	push	ecx
	mov	DWORD PTR [ebp-4], -858993460		; ccccccccH

; 537  :   uint32 destIndex  = constants.nuance->fields[FIELD_MUL_DEST];

	mov	eax, DWORD PTR _constants$[ebp]
	mov	ecx, DWORD PTR [eax+4]
	mov	edx, DWORD PTR [ecx+16]
	mov	DWORD PTR _destIndex$[ebp], edx

; 538  : 
; 539  :   if(constants.IsMiscRegisterConstant(CONSTANT_REG_SVSHIFT) && ALLOW_MUL_PROPAGATION)

	push	14					; 0000000eH
	mov	ecx, DWORD PTR _constants$[ebp]
	call	?IsMiscRegisterConstant@SuperBlockConstants@@QAE_NI@Z ; SuperBlockConstants::IsMiscRegisterConstant
	movzx	eax, al
	test	eax, eax
	je	SHORT $LN2@PropagateC@19
	mov	ecx, 1
	test	ecx, ecx
	je	SHORT $LN2@PropagateC@19

; 540  :   {
; 541  :     constants.nuance->fields[FIELD_MUL_HANDLER] = Handler_MUL_PScalarShiftImmediate;

	mov	edx, DWORD PTR _constants$[ebp]
	mov	eax, DWORD PTR [edx+4]
	mov	DWORD PTR [eax], 139			; 0000008bH

; 542  :     constants.nuance->fields[FIELD_MUL_INFO] = constants.GetMiscRegisterConstant(CONSTANT_REG_SVSHIFT);

	push	14					; 0000000eH
	mov	ecx, DWORD PTR _constants$[ebp]
	call	?GetMiscRegisterConstant@SuperBlockConstants@@QAEII@Z ; SuperBlockConstants::GetMiscRegisterConstant
	mov	ecx, DWORD PTR _constants$[ebp]
	mov	edx, DWORD PTR [ecx+4]
	mov	DWORD PTR [edx+4], eax

; 543  :     constants.ClearMiscInputDependency(CONSTANT_REG_SVSHIFT);

	push	14					; 0000000eH
	mov	ecx, DWORD PTR _constants$[ebp]
	call	?ClearMiscInputDependency@SuperBlockConstants@@QAEXI@Z ; SuperBlockConstants::ClearMiscInputDependency

; 544  :     PropagateConstants_MUL_PScalarShiftImmediate(constants);

	mov	eax, DWORD PTR _constants$[ebp]
	push	eax
	call	?PropagateConstants_MUL_PScalarShiftImmediate@@YAXAAVSuperBlockConstants@@@Z ; PropagateConstants_MUL_PScalarShiftImmediate
	add	esp, 4

; 545  :   }
; 546  :   else

	jmp	SHORT $LN3@PropagateC@19
$LN2@PropagateC@19:

; 547  :   {
; 548  :     constants.ClearPixelRegisterConstant(destIndex);

	mov	ecx, DWORD PTR _destIndex$[ebp]
	push	ecx
	mov	ecx, DWORD PTR _constants$[ebp]
	call	?ClearPixelRegisterConstant@SuperBlockConstants@@QAEXI@Z ; SuperBlockConstants::ClearPixelRegisterConstant

; 549  :     constants.status.status = PROPAGATE_CONSTANTS_STATUS_MUL_OK;

	mov	edx, DWORD PTR _constants$[ebp]
	mov	DWORD PTR [edx+12], 3
$LN3@PropagateC@19:

; 550  :   }
; 551  : }

	add	esp, 4
	cmp	ebp, esp
	call	__RTC_CheckEsp
	mov	esp, ebp
	pop	ebp
	ret	0
?PropagateConstants_MUL_PScalarShiftSvshift@@YAXAAVSuperBlockConstants@@@Z ENDP ; PropagateConstants_MUL_PScalarShiftSvshift
_TEXT	ENDS
PUBLIC	?PropagateConstants_MUL_PRuShiftImmediate@@YAXAAVSuperBlockConstants@@@Z ; PropagateConstants_MUL_PRuShiftImmediate
; Function compile flags: /Odtp /RTCsu
_TEXT	SEGMENT
_destIndex$ = -4					; size = 4
_constants$ = 8						; size = 4
?PropagateConstants_MUL_PRuShiftImmediate@@YAXAAVSuperBlockConstants@@@Z PROC ; PropagateConstants_MUL_PRuShiftImmediate

; 553  : {

	push	ebp
	mov	ebp, esp
	push	ecx
	mov	DWORD PTR [ebp-4], -858993460		; ccccccccH

; 554  :   uint32 destIndex = constants.nuance->fields[FIELD_MUL_DEST];

	mov	eax, DWORD PTR _constants$[ebp]
	mov	ecx, DWORD PTR [eax+4]
	mov	edx, DWORD PTR [ecx+16]
	mov	DWORD PTR _destIndex$[ebp], edx

; 555  :   constants.ClearPixelRegisterConstant(destIndex);

	mov	eax, DWORD PTR _destIndex$[ebp]
	push	eax
	mov	ecx, DWORD PTR _constants$[ebp]
	call	?ClearPixelRegisterConstant@SuperBlockConstants@@QAEXI@Z ; SuperBlockConstants::ClearPixelRegisterConstant

; 556  :   constants.status.status = PROPAGATE_CONSTANTS_STATUS_MUL_OK;

	mov	ecx, DWORD PTR _constants$[ebp]
	mov	DWORD PTR [ecx+12], 3

; 557  : }

	add	esp, 4
	cmp	ebp, esp
	call	__RTC_CheckEsp
	mov	esp, ebp
	pop	ebp
	ret	0
?PropagateConstants_MUL_PRuShiftImmediate@@YAXAAVSuperBlockConstants@@@Z ENDP ; PropagateConstants_MUL_PRuShiftImmediate
_TEXT	ENDS
PUBLIC	?PropagateConstants_MUL_PRuShiftSvshift@@YAXAAVSuperBlockConstants@@@Z ; PropagateConstants_MUL_PRuShiftSvshift
; Function compile flags: /Odtp /RTCsu
_TEXT	SEGMENT
_destIndex$ = -4					; size = 4
_constants$ = 8						; size = 4
?PropagateConstants_MUL_PRuShiftSvshift@@YAXAAVSuperBlockConstants@@@Z PROC ; PropagateConstants_MUL_PRuShiftSvshift

; 559  : {

	push	ebp
	mov	ebp, esp
	push	ecx
	mov	DWORD PTR [ebp-4], -858993460		; ccccccccH

; 560  :   uint32 destIndex = constants.nuance->fields[FIELD_MUL_DEST];

	mov	eax, DWORD PTR _constants$[ebp]
	mov	ecx, DWORD PTR [eax+4]
	mov	edx, DWORD PTR [ecx+16]
	mov	DWORD PTR _destIndex$[ebp], edx

; 561  : 
; 562  :   if(constants.IsMiscRegisterConstant(CONSTANT_REG_SVSHIFT) && ALLOW_MUL_PROPAGATION)

	push	14					; 0000000eH
	mov	ecx, DWORD PTR _constants$[ebp]
	call	?IsMiscRegisterConstant@SuperBlockConstants@@QAE_NI@Z ; SuperBlockConstants::IsMiscRegisterConstant
	movzx	eax, al
	test	eax, eax
	je	SHORT $LN2@PropagateC@20
	mov	ecx, 1
	test	ecx, ecx
	je	SHORT $LN2@PropagateC@20

; 563  :   {
; 564  :     constants.nuance->fields[FIELD_MUL_HANDLER] = Handler_MUL_PRuShiftImmediate;

	mov	edx, DWORD PTR _constants$[ebp]
	mov	eax, DWORD PTR [edx+4]
	mov	DWORD PTR [eax], 141			; 0000008dH

; 565  :     constants.nuance->fields[FIELD_MUL_INFO] = constants.GetMiscRegisterConstant(CONSTANT_REG_SVSHIFT);

	push	14					; 0000000eH
	mov	ecx, DWORD PTR _constants$[ebp]
	call	?GetMiscRegisterConstant@SuperBlockConstants@@QAEII@Z ; SuperBlockConstants::GetMiscRegisterConstant
	mov	ecx, DWORD PTR _constants$[ebp]
	mov	edx, DWORD PTR [ecx+4]
	mov	DWORD PTR [edx+4], eax

; 566  :     constants.ClearMiscInputDependency(CONSTANT_REG_SVSHIFT);

	push	14					; 0000000eH
	mov	ecx, DWORD PTR _constants$[ebp]
	call	?ClearMiscInputDependency@SuperBlockConstants@@QAEXI@Z ; SuperBlockConstants::ClearMiscInputDependency

; 567  :     PropagateConstants_MUL_PRuShiftImmediate(constants);

	mov	eax, DWORD PTR _constants$[ebp]
	push	eax
	call	?PropagateConstants_MUL_PRuShiftImmediate@@YAXAAVSuperBlockConstants@@@Z ; PropagateConstants_MUL_PRuShiftImmediate
	add	esp, 4

; 568  :   }
; 569  :   else

	jmp	SHORT $LN3@PropagateC@20
$LN2@PropagateC@20:

; 570  :   {
; 571  :     constants.ClearPixelRegisterConstant(destIndex);

	mov	ecx, DWORD PTR _destIndex$[ebp]
	push	ecx
	mov	ecx, DWORD PTR _constants$[ebp]
	call	?ClearPixelRegisterConstant@SuperBlockConstants@@QAEXI@Z ; SuperBlockConstants::ClearPixelRegisterConstant

; 572  :     constants.status.status = PROPAGATE_CONSTANTS_STATUS_MUL_OK;

	mov	edx, DWORD PTR _constants$[ebp]
	mov	DWORD PTR [edx+12], 3
$LN3@PropagateC@20:

; 573  :   }
; 574  : }

	add	esp, 4
	cmp	ebp, esp
	call	__RTC_CheckEsp
	mov	esp, ebp
	pop	ebp
	ret	0
?PropagateConstants_MUL_PRuShiftSvshift@@YAXAAVSuperBlockConstants@@@Z ENDP ; PropagateConstants_MUL_PRuShiftSvshift
_TEXT	ENDS
PUBLIC	?PropagateConstants_MUL_PRvShiftImmediate@@YAXAAVSuperBlockConstants@@@Z ; PropagateConstants_MUL_PRvShiftImmediate
; Function compile flags: /Odtp /RTCsu
_TEXT	SEGMENT
_destIndex$ = -4					; size = 4
_constants$ = 8						; size = 4
?PropagateConstants_MUL_PRvShiftImmediate@@YAXAAVSuperBlockConstants@@@Z PROC ; PropagateConstants_MUL_PRvShiftImmediate

; 576  : {

	push	ebp
	mov	ebp, esp
	push	ecx
	mov	DWORD PTR [ebp-4], -858993460		; ccccccccH

; 577  :   uint32 destIndex  = constants.nuance->fields[FIELD_MUL_DEST];

	mov	eax, DWORD PTR _constants$[ebp]
	mov	ecx, DWORD PTR [eax+4]
	mov	edx, DWORD PTR [ecx+16]
	mov	DWORD PTR _destIndex$[ebp], edx

; 578  :   constants.ClearPixelRegisterConstant(destIndex);

	mov	eax, DWORD PTR _destIndex$[ebp]
	push	eax
	mov	ecx, DWORD PTR _constants$[ebp]
	call	?ClearPixelRegisterConstant@SuperBlockConstants@@QAEXI@Z ; SuperBlockConstants::ClearPixelRegisterConstant

; 579  :   constants.status.status = PROPAGATE_CONSTANTS_STATUS_MUL_OK;

	mov	ecx, DWORD PTR _constants$[ebp]
	mov	DWORD PTR [ecx+12], 3

; 580  : }

	add	esp, 4
	cmp	ebp, esp
	call	__RTC_CheckEsp
	mov	esp, ebp
	pop	ebp
	ret	0
?PropagateConstants_MUL_PRvShiftImmediate@@YAXAAVSuperBlockConstants@@@Z ENDP ; PropagateConstants_MUL_PRvShiftImmediate
_TEXT	ENDS
PUBLIC	?PropagateConstants_MUL_PRvShiftSvshift@@YAXAAVSuperBlockConstants@@@Z ; PropagateConstants_MUL_PRvShiftSvshift
; Function compile flags: /Odtp /RTCsu
_TEXT	SEGMENT
_destIndex$ = -4					; size = 4
_constants$ = 8						; size = 4
?PropagateConstants_MUL_PRvShiftSvshift@@YAXAAVSuperBlockConstants@@@Z PROC ; PropagateConstants_MUL_PRvShiftSvshift

; 582  : {

	push	ebp
	mov	ebp, esp
	push	ecx
	mov	DWORD PTR [ebp-4], -858993460		; ccccccccH

; 583  :   uint32 destIndex  = constants.nuance->fields[FIELD_MUL_DEST];

	mov	eax, DWORD PTR _constants$[ebp]
	mov	ecx, DWORD PTR [eax+4]
	mov	edx, DWORD PTR [ecx+16]
	mov	DWORD PTR _destIndex$[ebp], edx

; 584  : 
; 585  :   if(constants.IsMiscRegisterConstant(CONSTANT_REG_SVSHIFT) && ALLOW_MUL_PROPAGATION)

	push	14					; 0000000eH
	mov	ecx, DWORD PTR _constants$[ebp]
	call	?IsMiscRegisterConstant@SuperBlockConstants@@QAE_NI@Z ; SuperBlockConstants::IsMiscRegisterConstant
	movzx	eax, al
	test	eax, eax
	je	SHORT $LN2@PropagateC@21
	mov	ecx, 1
	test	ecx, ecx
	je	SHORT $LN2@PropagateC@21

; 586  :   {
; 587  :     constants.nuance->fields[FIELD_MUL_HANDLER] = Handler_MUL_PRvShiftImmediate;

	mov	edx, DWORD PTR _constants$[ebp]
	mov	eax, DWORD PTR [edx+4]
	mov	DWORD PTR [eax], 143			; 0000008fH

; 588  :     constants.nuance->fields[FIELD_MUL_INFO] = constants.GetMiscRegisterConstant(CONSTANT_REG_SVSHIFT);

	push	14					; 0000000eH
	mov	ecx, DWORD PTR _constants$[ebp]
	call	?GetMiscRegisterConstant@SuperBlockConstants@@QAEII@Z ; SuperBlockConstants::GetMiscRegisterConstant
	mov	ecx, DWORD PTR _constants$[ebp]
	mov	edx, DWORD PTR [ecx+4]
	mov	DWORD PTR [edx+4], eax

; 589  :     constants.ClearMiscInputDependency(CONSTANT_REG_SVSHIFT);

	push	14					; 0000000eH
	mov	ecx, DWORD PTR _constants$[ebp]
	call	?ClearMiscInputDependency@SuperBlockConstants@@QAEXI@Z ; SuperBlockConstants::ClearMiscInputDependency

; 590  :     PropagateConstants_MUL_PRvShiftImmediate(constants);

	mov	eax, DWORD PTR _constants$[ebp]
	push	eax
	call	?PropagateConstants_MUL_PRvShiftImmediate@@YAXAAVSuperBlockConstants@@@Z ; PropagateConstants_MUL_PRvShiftImmediate
	add	esp, 4

; 591  :   }
; 592  :   else

	jmp	SHORT $LN3@PropagateC@21
$LN2@PropagateC@21:

; 593  :   {
; 594  :     constants.ClearPixelRegisterConstant(destIndex);

	mov	ecx, DWORD PTR _destIndex$[ebp]
	push	ecx
	mov	ecx, DWORD PTR _constants$[ebp]
	call	?ClearPixelRegisterConstant@SuperBlockConstants@@QAEXI@Z ; SuperBlockConstants::ClearPixelRegisterConstant

; 595  :     constants.status.status = PROPAGATE_CONSTANTS_STATUS_MUL_OK;

	mov	edx, DWORD PTR _constants$[ebp]
	mov	DWORD PTR [edx+12], 3
$LN3@PropagateC@21:

; 596  :   }
; 597  : }

	add	esp, 4
	cmp	ebp, esp
	call	__RTC_CheckEsp
	mov	esp, ebp
	pop	ebp
	ret	0
?PropagateConstants_MUL_PRvShiftSvshift@@YAXAAVSuperBlockConstants@@@Z ENDP ; PropagateConstants_MUL_PRvShiftSvshift
_TEXT	ENDS
PUBLIC	?PropagateConstants_MUL_PVectorShiftImmediate@@YAXAAVSuperBlockConstants@@@Z ; PropagateConstants_MUL_PVectorShiftImmediate
; Function compile flags: /Odtp /RTCsu
_TEXT	SEGMENT
_destIndex$ = -4					; size = 4
_constants$ = 8						; size = 4
?PropagateConstants_MUL_PVectorShiftImmediate@@YAXAAVSuperBlockConstants@@@Z PROC ; PropagateConstants_MUL_PVectorShiftImmediate

; 599  : {

	push	ebp
	mov	ebp, esp
	push	ecx
	mov	DWORD PTR [ebp-4], -858993460		; ccccccccH

; 600  :   uint32 destIndex  = constants.nuance->fields[FIELD_MUL_DEST];

	mov	eax, DWORD PTR _constants$[ebp]
	mov	ecx, DWORD PTR [eax+4]
	mov	edx, DWORD PTR [ecx+16]
	mov	DWORD PTR _destIndex$[ebp], edx

; 601  :   constants.ClearPixelRegisterConstant(destIndex);

	mov	eax, DWORD PTR _destIndex$[ebp]
	push	eax
	mov	ecx, DWORD PTR _constants$[ebp]
	call	?ClearPixelRegisterConstant@SuperBlockConstants@@QAEXI@Z ; SuperBlockConstants::ClearPixelRegisterConstant

; 602  :   constants.status.status = PROPAGATE_CONSTANTS_STATUS_MUL_OK;

	mov	ecx, DWORD PTR _constants$[ebp]
	mov	DWORD PTR [ecx+12], 3

; 603  : }

	add	esp, 4
	cmp	ebp, esp
	call	__RTC_CheckEsp
	mov	esp, ebp
	pop	ebp
	ret	0
?PropagateConstants_MUL_PVectorShiftImmediate@@YAXAAVSuperBlockConstants@@@Z ENDP ; PropagateConstants_MUL_PVectorShiftImmediate
_TEXT	ENDS
PUBLIC	?PropagateConstants_MUL_PVectorShiftSvshift@@YAXAAVSuperBlockConstants@@@Z ; PropagateConstants_MUL_PVectorShiftSvshift
; Function compile flags: /Odtp /RTCsu
_TEXT	SEGMENT
_destIndex$ = -4					; size = 4
_constants$ = 8						; size = 4
?PropagateConstants_MUL_PVectorShiftSvshift@@YAXAAVSuperBlockConstants@@@Z PROC ; PropagateConstants_MUL_PVectorShiftSvshift

; 605  : {

	push	ebp
	mov	ebp, esp
	push	ecx
	mov	DWORD PTR [ebp-4], -858993460		; ccccccccH

; 606  :   uint32 destIndex  = constants.nuance->fields[FIELD_MUL_DEST];

	mov	eax, DWORD PTR _constants$[ebp]
	mov	ecx, DWORD PTR [eax+4]
	mov	edx, DWORD PTR [ecx+16]
	mov	DWORD PTR _destIndex$[ebp], edx

; 607  : 
; 608  :   if(constants.IsMiscRegisterConstant(CONSTANT_REG_SVSHIFT) && ALLOW_MUL_PROPAGATION)

	push	14					; 0000000eH
	mov	ecx, DWORD PTR _constants$[ebp]
	call	?IsMiscRegisterConstant@SuperBlockConstants@@QAE_NI@Z ; SuperBlockConstants::IsMiscRegisterConstant
	movzx	eax, al
	test	eax, eax
	je	SHORT $LN2@PropagateC@22
	mov	ecx, 1
	test	ecx, ecx
	je	SHORT $LN2@PropagateC@22

; 609  :   {
; 610  :     constants.nuance->fields[FIELD_MUL_HANDLER] = Handler_MUL_PVectorShiftImmediate;

	mov	edx, DWORD PTR _constants$[ebp]
	mov	eax, DWORD PTR [edx+4]
	mov	DWORD PTR [eax], 145			; 00000091H

; 611  :     constants.nuance->fields[FIELD_MUL_INFO] = constants.GetMiscRegisterConstant(CONSTANT_REG_SVSHIFT);

	push	14					; 0000000eH
	mov	ecx, DWORD PTR _constants$[ebp]
	call	?GetMiscRegisterConstant@SuperBlockConstants@@QAEII@Z ; SuperBlockConstants::GetMiscRegisterConstant
	mov	ecx, DWORD PTR _constants$[ebp]
	mov	edx, DWORD PTR [ecx+4]
	mov	DWORD PTR [edx+4], eax

; 612  :     constants.ClearMiscInputDependency(CONSTANT_REG_SVSHIFT);

	push	14					; 0000000eH
	mov	ecx, DWORD PTR _constants$[ebp]
	call	?ClearMiscInputDependency@SuperBlockConstants@@QAEXI@Z ; SuperBlockConstants::ClearMiscInputDependency

; 613  :     PropagateConstants_MUL_PVectorShiftImmediate(constants);

	mov	eax, DWORD PTR _constants$[ebp]
	push	eax
	call	?PropagateConstants_MUL_PVectorShiftImmediate@@YAXAAVSuperBlockConstants@@@Z ; PropagateConstants_MUL_PVectorShiftImmediate
	add	esp, 4

; 614  :   }
; 615  :   else

	jmp	SHORT $LN3@PropagateC@22
$LN2@PropagateC@22:

; 616  :   {
; 617  :     constants.ClearPixelRegisterConstant(destIndex);

	mov	ecx, DWORD PTR _destIndex$[ebp]
	push	ecx
	mov	ecx, DWORD PTR _constants$[ebp]
	call	?ClearPixelRegisterConstant@SuperBlockConstants@@QAEXI@Z ; SuperBlockConstants::ClearPixelRegisterConstant

; 618  :     constants.status.status = PROPAGATE_CONSTANTS_STATUS_MUL_OK;

	mov	edx, DWORD PTR _constants$[ebp]
	mov	DWORD PTR [edx+12], 3
$LN3@PropagateC@22:

; 619  :   }
; 620  : }

	add	esp, 4
	cmp	ebp, esp
	call	__RTC_CheckEsp
	mov	esp, ebp
	pop	ebp
	ret	0
?PropagateConstants_MUL_PVectorShiftSvshift@@YAXAAVSuperBlockConstants@@@Z ENDP ; PropagateConstants_MUL_PVectorShiftSvshift
_TEXT	ENDS
PUBLIC	?PropagateConstants_DOTPScalarShiftImmediate@@YAXAAVSuperBlockConstants@@@Z ; PropagateConstants_DOTPScalarShiftImmediate
; Function compile flags: /Odtp /RTCsu
_TEXT	SEGMENT
_constants$ = 8						; size = 4
?PropagateConstants_DOTPScalarShiftImmediate@@YAXAAVSuperBlockConstants@@@Z PROC ; PropagateConstants_DOTPScalarShiftImmediate

; 622  : {

	push	ebp
	mov	ebp, esp

; 623  :   constants.ClearScalarRegisterConstant(constants.nuance->fields[FIELD_MUL_DEST]);

	mov	eax, DWORD PTR _constants$[ebp]
	mov	ecx, DWORD PTR [eax+4]
	mov	edx, DWORD PTR [ecx+16]
	push	edx
	mov	ecx, DWORD PTR _constants$[ebp]
	call	?ClearScalarRegisterConstant@SuperBlockConstants@@QAEXI@Z ; SuperBlockConstants::ClearScalarRegisterConstant

; 624  :   constants.status.status = PROPAGATE_CONSTANTS_STATUS_MUL_OK;

	mov	eax, DWORD PTR _constants$[ebp]
	mov	DWORD PTR [eax+12], 3

; 625  : }

	cmp	ebp, esp
	call	__RTC_CheckEsp
	pop	ebp
	ret	0
?PropagateConstants_DOTPScalarShiftImmediate@@YAXAAVSuperBlockConstants@@@Z ENDP ; PropagateConstants_DOTPScalarShiftImmediate
_TEXT	ENDS
PUBLIC	?PropagateConstants_DOTPScalarShiftSvshift@@YAXAAVSuperBlockConstants@@@Z ; PropagateConstants_DOTPScalarShiftSvshift
; Function compile flags: /Odtp /RTCsu
_TEXT	SEGMENT
_constants$ = 8						; size = 4
?PropagateConstants_DOTPScalarShiftSvshift@@YAXAAVSuperBlockConstants@@@Z PROC ; PropagateConstants_DOTPScalarShiftSvshift

; 627  : {

	push	ebp
	mov	ebp, esp

; 628  :   if(constants.IsMiscRegisterConstant(CONSTANT_REG_SVSHIFT) && ALLOW_MUL_PROPAGATION)

	push	14					; 0000000eH
	mov	ecx, DWORD PTR _constants$[ebp]
	call	?IsMiscRegisterConstant@SuperBlockConstants@@QAE_NI@Z ; SuperBlockConstants::IsMiscRegisterConstant
	movzx	eax, al
	test	eax, eax
	je	SHORT $LN2@PropagateC@23
	mov	ecx, 1
	test	ecx, ecx
	je	SHORT $LN2@PropagateC@23

; 629  :   {
; 630  :     constants.nuance->fields[FIELD_MUL_HANDLER] = Handler_DOTPScalarShiftImmediate;

	mov	edx, DWORD PTR _constants$[ebp]
	mov	eax, DWORD PTR [edx+4]
	mov	DWORD PTR [eax], 147			; 00000093H

; 631  :     constants.nuance->fields[FIELD_MUL_INFO] = constants.GetMiscRegisterConstant(CONSTANT_REG_SVSHIFT);    

	push	14					; 0000000eH
	mov	ecx, DWORD PTR _constants$[ebp]
	call	?GetMiscRegisterConstant@SuperBlockConstants@@QAEII@Z ; SuperBlockConstants::GetMiscRegisterConstant
	mov	ecx, DWORD PTR _constants$[ebp]
	mov	edx, DWORD PTR [ecx+4]
	mov	DWORD PTR [edx+4], eax

; 632  :     constants.ClearMiscInputDependency(CONSTANT_REG_SVSHIFT);

	push	14					; 0000000eH
	mov	ecx, DWORD PTR _constants$[ebp]
	call	?ClearMiscInputDependency@SuperBlockConstants@@QAEXI@Z ; SuperBlockConstants::ClearMiscInputDependency

; 633  :     PropagateConstants_DOTPScalarShiftImmediate(constants);

	mov	eax, DWORD PTR _constants$[ebp]
	push	eax
	call	?PropagateConstants_DOTPScalarShiftImmediate@@YAXAAVSuperBlockConstants@@@Z ; PropagateConstants_DOTPScalarShiftImmediate
	add	esp, 4

; 634  :   }
; 635  :   else

	jmp	SHORT $LN3@PropagateC@23
$LN2@PropagateC@23:

; 636  :   {
; 637  :     constants.ClearScalarRegisterConstant(constants.nuance->fields[FIELD_MUL_DEST]);

	mov	ecx, DWORD PTR _constants$[ebp]
	mov	edx, DWORD PTR [ecx+4]
	mov	eax, DWORD PTR [edx+16]
	push	eax
	mov	ecx, DWORD PTR _constants$[ebp]
	call	?ClearScalarRegisterConstant@SuperBlockConstants@@QAEXI@Z ; SuperBlockConstants::ClearScalarRegisterConstant

; 638  :     constants.status.status = PROPAGATE_CONSTANTS_STATUS_MUL_OK;

	mov	ecx, DWORD PTR _constants$[ebp]
	mov	DWORD PTR [ecx+12], 3
$LN3@PropagateC@23:

; 639  :   }
; 640  : }

	cmp	ebp, esp
	call	__RTC_CheckEsp
	pop	ebp
	ret	0
?PropagateConstants_DOTPScalarShiftSvshift@@YAXAAVSuperBlockConstants@@@Z ENDP ; PropagateConstants_DOTPScalarShiftSvshift
_TEXT	ENDS
PUBLIC	?PropagateConstants_DOTPVectorShiftImmediate@@YAXAAVSuperBlockConstants@@@Z ; PropagateConstants_DOTPVectorShiftImmediate
; Function compile flags: /Odtp /RTCsu
_TEXT	SEGMENT
_constants$ = 8						; size = 4
?PropagateConstants_DOTPVectorShiftImmediate@@YAXAAVSuperBlockConstants@@@Z PROC ; PropagateConstants_DOTPVectorShiftImmediate

; 643  : {

	push	ebp
	mov	ebp, esp

; 644  :   constants.ClearScalarRegisterConstant(constants.nuance->fields[FIELD_MUL_DEST]);

	mov	eax, DWORD PTR _constants$[ebp]
	mov	ecx, DWORD PTR [eax+4]
	mov	edx, DWORD PTR [ecx+16]
	push	edx
	mov	ecx, DWORD PTR _constants$[ebp]
	call	?ClearScalarRegisterConstant@SuperBlockConstants@@QAEXI@Z ; SuperBlockConstants::ClearScalarRegisterConstant

; 645  :   constants.status.status = PROPAGATE_CONSTANTS_STATUS_MUL_OK;

	mov	eax, DWORD PTR _constants$[ebp]
	mov	DWORD PTR [eax+12], 3

; 646  : }

	cmp	ebp, esp
	call	__RTC_CheckEsp
	pop	ebp
	ret	0
?PropagateConstants_DOTPVectorShiftImmediate@@YAXAAVSuperBlockConstants@@@Z ENDP ; PropagateConstants_DOTPVectorShiftImmediate
_TEXT	ENDS
PUBLIC	?PropagateConstants_DOTPVectorShiftSvshift@@YAXAAVSuperBlockConstants@@@Z ; PropagateConstants_DOTPVectorShiftSvshift
; Function compile flags: /Odtp /RTCsu
_TEXT	SEGMENT
_constants$ = 8						; size = 4
?PropagateConstants_DOTPVectorShiftSvshift@@YAXAAVSuperBlockConstants@@@Z PROC ; PropagateConstants_DOTPVectorShiftSvshift

; 648  : {

	push	ebp
	mov	ebp, esp

; 649  :   if(constants.IsMiscRegisterConstant(CONSTANT_REG_SVSHIFT) && ALLOW_MUL_PROPAGATION)

	push	14					; 0000000eH
	mov	ecx, DWORD PTR _constants$[ebp]
	call	?IsMiscRegisterConstant@SuperBlockConstants@@QAE_NI@Z ; SuperBlockConstants::IsMiscRegisterConstant
	movzx	eax, al
	test	eax, eax
	je	SHORT $LN2@PropagateC@24
	mov	ecx, 1
	test	ecx, ecx
	je	SHORT $LN2@PropagateC@24

; 650  :   {
; 651  :     constants.nuance->fields[FIELD_MUL_HANDLER] = Handler_DOTPVectorShiftImmediate;

	mov	edx, DWORD PTR _constants$[ebp]
	mov	eax, DWORD PTR [edx+4]
	mov	DWORD PTR [eax], 149			; 00000095H

; 652  :     constants.nuance->fields[FIELD_MUL_INFO] = constants.GetMiscRegisterConstant(CONSTANT_REG_SVSHIFT); 

	push	14					; 0000000eH
	mov	ecx, DWORD PTR _constants$[ebp]
	call	?GetMiscRegisterConstant@SuperBlockConstants@@QAEII@Z ; SuperBlockConstants::GetMiscRegisterConstant
	mov	ecx, DWORD PTR _constants$[ebp]
	mov	edx, DWORD PTR [ecx+4]
	mov	DWORD PTR [edx+4], eax

; 653  :     constants.ClearMiscInputDependency(CONSTANT_REG_SVSHIFT);

	push	14					; 0000000eH
	mov	ecx, DWORD PTR _constants$[ebp]
	call	?ClearMiscInputDependency@SuperBlockConstants@@QAEXI@Z ; SuperBlockConstants::ClearMiscInputDependency

; 654  :     PropagateConstants_DOTPVectorShiftImmediate(constants);

	mov	eax, DWORD PTR _constants$[ebp]
	push	eax
	call	?PropagateConstants_DOTPVectorShiftImmediate@@YAXAAVSuperBlockConstants@@@Z ; PropagateConstants_DOTPVectorShiftImmediate
	add	esp, 4

; 655  :   }
; 656  :   else

	jmp	SHORT $LN3@PropagateC@24
$LN2@PropagateC@24:

; 657  :   {
; 658  :     constants.ClearScalarRegisterConstant(constants.nuance->fields[FIELD_MUL_DEST]);

	mov	ecx, DWORD PTR _constants$[ebp]
	mov	edx, DWORD PTR [ecx+4]
	mov	eax, DWORD PTR [edx+16]
	push	eax
	mov	ecx, DWORD PTR _constants$[ebp]
	call	?ClearScalarRegisterConstant@SuperBlockConstants@@QAEXI@Z ; SuperBlockConstants::ClearScalarRegisterConstant

; 659  :     constants.status.status = PROPAGATE_CONSTANTS_STATUS_MUL_OK;

	mov	ecx, DWORD PTR _constants$[ebp]
	mov	DWORD PTR [ecx+12], 3
$LN3@PropagateC@24:

; 660  :   }
; 661  : }

	cmp	ebp, esp
	call	__RTC_CheckEsp
	pop	ebp
	ret	0
?PropagateConstants_DOTPVectorShiftSvshift@@YAXAAVSuperBlockConstants@@@Z ENDP ; PropagateConstants_DOTPVectorShiftSvshift
_TEXT	ENDS
END
