; Listing generated by Microsoft (R) Optimizing Compiler Version 14.00.50727.762 

	TITLE	c:\NuanceExperimental\PropagateConstantsHandlers.cpp
	.686P
	.XMM
	include listing.inc
	.model	flat

INCLUDELIB LIBCMTD
INCLUDELIB OLDNAMES

PUBLIC	?ConstantHandlers@@3PAP6AXAAVSuperBlockConstants@@@ZA ; ConstantHandlers
EXTRN	?PropagateConstants_PacketEnd@@YAXAAVSuperBlockConstants@@@Z:PROC ; PropagateConstants_PacketEnd
EXTRN	?PropagateConstants_PacketStart@@YAXAAVSuperBlockConstants@@@Z:PROC ; PropagateConstants_PacketStart
EXTRN	?PropagateConstants_StoreMiscRegisterConstant@@YAXAAVSuperBlockConstants@@@Z:PROC ; PropagateConstants_StoreMiscRegisterConstant
EXTRN	?PropagateConstants_StoreScalarRegisterConstant@@YAXAAVSuperBlockConstants@@@Z:PROC ; PropagateConstants_StoreScalarRegisterConstant
EXTRN	?PropagateConstants_StoreScalarImmediate@@YAXAAVSuperBlockConstants@@@Z:PROC ; PropagateConstants_StoreScalarImmediate
EXTRN	?PropagateConstants_StoreScalarControlRegisterImmediate@@YAXAAVSuperBlockConstants@@@Z:PROC ; PropagateConstants_StoreScalarControlRegisterImmediate
EXTRN	?PropagateConstants_StorePixelZBilinearXY@@YAXAAVSuperBlockConstants@@@Z:PROC ; PropagateConstants_StorePixelZBilinearXY
EXTRN	?PropagateConstants_StorePixelZBilinearUV@@YAXAAVSuperBlockConstants@@@Z:PROC ; PropagateConstants_StorePixelZBilinearUV
EXTRN	?PropagateConstants_StorePixelZLinear@@YAXAAVSuperBlockConstants@@@Z:PROC ; PropagateConstants_StorePixelZLinear
EXTRN	?PropagateConstants_StorePixelBilinearXY@@YAXAAVSuperBlockConstants@@@Z:PROC ; PropagateConstants_StorePixelBilinearXY
EXTRN	?PropagateConstants_StorePixelBilinearUV@@YAXAAVSuperBlockConstants@@@Z:PROC ; PropagateConstants_StorePixelBilinearUV
EXTRN	?PropagateConstants_StorePixelLinear@@YAXAAVSuperBlockConstants@@@Z:PROC ; PropagateConstants_StorePixelLinear
EXTRN	?PropagateConstants_StoreVectorBilinearXY@@YAXAAVSuperBlockConstants@@@Z:PROC ; PropagateConstants_StoreVectorBilinearXY
EXTRN	?PropagateConstants_StoreVectorBilinearUV@@YAXAAVSuperBlockConstants@@@Z:PROC ; PropagateConstants_StoreVectorBilinearUV
EXTRN	?PropagateConstants_StoreVectorLinear@@YAXAAVSuperBlockConstants@@@Z:PROC ; PropagateConstants_StoreVectorLinear
EXTRN	?PropagateConstants_StoreShortVectorBilinearXY@@YAXAAVSuperBlockConstants@@@Z:PROC ; PropagateConstants_StoreShortVectorBilinearXY
EXTRN	?PropagateConstants_StoreShortVectorBilinearUV@@YAXAAVSuperBlockConstants@@@Z:PROC ; PropagateConstants_StoreShortVectorBilinearUV
EXTRN	?PropagateConstants_StoreShortVectorLinear@@YAXAAVSuperBlockConstants@@@Z:PROC ; PropagateConstants_StoreShortVectorLinear
EXTRN	?PropagateConstants_StoreScalarBilinearXY@@YAXAAVSuperBlockConstants@@@Z:PROC ; PropagateConstants_StoreScalarBilinearXY
EXTRN	?PropagateConstants_StoreScalarBilinearUV@@YAXAAVSuperBlockConstants@@@Z:PROC ; PropagateConstants_StoreScalarBilinearUV
EXTRN	?PropagateConstants_StoreScalarLinear@@YAXAAVSuperBlockConstants@@@Z:PROC ; PropagateConstants_StoreScalarLinear
EXTRN	?PropagateConstants_StorePixelZAbsolute@@YAXAAVSuperBlockConstants@@@Z:PROC ; PropagateConstants_StorePixelZAbsolute
EXTRN	?PropagateConstants_StorePixelAbsolute@@YAXAAVSuperBlockConstants@@@Z:PROC ; PropagateConstants_StorePixelAbsolute
EXTRN	?PropagateConstants_StoreVectorControlRegisterAbsolute@@YAXAAVSuperBlockConstants@@@Z:PROC ; PropagateConstants_StoreVectorControlRegisterAbsolute
EXTRN	?PropagateConstants_StoreVectorAbsolute@@YAXAAVSuperBlockConstants@@@Z:PROC ; PropagateConstants_StoreVectorAbsolute
EXTRN	?PropagateConstants_StoreShortVectorAbsolute@@YAXAAVSuperBlockConstants@@@Z:PROC ; PropagateConstants_StoreShortVectorAbsolute
EXTRN	?PropagateConstants_StoreScalarControlRegisterAbsolute@@YAXAAVSuperBlockConstants@@@Z:PROC ; PropagateConstants_StoreScalarControlRegisterAbsolute
EXTRN	?PropagateConstants_StoreScalarAbsolute@@YAXAAVSuperBlockConstants@@@Z:PROC ; PropagateConstants_StoreScalarAbsolute
EXTRN	?PropagateConstants_LoadPixelZBilinearXY@@YAXAAVSuperBlockConstants@@@Z:PROC ; PropagateConstants_LoadPixelZBilinearXY
EXTRN	?PropagateConstants_LoadPixelZBilinearUV@@YAXAAVSuperBlockConstants@@@Z:PROC ; PropagateConstants_LoadPixelZBilinearUV
EXTRN	?PropagateConstants_LoadPixelZLinear@@YAXAAVSuperBlockConstants@@@Z:PROC ; PropagateConstants_LoadPixelZLinear
EXTRN	?PropagateConstants_LoadPixelBilinearXY@@YAXAAVSuperBlockConstants@@@Z:PROC ; PropagateConstants_LoadPixelBilinearXY
EXTRN	?PropagateConstants_LoadPixelBilinearUV@@YAXAAVSuperBlockConstants@@@Z:PROC ; PropagateConstants_LoadPixelBilinearUV
EXTRN	?PropagateConstants_LoadPixelLinear@@YAXAAVSuperBlockConstants@@@Z:PROC ; PropagateConstants_LoadPixelLinear
EXTRN	?PropagateConstants_LoadVectorBilinearXY@@YAXAAVSuperBlockConstants@@@Z:PROC ; PropagateConstants_LoadVectorBilinearXY
EXTRN	?PropagateConstants_LoadVectorBilinearUV@@YAXAAVSuperBlockConstants@@@Z:PROC ; PropagateConstants_LoadVectorBilinearUV
EXTRN	?PropagateConstants_LoadVectorLinear@@YAXAAVSuperBlockConstants@@@Z:PROC ; PropagateConstants_LoadVectorLinear
EXTRN	?PropagateConstants_LoadShortVectorBilinearXY@@YAXAAVSuperBlockConstants@@@Z:PROC ; PropagateConstants_LoadShortVectorBilinearXY
EXTRN	?PropagateConstants_LoadShortVectorBilinearUV@@YAXAAVSuperBlockConstants@@@Z:PROC ; PropagateConstants_LoadShortVectorBilinearUV
EXTRN	?PropagateConstants_LoadShortVectorLinear@@YAXAAVSuperBlockConstants@@@Z:PROC ; PropagateConstants_LoadShortVectorLinear
EXTRN	?PropagateConstants_LoadScalarBilinearXY@@YAXAAVSuperBlockConstants@@@Z:PROC ; PropagateConstants_LoadScalarBilinearXY
EXTRN	?PropagateConstants_LoadScalarBilinearUV@@YAXAAVSuperBlockConstants@@@Z:PROC ; PropagateConstants_LoadScalarBilinearUV
EXTRN	?PropagateConstants_LoadWordBilinearXY@@YAXAAVSuperBlockConstants@@@Z:PROC ; PropagateConstants_LoadWordBilinearXY
EXTRN	?PropagateConstants_LoadWordBilinearUV@@YAXAAVSuperBlockConstants@@@Z:PROC ; PropagateConstants_LoadWordBilinearUV
EXTRN	?PropagateConstants_LoadWordLinear@@YAXAAVSuperBlockConstants@@@Z:PROC ; PropagateConstants_LoadWordLinear
EXTRN	?PropagateConstants_LoadByteBilinearXY@@YAXAAVSuperBlockConstants@@@Z:PROC ; PropagateConstants_LoadByteBilinearXY
EXTRN	?PropagateConstants_LoadByteBilinearUV@@YAXAAVSuperBlockConstants@@@Z:PROC ; PropagateConstants_LoadByteBilinearUV
EXTRN	?PropagateConstants_LoadByteLinear@@YAXAAVSuperBlockConstants@@@Z:PROC ; PropagateConstants_LoadByteLinear
EXTRN	?PropagateConstants_LoadPixelZAbsolute@@YAXAAVSuperBlockConstants@@@Z:PROC ; PropagateConstants_LoadPixelZAbsolute
EXTRN	?PropagateConstants_LoadPixelAbsolute@@YAXAAVSuperBlockConstants@@@Z:PROC ; PropagateConstants_LoadPixelAbsolute
EXTRN	?PropagateConstants_LoadVectorControlRegisterAbsolute@@YAXAAVSuperBlockConstants@@@Z:PROC ; PropagateConstants_LoadVectorControlRegisterAbsolute
EXTRN	?PropagateConstants_LoadVectorAbsolute@@YAXAAVSuperBlockConstants@@@Z:PROC ; PropagateConstants_LoadVectorAbsolute
EXTRN	?PropagateConstants_LoadShortVectorAbsolute@@YAXAAVSuperBlockConstants@@@Z:PROC ; PropagateConstants_LoadShortVectorAbsolute
EXTRN	?PropagateConstants_LoadScalarAbsolute@@YAXAAVSuperBlockConstants@@@Z:PROC ; PropagateConstants_LoadScalarAbsolute
EXTRN	?PropagateConstants_LoadWordAbsolute@@YAXAAVSuperBlockConstants@@@Z:PROC ; PropagateConstants_LoadWordAbsolute
EXTRN	?PropagateConstants_LoadByteAbsolute@@YAXAAVSuperBlockConstants@@@Z:PROC ; PropagateConstants_LoadByteAbsolute
EXTRN	?PropagateConstants_LoadScalarControlRegisterAbsolute@@YAXAAVSuperBlockConstants@@@Z:PROC ; PropagateConstants_LoadScalarControlRegisterAbsolute
EXTRN	?PropagateConstants_LoadScalarLinear@@YAXAAVSuperBlockConstants@@@Z:PROC ; PropagateConstants_LoadScalarLinear
EXTRN	?PropagateConstants_PushScalarRzi2@@YAXAAVSuperBlockConstants@@@Z:PROC ; PropagateConstants_PushScalarRzi2
EXTRN	?PropagateConstants_PushScalarRzi1@@YAXAAVSuperBlockConstants@@@Z:PROC ; PropagateConstants_PushScalarRzi1
EXTRN	?PropagateConstants_PushVectorRz@@YAXAAVSuperBlockConstants@@@Z:PROC ; PropagateConstants_PushVectorRz
EXTRN	?PropagateConstants_PushVector@@YAXAAVSuperBlockConstants@@@Z:PROC ; PropagateConstants_PushVector
EXTRN	?PropagateConstants_PopScalarRzi2@@YAXAAVSuperBlockConstants@@@Z:PROC ; PropagateConstants_PopScalarRzi2
EXTRN	?PropagateConstants_PopScalarRzi1@@YAXAAVSuperBlockConstants@@@Z:PROC ; PropagateConstants_PopScalarRzi1
EXTRN	?PropagateConstants_PopVectorRz@@YAXAAVSuperBlockConstants@@@Z:PROC ; PropagateConstants_PopVectorRz
EXTRN	?PropagateConstants_PopVector@@YAXAAVSuperBlockConstants@@@Z:PROC ; PropagateConstants_PopVector
EXTRN	?PropagateConstants_MV_V@@YAXAAVSuperBlockConstants@@@Z:PROC ; PropagateConstants_MV_V
EXTRN	?PropagateConstants_MV_SScalar@@YAXAAVSuperBlockConstants@@@Z:PROC ; PropagateConstants_MV_SScalar
EXTRN	?PropagateConstants_MV_SImmediate@@YAXAAVSuperBlockConstants@@@Z:PROC ; PropagateConstants_MV_SImmediate
EXTRN	?PropagateConstants_Mirror@@YAXAAVSuperBlockConstants@@@Z:PROC ; PropagateConstants_Mirror
EXTRN	?PropagateConstants_DOTPVectorShiftSvshift@@YAXAAVSuperBlockConstants@@@Z:PROC ; PropagateConstants_DOTPVectorShiftSvshift
EXTRN	?PropagateConstants_DOTPVectorShiftImmediate@@YAXAAVSuperBlockConstants@@@Z:PROC ; PropagateConstants_DOTPVectorShiftImmediate
EXTRN	?PropagateConstants_DOTPScalarShiftSvshift@@YAXAAVSuperBlockConstants@@@Z:PROC ; PropagateConstants_DOTPScalarShiftSvshift
EXTRN	?PropagateConstants_DOTPScalarShiftImmediate@@YAXAAVSuperBlockConstants@@@Z:PROC ; PropagateConstants_DOTPScalarShiftImmediate
EXTRN	?PropagateConstants_MUL_PVectorShiftSvshift@@YAXAAVSuperBlockConstants@@@Z:PROC ; PropagateConstants_MUL_PVectorShiftSvshift
EXTRN	?PropagateConstants_MUL_PVectorShiftImmediate@@YAXAAVSuperBlockConstants@@@Z:PROC ; PropagateConstants_MUL_PVectorShiftImmediate
EXTRN	?PropagateConstants_MUL_PRvShiftSvshift@@YAXAAVSuperBlockConstants@@@Z:PROC ; PropagateConstants_MUL_PRvShiftSvshift
EXTRN	?PropagateConstants_MUL_PRvShiftImmediate@@YAXAAVSuperBlockConstants@@@Z:PROC ; PropagateConstants_MUL_PRvShiftImmediate
EXTRN	?PropagateConstants_MUL_PRuShiftSvshift@@YAXAAVSuperBlockConstants@@@Z:PROC ; PropagateConstants_MUL_PRuShiftSvshift
EXTRN	?PropagateConstants_MUL_PRuShiftImmediate@@YAXAAVSuperBlockConstants@@@Z:PROC ; PropagateConstants_MUL_PRuShiftImmediate
EXTRN	?PropagateConstants_MUL_PScalarShiftSvshift@@YAXAAVSuperBlockConstants@@@Z:PROC ; PropagateConstants_MUL_PScalarShiftSvshift
EXTRN	?PropagateConstants_MUL_PScalarShiftImmediate@@YAXAAVSuperBlockConstants@@@Z:PROC ; PropagateConstants_MUL_PScalarShiftImmediate
EXTRN	?PropagateConstants_MUL_PImmediateShiftImmediate@@YAXAAVSuperBlockConstants@@@Z:PROC ; PropagateConstants_MUL_PImmediateShiftImmediate
EXTRN	?PropagateConstants_MUL_SVVectorShiftSvshift@@YAXAAVSuperBlockConstants@@@Z:PROC ; PropagateConstants_MUL_SVVectorShiftSvshift
EXTRN	?PropagateConstants_MUL_SVVectorShiftImmediate@@YAXAAVSuperBlockConstants@@@Z:PROC ; PropagateConstants_MUL_SVVectorShiftImmediate
EXTRN	?PropagateConstants_MUL_SVRvShiftSvshift@@YAXAAVSuperBlockConstants@@@Z:PROC ; PropagateConstants_MUL_SVRvShiftSvshift
EXTRN	?PropagateConstants_MUL_SVRvShiftImmediate@@YAXAAVSuperBlockConstants@@@Z:PROC ; PropagateConstants_MUL_SVRvShiftImmediate
EXTRN	?PropagateConstants_MUL_SVRuShiftSvshift@@YAXAAVSuperBlockConstants@@@Z:PROC ; PropagateConstants_MUL_SVRuShiftSvshift
EXTRN	?PropagateConstants_MUL_SVRuShiftImmediate@@YAXAAVSuperBlockConstants@@@Z:PROC ; PropagateConstants_MUL_SVRuShiftImmediate
EXTRN	?PropagateConstants_MUL_SVScalarShiftSvshift@@YAXAAVSuperBlockConstants@@@Z:PROC ; PropagateConstants_MUL_SVScalarShiftSvshift
EXTRN	?PropagateConstants_MUL_SVScalarShiftImmediate@@YAXAAVSuperBlockConstants@@@Z:PROC ; PropagateConstants_MUL_SVScalarShiftImmediate
EXTRN	?PropagateConstants_MUL_SVImmediateShiftImmediate@@YAXAAVSuperBlockConstants@@@Z:PROC ; PropagateConstants_MUL_SVImmediateShiftImmediate
EXTRN	?PropagateConstants_MULImmediateShiftLeftImmediate@@YAXAAVSuperBlockConstants@@@Z:PROC ; PropagateConstants_MULImmediateShiftLeftImmediate
EXTRN	?PropagateConstants_MULImmediateShiftRightImmediate@@YAXAAVSuperBlockConstants@@@Z:PROC ; PropagateConstants_MULImmediateShiftRightImmediate
EXTRN	?PropagateConstants_MULImmediateShiftScalar@@YAXAAVSuperBlockConstants@@@Z:PROC ; PropagateConstants_MULImmediateShiftScalar
EXTRN	?PropagateConstants_MULScalarShiftScalar@@YAXAAVSuperBlockConstants@@@Z:PROC ; PropagateConstants_MULScalarShiftScalar
EXTRN	?PropagateConstants_MULImmediateShiftAcshift@@YAXAAVSuperBlockConstants@@@Z:PROC ; PropagateConstants_MULImmediateShiftAcshift
EXTRN	?PropagateConstants_MULScalarShiftLeftImmediate@@YAXAAVSuperBlockConstants@@@Z:PROC ; PropagateConstants_MULScalarShiftLeftImmediate
EXTRN	?PropagateConstants_MULScalarShiftRightImmediate@@YAXAAVSuperBlockConstants@@@Z:PROC ; PropagateConstants_MULScalarShiftRightImmediate
EXTRN	?PropagateConstants_MULScalarShiftAcshift@@YAXAAVSuperBlockConstants@@@Z:PROC ; PropagateConstants_MULScalarShiftAcshift
EXTRN	?PropagateConstants_SUBMImmediateReverse@@YAXAAVSuperBlockConstants@@@Z:PROC ; PropagateConstants_SUBMImmediateReverse
EXTRN	?PropagateConstants_SUBM@@YAXAAVSuperBlockConstants@@@Z:PROC ; PropagateConstants_SUBM
EXTRN	?PropagateConstants_ADDMImmediate@@YAXAAVSuperBlockConstants@@@Z:PROC ; PropagateConstants_ADDMImmediate
EXTRN	?PropagateConstants_ADDM@@YAXAAVSuperBlockConstants@@@Z:PROC ; PropagateConstants_ADDM
EXTRN	?PropagateConstants_CMPWCScalarShiftLeftImmediate@@YAXAAVSuperBlockConstants@@@Z:PROC ; PropagateConstants_CMPWCScalarShiftLeftImmediate
EXTRN	?PropagateConstants_CMPWCScalarShiftRightImmediate@@YAXAAVSuperBlockConstants@@@Z:PROC ; PropagateConstants_CMPWCScalarShiftRightImmediate
EXTRN	?PropagateConstants_CMPWCImmediateReverse@@YAXAAVSuperBlockConstants@@@Z:PROC ; PropagateConstants_CMPWCImmediateReverse
EXTRN	?PropagateConstants_CMPWCImmediate@@YAXAAVSuperBlockConstants@@@Z:PROC ; PropagateConstants_CMPWCImmediate
EXTRN	?PropagateConstants_CMPWCScalar@@YAXAAVSuperBlockConstants@@@Z:PROC ; PropagateConstants_CMPWCScalar
EXTRN	?PropagateConstants_SUBWCScalarShiftLeftImmediate@@YAXAAVSuperBlockConstants@@@Z:PROC ; PropagateConstants_SUBWCScalarShiftLeftImmediate
EXTRN	?PropagateConstants_SUBWCScalarShiftRightImmediate@@YAXAAVSuperBlockConstants@@@Z:PROC ; PropagateConstants_SUBWCScalarShiftRightImmediate
EXTRN	?PropagateConstants_SUBWCImmediateReverse@@YAXAAVSuperBlockConstants@@@Z:PROC ; PropagateConstants_SUBWCImmediateReverse
EXTRN	?PropagateConstants_SUBWCImmediate@@YAXAAVSuperBlockConstants@@@Z:PROC ; PropagateConstants_SUBWCImmediate
EXTRN	?PropagateConstants_SUBWCScalar@@YAXAAVSuperBlockConstants@@@Z:PROC ; PropagateConstants_SUBWCScalar
EXTRN	?PropagateConstants_ADDWCScalarShiftLeftImmediate@@YAXAAVSuperBlockConstants@@@Z:PROC ; PropagateConstants_ADDWCScalarShiftLeftImmediate
EXTRN	?PropagateConstants_ADDWCScalarShiftRightImmediate@@YAXAAVSuperBlockConstants@@@Z:PROC ; PropagateConstants_ADDWCScalarShiftRightImmediate
EXTRN	?PropagateConstants_ADDWCImmediate@@YAXAAVSuperBlockConstants@@@Z:PROC ; PropagateConstants_ADDWCImmediate
EXTRN	?PropagateConstants_ADDWCScalar@@YAXAAVSuperBlockConstants@@@Z:PROC ; PropagateConstants_ADDWCScalar
EXTRN	?PropagateConstants_EORScalarRotateScalar@@YAXAAVSuperBlockConstants@@@Z:PROC ; PropagateConstants_EORScalarRotateScalar
EXTRN	?PropagateConstants_EORScalarShiftScalar@@YAXAAVSuperBlockConstants@@@Z:PROC ; PropagateConstants_EORScalarShiftScalar
EXTRN	?PropagateConstants_EORScalarShiftLeftImmediate@@YAXAAVSuperBlockConstants@@@Z:PROC ; PropagateConstants_EORScalarShiftLeftImmediate
EXTRN	?PropagateConstants_EORScalarShiftRightImmediate@@YAXAAVSuperBlockConstants@@@Z:PROC ; PropagateConstants_EORScalarShiftRightImmediate
EXTRN	?PropagateConstants_EORImmediateShiftScalar@@YAXAAVSuperBlockConstants@@@Z:PROC ; PropagateConstants_EORImmediateShiftScalar
EXTRN	?PropagateConstants_EORScalar@@YAXAAVSuperBlockConstants@@@Z:PROC ; PropagateConstants_EORScalar
EXTRN	?PropagateConstants_EORImmediate@@YAXAAVSuperBlockConstants@@@Z:PROC ; PropagateConstants_EORImmediate
EXTRN	?PropagateConstants_ORScalarRotateScalar@@YAXAAVSuperBlockConstants@@@Z:PROC ; PropagateConstants_ORScalarRotateScalar
EXTRN	?PropagateConstants_ORScalarShiftScalar@@YAXAAVSuperBlockConstants@@@Z:PROC ; PropagateConstants_ORScalarShiftScalar
EXTRN	?PropagateConstants_ORScalarShiftLeftImmediate@@YAXAAVSuperBlockConstants@@@Z:PROC ; PropagateConstants_ORScalarShiftLeftImmediate
EXTRN	?PropagateConstants_ORScalarShiftRightImmediate@@YAXAAVSuperBlockConstants@@@Z:PROC ; PropagateConstants_ORScalarShiftRightImmediate
EXTRN	?PropagateConstants_ORImmediateShiftScalar@@YAXAAVSuperBlockConstants@@@Z:PROC ; PropagateConstants_ORImmediateShiftScalar
EXTRN	?PropagateConstants_ORScalar@@YAXAAVSuperBlockConstants@@@Z:PROC ; PropagateConstants_ORScalar
EXTRN	?PropagateConstants_ORImmediate@@YAXAAVSuperBlockConstants@@@Z:PROC ; PropagateConstants_ORImmediate
EXTRN	?PropagateConstants_FTSTScalarRotateScalar@@YAXAAVSuperBlockConstants@@@Z:PROC ; PropagateConstants_FTSTScalarRotateScalar
EXTRN	?PropagateConstants_FTSTScalarShiftScalar@@YAXAAVSuperBlockConstants@@@Z:PROC ; PropagateConstants_FTSTScalarShiftScalar
EXTRN	?PropagateConstants_FTSTScalarShiftLeftImmediate@@YAXAAVSuperBlockConstants@@@Z:PROC ; PropagateConstants_FTSTScalarShiftLeftImmediate
EXTRN	?PropagateConstants_FTSTScalarShiftRightImmediate@@YAXAAVSuperBlockConstants@@@Z:PROC ; PropagateConstants_FTSTScalarShiftRightImmediate
EXTRN	?PropagateConstants_FTSTImmediateShiftScalar@@YAXAAVSuperBlockConstants@@@Z:PROC ; PropagateConstants_FTSTImmediateShiftScalar
EXTRN	?PropagateConstants_FTSTScalar@@YAXAAVSuperBlockConstants@@@Z:PROC ; PropagateConstants_FTSTScalar
EXTRN	?PropagateConstants_FTSTImmediate@@YAXAAVSuperBlockConstants@@@Z:PROC ; PropagateConstants_FTSTImmediate
EXTRN	?PropagateConstants_ANDScalarRotateScalar@@YAXAAVSuperBlockConstants@@@Z:PROC ; PropagateConstants_ANDScalarRotateScalar
EXTRN	?PropagateConstants_ANDScalarShiftScalar@@YAXAAVSuperBlockConstants@@@Z:PROC ; PropagateConstants_ANDScalarShiftScalar
EXTRN	?PropagateConstants_ANDScalarShiftLeftImmediate@@YAXAAVSuperBlockConstants@@@Z:PROC ; PropagateConstants_ANDScalarShiftLeftImmediate
EXTRN	?PropagateConstants_ANDScalarShiftRightImmediate@@YAXAAVSuperBlockConstants@@@Z:PROC ; PropagateConstants_ANDScalarShiftRightImmediate
EXTRN	?PropagateConstants_ANDImmediateShiftScalar@@YAXAAVSuperBlockConstants@@@Z:PROC ; PropagateConstants_ANDImmediateShiftScalar
EXTRN	?PropagateConstants_ANDScalar@@YAXAAVSuperBlockConstants@@@Z:PROC ; PropagateConstants_ANDScalar
EXTRN	?PropagateConstants_ANDImmediate@@YAXAAVSuperBlockConstants@@@Z:PROC ; PropagateConstants_ANDImmediate
EXTRN	?PropagateConstants_CMPScalarShiftLeftImmediate@@YAXAAVSuperBlockConstants@@@Z:PROC ; PropagateConstants_CMPScalarShiftLeftImmediate
EXTRN	?PropagateConstants_CMPScalarShiftRightImmediate@@YAXAAVSuperBlockConstants@@@Z:PROC ; PropagateConstants_CMPScalarShiftRightImmediate
EXTRN	?PropagateConstants_CMPScalar@@YAXAAVSuperBlockConstants@@@Z:PROC ; PropagateConstants_CMPScalar
EXTRN	?PropagateConstants_CMPImmediateReverse@@YAXAAVSuperBlockConstants@@@Z:PROC ; PropagateConstants_CMPImmediateReverse
EXTRN	?PropagateConstants_CMPImmediate@@YAXAAVSuperBlockConstants@@@Z:PROC ; PropagateConstants_CMPImmediate
EXTRN	?PropagateConstants_SUBScalarShiftLeftImmediate@@YAXAAVSuperBlockConstants@@@Z:PROC ; PropagateConstants_SUBScalarShiftLeftImmediate
EXTRN	?PropagateConstants_SUBScalarShiftRightImmediate@@YAXAAVSuperBlockConstants@@@Z:PROC ; PropagateConstants_SUBScalarShiftRightImmediate
EXTRN	?PropagateConstants_SUBScalar@@YAXAAVSuperBlockConstants@@@Z:PROC ; PropagateConstants_SUBScalar
EXTRN	?PropagateConstants_SUBImmediateReverse@@YAXAAVSuperBlockConstants@@@Z:PROC ; PropagateConstants_SUBImmediateReverse
EXTRN	?PropagateConstants_SUBImmediate@@YAXAAVSuperBlockConstants@@@Z:PROC ; PropagateConstants_SUBImmediate
EXTRN	?PropagateConstants_ADDScalarShiftLeftImmediate@@YAXAAVSuperBlockConstants@@@Z:PROC ; PropagateConstants_ADDScalarShiftLeftImmediate
EXTRN	?PropagateConstants_ADDScalarShiftRightImmediate@@YAXAAVSuperBlockConstants@@@Z:PROC ; PropagateConstants_ADDScalarShiftRightImmediate
EXTRN	?PropagateConstants_ADDScalar@@YAXAAVSuperBlockConstants@@@Z:PROC ; PropagateConstants_ADDScalar
EXTRN	?PropagateConstants_ADDImmediate@@YAXAAVSuperBlockConstants@@@Z:PROC ; PropagateConstants_ADDImmediate
EXTRN	?PropagateConstants_SUB_SV@@YAXAAVSuperBlockConstants@@@Z:PROC ; PropagateConstants_SUB_SV
EXTRN	?PropagateConstants_ADD_SV@@YAXAAVSuperBlockConstants@@@Z:PROC ; PropagateConstants_ADD_SV
EXTRN	?PropagateConstants_SUB_P@@YAXAAVSuperBlockConstants@@@Z:PROC ; PropagateConstants_SUB_P
EXTRN	?PropagateConstants_ADD_P@@YAXAAVSuperBlockConstants@@@Z:PROC ; PropagateConstants_ADD_P
EXTRN	?PropagateConstants_ROR@@YAXAAVSuperBlockConstants@@@Z:PROC ; PropagateConstants_ROR
EXTRN	?PropagateConstants_ROL@@YAXAAVSuperBlockConstants@@@Z:PROC ; PropagateConstants_ROL
EXTRN	?PropagateConstants_ROT@@YAXAAVSuperBlockConstants@@@Z:PROC ; PropagateConstants_ROT
EXTRN	?PropagateConstants_LSR@@YAXAAVSuperBlockConstants@@@Z:PROC ; PropagateConstants_LSR
EXTRN	?PropagateConstants_LS@@YAXAAVSuperBlockConstants@@@Z:PROC ; PropagateConstants_LS
EXTRN	?PropagateConstants_ASR@@YAXAAVSuperBlockConstants@@@Z:PROC ; PropagateConstants_ASR
EXTRN	?PropagateConstants_ASL@@YAXAAVSuperBlockConstants@@@Z:PROC ; PropagateConstants_ASL
EXTRN	?PropagateConstants_AS@@YAXAAVSuperBlockConstants@@@Z:PROC ; PropagateConstants_AS
EXTRN	?PropagateConstants_SAT@@YAXAAVSuperBlockConstants@@@Z:PROC ; PropagateConstants_SAT
EXTRN	?PropagateConstants_MSB@@YAXAAVSuperBlockConstants@@@Z:PROC ; PropagateConstants_MSB
EXTRN	?PropagateConstants_COPY@@YAXAAVSuperBlockConstants@@@Z:PROC ; PropagateConstants_COPY
EXTRN	?PropagateConstants_BUTT@@YAXAAVSuperBlockConstants@@@Z:PROC ; PropagateConstants_BUTT
EXTRN	?PropagateConstants_BTST@@YAXAAVSuperBlockConstants@@@Z:PROC ; PropagateConstants_BTST
EXTRN	?PropagateConstants_BITSImmediate@@YAXAAVSuperBlockConstants@@@Z:PROC ; PropagateConstants_BITSImmediate
EXTRN	?PropagateConstants_BITSScalar@@YAXAAVSuperBlockConstants@@@Z:PROC ; PropagateConstants_BITSScalar
EXTRN	?PropagateConstants_ABS@@YAXAAVSuperBlockConstants@@@Z:PROC ; PropagateConstants_ABS
EXTRN	?PropagateConstants_Modulo@@YAXAAVSuperBlockConstants@@@Z:PROC ; PropagateConstants_Modulo
EXTRN	?PropagateConstants_ModuloOnly@@YAXAAVSuperBlockConstants@@@Z:PROC ; PropagateConstants_ModuloOnly
EXTRN	?PropagateConstants_Range@@YAXAAVSuperBlockConstants@@@Z:PROC ; PropagateConstants_Range
EXTRN	?PropagateConstants_RangeOnly@@YAXAAVSuperBlockConstants@@@Z:PROC ; PropagateConstants_RangeOnly
EXTRN	?PropagateConstants_MVRScalar@@YAXAAVSuperBlockConstants@@@Z:PROC ; PropagateConstants_MVRScalar
EXTRN	?PropagateConstants_MVRScalarOnly@@YAXAAVSuperBlockConstants@@@Z:PROC ; PropagateConstants_MVRScalarOnly
EXTRN	?PropagateConstants_MVRImmediate@@YAXAAVSuperBlockConstants@@@Z:PROC ; PropagateConstants_MVRImmediate
EXTRN	?PropagateConstants_MVRImmediateOnly@@YAXAAVSuperBlockConstants@@@Z:PROC ; PropagateConstants_MVRImmediateOnly
EXTRN	?PropagateConstants_ADDRScalar@@YAXAAVSuperBlockConstants@@@Z:PROC ; PropagateConstants_ADDRScalar
EXTRN	?PropagateConstants_ADDRScalarOnly@@YAXAAVSuperBlockConstants@@@Z:PROC ; PropagateConstants_ADDRScalarOnly
EXTRN	?PropagateConstants_ADDRImmediate@@YAXAAVSuperBlockConstants@@@Z:PROC ; PropagateConstants_ADDRImmediate
EXTRN	?PropagateConstants_ADDRImmediateOnly@@YAXAAVSuperBlockConstants@@@Z:PROC ; PropagateConstants_ADDRImmediateOnly
EXTRN	?PropagateConstants_DECBoth@@YAXAAVSuperBlockConstants@@@Z:PROC ; PropagateConstants_DECBoth
EXTRN	?PropagateConstants_DECRc0@@YAXAAVSuperBlockConstants@@@Z:PROC ; PropagateConstants_DECRc0
EXTRN	?PropagateConstants_DECRc1@@YAXAAVSuperBlockConstants@@@Z:PROC ; PropagateConstants_DECRc1
EXTRN	?PropagateConstants_RTSConditional_NOP@@YAXAAVSuperBlockConstants@@@Z:PROC ; PropagateConstants_RTSConditional_NOP
EXTRN	?PropagateConstants_RTSConditional@@YAXAAVSuperBlockConstants@@@Z:PROC ; PropagateConstants_RTSConditional
EXTRN	?PropagateConstants_RTSAlways_NOP@@YAXAAVSuperBlockConstants@@@Z:PROC ; PropagateConstants_RTSAlways_NOP
EXTRN	?PropagateConstants_RTSAlways@@YAXAAVSuperBlockConstants@@@Z:PROC ; PropagateConstants_RTSAlways
EXTRN	?PropagateConstants_RTI2Conditional_NOP@@YAXAAVSuperBlockConstants@@@Z:PROC ; PropagateConstants_RTI2Conditional_NOP
EXTRN	?PropagateConstants_RTI2Conditional@@YAXAAVSuperBlockConstants@@@Z:PROC ; PropagateConstants_RTI2Conditional
EXTRN	?PropagateConstants_RTI1Conditional_NOP@@YAXAAVSuperBlockConstants@@@Z:PROC ; PropagateConstants_RTI1Conditional_NOP
EXTRN	?PropagateConstants_RTI1Conditional@@YAXAAVSuperBlockConstants@@@Z:PROC ; PropagateConstants_RTI1Conditional
EXTRN	?PropagateConstants_JSRConditionalIndirect_NOP@@YAXAAVSuperBlockConstants@@@Z:PROC ; PropagateConstants_JSRConditionalIndirect_NOP
EXTRN	?PropagateConstants_JSRConditionalIndirect@@YAXAAVSuperBlockConstants@@@Z:PROC ; PropagateConstants_JSRConditionalIndirect
EXTRN	?PropagateConstants_JSRAlwaysIndirect_NOP@@YAXAAVSuperBlockConstants@@@Z:PROC ; PropagateConstants_JSRAlwaysIndirect_NOP
EXTRN	?PropagateConstants_JSRAlwaysIndirect@@YAXAAVSuperBlockConstants@@@Z:PROC ; PropagateConstants_JSRAlwaysIndirect
EXTRN	?PropagateConstants_JSRConditional_NOP@@YAXAAVSuperBlockConstants@@@Z:PROC ; PropagateConstants_JSRConditional_NOP
EXTRN	?PropagateConstants_JSRConditional@@YAXAAVSuperBlockConstants@@@Z:PROC ; PropagateConstants_JSRConditional
EXTRN	?PropagateConstants_JSRAlways_NOP@@YAXAAVSuperBlockConstants@@@Z:PROC ; PropagateConstants_JSRAlways_NOP
EXTRN	?PropagateConstants_JSRAlways@@YAXAAVSuperBlockConstants@@@Z:PROC ; PropagateConstants_JSRAlways
EXTRN	?PropagateConstants_JMPConditionalIndirect_NOP@@YAXAAVSuperBlockConstants@@@Z:PROC ; PropagateConstants_JMPConditionalIndirect_NOP
EXTRN	?PropagateConstants_JMPConditionalIndirect@@YAXAAVSuperBlockConstants@@@Z:PROC ; PropagateConstants_JMPConditionalIndirect
EXTRN	?PropagateConstants_JMPAlwaysIndirect_NOP@@YAXAAVSuperBlockConstants@@@Z:PROC ; PropagateConstants_JMPAlwaysIndirect_NOP
EXTRN	?PropagateConstants_JMPAlwaysIndirect@@YAXAAVSuperBlockConstants@@@Z:PROC ; PropagateConstants_JMPAlwaysIndirect
EXTRN	?PropagateConstants_BRAConditional_NOP@@YAXAAVSuperBlockConstants@@@Z:PROC ; PropagateConstants_BRAConditional_NOP
EXTRN	?PropagateConstants_BRAConditional@@YAXAAVSuperBlockConstants@@@Z:PROC ; PropagateConstants_BRAConditional
EXTRN	?PropagateConstants_BRAAlways_NOP@@YAXAAVSuperBlockConstants@@@Z:PROC ; PropagateConstants_BRAAlways_NOP
EXTRN	?PropagateConstants_BRAAlways@@YAXAAVSuperBlockConstants@@@Z:PROC ; PropagateConstants_BRAAlways
EXTRN	?PropagateConstants_Halt@@YAXAAVSuperBlockConstants@@@Z:PROC ; PropagateConstants_Halt
EXTRN	?PropagateConstants_ECU_NOP@@YAXAAVSuperBlockConstants@@@Z:PROC ; PropagateConstants_ECU_NOP
_DATA	SEGMENT
?ConstantHandlers@@3PAP6AXAAVSuperBlockConstants@@@ZA DD FLAT:?PropagateConstants_ECU_NOP@@YAXAAVSuperBlockConstants@@@Z ; ConstantHandlers
	DD	FLAT:?PropagateConstants_Halt@@YAXAAVSuperBlockConstants@@@Z
	DD	FLAT:?PropagateConstants_BRAAlways@@YAXAAVSuperBlockConstants@@@Z
	DD	FLAT:?PropagateConstants_BRAAlways_NOP@@YAXAAVSuperBlockConstants@@@Z
	DD	FLAT:?PropagateConstants_BRAConditional@@YAXAAVSuperBlockConstants@@@Z
	DD	FLAT:?PropagateConstants_BRAConditional_NOP@@YAXAAVSuperBlockConstants@@@Z
	DD	FLAT:?PropagateConstants_JMPAlwaysIndirect@@YAXAAVSuperBlockConstants@@@Z
	DD	FLAT:?PropagateConstants_JMPAlwaysIndirect_NOP@@YAXAAVSuperBlockConstants@@@Z
	DD	FLAT:?PropagateConstants_JMPConditionalIndirect@@YAXAAVSuperBlockConstants@@@Z
	DD	FLAT:?PropagateConstants_JMPConditionalIndirect_NOP@@YAXAAVSuperBlockConstants@@@Z
	DD	FLAT:?PropagateConstants_JSRAlways@@YAXAAVSuperBlockConstants@@@Z
	DD	FLAT:?PropagateConstants_JSRAlways_NOP@@YAXAAVSuperBlockConstants@@@Z
	DD	FLAT:?PropagateConstants_JSRConditional@@YAXAAVSuperBlockConstants@@@Z
	DD	FLAT:?PropagateConstants_JSRConditional_NOP@@YAXAAVSuperBlockConstants@@@Z
	DD	FLAT:?PropagateConstants_JSRAlwaysIndirect@@YAXAAVSuperBlockConstants@@@Z
	DD	FLAT:?PropagateConstants_JSRAlwaysIndirect_NOP@@YAXAAVSuperBlockConstants@@@Z
	DD	FLAT:?PropagateConstants_JSRConditionalIndirect@@YAXAAVSuperBlockConstants@@@Z
	DD	FLAT:?PropagateConstants_JSRConditionalIndirect_NOP@@YAXAAVSuperBlockConstants@@@Z
	DD	FLAT:?PropagateConstants_RTI1Conditional@@YAXAAVSuperBlockConstants@@@Z
	DD	FLAT:?PropagateConstants_RTI1Conditional_NOP@@YAXAAVSuperBlockConstants@@@Z
	DD	FLAT:?PropagateConstants_RTI2Conditional@@YAXAAVSuperBlockConstants@@@Z
	DD	FLAT:?PropagateConstants_RTI2Conditional_NOP@@YAXAAVSuperBlockConstants@@@Z
	DD	FLAT:?PropagateConstants_RTSAlways@@YAXAAVSuperBlockConstants@@@Z
	DD	FLAT:?PropagateConstants_RTSAlways_NOP@@YAXAAVSuperBlockConstants@@@Z
	DD	FLAT:?PropagateConstants_RTSConditional@@YAXAAVSuperBlockConstants@@@Z
	DD	FLAT:?PropagateConstants_RTSConditional_NOP@@YAXAAVSuperBlockConstants@@@Z
	DD	FLAT:?PropagateConstants_DECRc1@@YAXAAVSuperBlockConstants@@@Z
	DD	FLAT:?PropagateConstants_DECRc0@@YAXAAVSuperBlockConstants@@@Z
	DD	FLAT:?PropagateConstants_DECBoth@@YAXAAVSuperBlockConstants@@@Z
	DD	FLAT:?PropagateConstants_ADDRImmediateOnly@@YAXAAVSuperBlockConstants@@@Z
	DD	FLAT:?PropagateConstants_ADDRImmediate@@YAXAAVSuperBlockConstants@@@Z
	DD	FLAT:?PropagateConstants_ADDRScalarOnly@@YAXAAVSuperBlockConstants@@@Z
	DD	FLAT:?PropagateConstants_ADDRScalar@@YAXAAVSuperBlockConstants@@@Z
	DD	FLAT:?PropagateConstants_MVRImmediateOnly@@YAXAAVSuperBlockConstants@@@Z
	DD	FLAT:?PropagateConstants_MVRImmediate@@YAXAAVSuperBlockConstants@@@Z
	DD	FLAT:?PropagateConstants_MVRScalarOnly@@YAXAAVSuperBlockConstants@@@Z
	DD	FLAT:?PropagateConstants_MVRScalar@@YAXAAVSuperBlockConstants@@@Z
	DD	FLAT:?PropagateConstants_RangeOnly@@YAXAAVSuperBlockConstants@@@Z
	DD	FLAT:?PropagateConstants_Range@@YAXAAVSuperBlockConstants@@@Z
	DD	FLAT:?PropagateConstants_ModuloOnly@@YAXAAVSuperBlockConstants@@@Z
	DD	FLAT:?PropagateConstants_Modulo@@YAXAAVSuperBlockConstants@@@Z
	DD	FLAT:?PropagateConstants_ABS@@YAXAAVSuperBlockConstants@@@Z
	DD	FLAT:?PropagateConstants_BITSScalar@@YAXAAVSuperBlockConstants@@@Z
	DD	FLAT:?PropagateConstants_BITSImmediate@@YAXAAVSuperBlockConstants@@@Z
	DD	FLAT:?PropagateConstants_BTST@@YAXAAVSuperBlockConstants@@@Z
	DD	FLAT:?PropagateConstants_BUTT@@YAXAAVSuperBlockConstants@@@Z
	DD	FLAT:?PropagateConstants_COPY@@YAXAAVSuperBlockConstants@@@Z
	DD	FLAT:?PropagateConstants_MSB@@YAXAAVSuperBlockConstants@@@Z
	DD	FLAT:?PropagateConstants_SAT@@YAXAAVSuperBlockConstants@@@Z
	DD	FLAT:?PropagateConstants_AS@@YAXAAVSuperBlockConstants@@@Z
	DD	FLAT:?PropagateConstants_ASL@@YAXAAVSuperBlockConstants@@@Z
	DD	FLAT:?PropagateConstants_ASR@@YAXAAVSuperBlockConstants@@@Z
	DD	FLAT:?PropagateConstants_LS@@YAXAAVSuperBlockConstants@@@Z
	DD	FLAT:?PropagateConstants_LSR@@YAXAAVSuperBlockConstants@@@Z
	DD	FLAT:?PropagateConstants_ROT@@YAXAAVSuperBlockConstants@@@Z
	DD	FLAT:?PropagateConstants_ROL@@YAXAAVSuperBlockConstants@@@Z
	DD	FLAT:?PropagateConstants_ROR@@YAXAAVSuperBlockConstants@@@Z
	DD	FLAT:?PropagateConstants_ADD_P@@YAXAAVSuperBlockConstants@@@Z
	DD	FLAT:?PropagateConstants_SUB_P@@YAXAAVSuperBlockConstants@@@Z
	DD	FLAT:?PropagateConstants_ADD_SV@@YAXAAVSuperBlockConstants@@@Z
	DD	FLAT:?PropagateConstants_SUB_SV@@YAXAAVSuperBlockConstants@@@Z
	DD	FLAT:?PropagateConstants_ADDImmediate@@YAXAAVSuperBlockConstants@@@Z
	DD	FLAT:?PropagateConstants_ADDScalar@@YAXAAVSuperBlockConstants@@@Z
	DD	FLAT:?PropagateConstants_ADDScalarShiftRightImmediate@@YAXAAVSuperBlockConstants@@@Z
	DD	FLAT:?PropagateConstants_ADDScalarShiftLeftImmediate@@YAXAAVSuperBlockConstants@@@Z
	DD	FLAT:?PropagateConstants_SUBImmediate@@YAXAAVSuperBlockConstants@@@Z
	DD	FLAT:?PropagateConstants_SUBImmediateReverse@@YAXAAVSuperBlockConstants@@@Z
	DD	FLAT:?PropagateConstants_SUBScalar@@YAXAAVSuperBlockConstants@@@Z
	DD	FLAT:?PropagateConstants_SUBScalarShiftRightImmediate@@YAXAAVSuperBlockConstants@@@Z
	DD	FLAT:?PropagateConstants_SUBScalarShiftLeftImmediate@@YAXAAVSuperBlockConstants@@@Z
	DD	FLAT:?PropagateConstants_CMPImmediate@@YAXAAVSuperBlockConstants@@@Z
	DD	FLAT:?PropagateConstants_CMPImmediateReverse@@YAXAAVSuperBlockConstants@@@Z
	DD	FLAT:?PropagateConstants_CMPScalar@@YAXAAVSuperBlockConstants@@@Z
	DD	FLAT:?PropagateConstants_CMPScalarShiftRightImmediate@@YAXAAVSuperBlockConstants@@@Z
	DD	FLAT:?PropagateConstants_CMPScalarShiftLeftImmediate@@YAXAAVSuperBlockConstants@@@Z
	DD	FLAT:?PropagateConstants_ANDImmediate@@YAXAAVSuperBlockConstants@@@Z
	DD	FLAT:?PropagateConstants_ANDScalar@@YAXAAVSuperBlockConstants@@@Z
	DD	FLAT:?PropagateConstants_ANDImmediateShiftScalar@@YAXAAVSuperBlockConstants@@@Z
	DD	FLAT:?PropagateConstants_ANDScalarShiftRightImmediate@@YAXAAVSuperBlockConstants@@@Z
	DD	FLAT:?PropagateConstants_ANDScalarShiftLeftImmediate@@YAXAAVSuperBlockConstants@@@Z
	DD	FLAT:?PropagateConstants_ANDScalarShiftScalar@@YAXAAVSuperBlockConstants@@@Z
	DD	FLAT:?PropagateConstants_ANDScalarRotateScalar@@YAXAAVSuperBlockConstants@@@Z
	DD	FLAT:?PropagateConstants_FTSTImmediate@@YAXAAVSuperBlockConstants@@@Z
	DD	FLAT:?PropagateConstants_FTSTScalar@@YAXAAVSuperBlockConstants@@@Z
	DD	FLAT:?PropagateConstants_FTSTImmediateShiftScalar@@YAXAAVSuperBlockConstants@@@Z
	DD	FLAT:?PropagateConstants_FTSTScalarShiftRightImmediate@@YAXAAVSuperBlockConstants@@@Z
	DD	FLAT:?PropagateConstants_FTSTScalarShiftLeftImmediate@@YAXAAVSuperBlockConstants@@@Z
	DD	FLAT:?PropagateConstants_FTSTScalarShiftScalar@@YAXAAVSuperBlockConstants@@@Z
	DD	FLAT:?PropagateConstants_FTSTScalarRotateScalar@@YAXAAVSuperBlockConstants@@@Z
	DD	FLAT:?PropagateConstants_ORImmediate@@YAXAAVSuperBlockConstants@@@Z
	DD	FLAT:?PropagateConstants_ORScalar@@YAXAAVSuperBlockConstants@@@Z
	DD	FLAT:?PropagateConstants_ORImmediateShiftScalar@@YAXAAVSuperBlockConstants@@@Z
	DD	FLAT:?PropagateConstants_ORScalarShiftRightImmediate@@YAXAAVSuperBlockConstants@@@Z
	DD	FLAT:?PropagateConstants_ORScalarShiftLeftImmediate@@YAXAAVSuperBlockConstants@@@Z
	DD	FLAT:?PropagateConstants_ORScalarShiftScalar@@YAXAAVSuperBlockConstants@@@Z
	DD	FLAT:?PropagateConstants_ORScalarRotateScalar@@YAXAAVSuperBlockConstants@@@Z
	DD	FLAT:?PropagateConstants_EORImmediate@@YAXAAVSuperBlockConstants@@@Z
	DD	FLAT:?PropagateConstants_EORScalar@@YAXAAVSuperBlockConstants@@@Z
	DD	FLAT:?PropagateConstants_EORImmediateShiftScalar@@YAXAAVSuperBlockConstants@@@Z
	DD	FLAT:?PropagateConstants_EORScalarShiftRightImmediate@@YAXAAVSuperBlockConstants@@@Z
	DD	FLAT:?PropagateConstants_EORScalarShiftLeftImmediate@@YAXAAVSuperBlockConstants@@@Z
	DD	FLAT:?PropagateConstants_EORScalarShiftScalar@@YAXAAVSuperBlockConstants@@@Z
	DD	FLAT:?PropagateConstants_EORScalarRotateScalar@@YAXAAVSuperBlockConstants@@@Z
	DD	FLAT:?PropagateConstants_ADDWCScalar@@YAXAAVSuperBlockConstants@@@Z
	DD	FLAT:?PropagateConstants_ADDWCImmediate@@YAXAAVSuperBlockConstants@@@Z
	DD	FLAT:?PropagateConstants_ADDWCScalarShiftRightImmediate@@YAXAAVSuperBlockConstants@@@Z
	DD	FLAT:?PropagateConstants_ADDWCScalarShiftLeftImmediate@@YAXAAVSuperBlockConstants@@@Z
	DD	FLAT:?PropagateConstants_SUBWCScalar@@YAXAAVSuperBlockConstants@@@Z
	DD	FLAT:?PropagateConstants_SUBWCImmediate@@YAXAAVSuperBlockConstants@@@Z
	DD	FLAT:?PropagateConstants_SUBWCImmediateReverse@@YAXAAVSuperBlockConstants@@@Z
	DD	FLAT:?PropagateConstants_SUBWCScalarShiftRightImmediate@@YAXAAVSuperBlockConstants@@@Z
	DD	FLAT:?PropagateConstants_SUBWCScalarShiftLeftImmediate@@YAXAAVSuperBlockConstants@@@Z
	DD	FLAT:?PropagateConstants_CMPWCScalar@@YAXAAVSuperBlockConstants@@@Z
	DD	FLAT:?PropagateConstants_CMPWCImmediate@@YAXAAVSuperBlockConstants@@@Z
	DD	FLAT:?PropagateConstants_CMPWCImmediateReverse@@YAXAAVSuperBlockConstants@@@Z
	DD	FLAT:?PropagateConstants_CMPWCScalarShiftRightImmediate@@YAXAAVSuperBlockConstants@@@Z
	DD	FLAT:?PropagateConstants_CMPWCScalarShiftLeftImmediate@@YAXAAVSuperBlockConstants@@@Z
	DD	FLAT:?PropagateConstants_ADDM@@YAXAAVSuperBlockConstants@@@Z
	DD	FLAT:?PropagateConstants_ADDMImmediate@@YAXAAVSuperBlockConstants@@@Z
	DD	FLAT:?PropagateConstants_SUBM@@YAXAAVSuperBlockConstants@@@Z
	DD	FLAT:?PropagateConstants_SUBMImmediateReverse@@YAXAAVSuperBlockConstants@@@Z
	DD	FLAT:?PropagateConstants_MULScalarShiftAcshift@@YAXAAVSuperBlockConstants@@@Z
	DD	FLAT:?PropagateConstants_MULScalarShiftRightImmediate@@YAXAAVSuperBlockConstants@@@Z
	DD	FLAT:?PropagateConstants_MULScalarShiftLeftImmediate@@YAXAAVSuperBlockConstants@@@Z
	DD	FLAT:?PropagateConstants_MULImmediateShiftAcshift@@YAXAAVSuperBlockConstants@@@Z
	DD	FLAT:?PropagateConstants_MULScalarShiftScalar@@YAXAAVSuperBlockConstants@@@Z
	DD	FLAT:?PropagateConstants_MULImmediateShiftScalar@@YAXAAVSuperBlockConstants@@@Z
	DD	FLAT:?PropagateConstants_MULImmediateShiftRightImmediate@@YAXAAVSuperBlockConstants@@@Z
	DD	FLAT:?PropagateConstants_MULImmediateShiftLeftImmediate@@YAXAAVSuperBlockConstants@@@Z
	DD	FLAT:?PropagateConstants_MUL_SVImmediateShiftImmediate@@YAXAAVSuperBlockConstants@@@Z
	DD	FLAT:?PropagateConstants_MUL_SVScalarShiftImmediate@@YAXAAVSuperBlockConstants@@@Z
	DD	FLAT:?PropagateConstants_MUL_SVScalarShiftSvshift@@YAXAAVSuperBlockConstants@@@Z
	DD	FLAT:?PropagateConstants_MUL_SVRuShiftImmediate@@YAXAAVSuperBlockConstants@@@Z
	DD	FLAT:?PropagateConstants_MUL_SVRuShiftSvshift@@YAXAAVSuperBlockConstants@@@Z
	DD	FLAT:?PropagateConstants_MUL_SVRvShiftImmediate@@YAXAAVSuperBlockConstants@@@Z
	DD	FLAT:?PropagateConstants_MUL_SVRvShiftSvshift@@YAXAAVSuperBlockConstants@@@Z
	DD	FLAT:?PropagateConstants_MUL_SVVectorShiftImmediate@@YAXAAVSuperBlockConstants@@@Z
	DD	FLAT:?PropagateConstants_MUL_SVVectorShiftSvshift@@YAXAAVSuperBlockConstants@@@Z
	DD	FLAT:?PropagateConstants_MUL_PImmediateShiftImmediate@@YAXAAVSuperBlockConstants@@@Z
	DD	FLAT:?PropagateConstants_MUL_PScalarShiftImmediate@@YAXAAVSuperBlockConstants@@@Z
	DD	FLAT:?PropagateConstants_MUL_PScalarShiftSvshift@@YAXAAVSuperBlockConstants@@@Z
	DD	FLAT:?PropagateConstants_MUL_PRuShiftImmediate@@YAXAAVSuperBlockConstants@@@Z
	DD	FLAT:?PropagateConstants_MUL_PRuShiftSvshift@@YAXAAVSuperBlockConstants@@@Z
	DD	FLAT:?PropagateConstants_MUL_PRvShiftImmediate@@YAXAAVSuperBlockConstants@@@Z
	DD	FLAT:?PropagateConstants_MUL_PRvShiftSvshift@@YAXAAVSuperBlockConstants@@@Z
	DD	FLAT:?PropagateConstants_MUL_PVectorShiftImmediate@@YAXAAVSuperBlockConstants@@@Z
	DD	FLAT:?PropagateConstants_MUL_PVectorShiftSvshift@@YAXAAVSuperBlockConstants@@@Z
	DD	FLAT:?PropagateConstants_DOTPScalarShiftImmediate@@YAXAAVSuperBlockConstants@@@Z
	DD	FLAT:?PropagateConstants_DOTPScalarShiftSvshift@@YAXAAVSuperBlockConstants@@@Z
	DD	FLAT:?PropagateConstants_DOTPVectorShiftImmediate@@YAXAAVSuperBlockConstants@@@Z
	DD	FLAT:?PropagateConstants_DOTPVectorShiftSvshift@@YAXAAVSuperBlockConstants@@@Z
	DD	FLAT:?PropagateConstants_Mirror@@YAXAAVSuperBlockConstants@@@Z
	DD	FLAT:?PropagateConstants_MV_SImmediate@@YAXAAVSuperBlockConstants@@@Z
	DD	FLAT:?PropagateConstants_MV_SScalar@@YAXAAVSuperBlockConstants@@@Z
	DD	FLAT:?PropagateConstants_MV_V@@YAXAAVSuperBlockConstants@@@Z
	DD	FLAT:?PropagateConstants_PopVector@@YAXAAVSuperBlockConstants@@@Z
	DD	FLAT:?PropagateConstants_PopVectorRz@@YAXAAVSuperBlockConstants@@@Z
	DD	FLAT:?PropagateConstants_PopScalarRzi1@@YAXAAVSuperBlockConstants@@@Z
	DD	FLAT:?PropagateConstants_PopScalarRzi2@@YAXAAVSuperBlockConstants@@@Z
	DD	FLAT:?PropagateConstants_PushVector@@YAXAAVSuperBlockConstants@@@Z
	DD	FLAT:?PropagateConstants_PushVectorRz@@YAXAAVSuperBlockConstants@@@Z
	DD	FLAT:?PropagateConstants_PushScalarRzi1@@YAXAAVSuperBlockConstants@@@Z
	DD	FLAT:?PropagateConstants_PushScalarRzi2@@YAXAAVSuperBlockConstants@@@Z
	DD	FLAT:?PropagateConstants_LoadScalarLinear@@YAXAAVSuperBlockConstants@@@Z
	DD	FLAT:?PropagateConstants_LoadScalarControlRegisterAbsolute@@YAXAAVSuperBlockConstants@@@Z
	DD	FLAT:?PropagateConstants_LoadByteAbsolute@@YAXAAVSuperBlockConstants@@@Z
	DD	FLAT:?PropagateConstants_LoadWordAbsolute@@YAXAAVSuperBlockConstants@@@Z
	DD	FLAT:?PropagateConstants_LoadScalarAbsolute@@YAXAAVSuperBlockConstants@@@Z
	DD	FLAT:?PropagateConstants_LoadShortVectorAbsolute@@YAXAAVSuperBlockConstants@@@Z
	DD	FLAT:?PropagateConstants_LoadVectorAbsolute@@YAXAAVSuperBlockConstants@@@Z
	DD	FLAT:?PropagateConstants_LoadVectorControlRegisterAbsolute@@YAXAAVSuperBlockConstants@@@Z
	DD	FLAT:?PropagateConstants_LoadPixelAbsolute@@YAXAAVSuperBlockConstants@@@Z
	DD	FLAT:?PropagateConstants_LoadPixelZAbsolute@@YAXAAVSuperBlockConstants@@@Z
	DD	FLAT:?PropagateConstants_LoadByteLinear@@YAXAAVSuperBlockConstants@@@Z
	DD	FLAT:?PropagateConstants_LoadByteBilinearUV@@YAXAAVSuperBlockConstants@@@Z
	DD	FLAT:?PropagateConstants_LoadByteBilinearXY@@YAXAAVSuperBlockConstants@@@Z
	DD	FLAT:?PropagateConstants_LoadWordLinear@@YAXAAVSuperBlockConstants@@@Z
	DD	FLAT:?PropagateConstants_LoadWordBilinearUV@@YAXAAVSuperBlockConstants@@@Z
	DD	FLAT:?PropagateConstants_LoadWordBilinearXY@@YAXAAVSuperBlockConstants@@@Z
	DD	FLAT:?PropagateConstants_LoadScalarBilinearUV@@YAXAAVSuperBlockConstants@@@Z
	DD	FLAT:?PropagateConstants_LoadScalarBilinearXY@@YAXAAVSuperBlockConstants@@@Z
	DD	FLAT:?PropagateConstants_LoadShortVectorLinear@@YAXAAVSuperBlockConstants@@@Z
	DD	FLAT:?PropagateConstants_LoadShortVectorBilinearUV@@YAXAAVSuperBlockConstants@@@Z
	DD	FLAT:?PropagateConstants_LoadShortVectorBilinearXY@@YAXAAVSuperBlockConstants@@@Z
	DD	FLAT:?PropagateConstants_LoadVectorLinear@@YAXAAVSuperBlockConstants@@@Z
	DD	FLAT:?PropagateConstants_LoadVectorBilinearUV@@YAXAAVSuperBlockConstants@@@Z
	DD	FLAT:?PropagateConstants_LoadVectorBilinearXY@@YAXAAVSuperBlockConstants@@@Z
	DD	FLAT:?PropagateConstants_LoadPixelLinear@@YAXAAVSuperBlockConstants@@@Z
	DD	FLAT:?PropagateConstants_LoadPixelBilinearUV@@YAXAAVSuperBlockConstants@@@Z
	DD	FLAT:?PropagateConstants_LoadPixelBilinearXY@@YAXAAVSuperBlockConstants@@@Z
	DD	FLAT:?PropagateConstants_LoadPixelZLinear@@YAXAAVSuperBlockConstants@@@Z
	DD	FLAT:?PropagateConstants_LoadPixelZBilinearUV@@YAXAAVSuperBlockConstants@@@Z
	DD	FLAT:?PropagateConstants_LoadPixelZBilinearXY@@YAXAAVSuperBlockConstants@@@Z
	DD	FLAT:?PropagateConstants_StoreScalarAbsolute@@YAXAAVSuperBlockConstants@@@Z
	DD	FLAT:?PropagateConstants_StoreScalarControlRegisterAbsolute@@YAXAAVSuperBlockConstants@@@Z
	DD	FLAT:?PropagateConstants_StoreShortVectorAbsolute@@YAXAAVSuperBlockConstants@@@Z
	DD	FLAT:?PropagateConstants_StoreVectorAbsolute@@YAXAAVSuperBlockConstants@@@Z
	DD	FLAT:?PropagateConstants_StoreVectorControlRegisterAbsolute@@YAXAAVSuperBlockConstants@@@Z
	DD	FLAT:?PropagateConstants_StorePixelAbsolute@@YAXAAVSuperBlockConstants@@@Z
	DD	FLAT:?PropagateConstants_StorePixelZAbsolute@@YAXAAVSuperBlockConstants@@@Z
	DD	FLAT:?PropagateConstants_StoreScalarLinear@@YAXAAVSuperBlockConstants@@@Z
	DD	FLAT:?PropagateConstants_StoreScalarBilinearUV@@YAXAAVSuperBlockConstants@@@Z
	DD	FLAT:?PropagateConstants_StoreScalarBilinearXY@@YAXAAVSuperBlockConstants@@@Z
	DD	FLAT:?PropagateConstants_StoreShortVectorLinear@@YAXAAVSuperBlockConstants@@@Z
	DD	FLAT:?PropagateConstants_StoreShortVectorBilinearUV@@YAXAAVSuperBlockConstants@@@Z
	DD	FLAT:?PropagateConstants_StoreShortVectorBilinearXY@@YAXAAVSuperBlockConstants@@@Z
	DD	FLAT:?PropagateConstants_StoreVectorLinear@@YAXAAVSuperBlockConstants@@@Z
	DD	FLAT:?PropagateConstants_StoreVectorBilinearUV@@YAXAAVSuperBlockConstants@@@Z
	DD	FLAT:?PropagateConstants_StoreVectorBilinearXY@@YAXAAVSuperBlockConstants@@@Z
	DD	FLAT:?PropagateConstants_StorePixelLinear@@YAXAAVSuperBlockConstants@@@Z
	DD	FLAT:?PropagateConstants_StorePixelBilinearUV@@YAXAAVSuperBlockConstants@@@Z
	DD	FLAT:?PropagateConstants_StorePixelBilinearXY@@YAXAAVSuperBlockConstants@@@Z
	DD	FLAT:?PropagateConstants_StorePixelZLinear@@YAXAAVSuperBlockConstants@@@Z
	DD	FLAT:?PropagateConstants_StorePixelZBilinearUV@@YAXAAVSuperBlockConstants@@@Z
	DD	FLAT:?PropagateConstants_StorePixelZBilinearXY@@YAXAAVSuperBlockConstants@@@Z
	DD	FLAT:?PropagateConstants_StoreScalarControlRegisterImmediate@@YAXAAVSuperBlockConstants@@@Z
	DD	FLAT:?PropagateConstants_StoreScalarImmediate@@YAXAAVSuperBlockConstants@@@Z
	DD	FLAT:?PropagateConstants_StoreScalarRegisterConstant@@YAXAAVSuperBlockConstants@@@Z
	DD	FLAT:?PropagateConstants_StoreMiscRegisterConstant@@YAXAAVSuperBlockConstants@@@Z
	DD	FLAT:?PropagateConstants_PacketStart@@YAXAAVSuperBlockConstants@@@Z
	DD	FLAT:?PropagateConstants_PacketEnd@@YAXAAVSuperBlockConstants@@@Z
_DATA	ENDS
END
