; Listing generated by Microsoft (R) Optimizing Compiler Version 14.00.50727.762 

	TITLE	c:\NuanceExperimental\PropagateConstants_ALU.cpp
	.686P
	.XMM
	include listing.inc
	.model	flat

INCLUDELIB LIBCMTD
INCLUDELIB OLDNAMES

PUBLIC	?ClearScalarRegisterConstant@SuperBlockConstants@@QAEXI@Z ; SuperBlockConstants::ClearScalarRegisterConstant
PUBLIC	?ClearMiscRegisterConstant@SuperBlockConstants@@QAEXI@Z ; SuperBlockConstants::ClearMiscRegisterConstant
PUBLIC	?ClearScalarInputDependency@SuperBlockConstants@@QAEXI@Z ; SuperBlockConstants::ClearScalarInputDependency
PUBLIC	?SetMiscRegisterConstant@SuperBlockConstants@@QAEXII@Z ; SuperBlockConstants::SetMiscRegisterConstant
PUBLIC	?GetScalarRegisterConstant@SuperBlockConstants@@QAEII@Z ; SuperBlockConstants::GetScalarRegisterConstant
PUBLIC	?IsScalarRegisterConstant@SuperBlockConstants@@QAE_NI@Z ; SuperBlockConstants::IsScalarRegisterConstant
PUBLIC	?PropagateConstants_ABS@@YAXAAVSuperBlockConstants@@@Z ; PropagateConstants_ABS
EXTRN	?PropagateConstants_StoreScalarRegisterConstant@@YAXAAVSuperBlockConstants@@@Z:PROC ; PropagateConstants_StoreScalarRegisterConstant
EXTRN	__RTC_CheckEsp:PROC
EXTRN	__RTC_Shutdown:PROC
EXTRN	__RTC_InitBase:PROC
;	COMDAT rtc$TMZ
; File c:\nuanceexperimental\propagateconstants_alu.cpp
rtc$TMZ	SEGMENT
__RTC_Shutdown.rtc$TMZ DD FLAT:__RTC_Shutdown
rtc$TMZ	ENDS
;	COMDAT rtc$IMZ
rtc$IMZ	SEGMENT
__RTC_InitBase.rtc$IMZ DD FLAT:__RTC_InitBase
; Function compile flags: /Odtp /RTCsu
rtc$IMZ	ENDS
_TEXT	SEGMENT
_destValue$ = -20					; size = 4
_src$ = -16						; size = 4
_flagValues$ = -12					; size = 4
_destIndex$ = -8					; size = 4
_srcIndex$ = -4						; size = 4
_constants$ = 8						; size = 4
?PropagateConstants_ABS@@YAXAAVSuperBlockConstants@@@Z PROC ; PropagateConstants_ABS

; 13   : {

	push	ebp
	mov	ebp, esp
	sub	esp, 20					; 00000014H
	mov	eax, -858993460				; ccccccccH
	mov	DWORD PTR [ebp-20], eax
	mov	DWORD PTR [ebp-16], eax
	mov	DWORD PTR [ebp-12], eax
	mov	DWORD PTR [ebp-8], eax
	mov	DWORD PTR [ebp-4], eax

; 14   :   uint32 srcIndex = constants.nuance->fields[FIELD_ALU_SRC1];

	mov	eax, DWORD PTR _constants$[ebp]
	mov	ecx, DWORD PTR [eax+4]
	mov	edx, DWORD PTR [ecx+8]
	mov	DWORD PTR _srcIndex$[ebp], edx

; 15   :   uint32 destIndex = constants.nuance->fields[FIELD_ALU_DEST]; 

	mov	eax, DWORD PTR _constants$[ebp]
	mov	ecx, DWORD PTR [eax+4]
	mov	edx, DWORD PTR [ecx+16]
	mov	DWORD PTR _destIndex$[ebp], edx

; 16   :   uint32 flagValues = 0;

	mov	DWORD PTR _flagValues$[ebp], 0

; 17   :   int32 src, destValue;
; 18   : 
; 19   :   if(constants.IsScalarRegisterConstant(srcIndex) && ALLOW_ALU_PROPAGATION)

	mov	eax, DWORD PTR _srcIndex$[ebp]
	push	eax
	mov	ecx, DWORD PTR _constants$[ebp]
	call	?IsScalarRegisterConstant@SuperBlockConstants@@QAE_NI@Z ; SuperBlockConstants::IsScalarRegisterConstant
	movzx	ecx, al
	test	ecx, ecx
	je	$LN6@PropagateC
	mov	edx, 1
	test	edx, edx
	je	$LN6@PropagateC

; 20   :   {
; 21   :     src = constants.GetScalarRegisterConstant(srcIndex);

	mov	eax, DWORD PTR _srcIndex$[ebp]
	push	eax
	mov	ecx, DWORD PTR _constants$[ebp]
	call	?GetScalarRegisterConstant@SuperBlockConstants@@QAEII@Z ; SuperBlockConstants::GetScalarRegisterConstant
	mov	DWORD PTR _src$[ebp], eax

; 22   :     destValue = src;

	mov	ecx, DWORD PTR _src$[ebp]
	mov	DWORD PTR _destValue$[ebp], ecx

; 23   :     if(src < 0)

	cmp	DWORD PTR _src$[ebp], 0
	jge	SHORT $LN5@PropagateC

; 24   :     {
; 25   :       constants.SetMiscRegisterConstant(CONSTANT_REG_C, 1);

	push	1
	push	15					; 0000000fH
	mov	ecx, DWORD PTR _constants$[ebp]
	call	?SetMiscRegisterConstant@SuperBlockConstants@@QAEXII@Z ; SuperBlockConstants::SetMiscRegisterConstant

; 26   :       flagValues = CC_ALU_CARRY;

	mov	DWORD PTR _flagValues$[ebp], 2

; 27   :       if(src == 0x80000000UL)

	cmp	DWORD PTR _src$[ebp], -2147483648	; 80000000H
	jne	SHORT $LN4@PropagateC

; 28   :       {
; 29   :         flagValues |= (CC_ALU_NEGATIVE | CC_ALU_OVERFLOW);

	mov	edx, DWORD PTR _flagValues$[ebp]
	or	edx, 12					; 0000000cH
	mov	DWORD PTR _flagValues$[ebp], edx
$LN4@PropagateC:

; 30   :       }
; 31   :       destValue = -destValue;

	mov	eax, DWORD PTR _destValue$[ebp]
	neg	eax
	mov	DWORD PTR _destValue$[ebp], eax

; 32   :     }
; 33   :     else

	jmp	SHORT $LN3@PropagateC
$LN5@PropagateC:

; 34   :     {
; 35   :       if(!src)

	cmp	DWORD PTR _src$[ebp], 0
	jne	SHORT $LN3@PropagateC

; 36   :       {
; 37   :         flagValues = CC_ALU_ZERO;

	mov	DWORD PTR _flagValues$[ebp], 1
$LN3@PropagateC:

; 38   :       }
; 39   :     }
; 40   : 
; 41   :     constants.nuance->fields[FIELD_CONSTANT_HANDLER] = Handler_StoreScalarRegisterConstant;

	mov	ecx, DWORD PTR _constants$[ebp]
	mov	edx, DWORD PTR [ecx+4]
	mov	DWORD PTR [edx], 217			; 000000d9H

; 42   :     constants.nuance->fields[FIELD_CONSTANT_ADDRESS] = destIndex;

	mov	eax, DWORD PTR _constants$[ebp]
	mov	ecx, DWORD PTR [eax+4]
	mov	edx, DWORD PTR _destIndex$[ebp]
	mov	DWORD PTR [ecx+4], edx

; 43   :     constants.nuance->fields[FIELD_CONSTANT_VALUE] = destValue;

	mov	eax, DWORD PTR _constants$[ebp]
	mov	ecx, DWORD PTR [eax+4]
	mov	edx, DWORD PTR _destValue$[ebp]
	mov	DWORD PTR [ecx+8], edx

; 44   :     constants.nuance->fields[FIELD_CONSTANT_FLAGMASK] = CC_ALU_NEGATIVE | CC_ALU_OVERFLOW | CC_ALU_CARRY | CC_ALU_ZERO;

	mov	eax, DWORD PTR _constants$[ebp]
	mov	ecx, DWORD PTR [eax+4]
	mov	DWORD PTR [ecx+12], 15			; 0000000fH

; 45   :     constants.nuance->fields[FIELD_CONSTANT_FLAGVALUES] = flagValues;

	mov	edx, DWORD PTR _constants$[ebp]
	mov	eax, DWORD PTR [edx+4]
	mov	ecx, DWORD PTR _flagValues$[ebp]
	mov	DWORD PTR [eax+16], ecx

; 46   :     constants.ClearScalarInputDependency(srcIndex);

	mov	edx, DWORD PTR _srcIndex$[ebp]
	push	edx
	mov	ecx, DWORD PTR _constants$[ebp]
	call	?ClearScalarInputDependency@SuperBlockConstants@@QAEXI@Z ; SuperBlockConstants::ClearScalarInputDependency

; 47   :     PropagateConstants_StoreScalarRegisterConstant(constants);    

	mov	eax, DWORD PTR _constants$[ebp]
	push	eax
	call	?PropagateConstants_StoreScalarRegisterConstant@@YAXAAVSuperBlockConstants@@@Z ; PropagateConstants_StoreScalarRegisterConstant
	add	esp, 4

; 48   :   }
; 49   :   else

	jmp	SHORT $LN7@PropagateC
$LN6@PropagateC:

; 50   :   {
; 51   :     constants.ClearMiscRegisterConstant(CONSTANT_REG_N);

	push	18					; 00000012H
	mov	ecx, DWORD PTR _constants$[ebp]
	call	?ClearMiscRegisterConstant@SuperBlockConstants@@QAEXI@Z ; SuperBlockConstants::ClearMiscRegisterConstant

; 52   :     constants.ClearMiscRegisterConstant(CONSTANT_REG_V);

	push	17					; 00000011H
	mov	ecx, DWORD PTR _constants$[ebp]
	call	?ClearMiscRegisterConstant@SuperBlockConstants@@QAEXI@Z ; SuperBlockConstants::ClearMiscRegisterConstant

; 53   :     constants.ClearMiscRegisterConstant(CONSTANT_REG_Z);

	push	16					; 00000010H
	mov	ecx, DWORD PTR _constants$[ebp]
	call	?ClearMiscRegisterConstant@SuperBlockConstants@@QAEXI@Z ; SuperBlockConstants::ClearMiscRegisterConstant

; 54   :     constants.ClearMiscRegisterConstant(CONSTANT_REG_C);

	push	15					; 0000000fH
	mov	ecx, DWORD PTR _constants$[ebp]
	call	?ClearMiscRegisterConstant@SuperBlockConstants@@QAEXI@Z ; SuperBlockConstants::ClearMiscRegisterConstant

; 55   :     constants.ClearScalarRegisterConstant(destIndex);    

	mov	ecx, DWORD PTR _destIndex$[ebp]
	push	ecx
	mov	ecx, DWORD PTR _constants$[ebp]
	call	?ClearScalarRegisterConstant@SuperBlockConstants@@QAEXI@Z ; SuperBlockConstants::ClearScalarRegisterConstant

; 56   :     constants.status.status = PROPAGATE_CONSTANTS_STATUS_ALU_OK;

	mov	edx, DWORD PTR _constants$[ebp]
	mov	DWORD PTR [edx+12], 2
$LN7@PropagateC:

; 57   :   }
; 58   : }

	add	esp, 20					; 00000014H
	cmp	ebp, esp
	call	__RTC_CheckEsp
	mov	esp, ebp
	pop	ebp
	ret	0
?PropagateConstants_ABS@@YAXAAVSuperBlockConstants@@@Z ENDP ; PropagateConstants_ABS
; Function compile flags: /Odtp /RTCsu
; File c:\nuanceexperimental\superblockconstants.h
_TEXT	ENDS
;	COMDAT ?ClearScalarInputDependency@SuperBlockConstants@@QAEXI@Z
_TEXT	SEGMENT
_this$ = -4						; size = 4
_index$ = 8						; size = 4
?ClearScalarInputDependency@SuperBlockConstants@@QAEXI@Z PROC ; SuperBlockConstants::ClearScalarInputDependency, COMDAT
; _this$ = ecx

; 93   :   {

	push	ebp
	mov	ebp, esp
	push	ecx
	mov	DWORD PTR [ebp-4], -858993460		; ccccccccH
	mov	DWORD PTR _this$[ebp], ecx

; 94   :     pCurrentInstructionEntry->scalarInputDependencies &= ~(1UL << index);

	mov	eax, DWORD PTR _this$[ebp]
	mov	edx, DWORD PTR [eax+8]
	mov	eax, 1
	mov	ecx, DWORD PTR _index$[ebp]
	shl	eax, cl
	not	eax
	and	eax, DWORD PTR [edx+32]
	mov	ecx, DWORD PTR _this$[ebp]
	mov	edx, DWORD PTR [ecx+8]
	mov	DWORD PTR [edx+32], eax

; 95   :   }

	mov	esp, ebp
	pop	ebp
	ret	4
?ClearScalarInputDependency@SuperBlockConstants@@QAEXI@Z ENDP ; SuperBlockConstants::ClearScalarInputDependency
; Function compile flags: /Odtp /RTCsu
_TEXT	ENDS
;	COMDAT ?ClearScalarRegisterConstant@SuperBlockConstants@@QAEXI@Z
_TEXT	SEGMENT
_this$ = -4						; size = 4
_index$ = 8						; size = 4
?ClearScalarRegisterConstant@SuperBlockConstants@@QAEXI@Z PROC ; SuperBlockConstants::ClearScalarRegisterConstant, COMDAT
; _this$ = ecx

; 141  :   {

	push	ebp
	mov	ebp, esp
	push	ecx
	mov	DWORD PTR [ebp-4], -858993460		; ccccccccH
	mov	DWORD PTR _this$[ebp], ecx

; 142  :     tempScalarRegisterConstantsStatus &= ~(0x1UL << index);

	mov	eax, 1
	mov	ecx, DWORD PTR _index$[ebp]
	shl	eax, cl
	not	eax
	mov	ecx, DWORD PTR _this$[ebp]
	and	eax, DWORD PTR [ecx+564]
	mov	edx, DWORD PTR _this$[ebp]
	mov	DWORD PTR [edx+564], eax

; 143  :   }

	mov	esp, ebp
	pop	ebp
	ret	4
?ClearScalarRegisterConstant@SuperBlockConstants@@QAEXI@Z ENDP ; SuperBlockConstants::ClearScalarRegisterConstant
; Function compile flags: /Odtp /RTCsu
_TEXT	ENDS
;	COMDAT ?ClearMiscRegisterConstant@SuperBlockConstants@@QAEXI@Z
_TEXT	SEGMENT
_this$ = -4						; size = 4
_index$ = 8						; size = 4
?ClearMiscRegisterConstant@SuperBlockConstants@@QAEXI@Z PROC ; SuperBlockConstants::ClearMiscRegisterConstant, COMDAT
; _this$ = ecx

; 157  :   {

	push	ebp
	mov	ebp, esp
	push	ecx
	mov	DWORD PTR [ebp-4], -858993460		; ccccccccH
	mov	DWORD PTR _this$[ebp], ecx

; 158  :     if(index != CONSTANT_REG_ALLFLAGS)

	cmp	DWORD PTR _index$[ebp], -1
	je	SHORT $LN2@ClearMiscR

; 159  :     {
; 160  :       tempMiscRegisterConstantsStatus &= ~(1UL << index);

	mov	eax, 1
	mov	ecx, DWORD PTR _index$[ebp]
	shl	eax, cl
	not	eax
	mov	ecx, DWORD PTR _this$[ebp]
	and	eax, DWORD PTR [ecx+568]
	mov	edx, DWORD PTR _this$[ebp]
	mov	DWORD PTR [edx+568], eax

; 161  :     }
; 162  :     else

	jmp	SHORT $LN3@ClearMiscR
$LN2@ClearMiscR:

; 163  :     {
; 164  :       tempMiscRegisterConstantsStatus &= ~DEPENDENCY_FLAG_ALLFLAGS;

	mov	eax, DWORD PTR _this$[ebp]
	mov	ecx, DWORD PTR [eax+568]
	and	ecx, -67076097				; fc007fffH
	mov	edx, DWORD PTR _this$[ebp]
	mov	DWORD PTR [edx+568], ecx
$LN3@ClearMiscR:

; 165  :     }
; 166  :   }

	mov	esp, ebp
	pop	ebp
	ret	4
?ClearMiscRegisterConstant@SuperBlockConstants@@QAEXI@Z ENDP ; SuperBlockConstants::ClearMiscRegisterConstant
; Function compile flags: /Odtp /RTCsu
_TEXT	ENDS
;	COMDAT ?SetMiscRegisterConstant@SuperBlockConstants@@QAEXII@Z
_TEXT	SEGMENT
_this$ = -4						; size = 4
_index$ = 8						; size = 4
_value$ = 12						; size = 4
?SetMiscRegisterConstant@SuperBlockConstants@@QAEXII@Z PROC ; SuperBlockConstants::SetMiscRegisterConstant, COMDAT
; _this$ = ecx

; 173  :   {

	push	ebp
	mov	ebp, esp
	push	ecx
	mov	DWORD PTR [ebp-4], -858993460		; ccccccccH
	mov	DWORD PTR _this$[ebp], ecx

; 174  :     tempMiscRegisterConstantsStatus |= (1UL << index);

	mov	eax, 1
	mov	ecx, DWORD PTR _index$[ebp]
	shl	eax, cl
	mov	ecx, DWORD PTR _this$[ebp]
	or	eax, DWORD PTR [ecx+568]
	mov	edx, DWORD PTR _this$[ebp]
	mov	DWORD PTR [edx+568], eax

; 175  :     tempMiscRegisterConstants[index] = value;

	mov	eax, DWORD PTR _index$[ebp]
	mov	ecx, DWORD PTR _this$[ebp]
	mov	edx, DWORD PTR _value$[ebp]
	mov	DWORD PTR [ecx+eax*4+172], edx

; 176  :   }

	mov	esp, ebp
	pop	ebp
	ret	8
?SetMiscRegisterConstant@SuperBlockConstants@@QAEXII@Z ENDP ; SuperBlockConstants::SetMiscRegisterConstant
; Function compile flags: /Odtp /RTCsu
_TEXT	ENDS
;	COMDAT ?IsScalarRegisterConstant@SuperBlockConstants@@QAE_NI@Z
_TEXT	SEGMENT
_this$ = -4						; size = 4
_index$ = 8						; size = 4
?IsScalarRegisterConstant@SuperBlockConstants@@QAE_NI@Z PROC ; SuperBlockConstants::IsScalarRegisterConstant, COMDAT
; _this$ = ecx

; 205  :   {

	push	ebp
	mov	ebp, esp
	push	ecx
	mov	DWORD PTR [ebp-4], -858993460		; ccccccccH
	mov	DWORD PTR _this$[ebp], ecx

; 206  :     return (scalarRegisterConstantsStatus & (1UL << index)) != 0;

	mov	eax, 1
	mov	ecx, DWORD PTR _index$[ebp]
	shl	eax, cl
	mov	ecx, DWORD PTR _this$[ebp]
	and	eax, DWORD PTR [ecx+556]
	neg	eax
	sbb	eax, eax
	neg	eax

; 207  :   }

	mov	esp, ebp
	pop	ebp
	ret	4
?IsScalarRegisterConstant@SuperBlockConstants@@QAE_NI@Z ENDP ; SuperBlockConstants::IsScalarRegisterConstant
; Function compile flags: /Odtp /RTCsu
_TEXT	ENDS
;	COMDAT ?GetScalarRegisterConstant@SuperBlockConstants@@QAEII@Z
_TEXT	SEGMENT
_this$ = -4						; size = 4
_index$ = 8						; size = 4
?GetScalarRegisterConstant@SuperBlockConstants@@QAEII@Z PROC ; SuperBlockConstants::GetScalarRegisterConstant, COMDAT
; _this$ = ecx

; 213  :   {

	push	ebp
	mov	ebp, esp
	push	ecx
	mov	DWORD PTR [ebp-4], -858993460		; ccccccccH
	mov	DWORD PTR _this$[ebp], ecx

; 214  :     return scalarRegisterConstants[index];

	mov	eax, DWORD PTR _index$[ebp]
	mov	ecx, DWORD PTR _this$[ebp]
	mov	eax, DWORD PTR [ecx+eax*4+300]

; 215  :   }

	mov	esp, ebp
	pop	ebp
	ret	4
?GetScalarRegisterConstant@SuperBlockConstants@@QAEII@Z ENDP ; SuperBlockConstants::GetScalarRegisterConstant
_TEXT	ENDS
PUBLIC	?PropagateConstants_BITSImmediate@@YAXAAVSuperBlockConstants@@@Z ; PropagateConstants_BITSImmediate
; Function compile flags: /Odtp /RTCsu
; File c:\nuanceexperimental\propagateconstants_alu.cpp
_TEXT	SEGMENT
_destValue$ = -20					; size = 4
_flagValues$ = -16					; size = 4
_destIndex$ = -12					; size = 4
_src2$ = -8						; size = 4
_src1$ = -4						; size = 4
_constants$ = 8						; size = 4
?PropagateConstants_BITSImmediate@@YAXAAVSuperBlockConstants@@@Z PROC ; PropagateConstants_BITSImmediate

; 60   : {

	push	ebp
	mov	ebp, esp
	sub	esp, 20					; 00000014H
	mov	eax, -858993460				; ccccccccH
	mov	DWORD PTR [ebp-20], eax
	mov	DWORD PTR [ebp-16], eax
	mov	DWORD PTR [ebp-12], eax
	mov	DWORD PTR [ebp-8], eax
	mov	DWORD PTR [ebp-4], eax

; 61   :   uint32 src1 = constants.nuance->fields[FIELD_ALU_SRC1];

	mov	eax, DWORD PTR _constants$[ebp]
	mov	ecx, DWORD PTR [eax+4]
	mov	edx, DWORD PTR [ecx+8]
	mov	DWORD PTR _src1$[ebp], edx

; 62   :   uint32 src2 = constants.nuance->fields[FIELD_ALU_SRC2];

	mov	eax, DWORD PTR _constants$[ebp]
	mov	ecx, DWORD PTR [eax+4]
	mov	edx, DWORD PTR [ecx+12]
	mov	DWORD PTR _src2$[ebp], edx

; 63   :   uint32 destIndex = constants.nuance->fields[FIELD_ALU_DEST]; 

	mov	eax, DWORD PTR _constants$[ebp]
	mov	ecx, DWORD PTR [eax+4]
	mov	edx, DWORD PTR [ecx+16]
	mov	DWORD PTR _destIndex$[ebp], edx

; 64   :   uint32 flagValues = 0;

	mov	DWORD PTR _flagValues$[ebp], 0

; 65   :   int32 destValue;
; 66   : 
; 67   :   if(constants.IsScalarRegisterConstant(destIndex) && ALLOW_ALU_PROPAGATION)

	mov	eax, DWORD PTR _destIndex$[ebp]
	push	eax
	mov	ecx, DWORD PTR _constants$[ebp]
	call	?IsScalarRegisterConstant@SuperBlockConstants@@QAE_NI@Z ; SuperBlockConstants::IsScalarRegisterConstant
	movzx	ecx, al
	test	ecx, ecx
	je	$LN4@PropagateC@2
	mov	edx, 1
	test	edx, edx
	je	$LN4@PropagateC@2

; 68   :   {
; 69   :     destValue = src1 & (constants.GetScalarRegisterConstant(destIndex) >> src2);

	mov	eax, DWORD PTR _destIndex$[ebp]
	push	eax
	mov	ecx, DWORD PTR _constants$[ebp]
	call	?GetScalarRegisterConstant@SuperBlockConstants@@QAEII@Z ; SuperBlockConstants::GetScalarRegisterConstant
	mov	ecx, DWORD PTR _src2$[ebp]
	shr	eax, cl
	and	eax, DWORD PTR _src1$[ebp]
	mov	DWORD PTR _destValue$[ebp], eax

; 70   :     if(!destValue)

	jne	SHORT $LN3@PropagateC@2

; 71   :     {
; 72   :       flagValues = CC_ALU_ZERO;

	mov	DWORD PTR _flagValues$[ebp], 1

; 73   :     }
; 74   :     else

	jmp	SHORT $LN2@PropagateC@2
$LN3@PropagateC@2:

; 75   :     {
; 76   :       flagValues = (destValue >> 28) & CC_ALU_NEGATIVE;

	mov	ecx, DWORD PTR _destValue$[ebp]
	sar	ecx, 28					; 0000001cH
	and	ecx, 8
	mov	DWORD PTR _flagValues$[ebp], ecx
$LN2@PropagateC@2:

; 77   :     }
; 78   : 
; 79   :     constants.nuance->fields[FIELD_CONSTANT_HANDLER] = Handler_StoreScalarRegisterConstant;

	mov	edx, DWORD PTR _constants$[ebp]
	mov	eax, DWORD PTR [edx+4]
	mov	DWORD PTR [eax], 217			; 000000d9H

; 80   :     constants.nuance->fields[FIELD_CONSTANT_ADDRESS] = destIndex;

	mov	ecx, DWORD PTR _constants$[ebp]
	mov	edx, DWORD PTR [ecx+4]
	mov	eax, DWORD PTR _destIndex$[ebp]
	mov	DWORD PTR [edx+4], eax

; 81   :     constants.nuance->fields[FIELD_CONSTANT_VALUE] = destValue;

	mov	ecx, DWORD PTR _constants$[ebp]
	mov	edx, DWORD PTR [ecx+4]
	mov	eax, DWORD PTR _destValue$[ebp]
	mov	DWORD PTR [edx+8], eax

; 82   :     constants.nuance->fields[FIELD_CONSTANT_FLAGMASK] = CC_ALU_NEGATIVE | CC_ALU_ZERO;

	mov	ecx, DWORD PTR _constants$[ebp]
	mov	edx, DWORD PTR [ecx+4]
	mov	DWORD PTR [edx+12], 9

; 83   :     constants.nuance->fields[FIELD_CONSTANT_FLAGVALUES] = flagValues;

	mov	eax, DWORD PTR _constants$[ebp]
	mov	ecx, DWORD PTR [eax+4]
	mov	edx, DWORD PTR _flagValues$[ebp]
	mov	DWORD PTR [ecx+16], edx

; 84   :     constants.ClearScalarInputDependency(destIndex);

	mov	eax, DWORD PTR _destIndex$[ebp]
	push	eax
	mov	ecx, DWORD PTR _constants$[ebp]
	call	?ClearScalarInputDependency@SuperBlockConstants@@QAEXI@Z ; SuperBlockConstants::ClearScalarInputDependency

; 85   :     PropagateConstants_StoreScalarRegisterConstant(constants);    

	mov	ecx, DWORD PTR _constants$[ebp]
	push	ecx
	call	?PropagateConstants_StoreScalarRegisterConstant@@YAXAAVSuperBlockConstants@@@Z ; PropagateConstants_StoreScalarRegisterConstant
	add	esp, 4

; 86   :   }
; 87   :   else

	jmp	SHORT $LN5@PropagateC@2
$LN4@PropagateC@2:

; 88   :   {
; 89   :     constants.ClearMiscRegisterConstant(CONSTANT_REG_N);

	push	18					; 00000012H
	mov	ecx, DWORD PTR _constants$[ebp]
	call	?ClearMiscRegisterConstant@SuperBlockConstants@@QAEXI@Z ; SuperBlockConstants::ClearMiscRegisterConstant

; 90   :     constants.ClearMiscRegisterConstant(CONSTANT_REG_Z);

	push	16					; 00000010H
	mov	ecx, DWORD PTR _constants$[ebp]
	call	?ClearMiscRegisterConstant@SuperBlockConstants@@QAEXI@Z ; SuperBlockConstants::ClearMiscRegisterConstant

; 91   :     constants.ClearScalarRegisterConstant(destIndex);    

	mov	edx, DWORD PTR _destIndex$[ebp]
	push	edx
	mov	ecx, DWORD PTR _constants$[ebp]
	call	?ClearScalarRegisterConstant@SuperBlockConstants@@QAEXI@Z ; SuperBlockConstants::ClearScalarRegisterConstant

; 92   :     constants.status.status = PROPAGATE_CONSTANTS_STATUS_ALU_OK;

	mov	eax, DWORD PTR _constants$[ebp]
	mov	DWORD PTR [eax+12], 2
$LN5@PropagateC@2:

; 93   :   }
; 94   : }

	add	esp, 20					; 00000014H
	cmp	ebp, esp
	call	__RTC_CheckEsp
	mov	esp, ebp
	pop	ebp
	ret	0
?PropagateConstants_BITSImmediate@@YAXAAVSuperBlockConstants@@@Z ENDP ; PropagateConstants_BITSImmediate
_TEXT	ENDS
PUBLIC	?SetScalarInputDependency@SuperBlockConstants@@QAEXI@Z ; SuperBlockConstants::SetScalarInputDependency
PUBLIC	?PropagateConstants_BITSScalar@@YAXAAVSuperBlockConstants@@@Z ; PropagateConstants_BITSScalar
; Function compile flags: /Odtp /RTCsu
_TEXT	SEGMENT
_flagValues$ = -16					; size = 4
_destIndex$ = -12					; size = 4
_src2Index$ = -8					; size = 4
_src1$ = -4						; size = 4
_constants$ = 8						; size = 4
?PropagateConstants_BITSScalar@@YAXAAVSuperBlockConstants@@@Z PROC ; PropagateConstants_BITSScalar

; 96   : {

	push	ebp
	mov	ebp, esp
	sub	esp, 16					; 00000010H
	mov	eax, -858993460				; ccccccccH
	mov	DWORD PTR [ebp-16], eax
	mov	DWORD PTR [ebp-12], eax
	mov	DWORD PTR [ebp-8], eax
	mov	DWORD PTR [ebp-4], eax

; 97   :   uint32 src1 = constants.nuance->fields[FIELD_ALU_SRC1];

	mov	eax, DWORD PTR _constants$[ebp]
	mov	ecx, DWORD PTR [eax+4]
	mov	edx, DWORD PTR [ecx+8]
	mov	DWORD PTR _src1$[ebp], edx

; 98   :   uint32 src2Index = constants.nuance->fields[FIELD_ALU_SRC2];

	mov	eax, DWORD PTR _constants$[ebp]
	mov	ecx, DWORD PTR [eax+4]
	mov	edx, DWORD PTR [ecx+12]
	mov	DWORD PTR _src2Index$[ebp], edx

; 99   :   uint32 destIndex = constants.nuance->fields[FIELD_ALU_DEST]; 

	mov	eax, DWORD PTR _constants$[ebp]
	mov	ecx, DWORD PTR [eax+4]
	mov	edx, DWORD PTR [ecx+16]
	mov	DWORD PTR _destIndex$[ebp], edx

; 100  :   uint32 flagValues = 0;

	mov	DWORD PTR _flagValues$[ebp], 0

; 101  : 
; 102  :   if(constants.IsScalarRegisterConstant(src2Index) && ALLOW_ALU_PROPAGATION)

	mov	eax, DWORD PTR _src2Index$[ebp]
	push	eax
	mov	ecx, DWORD PTR _constants$[ebp]
	call	?IsScalarRegisterConstant@SuperBlockConstants@@QAE_NI@Z ; SuperBlockConstants::IsScalarRegisterConstant
	movzx	ecx, al
	test	ecx, ecx
	je	SHORT $LN2@PropagateC@3
	mov	edx, 1
	test	edx, edx
	je	SHORT $LN2@PropagateC@3

; 103  :   {
; 104  :     constants.nuance->fields[FIELD_ALU_HANDLER] = Handler_BITSImmediate;

	mov	eax, DWORD PTR _constants$[ebp]
	mov	ecx, DWORD PTR [eax+4]
	mov	DWORD PTR [ecx], 43			; 0000002bH

; 105  :     constants.nuance->fields[FIELD_ALU_SRC2] = constants.GetScalarRegisterConstant(src2Index) & 0x1FUL;

	mov	edx, DWORD PTR _src2Index$[ebp]
	push	edx
	mov	ecx, DWORD PTR _constants$[ebp]
	call	?GetScalarRegisterConstant@SuperBlockConstants@@QAEII@Z ; SuperBlockConstants::GetScalarRegisterConstant
	and	eax, 31					; 0000001fH
	mov	ecx, DWORD PTR _constants$[ebp]
	mov	edx, DWORD PTR [ecx+4]
	mov	DWORD PTR [edx+12], eax

; 106  :     constants.ClearScalarInputDependency(src2Index);

	mov	eax, DWORD PTR _src2Index$[ebp]
	push	eax
	mov	ecx, DWORD PTR _constants$[ebp]
	call	?ClearScalarInputDependency@SuperBlockConstants@@QAEXI@Z ; SuperBlockConstants::ClearScalarInputDependency

; 107  :     constants.SetScalarInputDependency(destIndex);

	mov	ecx, DWORD PTR _destIndex$[ebp]
	push	ecx
	mov	ecx, DWORD PTR _constants$[ebp]
	call	?SetScalarInputDependency@SuperBlockConstants@@QAEXI@Z ; SuperBlockConstants::SetScalarInputDependency

; 108  :     PropagateConstants_BITSImmediate(constants);

	mov	edx, DWORD PTR _constants$[ebp]
	push	edx
	call	?PropagateConstants_BITSImmediate@@YAXAAVSuperBlockConstants@@@Z ; PropagateConstants_BITSImmediate
	add	esp, 4

; 109  :   }
; 110  :   else

	jmp	SHORT $LN3@PropagateC@3
$LN2@PropagateC@3:

; 111  :   {
; 112  :     constants.ClearMiscRegisterConstant(CONSTANT_REG_N);

	push	18					; 00000012H
	mov	ecx, DWORD PTR _constants$[ebp]
	call	?ClearMiscRegisterConstant@SuperBlockConstants@@QAEXI@Z ; SuperBlockConstants::ClearMiscRegisterConstant

; 113  :     constants.ClearMiscRegisterConstant(CONSTANT_REG_Z);

	push	16					; 00000010H
	mov	ecx, DWORD PTR _constants$[ebp]
	call	?ClearMiscRegisterConstant@SuperBlockConstants@@QAEXI@Z ; SuperBlockConstants::ClearMiscRegisterConstant

; 114  :     constants.ClearScalarRegisterConstant(destIndex);    

	mov	eax, DWORD PTR _destIndex$[ebp]
	push	eax
	mov	ecx, DWORD PTR _constants$[ebp]
	call	?ClearScalarRegisterConstant@SuperBlockConstants@@QAEXI@Z ; SuperBlockConstants::ClearScalarRegisterConstant

; 115  :     constants.status.status = PROPAGATE_CONSTANTS_STATUS_ALU_OK;

	mov	ecx, DWORD PTR _constants$[ebp]
	mov	DWORD PTR [ecx+12], 2
$LN3@PropagateC@3:

; 116  :   }
; 117  : }

	add	esp, 16					; 00000010H
	cmp	ebp, esp
	call	__RTC_CheckEsp
	mov	esp, ebp
	pop	ebp
	ret	0
?PropagateConstants_BITSScalar@@YAXAAVSuperBlockConstants@@@Z ENDP ; PropagateConstants_BITSScalar
; Function compile flags: /Odtp /RTCsu
; File c:\nuanceexperimental\superblockconstants.h
_TEXT	ENDS
;	COMDAT ?SetScalarInputDependency@SuperBlockConstants@@QAEXI@Z
_TEXT	SEGMENT
_this$ = -4						; size = 4
_index$ = 8						; size = 4
?SetScalarInputDependency@SuperBlockConstants@@QAEXI@Z PROC ; SuperBlockConstants::SetScalarInputDependency, COMDAT
; _this$ = ecx

; 121  :   {

	push	ebp
	mov	ebp, esp
	push	ecx
	mov	DWORD PTR [ebp-4], -858993460		; ccccccccH
	mov	DWORD PTR _this$[ebp], ecx

; 122  :     pCurrentInstructionEntry->scalarInputDependencies |= (1UL << index);

	mov	eax, DWORD PTR _this$[ebp]
	mov	edx, DWORD PTR [eax+8]
	mov	eax, 1
	mov	ecx, DWORD PTR _index$[ebp]
	shl	eax, cl
	or	eax, DWORD PTR [edx+32]
	mov	ecx, DWORD PTR _this$[ebp]
	mov	edx, DWORD PTR [ecx+8]
	mov	DWORD PTR [edx+32], eax

; 123  :   }

	mov	esp, ebp
	pop	ebp
	ret	4
?SetScalarInputDependency@SuperBlockConstants@@QAEXI@Z ENDP ; SuperBlockConstants::SetScalarInputDependency
_TEXT	ENDS
PUBLIC	?PropagateConstants_BTST@@YAXAAVSuperBlockConstants@@@Z ; PropagateConstants_BTST
EXTRN	?PropagateConstants_StoreMiscRegisterConstant@@YAXAAVSuperBlockConstants@@@Z:PROC ; PropagateConstants_StoreMiscRegisterConstant
; Function compile flags: /Odtp /RTCsu
; File c:\nuanceexperimental\propagateconstants_alu.cpp
_TEXT	SEGMENT
_destValue$ = -20					; size = 4
_flagValues$ = -16					; size = 4
_destIndex$ = -12					; size = 4
_src2Index$ = -8					; size = 4
_src1$ = -4						; size = 4
_constants$ = 8						; size = 4
?PropagateConstants_BTST@@YAXAAVSuperBlockConstants@@@Z PROC ; PropagateConstants_BTST

; 119  : {

	push	ebp
	mov	ebp, esp
	sub	esp, 20					; 00000014H
	mov	eax, -858993460				; ccccccccH
	mov	DWORD PTR [ebp-20], eax
	mov	DWORD PTR [ebp-16], eax
	mov	DWORD PTR [ebp-12], eax
	mov	DWORD PTR [ebp-8], eax
	mov	DWORD PTR [ebp-4], eax

; 120  :   uint32 src1 = constants.nuance->fields[FIELD_ALU_SRC1];

	mov	eax, DWORD PTR _constants$[ebp]
	mov	ecx, DWORD PTR [eax+4]
	mov	edx, DWORD PTR [ecx+8]
	mov	DWORD PTR _src1$[ebp], edx

; 121  :   uint32 src2Index = constants.nuance->fields[FIELD_ALU_SRC2];

	mov	eax, DWORD PTR _constants$[ebp]
	mov	ecx, DWORD PTR [eax+4]
	mov	edx, DWORD PTR [ecx+12]
	mov	DWORD PTR _src2Index$[ebp], edx

; 122  :   uint32 destIndex = constants.nuance->fields[FIELD_ALU_DEST]; 

	mov	eax, DWORD PTR _constants$[ebp]
	mov	ecx, DWORD PTR [eax+4]
	mov	edx, DWORD PTR [ecx+16]
	mov	DWORD PTR _destIndex$[ebp], edx

; 123  :   uint32 flagValues = 0;

	mov	DWORD PTR _flagValues$[ebp], 0

; 124  :   int32 destValue;
; 125  : 
; 126  :   constants.SetMiscRegisterConstant(CONSTANT_REG_N, 0);

	push	0
	push	18					; 00000012H
	mov	ecx, DWORD PTR _constants$[ebp]
	call	?SetMiscRegisterConstant@SuperBlockConstants@@QAEXII@Z ; SuperBlockConstants::SetMiscRegisterConstant

; 127  :   constants.SetMiscRegisterConstant(CONSTANT_REG_V, 0);

	push	0
	push	17					; 00000011H
	mov	ecx, DWORD PTR _constants$[ebp]
	call	?SetMiscRegisterConstant@SuperBlockConstants@@QAEXII@Z ; SuperBlockConstants::SetMiscRegisterConstant

; 128  : 
; 129  :   if(constants.IsScalarRegisterConstant(src2Index) && ALLOW_ALU_PROPAGATION)

	mov	eax, DWORD PTR _src2Index$[ebp]
	push	eax
	mov	ecx, DWORD PTR _constants$[ebp]
	call	?IsScalarRegisterConstant@SuperBlockConstants@@QAE_NI@Z ; SuperBlockConstants::IsScalarRegisterConstant
	movzx	ecx, al
	test	ecx, ecx
	je	SHORT $LN3@PropagateC@4
	mov	edx, 1
	test	edx, edx
	je	SHORT $LN3@PropagateC@4

; 130  :   {
; 131  :     destValue = src1 & constants.GetScalarRegisterConstant(src2Index);

	mov	eax, DWORD PTR _src2Index$[ebp]
	push	eax
	mov	ecx, DWORD PTR _constants$[ebp]
	call	?GetScalarRegisterConstant@SuperBlockConstants@@QAEII@Z ; SuperBlockConstants::GetScalarRegisterConstant
	and	eax, DWORD PTR _src1$[ebp]
	mov	DWORD PTR _destValue$[ebp], eax

; 132  :     if(!destValue)

	jne	SHORT $LN2@PropagateC@4

; 133  :     {
; 134  :       flagValues = CC_ALU_ZERO;

	mov	DWORD PTR _flagValues$[ebp], 1
$LN2@PropagateC@4:

; 135  :     }
; 136  :     constants.nuance->fields[FIELD_CONSTANT_HANDLER] = Handler_StoreMiscRegisterConstant;

	mov	ecx, DWORD PTR _constants$[ebp]
	mov	edx, DWORD PTR [ecx+4]
	mov	DWORD PTR [edx], 218			; 000000daH

; 137  :     constants.nuance->fields[FIELD_CONSTANT_ADDRESS] = CONSTANT_REG_DISCARD;

	mov	eax, DWORD PTR _constants$[ebp]
	mov	ecx, DWORD PTR [eax+4]
	mov	DWORD PTR [ecx+4], 32			; 00000020H

; 138  :     constants.nuance->fields[FIELD_CONSTANT_FLAGMASK] = CC_ALU_NEGATIVE | CC_ALU_OVERFLOW | CC_ALU_ZERO;

	mov	edx, DWORD PTR _constants$[ebp]
	mov	eax, DWORD PTR [edx+4]
	mov	DWORD PTR [eax+12], 13			; 0000000dH

; 139  :     constants.nuance->fields[FIELD_CONSTANT_FLAGVALUES] = flagValues;

	mov	ecx, DWORD PTR _constants$[ebp]
	mov	edx, DWORD PTR [ecx+4]
	mov	eax, DWORD PTR _flagValues$[ebp]
	mov	DWORD PTR [edx+16], eax

; 140  :     constants.ClearScalarInputDependency(src2Index);

	mov	ecx, DWORD PTR _src2Index$[ebp]
	push	ecx
	mov	ecx, DWORD PTR _constants$[ebp]
	call	?ClearScalarInputDependency@SuperBlockConstants@@QAEXI@Z ; SuperBlockConstants::ClearScalarInputDependency

; 141  :     PropagateConstants_StoreMiscRegisterConstant(constants);

	mov	edx, DWORD PTR _constants$[ebp]
	push	edx
	call	?PropagateConstants_StoreMiscRegisterConstant@@YAXAAVSuperBlockConstants@@@Z ; PropagateConstants_StoreMiscRegisterConstant
	add	esp, 4

; 142  :   }
; 143  :   else

	jmp	SHORT $LN4@PropagateC@4
$LN3@PropagateC@4:

; 144  :   {
; 145  :     constants.ClearMiscRegisterConstant(CONSTANT_REG_Z);

	push	16					; 00000010H
	mov	ecx, DWORD PTR _constants$[ebp]
	call	?ClearMiscRegisterConstant@SuperBlockConstants@@QAEXI@Z ; SuperBlockConstants::ClearMiscRegisterConstant

; 146  :     constants.ClearScalarRegisterConstant(destIndex);    

	mov	eax, DWORD PTR _destIndex$[ebp]
	push	eax
	mov	ecx, DWORD PTR _constants$[ebp]
	call	?ClearScalarRegisterConstant@SuperBlockConstants@@QAEXI@Z ; SuperBlockConstants::ClearScalarRegisterConstant

; 147  :     constants.status.status = PROPAGATE_CONSTANTS_STATUS_ALU_OK;

	mov	ecx, DWORD PTR _constants$[ebp]
	mov	DWORD PTR [ecx+12], 2
$LN4@PropagateC@4:

; 148  :   }
; 149  : }

	add	esp, 20					; 00000014H
	cmp	ebp, esp
	call	__RTC_CheckEsp
	mov	esp, ebp
	pop	ebp
	ret	0
?PropagateConstants_BTST@@YAXAAVSuperBlockConstants@@@Z ENDP ; PropagateConstants_BTST
_TEXT	ENDS
PUBLIC	?PropagateConstants_BUTT@@YAXAAVSuperBlockConstants@@@Z ; PropagateConstants_BUTT
; Function compile flags: /Odtp /RTCsu
_TEXT	SEGMENT
_destIndex$ = -4					; size = 4
_constants$ = 8						; size = 4
?PropagateConstants_BUTT@@YAXAAVSuperBlockConstants@@@Z PROC ; PropagateConstants_BUTT

; 151  : {

	push	ebp
	mov	ebp, esp
	push	ecx
	mov	DWORD PTR [ebp-4], -858993460		; ccccccccH

; 152  :   uint32 destIndex = constants.nuance->fields[FIELD_ALU_DEST]; 

	mov	eax, DWORD PTR _constants$[ebp]
	mov	ecx, DWORD PTR [eax+4]
	mov	edx, DWORD PTR [ecx+16]
	mov	DWORD PTR _destIndex$[ebp], edx

; 153  : 
; 154  :   constants.ClearMiscRegisterConstant(CONSTANT_REG_N);

	push	18					; 00000012H
	mov	ecx, DWORD PTR _constants$[ebp]
	call	?ClearMiscRegisterConstant@SuperBlockConstants@@QAEXI@Z ; SuperBlockConstants::ClearMiscRegisterConstant

; 155  :   constants.ClearMiscRegisterConstant(CONSTANT_REG_V);

	push	17					; 00000011H
	mov	ecx, DWORD PTR _constants$[ebp]
	call	?ClearMiscRegisterConstant@SuperBlockConstants@@QAEXI@Z ; SuperBlockConstants::ClearMiscRegisterConstant

; 156  :   constants.ClearMiscRegisterConstant(CONSTANT_REG_Z);

	push	16					; 00000010H
	mov	ecx, DWORD PTR _constants$[ebp]
	call	?ClearMiscRegisterConstant@SuperBlockConstants@@QAEXI@Z ; SuperBlockConstants::ClearMiscRegisterConstant

; 157  :   constants.ClearMiscRegisterConstant(CONSTANT_REG_C);

	push	15					; 0000000fH
	mov	ecx, DWORD PTR _constants$[ebp]
	call	?ClearMiscRegisterConstant@SuperBlockConstants@@QAEXI@Z ; SuperBlockConstants::ClearMiscRegisterConstant

; 158  :   constants.ClearScalarRegisterConstant(destIndex);    

	mov	eax, DWORD PTR _destIndex$[ebp]
	push	eax
	mov	ecx, DWORD PTR _constants$[ebp]
	call	?ClearScalarRegisterConstant@SuperBlockConstants@@QAEXI@Z ; SuperBlockConstants::ClearScalarRegisterConstant

; 159  :   constants.ClearScalarRegisterConstant(destIndex + 1);    

	mov	ecx, DWORD PTR _destIndex$[ebp]
	add	ecx, 1
	push	ecx
	mov	ecx, DWORD PTR _constants$[ebp]
	call	?ClearScalarRegisterConstant@SuperBlockConstants@@QAEXI@Z ; SuperBlockConstants::ClearScalarRegisterConstant

; 160  :   constants.status.status = PROPAGATE_CONSTANTS_STATUS_ALU_OK;

	mov	edx, DWORD PTR _constants$[ebp]
	mov	DWORD PTR [edx+12], 2

; 161  : }

	add	esp, 4
	cmp	ebp, esp
	call	__RTC_CheckEsp
	mov	esp, ebp
	pop	ebp
	ret	0
?PropagateConstants_BUTT@@YAXAAVSuperBlockConstants@@@Z ENDP ; PropagateConstants_BUTT
_TEXT	ENDS
PUBLIC	?PropagateConstants_COPY@@YAXAAVSuperBlockConstants@@@Z ; PropagateConstants_COPY
; Function compile flags: /Odtp /RTCsu
_TEXT	SEGMENT
_destValue$ = -16					; size = 4
_flagValues$ = -12					; size = 4
_destIndex$ = -8					; size = 4
_src2Index$ = -4					; size = 4
_constants$ = 8						; size = 4
?PropagateConstants_COPY@@YAXAAVSuperBlockConstants@@@Z PROC ; PropagateConstants_COPY

; 163  : {

	push	ebp
	mov	ebp, esp
	sub	esp, 16					; 00000010H
	mov	eax, -858993460				; ccccccccH
	mov	DWORD PTR [ebp-16], eax
	mov	DWORD PTR [ebp-12], eax
	mov	DWORD PTR [ebp-8], eax
	mov	DWORD PTR [ebp-4], eax

; 164  :   uint32 src2Index = constants.nuance->fields[FIELD_ALU_SRC2];

	mov	eax, DWORD PTR _constants$[ebp]
	mov	ecx, DWORD PTR [eax+4]
	mov	edx, DWORD PTR [ecx+12]
	mov	DWORD PTR _src2Index$[ebp], edx

; 165  :   uint32 destIndex = constants.nuance->fields[FIELD_ALU_DEST]; 

	mov	eax, DWORD PTR _constants$[ebp]
	mov	ecx, DWORD PTR [eax+4]
	mov	edx, DWORD PTR [ecx+16]
	mov	DWORD PTR _destIndex$[ebp], edx

; 166  :   uint32 flagValues = 0;

	mov	DWORD PTR _flagValues$[ebp], 0

; 167  :   int32 destValue;
; 168  : 
; 169  :   constants.SetMiscRegisterConstant(CONSTANT_REG_V, 0);

	push	0
	push	17					; 00000011H
	mov	ecx, DWORD PTR _constants$[ebp]
	call	?SetMiscRegisterConstant@SuperBlockConstants@@QAEXII@Z ; SuperBlockConstants::SetMiscRegisterConstant

; 170  : 
; 171  :   if(constants.IsScalarRegisterConstant(src2Index) && ALLOW_ALU_PROPAGATION)

	mov	eax, DWORD PTR _src2Index$[ebp]
	push	eax
	mov	ecx, DWORD PTR _constants$[ebp]
	call	?IsScalarRegisterConstant@SuperBlockConstants@@QAE_NI@Z ; SuperBlockConstants::IsScalarRegisterConstant
	movzx	ecx, al
	test	ecx, ecx
	je	$LN4@PropagateC@5
	mov	edx, 1
	test	edx, edx
	je	$LN4@PropagateC@5

; 172  :   {
; 173  :     destValue = constants.GetScalarRegisterConstant(src2Index);

	mov	eax, DWORD PTR _src2Index$[ebp]
	push	eax
	mov	ecx, DWORD PTR _constants$[ebp]
	call	?GetScalarRegisterConstant@SuperBlockConstants@@QAEII@Z ; SuperBlockConstants::GetScalarRegisterConstant
	mov	DWORD PTR _destValue$[ebp], eax

; 174  : 
; 175  :     if(!destValue)

	cmp	DWORD PTR _destValue$[ebp], 0
	jne	SHORT $LN3@PropagateC@5

; 176  :     {
; 177  :       flagValues = CC_ALU_ZERO;

	mov	DWORD PTR _flagValues$[ebp], 1

; 178  :     }
; 179  :     else

	jmp	SHORT $LN2@PropagateC@5
$LN3@PropagateC@5:

; 180  :     {
; 181  :       // negative = bit 31 of result
; 182  :       flagValues = ((destValue >> 28) & CC_ALU_NEGATIVE);

	mov	ecx, DWORD PTR _destValue$[ebp]
	sar	ecx, 28					; 0000001cH
	and	ecx, 8
	mov	DWORD PTR _flagValues$[ebp], ecx
$LN2@PropagateC@5:

; 183  :     }
; 184  :     constants.nuance->fields[FIELD_CONSTANT_HANDLER] = Handler_StoreScalarRegisterConstant;

	mov	edx, DWORD PTR _constants$[ebp]
	mov	eax, DWORD PTR [edx+4]
	mov	DWORD PTR [eax], 217			; 000000d9H

; 185  :     constants.nuance->fields[FIELD_CONSTANT_ADDRESS] = destIndex;

	mov	ecx, DWORD PTR _constants$[ebp]
	mov	edx, DWORD PTR [ecx+4]
	mov	eax, DWORD PTR _destIndex$[ebp]
	mov	DWORD PTR [edx+4], eax

; 186  :     constants.nuance->fields[FIELD_CONSTANT_VALUE] = destValue;

	mov	ecx, DWORD PTR _constants$[ebp]
	mov	edx, DWORD PTR [ecx+4]
	mov	eax, DWORD PTR _destValue$[ebp]
	mov	DWORD PTR [edx+8], eax

; 187  :     constants.nuance->fields[FIELD_CONSTANT_FLAGMASK] = CC_ALU_NEGATIVE | CC_ALU_ZERO | CC_ALU_OVERFLOW;

	mov	ecx, DWORD PTR _constants$[ebp]
	mov	edx, DWORD PTR [ecx+4]
	mov	DWORD PTR [edx+12], 13			; 0000000dH

; 188  :     constants.nuance->fields[FIELD_CONSTANT_FLAGVALUES] = flagValues;

	mov	eax, DWORD PTR _constants$[ebp]
	mov	ecx, DWORD PTR [eax+4]
	mov	edx, DWORD PTR _flagValues$[ebp]
	mov	DWORD PTR [ecx+16], edx

; 189  :     constants.ClearScalarInputDependency(src2Index);

	mov	eax, DWORD PTR _src2Index$[ebp]
	push	eax
	mov	ecx, DWORD PTR _constants$[ebp]
	call	?ClearScalarInputDependency@SuperBlockConstants@@QAEXI@Z ; SuperBlockConstants::ClearScalarInputDependency

; 190  :     PropagateConstants_StoreScalarRegisterConstant(constants);    

	mov	ecx, DWORD PTR _constants$[ebp]
	push	ecx
	call	?PropagateConstants_StoreScalarRegisterConstant@@YAXAAVSuperBlockConstants@@@Z ; PropagateConstants_StoreScalarRegisterConstant
	add	esp, 4

; 191  :   }
; 192  :   else

	jmp	SHORT $LN5@PropagateC@5
$LN4@PropagateC@5:

; 193  :   {
; 194  :     constants.ClearMiscRegisterConstant(CONSTANT_REG_N);

	push	18					; 00000012H
	mov	ecx, DWORD PTR _constants$[ebp]
	call	?ClearMiscRegisterConstant@SuperBlockConstants@@QAEXI@Z ; SuperBlockConstants::ClearMiscRegisterConstant

; 195  :     constants.ClearMiscRegisterConstant(CONSTANT_REG_Z);

	push	16					; 00000010H
	mov	ecx, DWORD PTR _constants$[ebp]
	call	?ClearMiscRegisterConstant@SuperBlockConstants@@QAEXI@Z ; SuperBlockConstants::ClearMiscRegisterConstant

; 196  :     constants.ClearScalarRegisterConstant(destIndex);    

	mov	edx, DWORD PTR _destIndex$[ebp]
	push	edx
	mov	ecx, DWORD PTR _constants$[ebp]
	call	?ClearScalarRegisterConstant@SuperBlockConstants@@QAEXI@Z ; SuperBlockConstants::ClearScalarRegisterConstant

; 197  :     constants.status.status = PROPAGATE_CONSTANTS_STATUS_ALU_OK;

	mov	eax, DWORD PTR _constants$[ebp]
	mov	DWORD PTR [eax+12], 2
$LN5@PropagateC@5:

; 198  :   }
; 199  : }

	add	esp, 16					; 00000010H
	cmp	ebp, esp
	call	__RTC_CheckEsp
	mov	esp, ebp
	pop	ebp
	ret	0
?PropagateConstants_COPY@@YAXAAVSuperBlockConstants@@@Z ENDP ; PropagateConstants_COPY
_TEXT	ENDS
PUBLIC	?PropagateConstants_MSB@@YAXAAVSuperBlockConstants@@@Z ; PropagateConstants_MSB
; Function compile flags: /Odtp /RTCsu
_TEXT	SEGMENT
_n$ = -20						; size = 4
_sigbits$ = -16						; size = 4
_flagValues$ = -12					; size = 4
_destIndex$ = -8					; size = 4
_src1Index$ = -4					; size = 4
_constants$ = 8						; size = 4
?PropagateConstants_MSB@@YAXAAVSuperBlockConstants@@@Z PROC ; PropagateConstants_MSB

; 201  : {

	push	ebp
	mov	ebp, esp
	sub	esp, 20					; 00000014H
	mov	eax, -858993460				; ccccccccH
	mov	DWORD PTR [ebp-20], eax
	mov	DWORD PTR [ebp-16], eax
	mov	DWORD PTR [ebp-12], eax
	mov	DWORD PTR [ebp-8], eax
	mov	DWORD PTR [ebp-4], eax

; 202  :   uint32 src1Index = constants.nuance->fields[FIELD_ALU_SRC1];

	mov	eax, DWORD PTR _constants$[ebp]
	mov	ecx, DWORD PTR [eax+4]
	mov	edx, DWORD PTR [ecx+8]
	mov	DWORD PTR _src1Index$[ebp], edx

; 203  :   uint32 destIndex = constants.nuance->fields[FIELD_ALU_DEST]; 

	mov	eax, DWORD PTR _constants$[ebp]
	mov	ecx, DWORD PTR [eax+4]
	mov	edx, DWORD PTR [ecx+16]
	mov	DWORD PTR _destIndex$[ebp], edx

; 204  :   uint32 flagValues = 0;

	mov	DWORD PTR _flagValues$[ebp], 0

; 205  :   uint32 sigbits;
; 206  :   int32 n;
; 207  : 
; 208  :   if(constants.IsScalarRegisterConstant(src1Index) && ALLOW_ALU_PROPAGATION)

	mov	eax, DWORD PTR _src1Index$[ebp]
	push	eax
	mov	ecx, DWORD PTR _constants$[ebp]
	call	?IsScalarRegisterConstant@SuperBlockConstants@@QAE_NI@Z ; SuperBlockConstants::IsScalarRegisterConstant
	movzx	ecx, al
	test	ecx, ecx
	je	$LN6@PropagateC@6
	mov	edx, 1
	test	edx, edx
	je	$LN6@PropagateC@6

; 209  :   {
; 210  :     n = constants.GetScalarRegisterConstant(src1Index);

	mov	eax, DWORD PTR _src1Index$[ebp]
	push	eax
	mov	ecx, DWORD PTR _constants$[ebp]
	call	?GetScalarRegisterConstant@SuperBlockConstants@@QAEII@Z ; SuperBlockConstants::GetScalarRegisterConstant
	mov	DWORD PTR _n$[ebp], eax

; 211  :     if((n == 0) || (n == -1))

	cmp	DWORD PTR _n$[ebp], 0
	je	SHORT $LN4@PropagateC@6
	cmp	DWORD PTR _n$[ebp], -1
	jne	SHORT $LN5@PropagateC@6
$LN4@PropagateC@6:

; 212  :     {
; 213  :       sigbits = 0;

	mov	DWORD PTR _sigbits$[ebp], 0

; 214  :     }
; 215  :     else

	jmp	$LN3@PropagateC@6
$LN5@PropagateC@6:

; 216  :     {
; 217  :       //n = n if positive, n = ~n if negative
; 218  :       n = (n ^ (n >> 31));

	mov	ecx, DWORD PTR _n$[ebp]
	sar	ecx, 31					; 0000001fH
	xor	ecx, DWORD PTR _n$[ebp]
	mov	DWORD PTR _n$[ebp], ecx

; 219  : 
; 220  :       //fold n into itself to get a new value where all bits below the
; 221  :       //most significant one bit have also been set to one.
; 222  : 
; 223  :       n |= (n >> 1);

	mov	edx, DWORD PTR _n$[ebp]
	sar	edx, 1
	or	edx, DWORD PTR _n$[ebp]
	mov	DWORD PTR _n$[ebp], edx

; 224  :       n |= (n >> 2);

	mov	eax, DWORD PTR _n$[ebp]
	sar	eax, 2
	or	eax, DWORD PTR _n$[ebp]
	mov	DWORD PTR _n$[ebp], eax

; 225  :       n |= (n >> 4);

	mov	ecx, DWORD PTR _n$[ebp]
	sar	ecx, 4
	or	ecx, DWORD PTR _n$[ebp]
	mov	DWORD PTR _n$[ebp], ecx

; 226  :       n |= (n >> 8);

	mov	edx, DWORD PTR _n$[ebp]
	sar	edx, 8
	or	edx, DWORD PTR _n$[ebp]
	mov	DWORD PTR _n$[ebp], edx

; 227  :       n |= (n >> 16);

	mov	eax, DWORD PTR _n$[ebp]
	sar	eax, 16					; 00000010H
	or	eax, DWORD PTR _n$[ebp]
	mov	DWORD PTR _n$[ebp], eax

; 228  : 
; 229  :       //get the ones count
; 230  : 
; 231  :       n -= ((n >> 1) & 0x55555555);

	mov	ecx, DWORD PTR _n$[ebp]
	sar	ecx, 1
	and	ecx, 1431655765				; 55555555H
	mov	edx, DWORD PTR _n$[ebp]
	sub	edx, ecx
	mov	DWORD PTR _n$[ebp], edx

; 232  :       n = (((n >> 2) & 0x33333333) + (n & 0x33333333));

	mov	eax, DWORD PTR _n$[ebp]
	sar	eax, 2
	and	eax, 858993459				; 33333333H
	mov	ecx, DWORD PTR _n$[ebp]
	and	ecx, 858993459				; 33333333H
	add	eax, ecx
	mov	DWORD PTR _n$[ebp], eax

; 233  :       n = (((n >> 4) + n) & 0x0f0f0f0f);

	mov	edx, DWORD PTR _n$[ebp]
	sar	edx, 4
	add	edx, DWORD PTR _n$[ebp]
	and	edx, 252645135				; 0f0f0f0fH
	mov	DWORD PTR _n$[ebp], edx

; 234  :       n += (n >> 8);

	mov	eax, DWORD PTR _n$[ebp]
	sar	eax, 8
	add	eax, DWORD PTR _n$[ebp]
	mov	DWORD PTR _n$[ebp], eax

; 235  :       n += (n >> 16);

	mov	ecx, DWORD PTR _n$[ebp]
	sar	ecx, 16					; 00000010H
	add	ecx, DWORD PTR _n$[ebp]
	mov	DWORD PTR _n$[ebp], ecx

; 236  : 
; 237  :       //return the ones count... if n was orignally 0 or -1 then the ones count
; 238  :       //will be zero which is exactly what we want
; 239  :       sigbits = ((uint32)n) & 0x1FUL;

	mov	edx, DWORD PTR _n$[ebp]
	and	edx, 31					; 0000001fH
	mov	DWORD PTR _sigbits$[ebp], edx
$LN3@PropagateC@6:

; 240  :     }
; 241  : 
; 242  :     if(!sigbits)

	cmp	DWORD PTR _sigbits$[ebp], 0
	jne	SHORT $LN2@PropagateC@6

; 243  :     {
; 244  :       flagValues = CC_ALU_ZERO;

	mov	DWORD PTR _flagValues$[ebp], 1
$LN2@PropagateC@6:

; 245  :     }
; 246  :     constants.nuance->fields[FIELD_CONSTANT_HANDLER] = Handler_StoreScalarRegisterConstant;

	mov	eax, DWORD PTR _constants$[ebp]
	mov	ecx, DWORD PTR [eax+4]
	mov	DWORD PTR [ecx], 217			; 000000d9H

; 247  :     constants.nuance->fields[FIELD_CONSTANT_ADDRESS] = destIndex;

	mov	edx, DWORD PTR _constants$[ebp]
	mov	eax, DWORD PTR [edx+4]
	mov	ecx, DWORD PTR _destIndex$[ebp]
	mov	DWORD PTR [eax+4], ecx

; 248  :     constants.nuance->fields[FIELD_CONSTANT_VALUE] = sigbits;

	mov	edx, DWORD PTR _constants$[ebp]
	mov	eax, DWORD PTR [edx+4]
	mov	ecx, DWORD PTR _sigbits$[ebp]
	mov	DWORD PTR [eax+8], ecx

; 249  :     constants.nuance->fields[FIELD_CONSTANT_FLAGMASK] = CC_ALU_ZERO;

	mov	edx, DWORD PTR _constants$[ebp]
	mov	eax, DWORD PTR [edx+4]
	mov	DWORD PTR [eax+12], 1

; 250  :     constants.nuance->fields[FIELD_CONSTANT_FLAGVALUES] = flagValues;

	mov	ecx, DWORD PTR _constants$[ebp]
	mov	edx, DWORD PTR [ecx+4]
	mov	eax, DWORD PTR _flagValues$[ebp]
	mov	DWORD PTR [edx+16], eax

; 251  :     constants.ClearScalarInputDependency(src1Index);

	mov	ecx, DWORD PTR _src1Index$[ebp]
	push	ecx
	mov	ecx, DWORD PTR _constants$[ebp]
	call	?ClearScalarInputDependency@SuperBlockConstants@@QAEXI@Z ; SuperBlockConstants::ClearScalarInputDependency

; 252  :     PropagateConstants_StoreScalarRegisterConstant(constants);    

	mov	edx, DWORD PTR _constants$[ebp]
	push	edx
	call	?PropagateConstants_StoreScalarRegisterConstant@@YAXAAVSuperBlockConstants@@@Z ; PropagateConstants_StoreScalarRegisterConstant
	add	esp, 4

; 253  :   }
; 254  :   else

	jmp	SHORT $LN7@PropagateC@6
$LN6@PropagateC@6:

; 255  :   {
; 256  :     constants.ClearMiscRegisterConstant(CONSTANT_REG_Z);

	push	16					; 00000010H
	mov	ecx, DWORD PTR _constants$[ebp]
	call	?ClearMiscRegisterConstant@SuperBlockConstants@@QAEXI@Z ; SuperBlockConstants::ClearMiscRegisterConstant

; 257  :     constants.ClearScalarRegisterConstant(destIndex);    

	mov	eax, DWORD PTR _destIndex$[ebp]
	push	eax
	mov	ecx, DWORD PTR _constants$[ebp]
	call	?ClearScalarRegisterConstant@SuperBlockConstants@@QAEXI@Z ; SuperBlockConstants::ClearScalarRegisterConstant

; 258  :     constants.status.status = PROPAGATE_CONSTANTS_STATUS_ALU_OK;

	mov	ecx, DWORD PTR _constants$[ebp]
	mov	DWORD PTR [ecx+12], 2
$LN7@PropagateC@6:

; 259  :   }
; 260  : }

	add	esp, 20					; 00000014H
	cmp	ebp, esp
	call	__RTC_CheckEsp
	mov	esp, ebp
	pop	ebp
	ret	0
?PropagateConstants_MSB@@YAXAAVSuperBlockConstants@@@Z ENDP ; PropagateConstants_MSB
_TEXT	ENDS
PUBLIC	?PropagateConstants_SAT@@YAXAAVSuperBlockConstants@@@Z ; PropagateConstants_SAT
; Function compile flags: /Odtp /RTCsu
_TEXT	SEGMENT
_n$ = -24						; size = 4
_mask$ = -20						; size = 4
_destValue$ = -16					; size = 4
_flagValues$ = -12					; size = 4
_destIndex$ = -8					; size = 4
_src1Index$ = -4					; size = 4
_constants$ = 8						; size = 4
?PropagateConstants_SAT@@YAXAAVSuperBlockConstants@@@Z PROC ; PropagateConstants_SAT

; 262  : {

	push	ebp
	mov	ebp, esp
	sub	esp, 24					; 00000018H
	mov	eax, -858993460				; ccccccccH
	mov	DWORD PTR [ebp-24], eax
	mov	DWORD PTR [ebp-20], eax
	mov	DWORD PTR [ebp-16], eax
	mov	DWORD PTR [ebp-12], eax
	mov	DWORD PTR [ebp-8], eax
	mov	DWORD PTR [ebp-4], eax

; 263  :   uint32 src1Index = constants.nuance->fields[FIELD_ALU_SRC1];

	mov	eax, DWORD PTR _constants$[ebp]
	mov	ecx, DWORD PTR [eax+4]
	mov	edx, DWORD PTR [ecx+8]
	mov	DWORD PTR _src1Index$[ebp], edx

; 264  :   uint32 destIndex = constants.nuance->fields[FIELD_ALU_DEST]; 

	mov	eax, DWORD PTR _constants$[ebp]
	mov	ecx, DWORD PTR [eax+4]
	mov	edx, DWORD PTR [ecx+16]
	mov	DWORD PTR _destIndex$[ebp], edx

; 265  :   uint32 flagValues = 0;

	mov	DWORD PTR _flagValues$[ebp], 0

; 266  :   uint32 destValue;
; 267  :   int32 mask, n;
; 268  : 
; 269  :   if(constants.IsScalarRegisterConstant(src1Index) && ALLOW_ALU_PROPAGATION)

	mov	eax, DWORD PTR _src1Index$[ebp]
	push	eax
	mov	ecx, DWORD PTR _constants$[ebp]
	call	?IsScalarRegisterConstant@SuperBlockConstants@@QAE_NI@Z ; SuperBlockConstants::IsScalarRegisterConstant
	movzx	ecx, al
	test	ecx, ecx
	je	$LN8@PropagateC@7
	mov	edx, 1
	test	edx, edx
	je	$LN8@PropagateC@7

; 270  :   {
; 271  :     mask = (0x01UL << constants.nuance->fields[FIELD_ALU_SRC2]) - 1;

	mov	eax, DWORD PTR _constants$[ebp]
	mov	ecx, DWORD PTR [eax+4]
	mov	edx, 1
	mov	ecx, DWORD PTR [ecx+12]
	shl	edx, cl
	sub	edx, 1
	mov	DWORD PTR _mask$[ebp], edx

; 272  :     n = constants.GetScalarRegisterConstant(src1Index);

	mov	eax, DWORD PTR _src1Index$[ebp]
	push	eax
	mov	ecx, DWORD PTR _constants$[ebp]
	call	?GetScalarRegisterConstant@SuperBlockConstants@@QAEII@Z ; SuperBlockConstants::GetScalarRegisterConstant
	mov	DWORD PTR _n$[ebp], eax

; 273  : 
; 274  :     //initial mask is largest negative number using 'bits' bits, minus one to get
; 275  :     //largest positive signed number using 'bits' bits
; 276  : 
; 277  :     //NOTE: the bits parameter will be one less than the number of bits desired
; 278  :     //so you do not have to subtract 1 from the shift amount to get the correct
; 279  :     //mask
; 280  : 
; 281  :     if(n > mask)

	mov	ecx, DWORD PTR _n$[ebp]
	cmp	ecx, DWORD PTR _mask$[ebp]
	jle	SHORT $LN7@PropagateC@7

; 282  :     {
; 283  :       destValue = mask;

	mov	edx, DWORD PTR _mask$[ebp]
	mov	DWORD PTR _destValue$[ebp], edx

; 284  :     }
; 285  :     else

	jmp	SHORT $LN6@PropagateC@7
$LN7@PropagateC@7:

; 286  :     {
; 287  :       //inverting mask gives smallest negative number possible using 'bits' bits
; 288  :       mask = ~mask;

	mov	eax, DWORD PTR _mask$[ebp]
	not	eax
	mov	DWORD PTR _mask$[ebp], eax

; 289  : 
; 290  :       if(n < mask)

	mov	ecx, DWORD PTR _n$[ebp]
	cmp	ecx, DWORD PTR _mask$[ebp]
	jge	SHORT $LN5@PropagateC@7

; 291  :       {
; 292  :         destValue = mask;

	mov	edx, DWORD PTR _mask$[ebp]
	mov	DWORD PTR _destValue$[ebp], edx

; 293  :       }
; 294  :       else

	jmp	SHORT $LN6@PropagateC@7
$LN5@PropagateC@7:

; 295  :       {
; 296  :         destValue = n;

	mov	eax, DWORD PTR _n$[ebp]
	mov	DWORD PTR _destValue$[ebp], eax
$LN6@PropagateC@7:

; 297  :       }
; 298  :     }
; 299  :     
; 300  :     if(destValue == 0)

	cmp	DWORD PTR _destValue$[ebp], 0
	jne	SHORT $LN3@PropagateC@7

; 301  :     {
; 302  :       flagValues = CC_ALU_ZERO;

	mov	DWORD PTR _flagValues$[ebp], 1

; 303  :     }
; 304  :     else

	jmp	SHORT $LN2@PropagateC@7
$LN3@PropagateC@7:

; 305  :     {
; 306  :       // negative = bit 31 of result
; 307  :       flagValues = ((destValue >> 28) & CC_ALU_NEGATIVE);

	mov	ecx, DWORD PTR _destValue$[ebp]
	shr	ecx, 28					; 0000001cH
	and	ecx, 8
	mov	DWORD PTR _flagValues$[ebp], ecx
$LN2@PropagateC@7:

; 308  :     }
; 309  :     constants.nuance->fields[FIELD_CONSTANT_HANDLER] = Handler_StoreScalarRegisterConstant;

	mov	edx, DWORD PTR _constants$[ebp]
	mov	eax, DWORD PTR [edx+4]
	mov	DWORD PTR [eax], 217			; 000000d9H

; 310  :     constants.nuance->fields[FIELD_CONSTANT_ADDRESS] = destIndex;

	mov	ecx, DWORD PTR _constants$[ebp]
	mov	edx, DWORD PTR [ecx+4]
	mov	eax, DWORD PTR _destIndex$[ebp]
	mov	DWORD PTR [edx+4], eax

; 311  :     constants.nuance->fields[FIELD_CONSTANT_VALUE] = destValue;

	mov	ecx, DWORD PTR _constants$[ebp]
	mov	edx, DWORD PTR [ecx+4]
	mov	eax, DWORD PTR _destValue$[ebp]
	mov	DWORD PTR [edx+8], eax

; 312  :     constants.nuance->fields[FIELD_CONSTANT_FLAGMASK] = CC_ALU_NEGATIVE | CC_ALU_ZERO;

	mov	ecx, DWORD PTR _constants$[ebp]
	mov	edx, DWORD PTR [ecx+4]
	mov	DWORD PTR [edx+12], 9

; 313  :     constants.nuance->fields[FIELD_CONSTANT_FLAGVALUES] = flagValues;

	mov	eax, DWORD PTR _constants$[ebp]
	mov	ecx, DWORD PTR [eax+4]
	mov	edx, DWORD PTR _flagValues$[ebp]
	mov	DWORD PTR [ecx+16], edx

; 314  :     constants.ClearScalarInputDependency(src1Index);

	mov	eax, DWORD PTR _src1Index$[ebp]
	push	eax
	mov	ecx, DWORD PTR _constants$[ebp]
	call	?ClearScalarInputDependency@SuperBlockConstants@@QAEXI@Z ; SuperBlockConstants::ClearScalarInputDependency

; 315  :     PropagateConstants_StoreScalarRegisterConstant(constants);    

	mov	ecx, DWORD PTR _constants$[ebp]
	push	ecx
	call	?PropagateConstants_StoreScalarRegisterConstant@@YAXAAVSuperBlockConstants@@@Z ; PropagateConstants_StoreScalarRegisterConstant
	add	esp, 4

; 316  :   }
; 317  :   else

	jmp	SHORT $LN9@PropagateC@7
$LN8@PropagateC@7:

; 318  :   {
; 319  :     constants.ClearMiscRegisterConstant(CONSTANT_REG_N);

	push	18					; 00000012H
	mov	ecx, DWORD PTR _constants$[ebp]
	call	?ClearMiscRegisterConstant@SuperBlockConstants@@QAEXI@Z ; SuperBlockConstants::ClearMiscRegisterConstant

; 320  :     constants.ClearMiscRegisterConstant(CONSTANT_REG_Z);

	push	16					; 00000010H
	mov	ecx, DWORD PTR _constants$[ebp]
	call	?ClearMiscRegisterConstant@SuperBlockConstants@@QAEXI@Z ; SuperBlockConstants::ClearMiscRegisterConstant

; 321  :     constants.ClearScalarRegisterConstant(destIndex);    

	mov	edx, DWORD PTR _destIndex$[ebp]
	push	edx
	mov	ecx, DWORD PTR _constants$[ebp]
	call	?ClearScalarRegisterConstant@SuperBlockConstants@@QAEXI@Z ; SuperBlockConstants::ClearScalarRegisterConstant

; 322  :     constants.status.status = PROPAGATE_CONSTANTS_STATUS_ALU_OK;

	mov	eax, DWORD PTR _constants$[ebp]
	mov	DWORD PTR [eax+12], 2
$LN9@PropagateC@7:

; 323  :   }
; 324  : }

	add	esp, 24					; 00000018H
	cmp	ebp, esp
	call	__RTC_CheckEsp
	mov	esp, ebp
	pop	ebp
	ret	0
?PropagateConstants_SAT@@YAXAAVSuperBlockConstants@@@Z ENDP ; PropagateConstants_SAT
_TEXT	ENDS
PUBLIC	?PropagateConstants_ASL@@YAXAAVSuperBlockConstants@@@Z ; PropagateConstants_ASL
; Function compile flags: /Odtp /RTCsu
_TEXT	SEGMENT
_src2$ = -20						; size = 4
_destValue$ = -16					; size = 4
_flagValues$ = -12					; size = 4
_destIndex$ = -8					; size = 4
_src2Index$ = -4					; size = 4
_constants$ = 8						; size = 4
?PropagateConstants_ASL@@YAXAAVSuperBlockConstants@@@Z PROC ; PropagateConstants_ASL

; 326  : {

	push	ebp
	mov	ebp, esp
	sub	esp, 20					; 00000014H
	mov	eax, -858993460				; ccccccccH
	mov	DWORD PTR [ebp-20], eax
	mov	DWORD PTR [ebp-16], eax
	mov	DWORD PTR [ebp-12], eax
	mov	DWORD PTR [ebp-8], eax
	mov	DWORD PTR [ebp-4], eax

; 327  :   uint32 src2Index = constants.nuance->fields[FIELD_ALU_SRC2];

	mov	eax, DWORD PTR _constants$[ebp]
	mov	ecx, DWORD PTR [eax+4]
	mov	edx, DWORD PTR [ecx+12]
	mov	DWORD PTR _src2Index$[ebp], edx

; 328  :   uint32 destIndex = constants.nuance->fields[FIELD_ALU_DEST]; 

	mov	eax, DWORD PTR _constants$[ebp]
	mov	ecx, DWORD PTR [eax+4]
	mov	edx, DWORD PTR [ecx+16]
	mov	DWORD PTR _destIndex$[ebp], edx

; 329  :   uint32 flagValues = 0;

	mov	DWORD PTR _flagValues$[ebp], 0

; 330  :   uint32 destValue, src2;
; 331  : 
; 332  :   constants.SetMiscRegisterConstant(CONSTANT_REG_V,0);

	push	0
	push	17					; 00000011H
	mov	ecx, DWORD PTR _constants$[ebp]
	call	?SetMiscRegisterConstant@SuperBlockConstants@@QAEXII@Z ; SuperBlockConstants::SetMiscRegisterConstant

; 333  :   if(constants.IsScalarRegisterConstant(src2Index) && ALLOW_ALU_PROPAGATION)

	mov	eax, DWORD PTR _src2Index$[ebp]
	push	eax
	mov	ecx, DWORD PTR _constants$[ebp]
	call	?IsScalarRegisterConstant@SuperBlockConstants@@QAE_NI@Z ; SuperBlockConstants::IsScalarRegisterConstant
	movzx	ecx, al
	test	ecx, ecx
	je	$LN5@PropagateC@8
	mov	edx, 1
	test	edx, edx
	je	$LN5@PropagateC@8

; 334  :   {
; 335  :     src2 = constants.GetScalarRegisterConstant(src2Index);

	mov	eax, DWORD PTR _src2Index$[ebp]
	push	eax
	mov	ecx, DWORD PTR _constants$[ebp]
	call	?GetScalarRegisterConstant@SuperBlockConstants@@QAEII@Z ; SuperBlockConstants::GetScalarRegisterConstant
	mov	DWORD PTR _src2$[ebp], eax

; 336  :     // carry = bit 31 of source
; 337  :     flagValues = ((src2 >> 30) & CC_ALU_CARRY);

	mov	ecx, DWORD PTR _src2$[ebp]
	shr	ecx, 30					; 0000001eH
	and	ecx, 2
	mov	DWORD PTR _flagValues$[ebp], ecx

; 338  :     destValue = src2 << constants.nuance->fields[FIELD_ALU_SRC1];

	mov	edx, DWORD PTR _constants$[ebp]
	mov	eax, DWORD PTR [edx+4]
	mov	edx, DWORD PTR _src2$[ebp]
	mov	ecx, DWORD PTR [eax+8]
	shl	edx, cl
	mov	DWORD PTR _destValue$[ebp], edx

; 339  : 
; 340  :     //AS <immediate>,<scalar>,<scalar> will be transformed into ASL.  The AS
; 341  :     //instruction allows left shifts of 32 so this handler must support this
; 342  :     //scenario even though ASL cannot shift by 32.
; 343  :     if(!destValue || (constants.nuance->fields[FIELD_ALU_SRC1] == 32))

	cmp	DWORD PTR _destValue$[ebp], 0
	je	SHORT $LN3@PropagateC@8
	mov	eax, DWORD PTR _constants$[ebp]
	mov	ecx, DWORD PTR [eax+4]
	cmp	DWORD PTR [ecx+8], 32			; 00000020H
	jne	SHORT $LN4@PropagateC@8
$LN3@PropagateC@8:

; 344  :     {
; 345  :       destValue = 0;

	mov	DWORD PTR _destValue$[ebp], 0

; 346  :       flagValues |= CC_ALU_ZERO;

	mov	edx, DWORD PTR _flagValues$[ebp]
	or	edx, 1
	mov	DWORD PTR _flagValues$[ebp], edx

; 347  :     }
; 348  :     else

	jmp	SHORT $LN2@PropagateC@8
$LN4@PropagateC@8:

; 349  :     {
; 350  :       // negative = bit 31 of result
; 351  :       flagValues |= ((destValue >> 28) & CC_ALU_NEGATIVE);

	mov	eax, DWORD PTR _destValue$[ebp]
	shr	eax, 28					; 0000001cH
	and	eax, 8
	or	eax, DWORD PTR _flagValues$[ebp]
	mov	DWORD PTR _flagValues$[ebp], eax
$LN2@PropagateC@8:

; 352  :     }
; 353  :     constants.nuance->fields[FIELD_CONSTANT_HANDLER] = Handler_StoreScalarRegisterConstant;

	mov	ecx, DWORD PTR _constants$[ebp]
	mov	edx, DWORD PTR [ecx+4]
	mov	DWORD PTR [edx], 217			; 000000d9H

; 354  :     constants.nuance->fields[FIELD_CONSTANT_ADDRESS] = destIndex;

	mov	eax, DWORD PTR _constants$[ebp]
	mov	ecx, DWORD PTR [eax+4]
	mov	edx, DWORD PTR _destIndex$[ebp]
	mov	DWORD PTR [ecx+4], edx

; 355  :     constants.nuance->fields[FIELD_CONSTANT_VALUE] = destValue;

	mov	eax, DWORD PTR _constants$[ebp]
	mov	ecx, DWORD PTR [eax+4]
	mov	edx, DWORD PTR _destValue$[ebp]
	mov	DWORD PTR [ecx+8], edx

; 356  :     constants.nuance->fields[FIELD_CONSTANT_FLAGMASK] = CC_ALU_NEGATIVE | CC_ALU_ZERO | CC_ALU_CARRY | CC_ALU_OVERFLOW;

	mov	eax, DWORD PTR _constants$[ebp]
	mov	ecx, DWORD PTR [eax+4]
	mov	DWORD PTR [ecx+12], 15			; 0000000fH

; 357  :     constants.nuance->fields[FIELD_CONSTANT_FLAGVALUES] = flagValues;

	mov	edx, DWORD PTR _constants$[ebp]
	mov	eax, DWORD PTR [edx+4]
	mov	ecx, DWORD PTR _flagValues$[ebp]
	mov	DWORD PTR [eax+16], ecx

; 358  :     constants.ClearScalarInputDependency(src2Index);

	mov	edx, DWORD PTR _src2Index$[ebp]
	push	edx
	mov	ecx, DWORD PTR _constants$[ebp]
	call	?ClearScalarInputDependency@SuperBlockConstants@@QAEXI@Z ; SuperBlockConstants::ClearScalarInputDependency

; 359  :     PropagateConstants_StoreScalarRegisterConstant(constants);    

	mov	eax, DWORD PTR _constants$[ebp]
	push	eax
	call	?PropagateConstants_StoreScalarRegisterConstant@@YAXAAVSuperBlockConstants@@@Z ; PropagateConstants_StoreScalarRegisterConstant
	add	esp, 4

; 360  :   }
; 361  :   else

	jmp	SHORT $LN6@PropagateC@8
$LN5@PropagateC@8:

; 362  :   {
; 363  :     constants.ClearMiscRegisterConstant(CONSTANT_REG_N);

	push	18					; 00000012H
	mov	ecx, DWORD PTR _constants$[ebp]
	call	?ClearMiscRegisterConstant@SuperBlockConstants@@QAEXI@Z ; SuperBlockConstants::ClearMiscRegisterConstant

; 364  :     constants.ClearMiscRegisterConstant(CONSTANT_REG_C);

	push	15					; 0000000fH
	mov	ecx, DWORD PTR _constants$[ebp]
	call	?ClearMiscRegisterConstant@SuperBlockConstants@@QAEXI@Z ; SuperBlockConstants::ClearMiscRegisterConstant

; 365  :     constants.ClearMiscRegisterConstant(CONSTANT_REG_Z);

	push	16					; 00000010H
	mov	ecx, DWORD PTR _constants$[ebp]
	call	?ClearMiscRegisterConstant@SuperBlockConstants@@QAEXI@Z ; SuperBlockConstants::ClearMiscRegisterConstant

; 366  :     constants.ClearScalarRegisterConstant(destIndex);

	mov	ecx, DWORD PTR _destIndex$[ebp]
	push	ecx
	mov	ecx, DWORD PTR _constants$[ebp]
	call	?ClearScalarRegisterConstant@SuperBlockConstants@@QAEXI@Z ; SuperBlockConstants::ClearScalarRegisterConstant

; 367  :     constants.status.status = PROPAGATE_CONSTANTS_STATUS_ALU_OK;

	mov	edx, DWORD PTR _constants$[ebp]
	mov	DWORD PTR [edx+12], 2
$LN6@PropagateC@8:

; 368  :   }
; 369  : }

	add	esp, 20					; 00000014H
	cmp	ebp, esp
	call	__RTC_CheckEsp
	mov	esp, ebp
	pop	ebp
	ret	0
?PropagateConstants_ASL@@YAXAAVSuperBlockConstants@@@Z ENDP ; PropagateConstants_ASL
_TEXT	ENDS
PUBLIC	?PropagateConstants_ASR@@YAXAAVSuperBlockConstants@@@Z ; PropagateConstants_ASR
; Function compile flags: /Odtp /RTCsu
_TEXT	SEGMENT
_src2$ = -20						; size = 4
_destValue$ = -16					; size = 4
_flagValues$ = -12					; size = 4
_destIndex$ = -8					; size = 4
_src2Index$ = -4					; size = 4
_constants$ = 8						; size = 4
?PropagateConstants_ASR@@YAXAAVSuperBlockConstants@@@Z PROC ; PropagateConstants_ASR

; 371  : {

	push	ebp
	mov	ebp, esp
	sub	esp, 20					; 00000014H
	mov	eax, -858993460				; ccccccccH
	mov	DWORD PTR [ebp-20], eax
	mov	DWORD PTR [ebp-16], eax
	mov	DWORD PTR [ebp-12], eax
	mov	DWORD PTR [ebp-8], eax
	mov	DWORD PTR [ebp-4], eax

; 372  :   uint32 src2Index = constants.nuance->fields[FIELD_ALU_SRC2];

	mov	eax, DWORD PTR _constants$[ebp]
	mov	ecx, DWORD PTR [eax+4]
	mov	edx, DWORD PTR [ecx+12]
	mov	DWORD PTR _src2Index$[ebp], edx

; 373  :   uint32 destIndex = constants.nuance->fields[FIELD_ALU_DEST]; 

	mov	eax, DWORD PTR _constants$[ebp]
	mov	ecx, DWORD PTR [eax+4]
	mov	edx, DWORD PTR [ecx+16]
	mov	DWORD PTR _destIndex$[ebp], edx

; 374  :   uint32 flagValues = 0;

	mov	DWORD PTR _flagValues$[ebp], 0

; 375  :   uint32 destValue, src2;
; 376  : 
; 377  :   constants.SetMiscRegisterConstant(CONSTANT_REG_V,0);

	push	0
	push	17					; 00000011H
	mov	ecx, DWORD PTR _constants$[ebp]
	call	?SetMiscRegisterConstant@SuperBlockConstants@@QAEXII@Z ; SuperBlockConstants::SetMiscRegisterConstant

; 378  :   if(constants.IsScalarRegisterConstant(src2Index) && ALLOW_ALU_PROPAGATION)

	mov	eax, DWORD PTR _src2Index$[ebp]
	push	eax
	mov	ecx, DWORD PTR _constants$[ebp]
	call	?IsScalarRegisterConstant@SuperBlockConstants@@QAE_NI@Z ; SuperBlockConstants::IsScalarRegisterConstant
	movzx	ecx, al
	test	ecx, ecx
	je	$LN4@PropagateC@9
	mov	edx, 1
	test	edx, edx
	je	$LN4@PropagateC@9

; 379  :   {
; 380  :     src2 = constants.GetScalarRegisterConstant(src2Index);

	mov	eax, DWORD PTR _src2Index$[ebp]
	push	eax
	mov	ecx, DWORD PTR _constants$[ebp]
	call	?GetScalarRegisterConstant@SuperBlockConstants@@QAEII@Z ; SuperBlockConstants::GetScalarRegisterConstant
	mov	DWORD PTR _src2$[ebp], eax

; 381  :     // carry = bit 31 of source
; 382  :     flagValues = ((src2 << 1) & CC_ALU_CARRY);

	mov	ecx, DWORD PTR _src2$[ebp]
	shl	ecx, 1
	and	ecx, 2
	mov	DWORD PTR _flagValues$[ebp], ecx

; 383  :     destValue = ((int32)src2) >> constants.nuance->fields[FIELD_ALU_SRC1];

	mov	edx, DWORD PTR _constants$[ebp]
	mov	eax, DWORD PTR [edx+4]
	mov	edx, DWORD PTR _src2$[ebp]
	mov	ecx, DWORD PTR [eax+8]
	sar	edx, cl
	mov	DWORD PTR _destValue$[ebp], edx

; 384  : 
; 385  :     if(!destValue)

	cmp	DWORD PTR _destValue$[ebp], 0
	jne	SHORT $LN3@PropagateC@9

; 386  :     {
; 387  :       flagValues |= CC_ALU_ZERO;

	mov	eax, DWORD PTR _flagValues$[ebp]
	or	eax, 1
	mov	DWORD PTR _flagValues$[ebp], eax

; 388  :     }
; 389  :     else

	jmp	SHORT $LN2@PropagateC@9
$LN3@PropagateC@9:

; 390  :     {
; 391  :       // negative = bit 31 of result
; 392  :       flagValues |= ((destValue >> 28) & CC_ALU_NEGATIVE);

	mov	ecx, DWORD PTR _destValue$[ebp]
	shr	ecx, 28					; 0000001cH
	and	ecx, 8
	or	ecx, DWORD PTR _flagValues$[ebp]
	mov	DWORD PTR _flagValues$[ebp], ecx
$LN2@PropagateC@9:

; 393  :     }
; 394  :     constants.nuance->fields[FIELD_CONSTANT_HANDLER] = Handler_StoreScalarRegisterConstant;

	mov	edx, DWORD PTR _constants$[ebp]
	mov	eax, DWORD PTR [edx+4]
	mov	DWORD PTR [eax], 217			; 000000d9H

; 395  :     constants.nuance->fields[FIELD_CONSTANT_ADDRESS] = destIndex;

	mov	ecx, DWORD PTR _constants$[ebp]
	mov	edx, DWORD PTR [ecx+4]
	mov	eax, DWORD PTR _destIndex$[ebp]
	mov	DWORD PTR [edx+4], eax

; 396  :     constants.nuance->fields[FIELD_CONSTANT_VALUE] = destValue;

	mov	ecx, DWORD PTR _constants$[ebp]
	mov	edx, DWORD PTR [ecx+4]
	mov	eax, DWORD PTR _destValue$[ebp]
	mov	DWORD PTR [edx+8], eax

; 397  :     constants.nuance->fields[FIELD_CONSTANT_FLAGMASK] = CC_ALU_NEGATIVE | CC_ALU_ZERO | CC_ALU_CARRY | CC_ALU_OVERFLOW;

	mov	ecx, DWORD PTR _constants$[ebp]
	mov	edx, DWORD PTR [ecx+4]
	mov	DWORD PTR [edx+12], 15			; 0000000fH

; 398  :     constants.nuance->fields[FIELD_CONSTANT_FLAGVALUES] = flagValues;

	mov	eax, DWORD PTR _constants$[ebp]
	mov	ecx, DWORD PTR [eax+4]
	mov	edx, DWORD PTR _flagValues$[ebp]
	mov	DWORD PTR [ecx+16], edx

; 399  :     constants.ClearScalarInputDependency(src2Index);

	mov	eax, DWORD PTR _src2Index$[ebp]
	push	eax
	mov	ecx, DWORD PTR _constants$[ebp]
	call	?ClearScalarInputDependency@SuperBlockConstants@@QAEXI@Z ; SuperBlockConstants::ClearScalarInputDependency

; 400  :     PropagateConstants_StoreScalarRegisterConstant(constants);    

	mov	ecx, DWORD PTR _constants$[ebp]
	push	ecx
	call	?PropagateConstants_StoreScalarRegisterConstant@@YAXAAVSuperBlockConstants@@@Z ; PropagateConstants_StoreScalarRegisterConstant
	add	esp, 4

; 401  :   }
; 402  :   else

	jmp	SHORT $LN5@PropagateC@9
$LN4@PropagateC@9:

; 403  :   {
; 404  :     constants.ClearMiscRegisterConstant(CONSTANT_REG_N);

	push	18					; 00000012H
	mov	ecx, DWORD PTR _constants$[ebp]
	call	?ClearMiscRegisterConstant@SuperBlockConstants@@QAEXI@Z ; SuperBlockConstants::ClearMiscRegisterConstant

; 405  :     constants.ClearMiscRegisterConstant(CONSTANT_REG_C);

	push	15					; 0000000fH
	mov	ecx, DWORD PTR _constants$[ebp]
	call	?ClearMiscRegisterConstant@SuperBlockConstants@@QAEXI@Z ; SuperBlockConstants::ClearMiscRegisterConstant

; 406  :     constants.ClearMiscRegisterConstant(CONSTANT_REG_Z);

	push	16					; 00000010H
	mov	ecx, DWORD PTR _constants$[ebp]
	call	?ClearMiscRegisterConstant@SuperBlockConstants@@QAEXI@Z ; SuperBlockConstants::ClearMiscRegisterConstant

; 407  :     constants.ClearScalarRegisterConstant(destIndex);    

	mov	edx, DWORD PTR _destIndex$[ebp]
	push	edx
	mov	ecx, DWORD PTR _constants$[ebp]
	call	?ClearScalarRegisterConstant@SuperBlockConstants@@QAEXI@Z ; SuperBlockConstants::ClearScalarRegisterConstant

; 408  :     constants.status.status = PROPAGATE_CONSTANTS_STATUS_ALU_OK;

	mov	eax, DWORD PTR _constants$[ebp]
	mov	DWORD PTR [eax+12], 2
$LN5@PropagateC@9:

; 409  :   }
; 410  : }

	add	esp, 20					; 00000014H
	cmp	ebp, esp
	call	__RTC_CheckEsp
	mov	esp, ebp
	pop	ebp
	ret	0
?PropagateConstants_ASR@@YAXAAVSuperBlockConstants@@@Z ENDP ; PropagateConstants_ASR
_TEXT	ENDS
PUBLIC	?PropagateConstants_AS@@YAXAAVSuperBlockConstants@@@Z ; PropagateConstants_AS
; Function compile flags: /Odtp /RTCsu
_TEXT	SEGMENT
_src1$ = -16						; size = 4
_destIndex$ = -12					; size = 4
_src2Index$ = -8					; size = 4
_src1Index$ = -4					; size = 4
_constants$ = 8						; size = 4
?PropagateConstants_AS@@YAXAAVSuperBlockConstants@@@Z PROC ; PropagateConstants_AS

; 412  : {

	push	ebp
	mov	ebp, esp
	sub	esp, 16					; 00000010H
	mov	eax, -858993460				; ccccccccH
	mov	DWORD PTR [ebp-16], eax
	mov	DWORD PTR [ebp-12], eax
	mov	DWORD PTR [ebp-8], eax
	mov	DWORD PTR [ebp-4], eax

; 413  :   uint32 src1Index = constants.nuance->fields[FIELD_ALU_SRC1];

	mov	eax, DWORD PTR _constants$[ebp]
	mov	ecx, DWORD PTR [eax+4]
	mov	edx, DWORD PTR [ecx+8]
	mov	DWORD PTR _src1Index$[ebp], edx

; 414  :   uint32 src2Index = constants.nuance->fields[FIELD_ALU_SRC2];

	mov	eax, DWORD PTR _constants$[ebp]
	mov	ecx, DWORD PTR [eax+4]
	mov	edx, DWORD PTR [ecx+12]
	mov	DWORD PTR _src2Index$[ebp], edx

; 415  :   uint32 destIndex = constants.nuance->fields[FIELD_ALU_DEST]; 

	mov	eax, DWORD PTR _constants$[ebp]
	mov	ecx, DWORD PTR [eax+4]
	mov	edx, DWORD PTR [ecx+16]
	mov	DWORD PTR _destIndex$[ebp], edx

; 416  :   uint32 src1;
; 417  : 
; 418  :   constants.SetMiscRegisterConstant(CONSTANT_REG_V,0);

	push	0
	push	17					; 00000011H
	mov	ecx, DWORD PTR _constants$[ebp]
	call	?SetMiscRegisterConstant@SuperBlockConstants@@QAEXII@Z ; SuperBlockConstants::SetMiscRegisterConstant

; 419  :   if(constants.IsScalarRegisterConstant(src1Index) && ALLOW_ALU_PROPAGATION)

	mov	eax, DWORD PTR _src1Index$[ebp]
	push	eax
	mov	ecx, DWORD PTR _constants$[ebp]
	call	?IsScalarRegisterConstant@SuperBlockConstants@@QAE_NI@Z ; SuperBlockConstants::IsScalarRegisterConstant
	movzx	ecx, al
	test	ecx, ecx
	je	$LN4@PropagateC@10
	mov	edx, 1
	test	edx, edx
	je	$LN4@PropagateC@10

; 420  :   {
; 421  :     src1 = constants.GetScalarRegisterConstant(src1Index) & 0x3FUL;

	mov	eax, DWORD PTR _src1Index$[ebp]
	push	eax
	mov	ecx, DWORD PTR _constants$[ebp]
	call	?GetScalarRegisterConstant@SuperBlockConstants@@QAEII@Z ; SuperBlockConstants::GetScalarRegisterConstant
	and	eax, 63					; 0000003fH
	mov	DWORD PTR _src1$[ebp], eax

; 422  :     if(src1 & 0x20)

	mov	ecx, DWORD PTR _src1$[ebp]
	and	ecx, 32					; 00000020H
	je	SHORT $LN3@PropagateC@10

; 423  :     {
; 424  :       //shift left
; 425  :       src1 = 64UL - src1;

	mov	edx, 64					; 00000040H
	sub	edx, DWORD PTR _src1$[ebp]
	mov	DWORD PTR _src1$[ebp], edx

; 426  :       constants.nuance->fields[FIELD_ALU_HANDLER] = Handler_ASL;

	mov	eax, DWORD PTR _constants$[ebp]
	mov	ecx, DWORD PTR [eax+4]
	mov	DWORD PTR [ecx], 50			; 00000032H

; 427  :       constants.nuance->fields[FIELD_ALU_SRC1] = src1;

	mov	edx, DWORD PTR _constants$[ebp]
	mov	eax, DWORD PTR [edx+4]
	mov	ecx, DWORD PTR _src1$[ebp]
	mov	DWORD PTR [eax+8], ecx

; 428  :       constants.ClearScalarInputDependency(src1Index);

	mov	edx, DWORD PTR _src1Index$[ebp]
	push	edx
	mov	ecx, DWORD PTR _constants$[ebp]
	call	?ClearScalarInputDependency@SuperBlockConstants@@QAEXI@Z ; SuperBlockConstants::ClearScalarInputDependency

; 429  :       constants.SetScalarInputDependency(src2Index);

	mov	eax, DWORD PTR _src2Index$[ebp]
	push	eax
	mov	ecx, DWORD PTR _constants$[ebp]
	call	?SetScalarInputDependency@SuperBlockConstants@@QAEXI@Z ; SuperBlockConstants::SetScalarInputDependency

; 430  :       PropagateConstants_ASL(constants);    

	mov	ecx, DWORD PTR _constants$[ebp]
	push	ecx
	call	?PropagateConstants_ASL@@YAXAAVSuperBlockConstants@@@Z ; PropagateConstants_ASL
	add	esp, 4

; 431  :     }
; 432  :     else

	jmp	SHORT $LN2@PropagateC@10
$LN3@PropagateC@10:

; 433  :     {
; 434  :       constants.nuance->fields[FIELD_ALU_HANDLER] = Handler_ASR;

	mov	edx, DWORD PTR _constants$[ebp]
	mov	eax, DWORD PTR [edx+4]
	mov	DWORD PTR [eax], 51			; 00000033H

; 435  :       constants.nuance->fields[FIELD_ALU_SRC1] = src1;

	mov	ecx, DWORD PTR _constants$[ebp]
	mov	edx, DWORD PTR [ecx+4]
	mov	eax, DWORD PTR _src1$[ebp]
	mov	DWORD PTR [edx+8], eax

; 436  :       constants.ClearScalarInputDependency(src1Index);

	mov	ecx, DWORD PTR _src1Index$[ebp]
	push	ecx
	mov	ecx, DWORD PTR _constants$[ebp]
	call	?ClearScalarInputDependency@SuperBlockConstants@@QAEXI@Z ; SuperBlockConstants::ClearScalarInputDependency

; 437  :       constants.SetScalarInputDependency(src2Index);

	mov	edx, DWORD PTR _src2Index$[ebp]
	push	edx
	mov	ecx, DWORD PTR _constants$[ebp]
	call	?SetScalarInputDependency@SuperBlockConstants@@QAEXI@Z ; SuperBlockConstants::SetScalarInputDependency

; 438  :       PropagateConstants_ASR(constants);

	mov	eax, DWORD PTR _constants$[ebp]
	push	eax
	call	?PropagateConstants_ASR@@YAXAAVSuperBlockConstants@@@Z ; PropagateConstants_ASR
	add	esp, 4
$LN2@PropagateC@10:

; 439  :     }
; 440  :   }
; 441  :   else

	jmp	SHORT $LN5@PropagateC@10
$LN4@PropagateC@10:

; 442  :   {
; 443  :     constants.ClearMiscRegisterConstant(CONSTANT_REG_N);

	push	18					; 00000012H
	mov	ecx, DWORD PTR _constants$[ebp]
	call	?ClearMiscRegisterConstant@SuperBlockConstants@@QAEXI@Z ; SuperBlockConstants::ClearMiscRegisterConstant

; 444  :     constants.ClearMiscRegisterConstant(CONSTANT_REG_C);

	push	15					; 0000000fH
	mov	ecx, DWORD PTR _constants$[ebp]
	call	?ClearMiscRegisterConstant@SuperBlockConstants@@QAEXI@Z ; SuperBlockConstants::ClearMiscRegisterConstant

; 445  :     constants.ClearMiscRegisterConstant(CONSTANT_REG_Z);

	push	16					; 00000010H
	mov	ecx, DWORD PTR _constants$[ebp]
	call	?ClearMiscRegisterConstant@SuperBlockConstants@@QAEXI@Z ; SuperBlockConstants::ClearMiscRegisterConstant

; 446  :     constants.ClearScalarRegisterConstant(destIndex);    

	mov	ecx, DWORD PTR _destIndex$[ebp]
	push	ecx
	mov	ecx, DWORD PTR _constants$[ebp]
	call	?ClearScalarRegisterConstant@SuperBlockConstants@@QAEXI@Z ; SuperBlockConstants::ClearScalarRegisterConstant

; 447  :     constants.status.status = PROPAGATE_CONSTANTS_STATUS_ALU_OK;

	mov	edx, DWORD PTR _constants$[ebp]
	mov	DWORD PTR [edx+12], 2
$LN5@PropagateC@10:

; 448  :   }
; 449  : }

	add	esp, 16					; 00000010H
	cmp	ebp, esp
	call	__RTC_CheckEsp
	mov	esp, ebp
	pop	ebp
	ret	0
?PropagateConstants_AS@@YAXAAVSuperBlockConstants@@@Z ENDP ; PropagateConstants_AS
_TEXT	ENDS
PUBLIC	?PropagateConstants_LSR@@YAXAAVSuperBlockConstants@@@Z ; PropagateConstants_LSR
; Function compile flags: /Odtp /RTCsu
_TEXT	SEGMENT
_src2$ = -20						; size = 4
_destValue$ = -16					; size = 4
_flagValues$ = -12					; size = 4
_destIndex$ = -8					; size = 4
_src2Index$ = -4					; size = 4
_constants$ = 8						; size = 4
?PropagateConstants_LSR@@YAXAAVSuperBlockConstants@@@Z PROC ; PropagateConstants_LSR

; 451  : {

	push	ebp
	mov	ebp, esp
	sub	esp, 20					; 00000014H
	mov	eax, -858993460				; ccccccccH
	mov	DWORD PTR [ebp-20], eax
	mov	DWORD PTR [ebp-16], eax
	mov	DWORD PTR [ebp-12], eax
	mov	DWORD PTR [ebp-8], eax
	mov	DWORD PTR [ebp-4], eax

; 452  :   uint32 src2Index = constants.nuance->fields[FIELD_ALU_SRC2];

	mov	eax, DWORD PTR _constants$[ebp]
	mov	ecx, DWORD PTR [eax+4]
	mov	edx, DWORD PTR [ecx+12]
	mov	DWORD PTR _src2Index$[ebp], edx

; 453  :   uint32 destIndex = constants.nuance->fields[FIELD_ALU_DEST]; 

	mov	eax, DWORD PTR _constants$[ebp]
	mov	ecx, DWORD PTR [eax+4]
	mov	edx, DWORD PTR [ecx+16]
	mov	DWORD PTR _destIndex$[ebp], edx

; 454  :   uint32 flagValues = 0;

	mov	DWORD PTR _flagValues$[ebp], 0

; 455  :   uint32 destValue, src2;
; 456  : 
; 457  :   constants.SetMiscRegisterConstant(CONSTANT_REG_V,0);

	push	0
	push	17					; 00000011H
	mov	ecx, DWORD PTR _constants$[ebp]
	call	?SetMiscRegisterConstant@SuperBlockConstants@@QAEXII@Z ; SuperBlockConstants::SetMiscRegisterConstant

; 458  :   if(constants.IsScalarRegisterConstant(src2Index) && ALLOW_ALU_PROPAGATION)

	mov	eax, DWORD PTR _src2Index$[ebp]
	push	eax
	mov	ecx, DWORD PTR _constants$[ebp]
	call	?IsScalarRegisterConstant@SuperBlockConstants@@QAE_NI@Z ; SuperBlockConstants::IsScalarRegisterConstant
	movzx	ecx, al
	test	ecx, ecx
	je	$LN4@PropagateC@11
	mov	edx, 1
	test	edx, edx
	je	$LN4@PropagateC@11

; 459  :   {
; 460  :     src2 = constants.GetScalarRegisterConstant(src2Index);

	mov	eax, DWORD PTR _src2Index$[ebp]
	push	eax
	mov	ecx, DWORD PTR _constants$[ebp]
	call	?GetScalarRegisterConstant@SuperBlockConstants@@QAEII@Z ; SuperBlockConstants::GetScalarRegisterConstant
	mov	DWORD PTR _src2$[ebp], eax

; 461  :     // carry = bit 31 of source
; 462  :     flagValues = ((src2 << 1) & CC_ALU_CARRY);

	mov	ecx, DWORD PTR _src2$[ebp]
	shl	ecx, 1
	and	ecx, 2
	mov	DWORD PTR _flagValues$[ebp], ecx

; 463  :     destValue = src2 >> constants.nuance->fields[FIELD_ALU_SRC1];

	mov	edx, DWORD PTR _constants$[ebp]
	mov	eax, DWORD PTR [edx+4]
	mov	edx, DWORD PTR _src2$[ebp]
	mov	ecx, DWORD PTR [eax+8]
	shr	edx, cl
	mov	DWORD PTR _destValue$[ebp], edx

; 464  : 
; 465  :     if(!destValue)

	cmp	DWORD PTR _destValue$[ebp], 0
	jne	SHORT $LN3@PropagateC@11

; 466  :     {
; 467  :       flagValues |= CC_ALU_ZERO;

	mov	eax, DWORD PTR _flagValues$[ebp]
	or	eax, 1
	mov	DWORD PTR _flagValues$[ebp], eax

; 468  :     }
; 469  :     else

	jmp	SHORT $LN2@PropagateC@11
$LN3@PropagateC@11:

; 470  :     {
; 471  :       // negative = bit 31 of result
; 472  :       flagValues |= ((destValue >> 28) & CC_ALU_NEGATIVE);

	mov	ecx, DWORD PTR _destValue$[ebp]
	shr	ecx, 28					; 0000001cH
	and	ecx, 8
	or	ecx, DWORD PTR _flagValues$[ebp]
	mov	DWORD PTR _flagValues$[ebp], ecx
$LN2@PropagateC@11:

; 473  :     }
; 474  :     constants.nuance->fields[FIELD_CONSTANT_HANDLER] = Handler_StoreScalarRegisterConstant;

	mov	edx, DWORD PTR _constants$[ebp]
	mov	eax, DWORD PTR [edx+4]
	mov	DWORD PTR [eax], 217			; 000000d9H

; 475  :     constants.nuance->fields[FIELD_CONSTANT_ADDRESS] = destIndex;

	mov	ecx, DWORD PTR _constants$[ebp]
	mov	edx, DWORD PTR [ecx+4]
	mov	eax, DWORD PTR _destIndex$[ebp]
	mov	DWORD PTR [edx+4], eax

; 476  :     constants.nuance->fields[FIELD_CONSTANT_VALUE] = destValue;

	mov	ecx, DWORD PTR _constants$[ebp]
	mov	edx, DWORD PTR [ecx+4]
	mov	eax, DWORD PTR _destValue$[ebp]
	mov	DWORD PTR [edx+8], eax

; 477  :     constants.nuance->fields[FIELD_CONSTANT_FLAGMASK] = CC_ALU_NEGATIVE | CC_ALU_ZERO | CC_ALU_CARRY | CC_ALU_OVERFLOW;

	mov	ecx, DWORD PTR _constants$[ebp]
	mov	edx, DWORD PTR [ecx+4]
	mov	DWORD PTR [edx+12], 15			; 0000000fH

; 478  :     constants.nuance->fields[FIELD_CONSTANT_FLAGVALUES] = flagValues;

	mov	eax, DWORD PTR _constants$[ebp]
	mov	ecx, DWORD PTR [eax+4]
	mov	edx, DWORD PTR _flagValues$[ebp]
	mov	DWORD PTR [ecx+16], edx

; 479  :     constants.ClearScalarInputDependency(src2Index);

	mov	eax, DWORD PTR _src2Index$[ebp]
	push	eax
	mov	ecx, DWORD PTR _constants$[ebp]
	call	?ClearScalarInputDependency@SuperBlockConstants@@QAEXI@Z ; SuperBlockConstants::ClearScalarInputDependency

; 480  :     PropagateConstants_StoreScalarRegisterConstant(constants);    

	mov	ecx, DWORD PTR _constants$[ebp]
	push	ecx
	call	?PropagateConstants_StoreScalarRegisterConstant@@YAXAAVSuperBlockConstants@@@Z ; PropagateConstants_StoreScalarRegisterConstant
	add	esp, 4

; 481  :   }
; 482  :   else

	jmp	SHORT $LN5@PropagateC@11
$LN4@PropagateC@11:

; 483  :   {
; 484  :     constants.ClearMiscRegisterConstant(CONSTANT_REG_N);

	push	18					; 00000012H
	mov	ecx, DWORD PTR _constants$[ebp]
	call	?ClearMiscRegisterConstant@SuperBlockConstants@@QAEXI@Z ; SuperBlockConstants::ClearMiscRegisterConstant

; 485  :     constants.ClearMiscRegisterConstant(CONSTANT_REG_C);

	push	15					; 0000000fH
	mov	ecx, DWORD PTR _constants$[ebp]
	call	?ClearMiscRegisterConstant@SuperBlockConstants@@QAEXI@Z ; SuperBlockConstants::ClearMiscRegisterConstant

; 486  :     constants.ClearMiscRegisterConstant(CONSTANT_REG_Z);

	push	16					; 00000010H
	mov	ecx, DWORD PTR _constants$[ebp]
	call	?ClearMiscRegisterConstant@SuperBlockConstants@@QAEXI@Z ; SuperBlockConstants::ClearMiscRegisterConstant

; 487  :     constants.ClearScalarRegisterConstant(destIndex);    

	mov	edx, DWORD PTR _destIndex$[ebp]
	push	edx
	mov	ecx, DWORD PTR _constants$[ebp]
	call	?ClearScalarRegisterConstant@SuperBlockConstants@@QAEXI@Z ; SuperBlockConstants::ClearScalarRegisterConstant

; 488  :     constants.status.status = PROPAGATE_CONSTANTS_STATUS_ALU_OK;

	mov	eax, DWORD PTR _constants$[ebp]
	mov	DWORD PTR [eax+12], 2
$LN5@PropagateC@11:

; 489  :   }
; 490  : }

	add	esp, 20					; 00000014H
	cmp	ebp, esp
	call	__RTC_CheckEsp
	mov	esp, ebp
	pop	ebp
	ret	0
?PropagateConstants_LSR@@YAXAAVSuperBlockConstants@@@Z ENDP ; PropagateConstants_LSR
_TEXT	ENDS
PUBLIC	?PropagateConstants_LS@@YAXAAVSuperBlockConstants@@@Z ; PropagateConstants_LS
; Function compile flags: /Odtp /RTCsu
_TEXT	SEGMENT
_src1$ = -16						; size = 4
_destIndex$ = -12					; size = 4
_src2Index$ = -8					; size = 4
_src1Index$ = -4					; size = 4
_constants$ = 8						; size = 4
?PropagateConstants_LS@@YAXAAVSuperBlockConstants@@@Z PROC ; PropagateConstants_LS

; 492  : {

	push	ebp
	mov	ebp, esp
	sub	esp, 16					; 00000010H
	mov	eax, -858993460				; ccccccccH
	mov	DWORD PTR [ebp-16], eax
	mov	DWORD PTR [ebp-12], eax
	mov	DWORD PTR [ebp-8], eax
	mov	DWORD PTR [ebp-4], eax

; 493  :   uint32 src1Index = constants.nuance->fields[FIELD_ALU_SRC1];

	mov	eax, DWORD PTR _constants$[ebp]
	mov	ecx, DWORD PTR [eax+4]
	mov	edx, DWORD PTR [ecx+8]
	mov	DWORD PTR _src1Index$[ebp], edx

; 494  :   uint32 src2Index = constants.nuance->fields[FIELD_ALU_SRC2];

	mov	eax, DWORD PTR _constants$[ebp]
	mov	ecx, DWORD PTR [eax+4]
	mov	edx, DWORD PTR [ecx+12]
	mov	DWORD PTR _src2Index$[ebp], edx

; 495  :   uint32 destIndex = constants.nuance->fields[FIELD_ALU_DEST]; 

	mov	eax, DWORD PTR _constants$[ebp]
	mov	ecx, DWORD PTR [eax+4]
	mov	edx, DWORD PTR [ecx+16]
	mov	DWORD PTR _destIndex$[ebp], edx

; 496  :   uint32 src1;
; 497  : 
; 498  :   constants.SetMiscRegisterConstant(CONSTANT_REG_V,0);

	push	0
	push	17					; 00000011H
	mov	ecx, DWORD PTR _constants$[ebp]
	call	?SetMiscRegisterConstant@SuperBlockConstants@@QAEXII@Z ; SuperBlockConstants::SetMiscRegisterConstant

; 499  :   if(constants.IsScalarRegisterConstant(src1Index) && ALLOW_ALU_PROPAGATION)

	mov	eax, DWORD PTR _src1Index$[ebp]
	push	eax
	mov	ecx, DWORD PTR _constants$[ebp]
	call	?IsScalarRegisterConstant@SuperBlockConstants@@QAE_NI@Z ; SuperBlockConstants::IsScalarRegisterConstant
	movzx	ecx, al
	test	ecx, ecx
	je	$LN4@PropagateC@12
	mov	edx, 1
	test	edx, edx
	je	$LN4@PropagateC@12

; 500  :   {
; 501  :     src1 = constants.GetScalarRegisterConstant(src1Index) & 0x3FUL;

	mov	eax, DWORD PTR _src1Index$[ebp]
	push	eax
	mov	ecx, DWORD PTR _constants$[ebp]
	call	?GetScalarRegisterConstant@SuperBlockConstants@@QAEII@Z ; SuperBlockConstants::GetScalarRegisterConstant
	and	eax, 63					; 0000003fH
	mov	DWORD PTR _src1$[ebp], eax

; 502  :     if(src1 & 0x20)

	mov	ecx, DWORD PTR _src1$[ebp]
	and	ecx, 32					; 00000020H
	je	SHORT $LN3@PropagateC@12

; 503  :     {
; 504  :       //shift left
; 505  :       src1 = 64UL - src1;

	mov	edx, 64					; 00000040H
	sub	edx, DWORD PTR _src1$[ebp]
	mov	DWORD PTR _src1$[ebp], edx

; 506  :       constants.nuance->fields[FIELD_ALU_HANDLER] = Handler_ASL;

	mov	eax, DWORD PTR _constants$[ebp]
	mov	ecx, DWORD PTR [eax+4]
	mov	DWORD PTR [ecx], 50			; 00000032H

; 507  :       constants.nuance->fields[FIELD_ALU_SRC1] = src1;

	mov	edx, DWORD PTR _constants$[ebp]
	mov	eax, DWORD PTR [edx+4]
	mov	ecx, DWORD PTR _src1$[ebp]
	mov	DWORD PTR [eax+8], ecx

; 508  :       constants.ClearScalarInputDependency(src1Index);

	mov	edx, DWORD PTR _src1Index$[ebp]
	push	edx
	mov	ecx, DWORD PTR _constants$[ebp]
	call	?ClearScalarInputDependency@SuperBlockConstants@@QAEXI@Z ; SuperBlockConstants::ClearScalarInputDependency

; 509  :       constants.SetScalarInputDependency(src2Index);

	mov	eax, DWORD PTR _src2Index$[ebp]
	push	eax
	mov	ecx, DWORD PTR _constants$[ebp]
	call	?SetScalarInputDependency@SuperBlockConstants@@QAEXI@Z ; SuperBlockConstants::SetScalarInputDependency

; 510  :       PropagateConstants_ASL(constants);    

	mov	ecx, DWORD PTR _constants$[ebp]
	push	ecx
	call	?PropagateConstants_ASL@@YAXAAVSuperBlockConstants@@@Z ; PropagateConstants_ASL
	add	esp, 4

; 511  :     }
; 512  :     else

	jmp	SHORT $LN2@PropagateC@12
$LN3@PropagateC@12:

; 513  :     {
; 514  :       constants.nuance->fields[FIELD_ALU_HANDLER] = Handler_LSR;

	mov	edx, DWORD PTR _constants$[ebp]
	mov	eax, DWORD PTR [edx+4]
	mov	DWORD PTR [eax], 53			; 00000035H

; 515  :       constants.nuance->fields[FIELD_ALU_SRC1] = src1;

	mov	ecx, DWORD PTR _constants$[ebp]
	mov	edx, DWORD PTR [ecx+4]
	mov	eax, DWORD PTR _src1$[ebp]
	mov	DWORD PTR [edx+8], eax

; 516  :       constants.ClearScalarInputDependency(src1Index);

	mov	ecx, DWORD PTR _src1Index$[ebp]
	push	ecx
	mov	ecx, DWORD PTR _constants$[ebp]
	call	?ClearScalarInputDependency@SuperBlockConstants@@QAEXI@Z ; SuperBlockConstants::ClearScalarInputDependency

; 517  :       constants.SetScalarInputDependency(src2Index);

	mov	edx, DWORD PTR _src2Index$[ebp]
	push	edx
	mov	ecx, DWORD PTR _constants$[ebp]
	call	?SetScalarInputDependency@SuperBlockConstants@@QAEXI@Z ; SuperBlockConstants::SetScalarInputDependency

; 518  :       PropagateConstants_LSR(constants);    

	mov	eax, DWORD PTR _constants$[ebp]
	push	eax
	call	?PropagateConstants_LSR@@YAXAAVSuperBlockConstants@@@Z ; PropagateConstants_LSR
	add	esp, 4
$LN2@PropagateC@12:

; 519  :     }
; 520  :   }
; 521  :   else

	jmp	SHORT $LN5@PropagateC@12
$LN4@PropagateC@12:

; 522  :   {
; 523  :     constants.ClearMiscRegisterConstant(CONSTANT_REG_N);

	push	18					; 00000012H
	mov	ecx, DWORD PTR _constants$[ebp]
	call	?ClearMiscRegisterConstant@SuperBlockConstants@@QAEXI@Z ; SuperBlockConstants::ClearMiscRegisterConstant

; 524  :     constants.ClearMiscRegisterConstant(CONSTANT_REG_C);

	push	15					; 0000000fH
	mov	ecx, DWORD PTR _constants$[ebp]
	call	?ClearMiscRegisterConstant@SuperBlockConstants@@QAEXI@Z ; SuperBlockConstants::ClearMiscRegisterConstant

; 525  :     constants.ClearMiscRegisterConstant(CONSTANT_REG_Z);

	push	16					; 00000010H
	mov	ecx, DWORD PTR _constants$[ebp]
	call	?ClearMiscRegisterConstant@SuperBlockConstants@@QAEXI@Z ; SuperBlockConstants::ClearMiscRegisterConstant

; 526  :     constants.ClearScalarRegisterConstant(destIndex);    

	mov	ecx, DWORD PTR _destIndex$[ebp]
	push	ecx
	mov	ecx, DWORD PTR _constants$[ebp]
	call	?ClearScalarRegisterConstant@SuperBlockConstants@@QAEXI@Z ; SuperBlockConstants::ClearScalarRegisterConstant

; 527  :     constants.status.status = PROPAGATE_CONSTANTS_STATUS_ALU_OK;

	mov	edx, DWORD PTR _constants$[ebp]
	mov	DWORD PTR [edx+12], 2
$LN5@PropagateC@12:

; 528  :   }
; 529  : }

	add	esp, 16					; 00000010H
	cmp	ebp, esp
	call	__RTC_CheckEsp
	mov	esp, ebp
	pop	ebp
	ret	0
?PropagateConstants_LS@@YAXAAVSuperBlockConstants@@@Z ENDP ; PropagateConstants_LS
_TEXT	ENDS
PUBLIC	?PropagateConstants_ROL@@YAXAAVSuperBlockConstants@@@Z ; PropagateConstants_ROL
EXTRN	__lrotl:PROC
; Function compile flags: /Odtp /RTCsu
_TEXT	SEGMENT
_src2$ = -20						; size = 4
_destValue$ = -16					; size = 4
_flagValues$ = -12					; size = 4
_destIndex$ = -8					; size = 4
_src2Index$ = -4					; size = 4
_constants$ = 8						; size = 4
?PropagateConstants_ROL@@YAXAAVSuperBlockConstants@@@Z PROC ; PropagateConstants_ROL

; 531  : {

	push	ebp
	mov	ebp, esp
	sub	esp, 20					; 00000014H
	mov	eax, -858993460				; ccccccccH
	mov	DWORD PTR [ebp-20], eax
	mov	DWORD PTR [ebp-16], eax
	mov	DWORD PTR [ebp-12], eax
	mov	DWORD PTR [ebp-8], eax
	mov	DWORD PTR [ebp-4], eax

; 532  :   uint32 src2Index = constants.nuance->fields[FIELD_ALU_SRC2];

	mov	eax, DWORD PTR _constants$[ebp]
	mov	ecx, DWORD PTR [eax+4]
	mov	edx, DWORD PTR [ecx+12]
	mov	DWORD PTR _src2Index$[ebp], edx

; 533  :   uint32 destIndex = constants.nuance->fields[FIELD_ALU_DEST]; 

	mov	eax, DWORD PTR _constants$[ebp]
	mov	ecx, DWORD PTR [eax+4]
	mov	edx, DWORD PTR [ecx+16]
	mov	DWORD PTR _destIndex$[ebp], edx

; 534  :   uint32 flagValues = 0;

	mov	DWORD PTR _flagValues$[ebp], 0

; 535  :   uint32 destValue, src2;
; 536  : 
; 537  :   constants.SetMiscRegisterConstant(CONSTANT_REG_V,0);

	push	0
	push	17					; 00000011H
	mov	ecx, DWORD PTR _constants$[ebp]
	call	?SetMiscRegisterConstant@SuperBlockConstants@@QAEXII@Z ; SuperBlockConstants::SetMiscRegisterConstant

; 538  :   if(constants.IsScalarRegisterConstant(src2Index) && ALLOW_ALU_PROPAGATION)

	mov	eax, DWORD PTR _src2Index$[ebp]
	push	eax
	mov	ecx, DWORD PTR _constants$[ebp]
	call	?IsScalarRegisterConstant@SuperBlockConstants@@QAE_NI@Z ; SuperBlockConstants::IsScalarRegisterConstant
	movzx	ecx, al
	test	ecx, ecx
	je	$LN4@PropagateC@13
	mov	edx, 1
	test	edx, edx
	je	$LN4@PropagateC@13

; 539  :   {
; 540  :     src2 = constants.GetScalarRegisterConstant(src2Index);

	mov	eax, DWORD PTR _src2Index$[ebp]
	push	eax
	mov	ecx, DWORD PTR _constants$[ebp]
	call	?GetScalarRegisterConstant@SuperBlockConstants@@QAEII@Z ; SuperBlockConstants::GetScalarRegisterConstant
	mov	DWORD PTR _src2$[ebp], eax

; 541  :     destValue = _lrotl(src2, constants.nuance->fields[FIELD_ALU_SRC1]);

	mov	ecx, DWORD PTR _constants$[ebp]
	mov	edx, DWORD PTR [ecx+4]
	mov	eax, DWORD PTR [edx+8]
	push	eax
	mov	ecx, DWORD PTR _src2$[ebp]
	push	ecx
	call	__lrotl
	add	esp, 8
	mov	DWORD PTR _destValue$[ebp], eax

; 542  :     if(!destValue)

	cmp	DWORD PTR _destValue$[ebp], 0
	jne	SHORT $LN3@PropagateC@13

; 543  :     {
; 544  :       flagValues = CC_ALU_ZERO;

	mov	DWORD PTR _flagValues$[ebp], 1

; 545  :     }
; 546  :     else

	jmp	SHORT $LN2@PropagateC@13
$LN3@PropagateC@13:

; 547  :     {
; 548  :       flagValues |= ((destValue >> 28) & CC_ALU_NEGATIVE);

	mov	edx, DWORD PTR _destValue$[ebp]
	shr	edx, 28					; 0000001cH
	and	edx, 8
	or	edx, DWORD PTR _flagValues$[ebp]
	mov	DWORD PTR _flagValues$[ebp], edx
$LN2@PropagateC@13:

; 549  :     }
; 550  :     constants.nuance->fields[FIELD_CONSTANT_HANDLER] = Handler_StoreScalarRegisterConstant;

	mov	eax, DWORD PTR _constants$[ebp]
	mov	ecx, DWORD PTR [eax+4]
	mov	DWORD PTR [ecx], 217			; 000000d9H

; 551  :     constants.nuance->fields[FIELD_CONSTANT_ADDRESS] = destIndex;

	mov	edx, DWORD PTR _constants$[ebp]
	mov	eax, DWORD PTR [edx+4]
	mov	ecx, DWORD PTR _destIndex$[ebp]
	mov	DWORD PTR [eax+4], ecx

; 552  :     constants.nuance->fields[FIELD_CONSTANT_VALUE] = destValue;

	mov	edx, DWORD PTR _constants$[ebp]
	mov	eax, DWORD PTR [edx+4]
	mov	ecx, DWORD PTR _destValue$[ebp]
	mov	DWORD PTR [eax+8], ecx

; 553  :     constants.nuance->fields[FIELD_CONSTANT_FLAGMASK] = CC_ALU_NEGATIVE | CC_ALU_ZERO | CC_ALU_OVERFLOW;

	mov	edx, DWORD PTR _constants$[ebp]
	mov	eax, DWORD PTR [edx+4]
	mov	DWORD PTR [eax+12], 13			; 0000000dH

; 554  :     constants.nuance->fields[FIELD_CONSTANT_FLAGVALUES] = flagValues;

	mov	ecx, DWORD PTR _constants$[ebp]
	mov	edx, DWORD PTR [ecx+4]
	mov	eax, DWORD PTR _flagValues$[ebp]
	mov	DWORD PTR [edx+16], eax

; 555  :     constants.ClearScalarInputDependency(src2Index);

	mov	ecx, DWORD PTR _src2Index$[ebp]
	push	ecx
	mov	ecx, DWORD PTR _constants$[ebp]
	call	?ClearScalarInputDependency@SuperBlockConstants@@QAEXI@Z ; SuperBlockConstants::ClearScalarInputDependency

; 556  :     PropagateConstants_StoreScalarRegisterConstant(constants);    

	mov	edx, DWORD PTR _constants$[ebp]
	push	edx
	call	?PropagateConstants_StoreScalarRegisterConstant@@YAXAAVSuperBlockConstants@@@Z ; PropagateConstants_StoreScalarRegisterConstant
	add	esp, 4

; 557  :   }
; 558  :   else

	jmp	SHORT $LN5@PropagateC@13
$LN4@PropagateC@13:

; 559  :   {
; 560  :     constants.ClearMiscRegisterConstant(CONSTANT_REG_N);

	push	18					; 00000012H
	mov	ecx, DWORD PTR _constants$[ebp]
	call	?ClearMiscRegisterConstant@SuperBlockConstants@@QAEXI@Z ; SuperBlockConstants::ClearMiscRegisterConstant

; 561  :     constants.ClearMiscRegisterConstant(CONSTANT_REG_Z);

	push	16					; 00000010H
	mov	ecx, DWORD PTR _constants$[ebp]
	call	?ClearMiscRegisterConstant@SuperBlockConstants@@QAEXI@Z ; SuperBlockConstants::ClearMiscRegisterConstant

; 562  :     constants.ClearScalarRegisterConstant(destIndex);    

	mov	eax, DWORD PTR _destIndex$[ebp]
	push	eax
	mov	ecx, DWORD PTR _constants$[ebp]
	call	?ClearScalarRegisterConstant@SuperBlockConstants@@QAEXI@Z ; SuperBlockConstants::ClearScalarRegisterConstant

; 563  :     constants.status.status = PROPAGATE_CONSTANTS_STATUS_ALU_OK;

	mov	ecx, DWORD PTR _constants$[ebp]
	mov	DWORD PTR [ecx+12], 2
$LN5@PropagateC@13:

; 564  :   }
; 565  : }

	add	esp, 20					; 00000014H
	cmp	ebp, esp
	call	__RTC_CheckEsp
	mov	esp, ebp
	pop	ebp
	ret	0
?PropagateConstants_ROL@@YAXAAVSuperBlockConstants@@@Z ENDP ; PropagateConstants_ROL
_TEXT	ENDS
PUBLIC	?PropagateConstants_ROR@@YAXAAVSuperBlockConstants@@@Z ; PropagateConstants_ROR
EXTRN	__lrotr:PROC
; Function compile flags: /Odtp /RTCsu
_TEXT	SEGMENT
_src2$ = -20						; size = 4
_destValue$ = -16					; size = 4
_flagValues$ = -12					; size = 4
_destIndex$ = -8					; size = 4
_src2Index$ = -4					; size = 4
_constants$ = 8						; size = 4
?PropagateConstants_ROR@@YAXAAVSuperBlockConstants@@@Z PROC ; PropagateConstants_ROR

; 567  : {

	push	ebp
	mov	ebp, esp
	sub	esp, 20					; 00000014H
	mov	eax, -858993460				; ccccccccH
	mov	DWORD PTR [ebp-20], eax
	mov	DWORD PTR [ebp-16], eax
	mov	DWORD PTR [ebp-12], eax
	mov	DWORD PTR [ebp-8], eax
	mov	DWORD PTR [ebp-4], eax

; 568  :   uint32 src2Index = constants.nuance->fields[FIELD_ALU_SRC2];

	mov	eax, DWORD PTR _constants$[ebp]
	mov	ecx, DWORD PTR [eax+4]
	mov	edx, DWORD PTR [ecx+12]
	mov	DWORD PTR _src2Index$[ebp], edx

; 569  :   uint32 destIndex = constants.nuance->fields[FIELD_ALU_DEST]; 

	mov	eax, DWORD PTR _constants$[ebp]
	mov	ecx, DWORD PTR [eax+4]
	mov	edx, DWORD PTR [ecx+16]
	mov	DWORD PTR _destIndex$[ebp], edx

; 570  :   uint32 flagValues = 0;

	mov	DWORD PTR _flagValues$[ebp], 0

; 571  :   uint32 destValue, src2;
; 572  : 
; 573  :   constants.SetMiscRegisterConstant(CONSTANT_REG_V,0);

	push	0
	push	17					; 00000011H
	mov	ecx, DWORD PTR _constants$[ebp]
	call	?SetMiscRegisterConstant@SuperBlockConstants@@QAEXII@Z ; SuperBlockConstants::SetMiscRegisterConstant

; 574  :   if(constants.IsScalarRegisterConstant(src2Index) && ALLOW_ALU_PROPAGATION)

	mov	eax, DWORD PTR _src2Index$[ebp]
	push	eax
	mov	ecx, DWORD PTR _constants$[ebp]
	call	?IsScalarRegisterConstant@SuperBlockConstants@@QAE_NI@Z ; SuperBlockConstants::IsScalarRegisterConstant
	movzx	ecx, al
	test	ecx, ecx
	je	$LN4@PropagateC@14
	mov	edx, 1
	test	edx, edx
	je	$LN4@PropagateC@14

; 575  :   {
; 576  :     src2 = constants.GetScalarRegisterConstant(src2Index);

	mov	eax, DWORD PTR _src2Index$[ebp]
	push	eax
	mov	ecx, DWORD PTR _constants$[ebp]
	call	?GetScalarRegisterConstant@SuperBlockConstants@@QAEII@Z ; SuperBlockConstants::GetScalarRegisterConstant
	mov	DWORD PTR _src2$[ebp], eax

; 577  :     destValue = _lrotr(src2, constants.nuance->fields[FIELD_ALU_SRC1]);

	mov	ecx, DWORD PTR _constants$[ebp]
	mov	edx, DWORD PTR [ecx+4]
	mov	eax, DWORD PTR [edx+8]
	push	eax
	mov	ecx, DWORD PTR _src2$[ebp]
	push	ecx
	call	__lrotr
	add	esp, 8
	mov	DWORD PTR _destValue$[ebp], eax

; 578  :     if(!destValue)

	cmp	DWORD PTR _destValue$[ebp], 0
	jne	SHORT $LN3@PropagateC@14

; 579  :     {
; 580  :       flagValues = CC_ALU_ZERO;

	mov	DWORD PTR _flagValues$[ebp], 1

; 581  :     }
; 582  :     else

	jmp	SHORT $LN2@PropagateC@14
$LN3@PropagateC@14:

; 583  :     {
; 584  :       flagValues |= ((destValue >> 28) & CC_ALU_NEGATIVE);

	mov	edx, DWORD PTR _destValue$[ebp]
	shr	edx, 28					; 0000001cH
	and	edx, 8
	or	edx, DWORD PTR _flagValues$[ebp]
	mov	DWORD PTR _flagValues$[ebp], edx
$LN2@PropagateC@14:

; 585  :     }
; 586  :     constants.nuance->fields[FIELD_CONSTANT_HANDLER] = Handler_StoreScalarRegisterConstant;

	mov	eax, DWORD PTR _constants$[ebp]
	mov	ecx, DWORD PTR [eax+4]
	mov	DWORD PTR [ecx], 217			; 000000d9H

; 587  :     constants.nuance->fields[FIELD_CONSTANT_ADDRESS] = destIndex;

	mov	edx, DWORD PTR _constants$[ebp]
	mov	eax, DWORD PTR [edx+4]
	mov	ecx, DWORD PTR _destIndex$[ebp]
	mov	DWORD PTR [eax+4], ecx

; 588  :     constants.nuance->fields[FIELD_CONSTANT_VALUE] = destValue;

	mov	edx, DWORD PTR _constants$[ebp]
	mov	eax, DWORD PTR [edx+4]
	mov	ecx, DWORD PTR _destValue$[ebp]
	mov	DWORD PTR [eax+8], ecx

; 589  :     constants.nuance->fields[FIELD_CONSTANT_FLAGMASK] = CC_ALU_NEGATIVE | CC_ALU_ZERO | CC_ALU_OVERFLOW;

	mov	edx, DWORD PTR _constants$[ebp]
	mov	eax, DWORD PTR [edx+4]
	mov	DWORD PTR [eax+12], 13			; 0000000dH

; 590  :     constants.nuance->fields[FIELD_CONSTANT_FLAGVALUES] = flagValues;

	mov	ecx, DWORD PTR _constants$[ebp]
	mov	edx, DWORD PTR [ecx+4]
	mov	eax, DWORD PTR _flagValues$[ebp]
	mov	DWORD PTR [edx+16], eax

; 591  :     constants.ClearScalarInputDependency(src2Index);

	mov	ecx, DWORD PTR _src2Index$[ebp]
	push	ecx
	mov	ecx, DWORD PTR _constants$[ebp]
	call	?ClearScalarInputDependency@SuperBlockConstants@@QAEXI@Z ; SuperBlockConstants::ClearScalarInputDependency

; 592  :     PropagateConstants_StoreScalarRegisterConstant(constants);    

	mov	edx, DWORD PTR _constants$[ebp]
	push	edx
	call	?PropagateConstants_StoreScalarRegisterConstant@@YAXAAVSuperBlockConstants@@@Z ; PropagateConstants_StoreScalarRegisterConstant
	add	esp, 4

; 593  :   }
; 594  :   else

	jmp	SHORT $LN5@PropagateC@14
$LN4@PropagateC@14:

; 595  :   {
; 596  :     constants.ClearMiscRegisterConstant(CONSTANT_REG_N);

	push	18					; 00000012H
	mov	ecx, DWORD PTR _constants$[ebp]
	call	?ClearMiscRegisterConstant@SuperBlockConstants@@QAEXI@Z ; SuperBlockConstants::ClearMiscRegisterConstant

; 597  :     constants.ClearMiscRegisterConstant(CONSTANT_REG_Z);

	push	16					; 00000010H
	mov	ecx, DWORD PTR _constants$[ebp]
	call	?ClearMiscRegisterConstant@SuperBlockConstants@@QAEXI@Z ; SuperBlockConstants::ClearMiscRegisterConstant

; 598  :     constants.ClearScalarRegisterConstant(destIndex);    

	mov	eax, DWORD PTR _destIndex$[ebp]
	push	eax
	mov	ecx, DWORD PTR _constants$[ebp]
	call	?ClearScalarRegisterConstant@SuperBlockConstants@@QAEXI@Z ; SuperBlockConstants::ClearScalarRegisterConstant

; 599  :     constants.status.status = PROPAGATE_CONSTANTS_STATUS_ALU_OK;

	mov	ecx, DWORD PTR _constants$[ebp]
	mov	DWORD PTR [ecx+12], 2
$LN5@PropagateC@14:

; 600  :   }
; 601  : }

	add	esp, 20					; 00000014H
	cmp	ebp, esp
	call	__RTC_CheckEsp
	mov	esp, ebp
	pop	ebp
	ret	0
?PropagateConstants_ROR@@YAXAAVSuperBlockConstants@@@Z ENDP ; PropagateConstants_ROR
_TEXT	ENDS
PUBLIC	?PropagateConstants_ROT@@YAXAAVSuperBlockConstants@@@Z ; PropagateConstants_ROT
; Function compile flags: /Odtp /RTCsu
_TEXT	SEGMENT
_src1$ = -16						; size = 4
_destIndex$ = -12					; size = 4
_src2Index$ = -8					; size = 4
_src1Index$ = -4					; size = 4
_constants$ = 8						; size = 4
?PropagateConstants_ROT@@YAXAAVSuperBlockConstants@@@Z PROC ; PropagateConstants_ROT

; 603  : {

	push	ebp
	mov	ebp, esp
	sub	esp, 16					; 00000010H
	mov	eax, -858993460				; ccccccccH
	mov	DWORD PTR [ebp-16], eax
	mov	DWORD PTR [ebp-12], eax
	mov	DWORD PTR [ebp-8], eax
	mov	DWORD PTR [ebp-4], eax

; 604  :   uint32 src1Index = constants.nuance->fields[FIELD_ALU_SRC1];

	mov	eax, DWORD PTR _constants$[ebp]
	mov	ecx, DWORD PTR [eax+4]
	mov	edx, DWORD PTR [ecx+8]
	mov	DWORD PTR _src1Index$[ebp], edx

; 605  :   uint32 src2Index = constants.nuance->fields[FIELD_ALU_SRC2];

	mov	eax, DWORD PTR _constants$[ebp]
	mov	ecx, DWORD PTR [eax+4]
	mov	edx, DWORD PTR [ecx+12]
	mov	DWORD PTR _src2Index$[ebp], edx

; 606  :   uint32 destIndex = constants.nuance->fields[FIELD_ALU_DEST]; 

	mov	eax, DWORD PTR _constants$[ebp]
	mov	ecx, DWORD PTR [eax+4]
	mov	edx, DWORD PTR [ecx+16]
	mov	DWORD PTR _destIndex$[ebp], edx

; 607  :   uint32 src1;
; 608  : 
; 609  :   constants.SetMiscRegisterConstant(CONSTANT_REG_V,0);

	push	0
	push	17					; 00000011H
	mov	ecx, DWORD PTR _constants$[ebp]
	call	?SetMiscRegisterConstant@SuperBlockConstants@@QAEXII@Z ; SuperBlockConstants::SetMiscRegisterConstant

; 610  :   if(constants.IsScalarRegisterConstant(src1Index) && ALLOW_ALU_PROPAGATION)

	mov	eax, DWORD PTR _src1Index$[ebp]
	push	eax
	mov	ecx, DWORD PTR _constants$[ebp]
	call	?IsScalarRegisterConstant@SuperBlockConstants@@QAE_NI@Z ; SuperBlockConstants::IsScalarRegisterConstant
	movzx	ecx, al
	test	ecx, ecx
	je	$LN4@PropagateC@15
	mov	edx, 1
	test	edx, edx
	je	$LN4@PropagateC@15

; 611  :   {
; 612  :     src1 = constants.GetScalarRegisterConstant(src1Index) & 0x3FUL;

	mov	eax, DWORD PTR _src1Index$[ebp]
	push	eax
	mov	ecx, DWORD PTR _constants$[ebp]
	call	?GetScalarRegisterConstant@SuperBlockConstants@@QAEII@Z ; SuperBlockConstants::GetScalarRegisterConstant
	and	eax, 63					; 0000003fH
	mov	DWORD PTR _src1$[ebp], eax

; 613  :     if(src1 & 0x20)

	mov	ecx, DWORD PTR _src1$[ebp]
	and	ecx, 32					; 00000020H
	je	SHORT $LN3@PropagateC@15

; 614  :     {
; 615  :       constants.nuance->fields[FIELD_ALU_HANDLER] = Handler_ROL;

	mov	edx, DWORD PTR _constants$[ebp]
	mov	eax, DWORD PTR [edx+4]
	mov	DWORD PTR [eax], 55			; 00000037H

; 616  :       constants.nuance->fields[FIELD_ALU_SRC1] = 64 - src1;

	mov	ecx, 64					; 00000040H
	sub	ecx, DWORD PTR _src1$[ebp]
	mov	edx, DWORD PTR _constants$[ebp]
	mov	eax, DWORD PTR [edx+4]
	mov	DWORD PTR [eax+8], ecx

; 617  :       constants.ClearScalarInputDependency(src1Index);

	mov	ecx, DWORD PTR _src1Index$[ebp]
	push	ecx
	mov	ecx, DWORD PTR _constants$[ebp]
	call	?ClearScalarInputDependency@SuperBlockConstants@@QAEXI@Z ; SuperBlockConstants::ClearScalarInputDependency

; 618  :       constants.SetScalarInputDependency(src2Index);

	mov	edx, DWORD PTR _src2Index$[ebp]
	push	edx
	mov	ecx, DWORD PTR _constants$[ebp]
	call	?SetScalarInputDependency@SuperBlockConstants@@QAEXI@Z ; SuperBlockConstants::SetScalarInputDependency

; 619  :       PropagateConstants_ROL(constants);    

	mov	eax, DWORD PTR _constants$[ebp]
	push	eax
	call	?PropagateConstants_ROL@@YAXAAVSuperBlockConstants@@@Z ; PropagateConstants_ROL
	add	esp, 4

; 620  : 
; 621  :     }
; 622  :     else

	jmp	SHORT $LN2@PropagateC@15
$LN3@PropagateC@15:

; 623  :     {
; 624  :       constants.nuance->fields[FIELD_ALU_HANDLER] = Handler_ROR;

	mov	ecx, DWORD PTR _constants$[ebp]
	mov	edx, DWORD PTR [ecx+4]
	mov	DWORD PTR [edx], 56			; 00000038H

; 625  :       constants.nuance->fields[FIELD_ALU_SRC1] = src1;

	mov	eax, DWORD PTR _constants$[ebp]
	mov	ecx, DWORD PTR [eax+4]
	mov	edx, DWORD PTR _src1$[ebp]
	mov	DWORD PTR [ecx+8], edx

; 626  :       constants.ClearScalarInputDependency(src1Index);

	mov	eax, DWORD PTR _src1Index$[ebp]
	push	eax
	mov	ecx, DWORD PTR _constants$[ebp]
	call	?ClearScalarInputDependency@SuperBlockConstants@@QAEXI@Z ; SuperBlockConstants::ClearScalarInputDependency

; 627  :       constants.SetScalarInputDependency(src2Index);

	mov	ecx, DWORD PTR _src2Index$[ebp]
	push	ecx
	mov	ecx, DWORD PTR _constants$[ebp]
	call	?SetScalarInputDependency@SuperBlockConstants@@QAEXI@Z ; SuperBlockConstants::SetScalarInputDependency

; 628  :       PropagateConstants_ROR(constants);    

	mov	edx, DWORD PTR _constants$[ebp]
	push	edx
	call	?PropagateConstants_ROR@@YAXAAVSuperBlockConstants@@@Z ; PropagateConstants_ROR
	add	esp, 4
$LN2@PropagateC@15:

; 629  :     }
; 630  :   }
; 631  :   else

	jmp	SHORT $LN5@PropagateC@15
$LN4@PropagateC@15:

; 632  :   {
; 633  :     constants.ClearMiscRegisterConstant(CONSTANT_REG_N);

	push	18					; 00000012H
	mov	ecx, DWORD PTR _constants$[ebp]
	call	?ClearMiscRegisterConstant@SuperBlockConstants@@QAEXI@Z ; SuperBlockConstants::ClearMiscRegisterConstant

; 634  :     constants.ClearMiscRegisterConstant(CONSTANT_REG_Z);

	push	16					; 00000010H
	mov	ecx, DWORD PTR _constants$[ebp]
	call	?ClearMiscRegisterConstant@SuperBlockConstants@@QAEXI@Z ; SuperBlockConstants::ClearMiscRegisterConstant

; 635  :     constants.ClearScalarRegisterConstant(destIndex);    

	mov	eax, DWORD PTR _destIndex$[ebp]
	push	eax
	mov	ecx, DWORD PTR _constants$[ebp]
	call	?ClearScalarRegisterConstant@SuperBlockConstants@@QAEXI@Z ; SuperBlockConstants::ClearScalarRegisterConstant

; 636  :     constants.status.status = PROPAGATE_CONSTANTS_STATUS_ALU_OK;

	mov	ecx, DWORD PTR _constants$[ebp]
	mov	DWORD PTR [ecx+12], 2
$LN5@PropagateC@15:

; 637  :   }
; 638  : }

	add	esp, 16					; 00000010H
	cmp	ebp, esp
	call	__RTC_CheckEsp
	mov	esp, ebp
	pop	ebp
	ret	0
?PropagateConstants_ROT@@YAXAAVSuperBlockConstants@@@Z ENDP ; PropagateConstants_ROT
_TEXT	ENDS
PUBLIC	?ClearPixelRegisterConstant@SuperBlockConstants@@QAEXI@Z ; SuperBlockConstants::ClearPixelRegisterConstant
PUBLIC	?PropagateConstants_ADD_P@@YAXAAVSuperBlockConstants@@@Z ; PropagateConstants_ADD_P
; Function compile flags: /Odtp /RTCsu
_TEXT	SEGMENT
_destIndex$ = -4					; size = 4
_constants$ = 8						; size = 4
?PropagateConstants_ADD_P@@YAXAAVSuperBlockConstants@@@Z PROC ; PropagateConstants_ADD_P

; 640  : {

	push	ebp
	mov	ebp, esp
	push	ecx
	mov	DWORD PTR [ebp-4], -858993460		; ccccccccH

; 641  :   uint32 destIndex = constants.nuance->fields[FIELD_ALU_DEST]; 

	mov	eax, DWORD PTR _constants$[ebp]
	mov	ecx, DWORD PTR [eax+4]
	mov	edx, DWORD PTR [ecx+16]
	mov	DWORD PTR _destIndex$[ebp], edx

; 642  : 
; 643  :   constants.status.status = PROPAGATE_CONSTANTS_STATUS_ALU_OK;

	mov	eax, DWORD PTR _constants$[ebp]
	mov	DWORD PTR [eax+12], 2

; 644  :   constants.ClearPixelRegisterConstant(destIndex);    

	mov	ecx, DWORD PTR _destIndex$[ebp]
	push	ecx
	mov	ecx, DWORD PTR _constants$[ebp]
	call	?ClearPixelRegisterConstant@SuperBlockConstants@@QAEXI@Z ; SuperBlockConstants::ClearPixelRegisterConstant

; 645  : }

	add	esp, 4
	cmp	ebp, esp
	call	__RTC_CheckEsp
	mov	esp, ebp
	pop	ebp
	ret	0
?PropagateConstants_ADD_P@@YAXAAVSuperBlockConstants@@@Z ENDP ; PropagateConstants_ADD_P
; Function compile flags: /Odtp /RTCsu
; File c:\nuanceexperimental\superblockconstants.h
_TEXT	ENDS
;	COMDAT ?ClearPixelRegisterConstant@SuperBlockConstants@@QAEXI@Z
_TEXT	SEGMENT
_this$ = -4						; size = 4
_index$ = 8						; size = 4
?ClearPixelRegisterConstant@SuperBlockConstants@@QAEXI@Z PROC ; SuperBlockConstants::ClearPixelRegisterConstant, COMDAT
; _this$ = ecx

; 145  :   {

	push	ebp
	mov	ebp, esp
	push	ecx
	mov	DWORD PTR [ebp-4], -858993460		; ccccccccH
	mov	DWORD PTR _this$[ebp], ecx

; 146  :     tempScalarRegisterConstantsStatus &= ~(0x7UL << index);

	mov	eax, 7
	mov	ecx, DWORD PTR _index$[ebp]
	shl	eax, cl
	not	eax
	mov	ecx, DWORD PTR _this$[ebp]
	and	eax, DWORD PTR [ecx+564]
	mov	edx, DWORD PTR _this$[ebp]
	mov	DWORD PTR [edx+564], eax

; 147  :   }

	mov	esp, ebp
	pop	ebp
	ret	4
?ClearPixelRegisterConstant@SuperBlockConstants@@QAEXI@Z ENDP ; SuperBlockConstants::ClearPixelRegisterConstant
_TEXT	ENDS
PUBLIC	?SetScalarRegisterConstant@SuperBlockConstants@@QAEXII@Z ; SuperBlockConstants::SetScalarRegisterConstant
PUBLIC	?PropagateConstants_SUB_P@@YAXAAVSuperBlockConstants@@@Z ; PropagateConstants_SUB_P
; Function compile flags: /Odtp /RTCsu
; File c:\nuanceexperimental\propagateconstants_alu.cpp
_TEXT	SEGMENT
_destIndex$ = -12					; size = 4
_src2Index$ = -8					; size = 4
_src1Index$ = -4					; size = 4
_constants$ = 8						; size = 4
?PropagateConstants_SUB_P@@YAXAAVSuperBlockConstants@@@Z PROC ; PropagateConstants_SUB_P

; 647  : {

	push	ebp
	mov	ebp, esp
	sub	esp, 12					; 0000000cH
	mov	DWORD PTR [ebp-12], -858993460		; ccccccccH
	mov	DWORD PTR [ebp-8], -858993460		; ccccccccH
	mov	DWORD PTR [ebp-4], -858993460		; ccccccccH

; 648  :   uint32 src1Index = constants.nuance->fields[FIELD_ALU_SRC1]; 

	mov	eax, DWORD PTR _constants$[ebp]
	mov	ecx, DWORD PTR [eax+4]
	mov	edx, DWORD PTR [ecx+8]
	mov	DWORD PTR _src1Index$[ebp], edx

; 649  :   uint32 src2Index = constants.nuance->fields[FIELD_ALU_SRC2]; 

	mov	eax, DWORD PTR _constants$[ebp]
	mov	ecx, DWORD PTR [eax+4]
	mov	edx, DWORD PTR [ecx+12]
	mov	DWORD PTR _src2Index$[ebp], edx

; 650  :   uint32 destIndex = constants.nuance->fields[FIELD_ALU_DEST]; 

	mov	eax, DWORD PTR _constants$[ebp]
	mov	ecx, DWORD PTR [eax+4]
	mov	edx, DWORD PTR [ecx+16]
	mov	DWORD PTR _destIndex$[ebp], edx

; 651  : 
; 652  :   if((src1Index == src2Index) && ALLOW_ALU_PROPAGATION)

	mov	eax, DWORD PTR _src1Index$[ebp]
	cmp	eax, DWORD PTR _src2Index$[ebp]
	jne	SHORT $LN2@PropagateC@16
	mov	ecx, 1
	test	ecx, ecx
	je	SHORT $LN2@PropagateC@16

; 653  :   {
; 654  :     constants.SetScalarRegisterConstant(destIndex, 0);    

	push	0
	mov	edx, DWORD PTR _destIndex$[ebp]
	push	edx
	mov	ecx, DWORD PTR _constants$[ebp]
	call	?SetScalarRegisterConstant@SuperBlockConstants@@QAEXII@Z ; SuperBlockConstants::SetScalarRegisterConstant

; 655  :     constants.SetScalarRegisterConstant(destIndex + 1, 0);    

	push	0
	mov	eax, DWORD PTR _destIndex$[ebp]
	add	eax, 1
	push	eax
	mov	ecx, DWORD PTR _constants$[ebp]
	call	?SetScalarRegisterConstant@SuperBlockConstants@@QAEXII@Z ; SuperBlockConstants::SetScalarRegisterConstant

; 656  :     constants.SetScalarRegisterConstant(destIndex + 2, 0);    

	push	0
	mov	ecx, DWORD PTR _destIndex$[ebp]
	add	ecx, 2
	push	ecx
	mov	ecx, DWORD PTR _constants$[ebp]
	call	?SetScalarRegisterConstant@SuperBlockConstants@@QAEXII@Z ; SuperBlockConstants::SetScalarRegisterConstant

; 657  :   }
; 658  :   else

	jmp	SHORT $LN3@PropagateC@16
$LN2@PropagateC@16:

; 659  :   {
; 660  :     constants.status.status = PROPAGATE_CONSTANTS_STATUS_ALU_OK;

	mov	edx, DWORD PTR _constants$[ebp]
	mov	DWORD PTR [edx+12], 2

; 661  :     constants.ClearPixelRegisterConstant(destIndex);    

	mov	eax, DWORD PTR _destIndex$[ebp]
	push	eax
	mov	ecx, DWORD PTR _constants$[ebp]
	call	?ClearPixelRegisterConstant@SuperBlockConstants@@QAEXI@Z ; SuperBlockConstants::ClearPixelRegisterConstant
$LN3@PropagateC@16:

; 662  :   }
; 663  : }

	add	esp, 12					; 0000000cH
	cmp	ebp, esp
	call	__RTC_CheckEsp
	mov	esp, ebp
	pop	ebp
	ret	0
?PropagateConstants_SUB_P@@YAXAAVSuperBlockConstants@@@Z ENDP ; PropagateConstants_SUB_P
; Function compile flags: /Odtp /RTCsu
; File c:\nuanceexperimental\superblockconstants.h
_TEXT	ENDS
;	COMDAT ?SetScalarRegisterConstant@SuperBlockConstants@@QAEXII@Z
_TEXT	SEGMENT
_this$ = -4						; size = 4
_index$ = 8						; size = 4
_value$ = 12						; size = 4
?SetScalarRegisterConstant@SuperBlockConstants@@QAEXII@Z PROC ; SuperBlockConstants::SetScalarRegisterConstant, COMDAT
; _this$ = ecx

; 168  :   {

	push	ebp
	mov	ebp, esp
	push	ecx
	mov	DWORD PTR [ebp-4], -858993460		; ccccccccH
	mov	DWORD PTR _this$[ebp], ecx

; 169  :     tempScalarRegisterConstantsStatus |= (1UL << index);

	mov	eax, 1
	mov	ecx, DWORD PTR _index$[ebp]
	shl	eax, cl
	mov	ecx, DWORD PTR _this$[ebp]
	or	eax, DWORD PTR [ecx+564]
	mov	edx, DWORD PTR _this$[ebp]
	mov	DWORD PTR [edx+564], eax

; 170  :     tempScalarRegisterConstants[index] = value;

	mov	eax, DWORD PTR _index$[ebp]
	mov	ecx, DWORD PTR _this$[ebp]
	mov	edx, DWORD PTR _value$[ebp]
	mov	DWORD PTR [ecx+eax*4+44], edx

; 171  :   }

	mov	esp, ebp
	pop	ebp
	ret	8
?SetScalarRegisterConstant@SuperBlockConstants@@QAEXII@Z ENDP ; SuperBlockConstants::SetScalarRegisterConstant
_TEXT	ENDS
PUBLIC	?ClearShortVectorRegisterConstant@SuperBlockConstants@@QAEXI@Z ; SuperBlockConstants::ClearShortVectorRegisterConstant
PUBLIC	?PropagateConstants_ADD_SV@@YAXAAVSuperBlockConstants@@@Z ; PropagateConstants_ADD_SV
; Function compile flags: /Odtp /RTCsu
; File c:\nuanceexperimental\propagateconstants_alu.cpp
_TEXT	SEGMENT
_destIndex$ = -4					; size = 4
_constants$ = 8						; size = 4
?PropagateConstants_ADD_SV@@YAXAAVSuperBlockConstants@@@Z PROC ; PropagateConstants_ADD_SV

; 665  : {

	push	ebp
	mov	ebp, esp
	push	ecx
	mov	DWORD PTR [ebp-4], -858993460		; ccccccccH

; 666  :   uint32 destIndex = constants.nuance->fields[FIELD_ALU_DEST]; 

	mov	eax, DWORD PTR _constants$[ebp]
	mov	ecx, DWORD PTR [eax+4]
	mov	edx, DWORD PTR [ecx+16]
	mov	DWORD PTR _destIndex$[ebp], edx

; 667  : 
; 668  :   constants.status.status = PROPAGATE_CONSTANTS_STATUS_ALU_OK;

	mov	eax, DWORD PTR _constants$[ebp]
	mov	DWORD PTR [eax+12], 2

; 669  :   constants.ClearShortVectorRegisterConstant(destIndex);    

	mov	ecx, DWORD PTR _destIndex$[ebp]
	push	ecx
	mov	ecx, DWORD PTR _constants$[ebp]
	call	?ClearShortVectorRegisterConstant@SuperBlockConstants@@QAEXI@Z ; SuperBlockConstants::ClearShortVectorRegisterConstant

; 670  : }

	add	esp, 4
	cmp	ebp, esp
	call	__RTC_CheckEsp
	mov	esp, ebp
	pop	ebp
	ret	0
?PropagateConstants_ADD_SV@@YAXAAVSuperBlockConstants@@@Z ENDP ; PropagateConstants_ADD_SV
; Function compile flags: /Odtp /RTCsu
; File c:\nuanceexperimental\superblockconstants.h
_TEXT	ENDS
;	COMDAT ?ClearShortVectorRegisterConstant@SuperBlockConstants@@QAEXI@Z
_TEXT	SEGMENT
_this$ = -4						; size = 4
_index$ = 8						; size = 4
?ClearShortVectorRegisterConstant@SuperBlockConstants@@QAEXI@Z PROC ; SuperBlockConstants::ClearShortVectorRegisterConstant, COMDAT
; _this$ = ecx

; 149  :   {

	push	ebp
	mov	ebp, esp
	push	ecx
	mov	DWORD PTR [ebp-4], -858993460		; ccccccccH
	mov	DWORD PTR _this$[ebp], ecx

; 150  :     tempScalarRegisterConstantsStatus &= ~(0xFUL << index);

	mov	eax, 15					; 0000000fH
	mov	ecx, DWORD PTR _index$[ebp]
	shl	eax, cl
	not	eax
	mov	ecx, DWORD PTR _this$[ebp]
	and	eax, DWORD PTR [ecx+564]
	mov	edx, DWORD PTR _this$[ebp]
	mov	DWORD PTR [edx+564], eax

; 151  :   }

	mov	esp, ebp
	pop	ebp
	ret	4
?ClearShortVectorRegisterConstant@SuperBlockConstants@@QAEXI@Z ENDP ; SuperBlockConstants::ClearShortVectorRegisterConstant
_TEXT	ENDS
PUBLIC	?PropagateConstants_SUB_SV@@YAXAAVSuperBlockConstants@@@Z ; PropagateConstants_SUB_SV
; Function compile flags: /Odtp /RTCsu
; File c:\nuanceexperimental\propagateconstants_alu.cpp
_TEXT	SEGMENT
_destIndex$ = -12					; size = 4
_src2Index$ = -8					; size = 4
_src1Index$ = -4					; size = 4
_constants$ = 8						; size = 4
?PropagateConstants_SUB_SV@@YAXAAVSuperBlockConstants@@@Z PROC ; PropagateConstants_SUB_SV

; 672  : {

	push	ebp
	mov	ebp, esp
	sub	esp, 12					; 0000000cH
	mov	DWORD PTR [ebp-12], -858993460		; ccccccccH
	mov	DWORD PTR [ebp-8], -858993460		; ccccccccH
	mov	DWORD PTR [ebp-4], -858993460		; ccccccccH

; 673  :   uint32 src1Index = constants.nuance->fields[FIELD_ALU_SRC1]; 

	mov	eax, DWORD PTR _constants$[ebp]
	mov	ecx, DWORD PTR [eax+4]
	mov	edx, DWORD PTR [ecx+8]
	mov	DWORD PTR _src1Index$[ebp], edx

; 674  :   uint32 src2Index = constants.nuance->fields[FIELD_ALU_SRC2]; 

	mov	eax, DWORD PTR _constants$[ebp]
	mov	ecx, DWORD PTR [eax+4]
	mov	edx, DWORD PTR [ecx+12]
	mov	DWORD PTR _src2Index$[ebp], edx

; 675  :   uint32 destIndex = constants.nuance->fields[FIELD_ALU_DEST]; 

	mov	eax, DWORD PTR _constants$[ebp]
	mov	ecx, DWORD PTR [eax+4]
	mov	edx, DWORD PTR [ecx+16]
	mov	DWORD PTR _destIndex$[ebp], edx

; 676  : 
; 677  :   if((src1Index == src2Index) && ALLOW_ALU_PROPAGATION)

	mov	eax, DWORD PTR _src1Index$[ebp]
	cmp	eax, DWORD PTR _src2Index$[ebp]
	jne	SHORT $LN2@PropagateC@17
	mov	ecx, 1
	test	ecx, ecx
	je	SHORT $LN2@PropagateC@17

; 678  :   {
; 679  :     constants.SetScalarRegisterConstant(destIndex, 0);    

	push	0
	mov	edx, DWORD PTR _destIndex$[ebp]
	push	edx
	mov	ecx, DWORD PTR _constants$[ebp]
	call	?SetScalarRegisterConstant@SuperBlockConstants@@QAEXII@Z ; SuperBlockConstants::SetScalarRegisterConstant

; 680  :     constants.SetScalarRegisterConstant(destIndex + 1, 0);    

	push	0
	mov	eax, DWORD PTR _destIndex$[ebp]
	add	eax, 1
	push	eax
	mov	ecx, DWORD PTR _constants$[ebp]
	call	?SetScalarRegisterConstant@SuperBlockConstants@@QAEXII@Z ; SuperBlockConstants::SetScalarRegisterConstant

; 681  :     constants.SetScalarRegisterConstant(destIndex + 2, 0);    

	push	0
	mov	ecx, DWORD PTR _destIndex$[ebp]
	add	ecx, 2
	push	ecx
	mov	ecx, DWORD PTR _constants$[ebp]
	call	?SetScalarRegisterConstant@SuperBlockConstants@@QAEXII@Z ; SuperBlockConstants::SetScalarRegisterConstant

; 682  :     constants.SetScalarRegisterConstant(destIndex + 3, 0);    

	push	0
	mov	edx, DWORD PTR _destIndex$[ebp]
	add	edx, 3
	push	edx
	mov	ecx, DWORD PTR _constants$[ebp]
	call	?SetScalarRegisterConstant@SuperBlockConstants@@QAEXII@Z ; SuperBlockConstants::SetScalarRegisterConstant

; 683  :   }
; 684  :   else

	jmp	SHORT $LN3@PropagateC@17
$LN2@PropagateC@17:

; 685  :   {
; 686  :     constants.status.status = PROPAGATE_CONSTANTS_STATUS_ALU_OK;

	mov	eax, DWORD PTR _constants$[ebp]
	mov	DWORD PTR [eax+12], 2

; 687  :     constants.ClearShortVectorRegisterConstant(destIndex);    

	mov	ecx, DWORD PTR _destIndex$[ebp]
	push	ecx
	mov	ecx, DWORD PTR _constants$[ebp]
	call	?ClearShortVectorRegisterConstant@SuperBlockConstants@@QAEXI@Z ; SuperBlockConstants::ClearShortVectorRegisterConstant
$LN3@PropagateC@17:

; 688  :   }
; 689  : }

	add	esp, 12					; 0000000cH
	cmp	ebp, esp
	call	__RTC_CheckEsp
	mov	esp, ebp
	pop	ebp
	ret	0
?PropagateConstants_SUB_SV@@YAXAAVSuperBlockConstants@@@Z ENDP ; PropagateConstants_SUB_SV
_TEXT	ENDS
PUBLIC	?PropagateConstants_ADDImmediate@@YAXAAVSuperBlockConstants@@@Z ; PropagateConstants_ADDImmediate
; Function compile flags: /Odtp /RTCsu
_TEXT	SEGMENT
tv218 = -60						; size = 8
tv207 = -52						; size = 8
tv186 = -44						; size = 8
_destValue$ = -36					; size = 8
_src2$ = -28						; size = 8
_src1$ = -20						; size = 8
_flagValues$ = -12					; size = 4
_destIndex$ = -8					; size = 4
_src2Index$ = -4					; size = 4
_constants$ = 8						; size = 4
?PropagateConstants_ADDImmediate@@YAXAAVSuperBlockConstants@@@Z PROC ; PropagateConstants_ADDImmediate

; 691  : {

	push	ebp
	mov	ebp, esp
	sub	esp, 60					; 0000003cH
	push	edi
	lea	edi, DWORD PTR [ebp-60]
	mov	ecx, 15					; 0000000fH
	mov	eax, -858993460				; ccccccccH
	rep stosd

; 692  :   uint32 src2Index = constants.nuance->fields[FIELD_ALU_SRC2];

	mov	eax, DWORD PTR _constants$[ebp]
	mov	ecx, DWORD PTR [eax+4]
	mov	edx, DWORD PTR [ecx+12]
	mov	DWORD PTR _src2Index$[ebp], edx

; 693  :   uint32 destIndex = constants.nuance->fields[FIELD_ALU_DEST]; 

	mov	eax, DWORD PTR _constants$[ebp]
	mov	ecx, DWORD PTR [eax+4]
	mov	edx, DWORD PTR [ecx+16]
	mov	DWORD PTR _destIndex$[ebp], edx

; 694  :   uint32 flagValues = 0;

	mov	DWORD PTR _flagValues$[ebp], 0

; 695  :   uint64 src1, src2, destValue;
; 696  : 
; 697  :   if(constants.IsScalarRegisterConstant(src2Index) && ALLOW_ALU_PROPAGATION)

	mov	eax, DWORD PTR _src2Index$[ebp]
	push	eax
	mov	ecx, DWORD PTR _constants$[ebp]
	call	?IsScalarRegisterConstant@SuperBlockConstants@@QAE_NI@Z ; SuperBlockConstants::IsScalarRegisterConstant
	movzx	ecx, al
	test	ecx, ecx
	je	$LN8@PropagateC@18
	mov	edx, 1
	test	edx, edx
	je	$LN8@PropagateC@18

; 698  :   {
; 699  :     src1 = constants.nuance->fields[FIELD_ALU_SRC1];

	mov	eax, DWORD PTR _constants$[ebp]
	mov	ecx, DWORD PTR [eax+4]
	mov	edx, DWORD PTR [ecx+8]
	xor	eax, eax
	mov	DWORD PTR _src1$[ebp], edx
	mov	DWORD PTR _src1$[ebp+4], eax

; 700  :     src2 = constants.GetScalarRegisterConstant(src2Index);

	mov	ecx, DWORD PTR _src2Index$[ebp]
	push	ecx
	mov	ecx, DWORD PTR _constants$[ebp]
	call	?GetScalarRegisterConstant@SuperBlockConstants@@QAEII@Z ; SuperBlockConstants::GetScalarRegisterConstant
	xor	edx, edx
	mov	DWORD PTR _src2$[ebp], eax
	mov	DWORD PTR _src2$[ebp+4], edx

; 701  :     destValue = src1 + src2;

	mov	eax, DWORD PTR _src1$[ebp]
	add	eax, DWORD PTR _src2$[ebp]
	mov	ecx, DWORD PTR _src1$[ebp+4]
	adc	ecx, DWORD PTR _src2$[ebp+4]
	mov	DWORD PTR _destValue$[ebp], eax
	mov	DWORD PTR _destValue$[ebp+4], ecx

; 702  :     if(destValue & (uint64)0x0000000100000000)

	mov	edx, DWORD PTR _destValue$[ebp]
	and	edx, 0
	mov	eax, DWORD PTR _destValue$[ebp+4]
	and	eax, 1
	mov	DWORD PTR tv186[ebp], edx
	mov	DWORD PTR tv186[ebp+4], eax
	mov	ecx, DWORD PTR tv186[ebp]
	or	ecx, DWORD PTR tv186[ebp+4]
	je	SHORT $LN7@PropagateC@18

; 703  :     {
; 704  :       flagValues = CC_ALU_CARRY;

	mov	DWORD PTR _flagValues$[ebp], 2
$LN7@PropagateC@18:

; 705  :     }
; 706  : 
; 707  :     if(((int32)(src1 ^ src2)) >= 0)

	mov	edx, DWORD PTR _src1$[ebp]
	xor	edx, DWORD PTR _src2$[ebp]
	mov	eax, DWORD PTR _src1$[ebp+4]
	xor	eax, DWORD PTR _src2$[ebp+4]
	test	edx, edx
	jl	SHORT $LN6@PropagateC@18

; 708  :     {
; 709  :       if(((int32)(src1 ^ (destValue & 0xFFFFFFFFUL))) < 0)

	mov	ecx, DWORD PTR _destValue$[ebp]
	mov	edx, DWORD PTR _destValue$[ebp+4]
	and	edx, 0
	xor	ecx, DWORD PTR _src1$[ebp]
	xor	edx, DWORD PTR _src1$[ebp+4]
	test	ecx, ecx
	jge	SHORT $LN6@PropagateC@18

; 710  :       {
; 711  :         flagValues |= CC_ALU_OVERFLOW;

	mov	eax, DWORD PTR _flagValues$[ebp]
	or	eax, 4
	mov	DWORD PTR _flagValues$[ebp], eax
$LN6@PropagateC@18:

; 712  :       }
; 713  :     }
; 714  : 
; 715  :     if(destValue & (uint64)0x0000000080000000)

	mov	ecx, DWORD PTR _destValue$[ebp]
	and	ecx, -2147483648			; 80000000H
	mov	edx, DWORD PTR _destValue$[ebp+4]
	and	edx, 0
	mov	DWORD PTR tv207[ebp], ecx
	mov	DWORD PTR tv207[ebp+4], edx
	mov	eax, DWORD PTR tv207[ebp]
	or	eax, DWORD PTR tv207[ebp+4]
	je	SHORT $LN4@PropagateC@18

; 716  :     {
; 717  :       flagValues |= CC_ALU_NEGATIVE;

	mov	ecx, DWORD PTR _flagValues$[ebp]
	or	ecx, 8
	mov	DWORD PTR _flagValues$[ebp], ecx
	jmp	SHORT $LN3@PropagateC@18
$LN4@PropagateC@18:

; 718  :     }
; 719  :     else if(!(destValue & (uint64)0x00000000FFFFFFFF))

	mov	edx, DWORD PTR _destValue$[ebp]
	mov	eax, DWORD PTR _destValue$[ebp+4]
	and	eax, 0
	mov	DWORD PTR tv218[ebp], edx
	mov	DWORD PTR tv218[ebp+4], eax
	mov	ecx, DWORD PTR tv218[ebp]
	or	ecx, DWORD PTR tv218[ebp+4]
	jne	SHORT $LN3@PropagateC@18

; 720  :     {
; 721  :       flagValues |= CC_ALU_ZERO;

	mov	edx, DWORD PTR _flagValues$[ebp]
	or	edx, 1
	mov	DWORD PTR _flagValues$[ebp], edx
$LN3@PropagateC@18:

; 722  :     }
; 723  :     constants.nuance->fields[FIELD_CONSTANT_HANDLER] = Handler_StoreScalarRegisterConstant;

	mov	eax, DWORD PTR _constants$[ebp]
	mov	ecx, DWORD PTR [eax+4]
	mov	DWORD PTR [ecx], 217			; 000000d9H

; 724  :     constants.nuance->fields[FIELD_CONSTANT_ADDRESS] = destIndex;

	mov	edx, DWORD PTR _constants$[ebp]
	mov	eax, DWORD PTR [edx+4]
	mov	ecx, DWORD PTR _destIndex$[ebp]
	mov	DWORD PTR [eax+4], ecx

; 725  :     constants.nuance->fields[FIELD_CONSTANT_VALUE] = destValue;

	mov	edx, DWORD PTR _destValue$[ebp]
	mov	eax, DWORD PTR _constants$[ebp]
	mov	ecx, DWORD PTR [eax+4]
	mov	DWORD PTR [ecx+8], edx

; 726  :     constants.nuance->fields[FIELD_CONSTANT_FLAGMASK] = CC_ALU_NEGATIVE | CC_ALU_ZERO | CC_ALU_OVERFLOW | CC_ALU_CARRY;

	mov	edx, DWORD PTR _constants$[ebp]
	mov	eax, DWORD PTR [edx+4]
	mov	DWORD PTR [eax+12], 15			; 0000000fH

; 727  :     constants.nuance->fields[FIELD_CONSTANT_FLAGVALUES] = flagValues;

	mov	ecx, DWORD PTR _constants$[ebp]
	mov	edx, DWORD PTR [ecx+4]
	mov	eax, DWORD PTR _flagValues$[ebp]
	mov	DWORD PTR [edx+16], eax

; 728  :     constants.ClearScalarInputDependency(src2Index);

	mov	ecx, DWORD PTR _src2Index$[ebp]
	push	ecx
	mov	ecx, DWORD PTR _constants$[ebp]
	call	?ClearScalarInputDependency@SuperBlockConstants@@QAEXI@Z ; SuperBlockConstants::ClearScalarInputDependency

; 729  :     PropagateConstants_StoreScalarRegisterConstant(constants);    

	mov	edx, DWORD PTR _constants$[ebp]
	push	edx
	call	?PropagateConstants_StoreScalarRegisterConstant@@YAXAAVSuperBlockConstants@@@Z ; PropagateConstants_StoreScalarRegisterConstant
	add	esp, 4

; 730  :   }
; 731  :   else

	jmp	SHORT $LN9@PropagateC@18
$LN8@PropagateC@18:

; 732  :   {
; 733  :     constants.status.status = PROPAGATE_CONSTANTS_STATUS_ALU_OK;

	mov	eax, DWORD PTR _constants$[ebp]
	mov	DWORD PTR [eax+12], 2

; 734  :     constants.ClearMiscRegisterConstant(CONSTANT_REG_N);    

	push	18					; 00000012H
	mov	ecx, DWORD PTR _constants$[ebp]
	call	?ClearMiscRegisterConstant@SuperBlockConstants@@QAEXI@Z ; SuperBlockConstants::ClearMiscRegisterConstant

; 735  :     constants.ClearMiscRegisterConstant(CONSTANT_REG_V);    

	push	17					; 00000011H
	mov	ecx, DWORD PTR _constants$[ebp]
	call	?ClearMiscRegisterConstant@SuperBlockConstants@@QAEXI@Z ; SuperBlockConstants::ClearMiscRegisterConstant

; 736  :     constants.ClearMiscRegisterConstant(CONSTANT_REG_C);    

	push	15					; 0000000fH
	mov	ecx, DWORD PTR _constants$[ebp]
	call	?ClearMiscRegisterConstant@SuperBlockConstants@@QAEXI@Z ; SuperBlockConstants::ClearMiscRegisterConstant

; 737  :     constants.ClearMiscRegisterConstant(CONSTANT_REG_Z);    

	push	16					; 00000010H
	mov	ecx, DWORD PTR _constants$[ebp]
	call	?ClearMiscRegisterConstant@SuperBlockConstants@@QAEXI@Z ; SuperBlockConstants::ClearMiscRegisterConstant

; 738  :     constants.ClearScalarRegisterConstant(destIndex);    

	mov	ecx, DWORD PTR _destIndex$[ebp]
	push	ecx
	mov	ecx, DWORD PTR _constants$[ebp]
	call	?ClearScalarRegisterConstant@SuperBlockConstants@@QAEXI@Z ; SuperBlockConstants::ClearScalarRegisterConstant
$LN9@PropagateC@18:

; 739  :   }
; 740  : }

	pop	edi
	add	esp, 60					; 0000003cH
	cmp	ebp, esp
	call	__RTC_CheckEsp
	mov	esp, ebp
	pop	ebp
	ret	0
?PropagateConstants_ADDImmediate@@YAXAAVSuperBlockConstants@@@Z ENDP ; PropagateConstants_ADDImmediate
_TEXT	ENDS
PUBLIC	?PropagateConstants_ADDScalar@@YAXAAVSuperBlockConstants@@@Z ; PropagateConstants_ADDScalar
; Function compile flags: /Odtp /RTCsu
_TEXT	SEGMENT
_src1$ = -16						; size = 4
_destIndex$ = -12					; size = 4
_src2Index$ = -8					; size = 4
_src1Index$ = -4					; size = 4
_constants$ = 8						; size = 4
?PropagateConstants_ADDScalar@@YAXAAVSuperBlockConstants@@@Z PROC ; PropagateConstants_ADDScalar

; 742  : {

	push	ebp
	mov	ebp, esp
	sub	esp, 16					; 00000010H
	mov	eax, -858993460				; ccccccccH
	mov	DWORD PTR [ebp-16], eax
	mov	DWORD PTR [ebp-12], eax
	mov	DWORD PTR [ebp-8], eax
	mov	DWORD PTR [ebp-4], eax

; 743  :   uint32 src1Index = constants.nuance->fields[FIELD_ALU_SRC1];

	mov	eax, DWORD PTR _constants$[ebp]
	mov	ecx, DWORD PTR [eax+4]
	mov	edx, DWORD PTR [ecx+8]
	mov	DWORD PTR _src1Index$[ebp], edx

; 744  :   uint32 src2Index = constants.nuance->fields[FIELD_ALU_SRC2];

	mov	eax, DWORD PTR _constants$[ebp]
	mov	ecx, DWORD PTR [eax+4]
	mov	edx, DWORD PTR [ecx+12]
	mov	DWORD PTR _src2Index$[ebp], edx

; 745  :   uint32 destIndex = constants.nuance->fields[FIELD_ALU_DEST]; 

	mov	eax, DWORD PTR _constants$[ebp]
	mov	ecx, DWORD PTR [eax+4]
	mov	edx, DWORD PTR [ecx+16]
	mov	DWORD PTR _destIndex$[ebp], edx

; 746  :   uint32 src1;
; 747  : 
; 748  :   if(constants.IsScalarRegisterConstant(src1Index) && ALLOW_ALU_PROPAGATION)

	mov	eax, DWORD PTR _src1Index$[ebp]
	push	eax
	mov	ecx, DWORD PTR _constants$[ebp]
	call	?IsScalarRegisterConstant@SuperBlockConstants@@QAE_NI@Z ; SuperBlockConstants::IsScalarRegisterConstant
	movzx	ecx, al
	test	ecx, ecx
	je	SHORT $LN2@PropagateC@19
	mov	edx, 1
	test	edx, edx
	je	SHORT $LN2@PropagateC@19

; 749  :   {
; 750  :     src1 = constants.GetScalarRegisterConstant(src1Index);

	mov	eax, DWORD PTR _src1Index$[ebp]
	push	eax
	mov	ecx, DWORD PTR _constants$[ebp]
	call	?GetScalarRegisterConstant@SuperBlockConstants@@QAEII@Z ; SuperBlockConstants::GetScalarRegisterConstant
	mov	DWORD PTR _src1$[ebp], eax

; 751  :     constants.nuance->fields[FIELD_ALU_HANDLER] = Handler_ADDImmediate;

	mov	ecx, DWORD PTR _constants$[ebp]
	mov	edx, DWORD PTR [ecx+4]
	mov	DWORD PTR [edx], 61			; 0000003dH

; 752  :     constants.nuance->fields[FIELD_ALU_SRC1] = src1;

	mov	eax, DWORD PTR _constants$[ebp]
	mov	ecx, DWORD PTR [eax+4]
	mov	edx, DWORD PTR _src1$[ebp]
	mov	DWORD PTR [ecx+8], edx

; 753  :     constants.ClearScalarInputDependency(src1Index);

	mov	eax, DWORD PTR _src1Index$[ebp]
	push	eax
	mov	ecx, DWORD PTR _constants$[ebp]
	call	?ClearScalarInputDependency@SuperBlockConstants@@QAEXI@Z ; SuperBlockConstants::ClearScalarInputDependency

; 754  :     constants.SetScalarInputDependency(src2Index);

	mov	ecx, DWORD PTR _src2Index$[ebp]
	push	ecx
	mov	ecx, DWORD PTR _constants$[ebp]
	call	?SetScalarInputDependency@SuperBlockConstants@@QAEXI@Z ; SuperBlockConstants::SetScalarInputDependency

; 755  :     PropagateConstants_ADDImmediate(constants);    

	mov	edx, DWORD PTR _constants$[ebp]
	push	edx
	call	?PropagateConstants_ADDImmediate@@YAXAAVSuperBlockConstants@@@Z ; PropagateConstants_ADDImmediate
	add	esp, 4

; 756  :   }
; 757  :   else

	jmp	SHORT $LN3@PropagateC@19
$LN2@PropagateC@19:

; 758  :   {
; 759  :     constants.status.status = PROPAGATE_CONSTANTS_STATUS_ALU_OK;

	mov	eax, DWORD PTR _constants$[ebp]
	mov	DWORD PTR [eax+12], 2

; 760  :     constants.ClearMiscRegisterConstant(CONSTANT_REG_N);    

	push	18					; 00000012H
	mov	ecx, DWORD PTR _constants$[ebp]
	call	?ClearMiscRegisterConstant@SuperBlockConstants@@QAEXI@Z ; SuperBlockConstants::ClearMiscRegisterConstant

; 761  :     constants.ClearMiscRegisterConstant(CONSTANT_REG_V);    

	push	17					; 00000011H
	mov	ecx, DWORD PTR _constants$[ebp]
	call	?ClearMiscRegisterConstant@SuperBlockConstants@@QAEXI@Z ; SuperBlockConstants::ClearMiscRegisterConstant

; 762  :     constants.ClearMiscRegisterConstant(CONSTANT_REG_C);    

	push	15					; 0000000fH
	mov	ecx, DWORD PTR _constants$[ebp]
	call	?ClearMiscRegisterConstant@SuperBlockConstants@@QAEXI@Z ; SuperBlockConstants::ClearMiscRegisterConstant

; 763  :     constants.ClearMiscRegisterConstant(CONSTANT_REG_Z);    

	push	16					; 00000010H
	mov	ecx, DWORD PTR _constants$[ebp]
	call	?ClearMiscRegisterConstant@SuperBlockConstants@@QAEXI@Z ; SuperBlockConstants::ClearMiscRegisterConstant

; 764  :     constants.ClearScalarRegisterConstant(destIndex);    

	mov	ecx, DWORD PTR _destIndex$[ebp]
	push	ecx
	mov	ecx, DWORD PTR _constants$[ebp]
	call	?ClearScalarRegisterConstant@SuperBlockConstants@@QAEXI@Z ; SuperBlockConstants::ClearScalarRegisterConstant
$LN3@PropagateC@19:

; 765  :   }
; 766  : }

	add	esp, 16					; 00000010H
	cmp	ebp, esp
	call	__RTC_CheckEsp
	mov	esp, ebp
	pop	ebp
	ret	0
?PropagateConstants_ADDScalar@@YAXAAVSuperBlockConstants@@@Z ENDP ; PropagateConstants_ADDScalar
_TEXT	ENDS
PUBLIC	?PropagateConstants_ADDScalarShiftRightImmediate@@YAXAAVSuperBlockConstants@@@Z ; PropagateConstants_ADDScalarShiftRightImmediate
; Function compile flags: /Odtp /RTCsu
_TEXT	SEGMENT
_src2$ = -16						; size = 4
_src1$ = -12						; size = 4
_destIndex$ = -8					; size = 4
_src1Index$ = -4					; size = 4
_constants$ = 8						; size = 4
?PropagateConstants_ADDScalarShiftRightImmediate@@YAXAAVSuperBlockConstants@@@Z PROC ; PropagateConstants_ADDScalarShiftRightImmediate

; 768  : {

	push	ebp
	mov	ebp, esp
	sub	esp, 16					; 00000010H
	mov	eax, -858993460				; ccccccccH
	mov	DWORD PTR [ebp-16], eax
	mov	DWORD PTR [ebp-12], eax
	mov	DWORD PTR [ebp-8], eax
	mov	DWORD PTR [ebp-4], eax

; 769  :   uint32 src1Index = constants.nuance->fields[FIELD_ALU_SRC1];

	mov	eax, DWORD PTR _constants$[ebp]
	mov	ecx, DWORD PTR [eax+4]
	mov	edx, DWORD PTR [ecx+8]
	mov	DWORD PTR _src1Index$[ebp], edx

; 770  :   uint32 destIndex = constants.nuance->fields[FIELD_ALU_DEST]; 

	mov	eax, DWORD PTR _constants$[ebp]
	mov	ecx, DWORD PTR [eax+4]
	mov	edx, DWORD PTR [ecx+16]
	mov	DWORD PTR _destIndex$[ebp], edx

; 771  :   uint32 src1, src2;
; 772  : 
; 773  :   if(constants.IsScalarRegisterConstant(src1Index) && ALLOW_ALU_PROPAGATION)

	mov	eax, DWORD PTR _src1Index$[ebp]
	push	eax
	mov	ecx, DWORD PTR _constants$[ebp]
	call	?IsScalarRegisterConstant@SuperBlockConstants@@QAE_NI@Z ; SuperBlockConstants::IsScalarRegisterConstant
	movzx	ecx, al
	test	ecx, ecx
	je	SHORT $LN2@PropagateC@20
	mov	edx, 1
	test	edx, edx
	je	SHORT $LN2@PropagateC@20

; 774  :   {
; 775  :     src2 = constants.nuance->fields[FIELD_ALU_SRC2];

	mov	eax, DWORD PTR _constants$[ebp]
	mov	ecx, DWORD PTR [eax+4]
	mov	edx, DWORD PTR [ecx+12]
	mov	DWORD PTR _src2$[ebp], edx

; 776  :     src1 = constants.GetScalarRegisterConstant(src1Index);

	mov	eax, DWORD PTR _src1Index$[ebp]
	push	eax
	mov	ecx, DWORD PTR _constants$[ebp]
	call	?GetScalarRegisterConstant@SuperBlockConstants@@QAEII@Z ; SuperBlockConstants::GetScalarRegisterConstant
	mov	DWORD PTR _src1$[ebp], eax

; 777  :     constants.nuance->fields[FIELD_ALU_HANDLER] = Handler_ADDImmediate;

	mov	ecx, DWORD PTR _constants$[ebp]
	mov	edx, DWORD PTR [ecx+4]
	mov	DWORD PTR [edx], 61			; 0000003dH

; 778  :     constants.nuance->fields[FIELD_ALU_SRC1] = ((int32)src1) >> src2;

	mov	eax, DWORD PTR _src1$[ebp]
	mov	ecx, DWORD PTR _src2$[ebp]
	sar	eax, cl
	mov	ecx, DWORD PTR _constants$[ebp]
	mov	edx, DWORD PTR [ecx+4]
	mov	DWORD PTR [edx+8], eax

; 779  :     constants.nuance->fields[FIELD_ALU_SRC2] = destIndex;

	mov	eax, DWORD PTR _constants$[ebp]
	mov	ecx, DWORD PTR [eax+4]
	mov	edx, DWORD PTR _destIndex$[ebp]
	mov	DWORD PTR [ecx+12], edx

; 780  :     constants.ClearScalarInputDependency(src1Index);

	mov	eax, DWORD PTR _src1Index$[ebp]
	push	eax
	mov	ecx, DWORD PTR _constants$[ebp]
	call	?ClearScalarInputDependency@SuperBlockConstants@@QAEXI@Z ; SuperBlockConstants::ClearScalarInputDependency

; 781  :     constants.SetScalarInputDependency(destIndex);

	mov	ecx, DWORD PTR _destIndex$[ebp]
	push	ecx
	mov	ecx, DWORD PTR _constants$[ebp]
	call	?SetScalarInputDependency@SuperBlockConstants@@QAEXI@Z ; SuperBlockConstants::SetScalarInputDependency

; 782  :     PropagateConstants_ADDImmediate(constants);    

	mov	edx, DWORD PTR _constants$[ebp]
	push	edx
	call	?PropagateConstants_ADDImmediate@@YAXAAVSuperBlockConstants@@@Z ; PropagateConstants_ADDImmediate
	add	esp, 4

; 783  :   }
; 784  :   else

	jmp	SHORT $LN3@PropagateC@20
$LN2@PropagateC@20:

; 785  :   {
; 786  :     constants.status.status = PROPAGATE_CONSTANTS_STATUS_ALU_OK;

	mov	eax, DWORD PTR _constants$[ebp]
	mov	DWORD PTR [eax+12], 2

; 787  :     constants.ClearMiscRegisterConstant(CONSTANT_REG_N);    

	push	18					; 00000012H
	mov	ecx, DWORD PTR _constants$[ebp]
	call	?ClearMiscRegisterConstant@SuperBlockConstants@@QAEXI@Z ; SuperBlockConstants::ClearMiscRegisterConstant

; 788  :     constants.ClearMiscRegisterConstant(CONSTANT_REG_V);    

	push	17					; 00000011H
	mov	ecx, DWORD PTR _constants$[ebp]
	call	?ClearMiscRegisterConstant@SuperBlockConstants@@QAEXI@Z ; SuperBlockConstants::ClearMiscRegisterConstant

; 789  :     constants.ClearMiscRegisterConstant(CONSTANT_REG_C);    

	push	15					; 0000000fH
	mov	ecx, DWORD PTR _constants$[ebp]
	call	?ClearMiscRegisterConstant@SuperBlockConstants@@QAEXI@Z ; SuperBlockConstants::ClearMiscRegisterConstant

; 790  :     constants.ClearMiscRegisterConstant(CONSTANT_REG_Z);    

	push	16					; 00000010H
	mov	ecx, DWORD PTR _constants$[ebp]
	call	?ClearMiscRegisterConstant@SuperBlockConstants@@QAEXI@Z ; SuperBlockConstants::ClearMiscRegisterConstant

; 791  :     constants.ClearScalarRegisterConstant(destIndex);    

	mov	ecx, DWORD PTR _destIndex$[ebp]
	push	ecx
	mov	ecx, DWORD PTR _constants$[ebp]
	call	?ClearScalarRegisterConstant@SuperBlockConstants@@QAEXI@Z ; SuperBlockConstants::ClearScalarRegisterConstant
$LN3@PropagateC@20:

; 792  :   }
; 793  : }

	add	esp, 16					; 00000010H
	cmp	ebp, esp
	call	__RTC_CheckEsp
	mov	esp, ebp
	pop	ebp
	ret	0
?PropagateConstants_ADDScalarShiftRightImmediate@@YAXAAVSuperBlockConstants@@@Z ENDP ; PropagateConstants_ADDScalarShiftRightImmediate
_TEXT	ENDS
PUBLIC	?PropagateConstants_ADDScalarShiftLeftImmediate@@YAXAAVSuperBlockConstants@@@Z ; PropagateConstants_ADDScalarShiftLeftImmediate
; Function compile flags: /Odtp /RTCsu
_TEXT	SEGMENT
_src2$ = -16						; size = 4
_src1$ = -12						; size = 4
_destIndex$ = -8					; size = 4
_src1Index$ = -4					; size = 4
_constants$ = 8						; size = 4
?PropagateConstants_ADDScalarShiftLeftImmediate@@YAXAAVSuperBlockConstants@@@Z PROC ; PropagateConstants_ADDScalarShiftLeftImmediate

; 795  : {

	push	ebp
	mov	ebp, esp
	sub	esp, 16					; 00000010H
	mov	eax, -858993460				; ccccccccH
	mov	DWORD PTR [ebp-16], eax
	mov	DWORD PTR [ebp-12], eax
	mov	DWORD PTR [ebp-8], eax
	mov	DWORD PTR [ebp-4], eax

; 796  :   uint32 src1Index = constants.nuance->fields[FIELD_ALU_SRC1];

	mov	eax, DWORD PTR _constants$[ebp]
	mov	ecx, DWORD PTR [eax+4]
	mov	edx, DWORD PTR [ecx+8]
	mov	DWORD PTR _src1Index$[ebp], edx

; 797  :   uint32 destIndex = constants.nuance->fields[FIELD_ALU_DEST]; 

	mov	eax, DWORD PTR _constants$[ebp]
	mov	ecx, DWORD PTR [eax+4]
	mov	edx, DWORD PTR [ecx+16]
	mov	DWORD PTR _destIndex$[ebp], edx

; 798  :   uint32 src1, src2;
; 799  : 
; 800  :   if(constants.IsScalarRegisterConstant(src1Index) && ALLOW_ALU_PROPAGATION)

	mov	eax, DWORD PTR _src1Index$[ebp]
	push	eax
	mov	ecx, DWORD PTR _constants$[ebp]
	call	?IsScalarRegisterConstant@SuperBlockConstants@@QAE_NI@Z ; SuperBlockConstants::IsScalarRegisterConstant
	movzx	ecx, al
	test	ecx, ecx
	je	SHORT $LN2@PropagateC@21
	mov	edx, 1
	test	edx, edx
	je	SHORT $LN2@PropagateC@21

; 801  :   {
; 802  :     src2 = constants.nuance->fields[FIELD_ALU_SRC2];

	mov	eax, DWORD PTR _constants$[ebp]
	mov	ecx, DWORD PTR [eax+4]
	mov	edx, DWORD PTR [ecx+12]
	mov	DWORD PTR _src2$[ebp], edx

; 803  :     src1 = constants.GetScalarRegisterConstant(src1Index);

	mov	eax, DWORD PTR _src1Index$[ebp]
	push	eax
	mov	ecx, DWORD PTR _constants$[ebp]
	call	?GetScalarRegisterConstant@SuperBlockConstants@@QAEII@Z ; SuperBlockConstants::GetScalarRegisterConstant
	mov	DWORD PTR _src1$[ebp], eax

; 804  :     constants.nuance->fields[FIELD_ALU_HANDLER] = Handler_ADDImmediate;

	mov	ecx, DWORD PTR _constants$[ebp]
	mov	edx, DWORD PTR [ecx+4]
	mov	DWORD PTR [edx], 61			; 0000003dH

; 805  :     constants.nuance->fields[FIELD_ALU_SRC1] = src1 << src2;

	mov	eax, DWORD PTR _src1$[ebp]
	mov	ecx, DWORD PTR _src2$[ebp]
	shl	eax, cl
	mov	ecx, DWORD PTR _constants$[ebp]
	mov	edx, DWORD PTR [ecx+4]
	mov	DWORD PTR [edx+8], eax

; 806  :     constants.nuance->fields[FIELD_ALU_SRC2] = destIndex;

	mov	eax, DWORD PTR _constants$[ebp]
	mov	ecx, DWORD PTR [eax+4]
	mov	edx, DWORD PTR _destIndex$[ebp]
	mov	DWORD PTR [ecx+12], edx

; 807  :     constants.ClearScalarInputDependency(src1Index);

	mov	eax, DWORD PTR _src1Index$[ebp]
	push	eax
	mov	ecx, DWORD PTR _constants$[ebp]
	call	?ClearScalarInputDependency@SuperBlockConstants@@QAEXI@Z ; SuperBlockConstants::ClearScalarInputDependency

; 808  :     constants.SetScalarInputDependency(destIndex);

	mov	ecx, DWORD PTR _destIndex$[ebp]
	push	ecx
	mov	ecx, DWORD PTR _constants$[ebp]
	call	?SetScalarInputDependency@SuperBlockConstants@@QAEXI@Z ; SuperBlockConstants::SetScalarInputDependency

; 809  :     PropagateConstants_ADDImmediate(constants);    

	mov	edx, DWORD PTR _constants$[ebp]
	push	edx
	call	?PropagateConstants_ADDImmediate@@YAXAAVSuperBlockConstants@@@Z ; PropagateConstants_ADDImmediate
	add	esp, 4

; 810  :   }
; 811  :   else

	jmp	SHORT $LN3@PropagateC@21
$LN2@PropagateC@21:

; 812  :   {
; 813  :     constants.status.status = PROPAGATE_CONSTANTS_STATUS_ALU_OK;

	mov	eax, DWORD PTR _constants$[ebp]
	mov	DWORD PTR [eax+12], 2

; 814  :     constants.ClearMiscRegisterConstant(CONSTANT_REG_N);    

	push	18					; 00000012H
	mov	ecx, DWORD PTR _constants$[ebp]
	call	?ClearMiscRegisterConstant@SuperBlockConstants@@QAEXI@Z ; SuperBlockConstants::ClearMiscRegisterConstant

; 815  :     constants.ClearMiscRegisterConstant(CONSTANT_REG_V);    

	push	17					; 00000011H
	mov	ecx, DWORD PTR _constants$[ebp]
	call	?ClearMiscRegisterConstant@SuperBlockConstants@@QAEXI@Z ; SuperBlockConstants::ClearMiscRegisterConstant

; 816  :     constants.ClearMiscRegisterConstant(CONSTANT_REG_C);    

	push	15					; 0000000fH
	mov	ecx, DWORD PTR _constants$[ebp]
	call	?ClearMiscRegisterConstant@SuperBlockConstants@@QAEXI@Z ; SuperBlockConstants::ClearMiscRegisterConstant

; 817  :     constants.ClearMiscRegisterConstant(CONSTANT_REG_Z);    

	push	16					; 00000010H
	mov	ecx, DWORD PTR _constants$[ebp]
	call	?ClearMiscRegisterConstant@SuperBlockConstants@@QAEXI@Z ; SuperBlockConstants::ClearMiscRegisterConstant

; 818  :     constants.ClearScalarRegisterConstant(destIndex);    

	mov	ecx, DWORD PTR _destIndex$[ebp]
	push	ecx
	mov	ecx, DWORD PTR _constants$[ebp]
	call	?ClearScalarRegisterConstant@SuperBlockConstants@@QAEXI@Z ; SuperBlockConstants::ClearScalarRegisterConstant
$LN3@PropagateC@21:

; 819  :   }
; 820  : }

	add	esp, 16					; 00000010H
	cmp	ebp, esp
	call	__RTC_CheckEsp
	mov	esp, ebp
	pop	ebp
	ret	0
?PropagateConstants_ADDScalarShiftLeftImmediate@@YAXAAVSuperBlockConstants@@@Z ENDP ; PropagateConstants_ADDScalarShiftLeftImmediate
_TEXT	ENDS
PUBLIC	?PropagateConstants_SUBImmediate@@YAXAAVSuperBlockConstants@@@Z ; PropagateConstants_SUBImmediate
; Function compile flags: /Odtp /RTCsu
_TEXT	SEGMENT
tv218 = -60						; size = 8
tv207 = -52						; size = 8
tv186 = -44						; size = 8
_destValue$ = -36					; size = 8
_src2$ = -28						; size = 8
_src1$ = -20						; size = 8
_flagValues$ = -12					; size = 4
_destIndex$ = -8					; size = 4
_src2Index$ = -4					; size = 4
_constants$ = 8						; size = 4
?PropagateConstants_SUBImmediate@@YAXAAVSuperBlockConstants@@@Z PROC ; PropagateConstants_SUBImmediate

; 822  : {

	push	ebp
	mov	ebp, esp
	sub	esp, 60					; 0000003cH
	push	edi
	lea	edi, DWORD PTR [ebp-60]
	mov	ecx, 15					; 0000000fH
	mov	eax, -858993460				; ccccccccH
	rep stosd

; 823  :   uint32 src2Index = constants.nuance->fields[FIELD_ALU_SRC2];

	mov	eax, DWORD PTR _constants$[ebp]
	mov	ecx, DWORD PTR [eax+4]
	mov	edx, DWORD PTR [ecx+12]
	mov	DWORD PTR _src2Index$[ebp], edx

; 824  :   uint32 destIndex = constants.nuance->fields[FIELD_ALU_DEST]; 

	mov	eax, DWORD PTR _constants$[ebp]
	mov	ecx, DWORD PTR [eax+4]
	mov	edx, DWORD PTR [ecx+16]
	mov	DWORD PTR _destIndex$[ebp], edx

; 825  :   uint32 flagValues = 0;

	mov	DWORD PTR _flagValues$[ebp], 0

; 826  :   uint64 src1, src2, destValue;
; 827  : 
; 828  :   if(constants.IsScalarRegisterConstant(src2Index) && ALLOW_ALU_PROPAGATION)

	mov	eax, DWORD PTR _src2Index$[ebp]
	push	eax
	mov	ecx, DWORD PTR _constants$[ebp]
	call	?IsScalarRegisterConstant@SuperBlockConstants@@QAE_NI@Z ; SuperBlockConstants::IsScalarRegisterConstant
	movzx	ecx, al
	test	ecx, ecx
	je	$LN8@PropagateC@22
	mov	edx, 1
	test	edx, edx
	je	$LN8@PropagateC@22

; 829  :   {
; 830  :     src1 = constants.nuance->fields[FIELD_ALU_SRC1];

	mov	eax, DWORD PTR _constants$[ebp]
	mov	ecx, DWORD PTR [eax+4]
	mov	edx, DWORD PTR [ecx+8]
	xor	eax, eax
	mov	DWORD PTR _src1$[ebp], edx
	mov	DWORD PTR _src1$[ebp+4], eax

; 831  :     src2 = constants.GetScalarRegisterConstant(src2Index);

	mov	ecx, DWORD PTR _src2Index$[ebp]
	push	ecx
	mov	ecx, DWORD PTR _constants$[ebp]
	call	?GetScalarRegisterConstant@SuperBlockConstants@@QAEII@Z ; SuperBlockConstants::GetScalarRegisterConstant
	xor	edx, edx
	mov	DWORD PTR _src2$[ebp], eax
	mov	DWORD PTR _src2$[ebp+4], edx

; 832  :     destValue = src2 - src1;

	mov	eax, DWORD PTR _src2$[ebp]
	sub	eax, DWORD PTR _src1$[ebp]
	mov	ecx, DWORD PTR _src2$[ebp+4]
	sbb	ecx, DWORD PTR _src1$[ebp+4]
	mov	DWORD PTR _destValue$[ebp], eax
	mov	DWORD PTR _destValue$[ebp+4], ecx

; 833  :     if(destValue & (uint64)0x0000000100000000)

	mov	edx, DWORD PTR _destValue$[ebp]
	and	edx, 0
	mov	eax, DWORD PTR _destValue$[ebp+4]
	and	eax, 1
	mov	DWORD PTR tv186[ebp], edx
	mov	DWORD PTR tv186[ebp+4], eax
	mov	ecx, DWORD PTR tv186[ebp]
	or	ecx, DWORD PTR tv186[ebp+4]
	je	SHORT $LN7@PropagateC@22

; 834  :     {
; 835  :       flagValues = CC_ALU_CARRY;

	mov	DWORD PTR _flagValues$[ebp], 2
$LN7@PropagateC@22:

; 836  :     }
; 837  : 
; 838  :     if(((int32)(src1 ^ src2)) < 0)

	mov	edx, DWORD PTR _src1$[ebp]
	xor	edx, DWORD PTR _src2$[ebp]
	mov	eax, DWORD PTR _src1$[ebp+4]
	xor	eax, DWORD PTR _src2$[ebp+4]
	test	edx, edx
	jge	SHORT $LN6@PropagateC@22

; 839  :     {
; 840  :       if(((int32)(src2 ^ (destValue & 0xFFFFFFFFUL))) < 0)

	mov	ecx, DWORD PTR _destValue$[ebp]
	mov	edx, DWORD PTR _destValue$[ebp+4]
	and	edx, 0
	xor	ecx, DWORD PTR _src2$[ebp]
	xor	edx, DWORD PTR _src2$[ebp+4]
	test	ecx, ecx
	jge	SHORT $LN6@PropagateC@22

; 841  :       {
; 842  :         flagValues |= CC_ALU_OVERFLOW;

	mov	eax, DWORD PTR _flagValues$[ebp]
	or	eax, 4
	mov	DWORD PTR _flagValues$[ebp], eax
$LN6@PropagateC@22:

; 843  :       }
; 844  :     }
; 845  : 
; 846  :     if(destValue & (uint64)0x0000000080000000)

	mov	ecx, DWORD PTR _destValue$[ebp]
	and	ecx, -2147483648			; 80000000H
	mov	edx, DWORD PTR _destValue$[ebp+4]
	and	edx, 0
	mov	DWORD PTR tv207[ebp], ecx
	mov	DWORD PTR tv207[ebp+4], edx
	mov	eax, DWORD PTR tv207[ebp]
	or	eax, DWORD PTR tv207[ebp+4]
	je	SHORT $LN4@PropagateC@22

; 847  :     {
; 848  :       flagValues |= CC_ALU_NEGATIVE;

	mov	ecx, DWORD PTR _flagValues$[ebp]
	or	ecx, 8
	mov	DWORD PTR _flagValues$[ebp], ecx
	jmp	SHORT $LN3@PropagateC@22
$LN4@PropagateC@22:

; 849  :     }
; 850  :     else if(!(destValue & (uint64)0x00000000FFFFFFFF))

	mov	edx, DWORD PTR _destValue$[ebp]
	mov	eax, DWORD PTR _destValue$[ebp+4]
	and	eax, 0
	mov	DWORD PTR tv218[ebp], edx
	mov	DWORD PTR tv218[ebp+4], eax
	mov	ecx, DWORD PTR tv218[ebp]
	or	ecx, DWORD PTR tv218[ebp+4]
	jne	SHORT $LN3@PropagateC@22

; 851  :     {
; 852  :       flagValues |= CC_ALU_ZERO;

	mov	edx, DWORD PTR _flagValues$[ebp]
	or	edx, 1
	mov	DWORD PTR _flagValues$[ebp], edx
$LN3@PropagateC@22:

; 853  :     }
; 854  :     constants.nuance->fields[FIELD_CONSTANT_HANDLER] = Handler_StoreScalarRegisterConstant;

	mov	eax, DWORD PTR _constants$[ebp]
	mov	ecx, DWORD PTR [eax+4]
	mov	DWORD PTR [ecx], 217			; 000000d9H

; 855  :     constants.nuance->fields[FIELD_CONSTANT_ADDRESS] = destIndex;

	mov	edx, DWORD PTR _constants$[ebp]
	mov	eax, DWORD PTR [edx+4]
	mov	ecx, DWORD PTR _destIndex$[ebp]
	mov	DWORD PTR [eax+4], ecx

; 856  :     constants.nuance->fields[FIELD_CONSTANT_VALUE] = destValue;

	mov	edx, DWORD PTR _destValue$[ebp]
	mov	eax, DWORD PTR _constants$[ebp]
	mov	ecx, DWORD PTR [eax+4]
	mov	DWORD PTR [ecx+8], edx

; 857  :     constants.nuance->fields[FIELD_CONSTANT_FLAGMASK] = CC_ALU_NEGATIVE | CC_ALU_ZERO | CC_ALU_OVERFLOW | CC_ALU_CARRY;

	mov	edx, DWORD PTR _constants$[ebp]
	mov	eax, DWORD PTR [edx+4]
	mov	DWORD PTR [eax+12], 15			; 0000000fH

; 858  :     constants.nuance->fields[FIELD_CONSTANT_FLAGVALUES] = flagValues;

	mov	ecx, DWORD PTR _constants$[ebp]
	mov	edx, DWORD PTR [ecx+4]
	mov	eax, DWORD PTR _flagValues$[ebp]
	mov	DWORD PTR [edx+16], eax

; 859  :     constants.ClearScalarInputDependency(src2Index);

	mov	ecx, DWORD PTR _src2Index$[ebp]
	push	ecx
	mov	ecx, DWORD PTR _constants$[ebp]
	call	?ClearScalarInputDependency@SuperBlockConstants@@QAEXI@Z ; SuperBlockConstants::ClearScalarInputDependency

; 860  :     PropagateConstants_StoreScalarRegisterConstant(constants);    

	mov	edx, DWORD PTR _constants$[ebp]
	push	edx
	call	?PropagateConstants_StoreScalarRegisterConstant@@YAXAAVSuperBlockConstants@@@Z ; PropagateConstants_StoreScalarRegisterConstant
	add	esp, 4

; 861  :   }
; 862  :   else

	jmp	SHORT $LN9@PropagateC@22
$LN8@PropagateC@22:

; 863  :   {
; 864  :     constants.status.status = PROPAGATE_CONSTANTS_STATUS_ALU_OK;

	mov	eax, DWORD PTR _constants$[ebp]
	mov	DWORD PTR [eax+12], 2

; 865  :     constants.ClearMiscRegisterConstant(CONSTANT_REG_N);    

	push	18					; 00000012H
	mov	ecx, DWORD PTR _constants$[ebp]
	call	?ClearMiscRegisterConstant@SuperBlockConstants@@QAEXI@Z ; SuperBlockConstants::ClearMiscRegisterConstant

; 866  :     constants.ClearMiscRegisterConstant(CONSTANT_REG_V);    

	push	17					; 00000011H
	mov	ecx, DWORD PTR _constants$[ebp]
	call	?ClearMiscRegisterConstant@SuperBlockConstants@@QAEXI@Z ; SuperBlockConstants::ClearMiscRegisterConstant

; 867  :     constants.ClearMiscRegisterConstant(CONSTANT_REG_C);    

	push	15					; 0000000fH
	mov	ecx, DWORD PTR _constants$[ebp]
	call	?ClearMiscRegisterConstant@SuperBlockConstants@@QAEXI@Z ; SuperBlockConstants::ClearMiscRegisterConstant

; 868  :     constants.ClearMiscRegisterConstant(CONSTANT_REG_Z);    

	push	16					; 00000010H
	mov	ecx, DWORD PTR _constants$[ebp]
	call	?ClearMiscRegisterConstant@SuperBlockConstants@@QAEXI@Z ; SuperBlockConstants::ClearMiscRegisterConstant

; 869  :     constants.ClearScalarRegisterConstant(destIndex);    

	mov	ecx, DWORD PTR _destIndex$[ebp]
	push	ecx
	mov	ecx, DWORD PTR _constants$[ebp]
	call	?ClearScalarRegisterConstant@SuperBlockConstants@@QAEXI@Z ; SuperBlockConstants::ClearScalarRegisterConstant
$LN9@PropagateC@22:

; 870  :   }
; 871  : }

	pop	edi
	add	esp, 60					; 0000003cH
	cmp	ebp, esp
	call	__RTC_CheckEsp
	mov	esp, ebp
	pop	ebp
	ret	0
?PropagateConstants_SUBImmediate@@YAXAAVSuperBlockConstants@@@Z ENDP ; PropagateConstants_SUBImmediate
_TEXT	ENDS
PUBLIC	?PropagateConstants_SUBImmediateReverse@@YAXAAVSuperBlockConstants@@@Z ; PropagateConstants_SUBImmediateReverse
; Function compile flags: /Odtp /RTCsu
_TEXT	SEGMENT
tv218 = -60						; size = 8
tv207 = -52						; size = 8
tv186 = -44						; size = 8
_destValue$ = -36					; size = 8
_src2$ = -28						; size = 8
_src1$ = -20						; size = 8
_flagValues$ = -12					; size = 4
_destIndex$ = -8					; size = 4
_src1Index$ = -4					; size = 4
_constants$ = 8						; size = 4
?PropagateConstants_SUBImmediateReverse@@YAXAAVSuperBlockConstants@@@Z PROC ; PropagateConstants_SUBImmediateReverse

; 873  : {

	push	ebp
	mov	ebp, esp
	sub	esp, 60					; 0000003cH
	push	edi
	lea	edi, DWORD PTR [ebp-60]
	mov	ecx, 15					; 0000000fH
	mov	eax, -858993460				; ccccccccH
	rep stosd

; 874  :   uint32 src1Index = constants.nuance->fields[FIELD_ALU_SRC1];

	mov	eax, DWORD PTR _constants$[ebp]
	mov	ecx, DWORD PTR [eax+4]
	mov	edx, DWORD PTR [ecx+8]
	mov	DWORD PTR _src1Index$[ebp], edx

; 875  :   uint32 destIndex = constants.nuance->fields[FIELD_ALU_DEST]; 

	mov	eax, DWORD PTR _constants$[ebp]
	mov	ecx, DWORD PTR [eax+4]
	mov	edx, DWORD PTR [ecx+16]
	mov	DWORD PTR _destIndex$[ebp], edx

; 876  :   uint32 flagValues = 0;

	mov	DWORD PTR _flagValues$[ebp], 0

; 877  :   uint64 src1, src2, destValue;
; 878  : 
; 879  :   if(constants.IsScalarRegisterConstant(src1Index) && ALLOW_ALU_PROPAGATION)

	mov	eax, DWORD PTR _src1Index$[ebp]
	push	eax
	mov	ecx, DWORD PTR _constants$[ebp]
	call	?IsScalarRegisterConstant@SuperBlockConstants@@QAE_NI@Z ; SuperBlockConstants::IsScalarRegisterConstant
	movzx	ecx, al
	test	ecx, ecx
	je	$LN8@PropagateC@23
	mov	edx, 1
	test	edx, edx
	je	$LN8@PropagateC@23

; 880  :   {
; 881  :     src2 = constants.nuance->fields[FIELD_ALU_SRC2];

	mov	eax, DWORD PTR _constants$[ebp]
	mov	ecx, DWORD PTR [eax+4]
	mov	edx, DWORD PTR [ecx+12]
	xor	eax, eax
	mov	DWORD PTR _src2$[ebp], edx
	mov	DWORD PTR _src2$[ebp+4], eax

; 882  :     src1 = constants.GetScalarRegisterConstant(src1Index);

	mov	ecx, DWORD PTR _src1Index$[ebp]
	push	ecx
	mov	ecx, DWORD PTR _constants$[ebp]
	call	?GetScalarRegisterConstant@SuperBlockConstants@@QAEII@Z ; SuperBlockConstants::GetScalarRegisterConstant
	xor	edx, edx
	mov	DWORD PTR _src1$[ebp], eax
	mov	DWORD PTR _src1$[ebp+4], edx

; 883  :     destValue = src2 - src1;

	mov	eax, DWORD PTR _src2$[ebp]
	sub	eax, DWORD PTR _src1$[ebp]
	mov	ecx, DWORD PTR _src2$[ebp+4]
	sbb	ecx, DWORD PTR _src1$[ebp+4]
	mov	DWORD PTR _destValue$[ebp], eax
	mov	DWORD PTR _destValue$[ebp+4], ecx

; 884  :     if(destValue & (uint64)0x0000000100000000)

	mov	edx, DWORD PTR _destValue$[ebp]
	and	edx, 0
	mov	eax, DWORD PTR _destValue$[ebp+4]
	and	eax, 1
	mov	DWORD PTR tv186[ebp], edx
	mov	DWORD PTR tv186[ebp+4], eax
	mov	ecx, DWORD PTR tv186[ebp]
	or	ecx, DWORD PTR tv186[ebp+4]
	je	SHORT $LN7@PropagateC@23

; 885  :     {
; 886  :       flagValues = CC_ALU_CARRY;

	mov	DWORD PTR _flagValues$[ebp], 2
$LN7@PropagateC@23:

; 887  :     }
; 888  : 
; 889  :     if(((int32)(src1 ^ src2)) < 0)

	mov	edx, DWORD PTR _src1$[ebp]
	xor	edx, DWORD PTR _src2$[ebp]
	mov	eax, DWORD PTR _src1$[ebp+4]
	xor	eax, DWORD PTR _src2$[ebp+4]
	test	edx, edx
	jge	SHORT $LN6@PropagateC@23

; 890  :     {
; 891  :       if(((int32)(src2 ^ (destValue & 0xFFFFFFFFUL))) < 0)

	mov	ecx, DWORD PTR _destValue$[ebp]
	mov	edx, DWORD PTR _destValue$[ebp+4]
	and	edx, 0
	xor	ecx, DWORD PTR _src2$[ebp]
	xor	edx, DWORD PTR _src2$[ebp+4]
	test	ecx, ecx
	jge	SHORT $LN6@PropagateC@23

; 892  :       {
; 893  :         flagValues |= CC_ALU_OVERFLOW;

	mov	eax, DWORD PTR _flagValues$[ebp]
	or	eax, 4
	mov	DWORD PTR _flagValues$[ebp], eax
$LN6@PropagateC@23:

; 894  :       }
; 895  :     }
; 896  : 
; 897  :     if(destValue & (uint64)0x0000000080000000)

	mov	ecx, DWORD PTR _destValue$[ebp]
	and	ecx, -2147483648			; 80000000H
	mov	edx, DWORD PTR _destValue$[ebp+4]
	and	edx, 0
	mov	DWORD PTR tv207[ebp], ecx
	mov	DWORD PTR tv207[ebp+4], edx
	mov	eax, DWORD PTR tv207[ebp]
	or	eax, DWORD PTR tv207[ebp+4]
	je	SHORT $LN4@PropagateC@23

; 898  :     {
; 899  :       flagValues |= CC_ALU_NEGATIVE;

	mov	ecx, DWORD PTR _flagValues$[ebp]
	or	ecx, 8
	mov	DWORD PTR _flagValues$[ebp], ecx
	jmp	SHORT $LN3@PropagateC@23
$LN4@PropagateC@23:

; 900  :     }
; 901  :     else if(!(destValue & (uint64)0x00000000FFFFFFFF))

	mov	edx, DWORD PTR _destValue$[ebp]
	mov	eax, DWORD PTR _destValue$[ebp+4]
	and	eax, 0
	mov	DWORD PTR tv218[ebp], edx
	mov	DWORD PTR tv218[ebp+4], eax
	mov	ecx, DWORD PTR tv218[ebp]
	or	ecx, DWORD PTR tv218[ebp+4]
	jne	SHORT $LN3@PropagateC@23

; 902  :     {
; 903  :       flagValues |= CC_ALU_ZERO;

	mov	edx, DWORD PTR _flagValues$[ebp]
	or	edx, 1
	mov	DWORD PTR _flagValues$[ebp], edx
$LN3@PropagateC@23:

; 904  :     }
; 905  :     constants.nuance->fields[FIELD_CONSTANT_HANDLER] = Handler_StoreScalarRegisterConstant;

	mov	eax, DWORD PTR _constants$[ebp]
	mov	ecx, DWORD PTR [eax+4]
	mov	DWORD PTR [ecx], 217			; 000000d9H

; 906  :     constants.nuance->fields[FIELD_CONSTANT_ADDRESS] = destIndex;

	mov	edx, DWORD PTR _constants$[ebp]
	mov	eax, DWORD PTR [edx+4]
	mov	ecx, DWORD PTR _destIndex$[ebp]
	mov	DWORD PTR [eax+4], ecx

; 907  :     constants.nuance->fields[FIELD_CONSTANT_VALUE] = destValue;

	mov	edx, DWORD PTR _destValue$[ebp]
	mov	eax, DWORD PTR _constants$[ebp]
	mov	ecx, DWORD PTR [eax+4]
	mov	DWORD PTR [ecx+8], edx

; 908  :     constants.nuance->fields[FIELD_CONSTANT_FLAGMASK] = CC_ALU_NEGATIVE | CC_ALU_ZERO | CC_ALU_OVERFLOW | CC_ALU_CARRY;

	mov	edx, DWORD PTR _constants$[ebp]
	mov	eax, DWORD PTR [edx+4]
	mov	DWORD PTR [eax+12], 15			; 0000000fH

; 909  :     constants.nuance->fields[FIELD_CONSTANT_FLAGVALUES] = flagValues;

	mov	ecx, DWORD PTR _constants$[ebp]
	mov	edx, DWORD PTR [ecx+4]
	mov	eax, DWORD PTR _flagValues$[ebp]
	mov	DWORD PTR [edx+16], eax

; 910  :     constants.ClearScalarInputDependency(src1Index);

	mov	ecx, DWORD PTR _src1Index$[ebp]
	push	ecx
	mov	ecx, DWORD PTR _constants$[ebp]
	call	?ClearScalarInputDependency@SuperBlockConstants@@QAEXI@Z ; SuperBlockConstants::ClearScalarInputDependency

; 911  :     PropagateConstants_StoreScalarRegisterConstant(constants);    

	mov	edx, DWORD PTR _constants$[ebp]
	push	edx
	call	?PropagateConstants_StoreScalarRegisterConstant@@YAXAAVSuperBlockConstants@@@Z ; PropagateConstants_StoreScalarRegisterConstant
	add	esp, 4

; 912  :   }
; 913  :   else

	jmp	SHORT $LN9@PropagateC@23
$LN8@PropagateC@23:

; 914  :   {
; 915  :     constants.status.status = PROPAGATE_CONSTANTS_STATUS_ALU_OK;

	mov	eax, DWORD PTR _constants$[ebp]
	mov	DWORD PTR [eax+12], 2

; 916  :     constants.ClearMiscRegisterConstant(CONSTANT_REG_N);    

	push	18					; 00000012H
	mov	ecx, DWORD PTR _constants$[ebp]
	call	?ClearMiscRegisterConstant@SuperBlockConstants@@QAEXI@Z ; SuperBlockConstants::ClearMiscRegisterConstant

; 917  :     constants.ClearMiscRegisterConstant(CONSTANT_REG_V);    

	push	17					; 00000011H
	mov	ecx, DWORD PTR _constants$[ebp]
	call	?ClearMiscRegisterConstant@SuperBlockConstants@@QAEXI@Z ; SuperBlockConstants::ClearMiscRegisterConstant

; 918  :     constants.ClearMiscRegisterConstant(CONSTANT_REG_C);    

	push	15					; 0000000fH
	mov	ecx, DWORD PTR _constants$[ebp]
	call	?ClearMiscRegisterConstant@SuperBlockConstants@@QAEXI@Z ; SuperBlockConstants::ClearMiscRegisterConstant

; 919  :     constants.ClearMiscRegisterConstant(CONSTANT_REG_Z);    

	push	16					; 00000010H
	mov	ecx, DWORD PTR _constants$[ebp]
	call	?ClearMiscRegisterConstant@SuperBlockConstants@@QAEXI@Z ; SuperBlockConstants::ClearMiscRegisterConstant

; 920  :     constants.ClearScalarRegisterConstant(destIndex);    

	mov	ecx, DWORD PTR _destIndex$[ebp]
	push	ecx
	mov	ecx, DWORD PTR _constants$[ebp]
	call	?ClearScalarRegisterConstant@SuperBlockConstants@@QAEXI@Z ; SuperBlockConstants::ClearScalarRegisterConstant
$LN9@PropagateC@23:

; 921  :   }
; 922  : }

	pop	edi
	add	esp, 60					; 0000003cH
	cmp	ebp, esp
	call	__RTC_CheckEsp
	mov	esp, ebp
	pop	ebp
	ret	0
?PropagateConstants_SUBImmediateReverse@@YAXAAVSuperBlockConstants@@@Z ENDP ; PropagateConstants_SUBImmediateReverse
_TEXT	ENDS
PUBLIC	?PropagateConstants_SUBScalar@@YAXAAVSuperBlockConstants@@@Z ; PropagateConstants_SUBScalar
; Function compile flags: /Odtp /RTCsu
_TEXT	SEGMENT
_src2$ = -20						; size = 4
_src1$ = -16						; size = 4
_destIndex$ = -12					; size = 4
_src2Index$ = -8					; size = 4
_src1Index$ = -4					; size = 4
_constants$ = 8						; size = 4
?PropagateConstants_SUBScalar@@YAXAAVSuperBlockConstants@@@Z PROC ; PropagateConstants_SUBScalar

; 924  : {

	push	ebp
	mov	ebp, esp
	sub	esp, 20					; 00000014H
	mov	eax, -858993460				; ccccccccH
	mov	DWORD PTR [ebp-20], eax
	mov	DWORD PTR [ebp-16], eax
	mov	DWORD PTR [ebp-12], eax
	mov	DWORD PTR [ebp-8], eax
	mov	DWORD PTR [ebp-4], eax

; 925  :   uint32 src1Index = constants.nuance->fields[FIELD_ALU_SRC1];

	mov	eax, DWORD PTR _constants$[ebp]
	mov	ecx, DWORD PTR [eax+4]
	mov	edx, DWORD PTR [ecx+8]
	mov	DWORD PTR _src1Index$[ebp], edx

; 926  :   uint32 src2Index = constants.nuance->fields[FIELD_ALU_SRC2];

	mov	eax, DWORD PTR _constants$[ebp]
	mov	ecx, DWORD PTR [eax+4]
	mov	edx, DWORD PTR [ecx+12]
	mov	DWORD PTR _src2Index$[ebp], edx

; 927  :   uint32 destIndex = constants.nuance->fields[FIELD_ALU_DEST]; 

	mov	eax, DWORD PTR _constants$[ebp]
	mov	ecx, DWORD PTR [eax+4]
	mov	edx, DWORD PTR [ecx+16]
	mov	DWORD PTR _destIndex$[ebp], edx

; 928  :   uint32 src1, src2;
; 929  : 
; 930  :   if((src1Index == src2Index) && ALLOW_ALU_PROPAGATION)

	mov	eax, DWORD PTR _src1Index$[ebp]
	cmp	eax, DWORD PTR _src2Index$[ebp]
	jne	SHORT $LN6@PropagateC@24
	mov	ecx, 1
	test	ecx, ecx
	je	SHORT $LN6@PropagateC@24

; 931  :   {
; 932  :     constants.nuance->fields[FIELD_CONSTANT_HANDLER] = Handler_StoreScalarRegisterConstant;

	mov	edx, DWORD PTR _constants$[ebp]
	mov	eax, DWORD PTR [edx+4]
	mov	DWORD PTR [eax], 217			; 000000d9H

; 933  :     constants.nuance->fields[FIELD_CONSTANT_ADDRESS] = destIndex;

	mov	ecx, DWORD PTR _constants$[ebp]
	mov	edx, DWORD PTR [ecx+4]
	mov	eax, DWORD PTR _destIndex$[ebp]
	mov	DWORD PTR [edx+4], eax

; 934  :     constants.nuance->fields[FIELD_CONSTANT_VALUE] = 0;

	mov	ecx, DWORD PTR _constants$[ebp]
	mov	edx, DWORD PTR [ecx+4]
	mov	DWORD PTR [edx+8], 0

; 935  :     constants.nuance->fields[FIELD_CONSTANT_FLAGMASK] = CC_ALU_NEGATIVE | CC_ALU_ZERO | CC_ALU_OVERFLOW | CC_ALU_CARRY;

	mov	eax, DWORD PTR _constants$[ebp]
	mov	ecx, DWORD PTR [eax+4]
	mov	DWORD PTR [ecx+12], 15			; 0000000fH

; 936  :     constants.nuance->fields[FIELD_CONSTANT_FLAGVALUES] = CC_ALU_ZERO;

	mov	edx, DWORD PTR _constants$[ebp]
	mov	eax, DWORD PTR [edx+4]
	mov	DWORD PTR [eax+16], 1

; 937  :     constants.ClearScalarInputDependency(src2Index);

	mov	ecx, DWORD PTR _src2Index$[ebp]
	push	ecx
	mov	ecx, DWORD PTR _constants$[ebp]
	call	?ClearScalarInputDependency@SuperBlockConstants@@QAEXI@Z ; SuperBlockConstants::ClearScalarInputDependency

; 938  :     constants.ClearScalarInputDependency(src1Index);

	mov	edx, DWORD PTR _src1Index$[ebp]
	push	edx
	mov	ecx, DWORD PTR _constants$[ebp]
	call	?ClearScalarInputDependency@SuperBlockConstants@@QAEXI@Z ; SuperBlockConstants::ClearScalarInputDependency

; 939  :     PropagateConstants_StoreScalarRegisterConstant(constants);      

	mov	eax, DWORD PTR _constants$[ebp]
	push	eax
	call	?PropagateConstants_StoreScalarRegisterConstant@@YAXAAVSuperBlockConstants@@@Z ; PropagateConstants_StoreScalarRegisterConstant
	add	esp, 4
	jmp	$LN7@PropagateC@24
$LN6@PropagateC@24:

; 940  :   }
; 941  :   else if(constants.IsScalarRegisterConstant(src1Index) && ALLOW_ALU_PROPAGATION)

	mov	ecx, DWORD PTR _src1Index$[ebp]
	push	ecx
	mov	ecx, DWORD PTR _constants$[ebp]
	call	?IsScalarRegisterConstant@SuperBlockConstants@@QAE_NI@Z ; SuperBlockConstants::IsScalarRegisterConstant
	movzx	edx, al
	test	edx, edx
	je	SHORT $LN4@PropagateC@24
	mov	eax, 1
	test	eax, eax
	je	SHORT $LN4@PropagateC@24

; 942  :   {
; 943  :     src1 = constants.GetScalarRegisterConstant(src1Index);

	mov	ecx, DWORD PTR _src1Index$[ebp]
	push	ecx
	mov	ecx, DWORD PTR _constants$[ebp]
	call	?GetScalarRegisterConstant@SuperBlockConstants@@QAEII@Z ; SuperBlockConstants::GetScalarRegisterConstant
	mov	DWORD PTR _src1$[ebp], eax

; 944  :     constants.nuance->fields[FIELD_ALU_HANDLER] = Handler_SUBImmediate;

	mov	edx, DWORD PTR _constants$[ebp]
	mov	eax, DWORD PTR [edx+4]
	mov	DWORD PTR [eax], 65			; 00000041H

; 945  :     constants.nuance->fields[FIELD_ALU_SRC1] = src1;

	mov	ecx, DWORD PTR _constants$[ebp]
	mov	edx, DWORD PTR [ecx+4]
	mov	eax, DWORD PTR _src1$[ebp]
	mov	DWORD PTR [edx+8], eax

; 946  :     constants.ClearScalarInputDependency(src1Index);

	mov	ecx, DWORD PTR _src1Index$[ebp]
	push	ecx
	mov	ecx, DWORD PTR _constants$[ebp]
	call	?ClearScalarInputDependency@SuperBlockConstants@@QAEXI@Z ; SuperBlockConstants::ClearScalarInputDependency

; 947  :     constants.SetScalarInputDependency(src2Index);

	mov	edx, DWORD PTR _src2Index$[ebp]
	push	edx
	mov	ecx, DWORD PTR _constants$[ebp]
	call	?SetScalarInputDependency@SuperBlockConstants@@QAEXI@Z ; SuperBlockConstants::SetScalarInputDependency

; 948  :     PropagateConstants_SUBImmediate(constants);    

	mov	eax, DWORD PTR _constants$[ebp]
	push	eax
	call	?PropagateConstants_SUBImmediate@@YAXAAVSuperBlockConstants@@@Z ; PropagateConstants_SUBImmediate
	add	esp, 4
	jmp	$LN7@PropagateC@24
$LN4@PropagateC@24:

; 949  :   }
; 950  :   else if(constants.IsScalarRegisterConstant(src2Index) && ALLOW_ALU_PROPAGATION)

	mov	ecx, DWORD PTR _src2Index$[ebp]
	push	ecx
	mov	ecx, DWORD PTR _constants$[ebp]
	call	?IsScalarRegisterConstant@SuperBlockConstants@@QAE_NI@Z ; SuperBlockConstants::IsScalarRegisterConstant
	movzx	edx, al
	test	edx, edx
	je	SHORT $LN2@PropagateC@24
	mov	eax, 1
	test	eax, eax
	je	SHORT $LN2@PropagateC@24

; 951  :   {
; 952  :     src2 = constants.GetScalarRegisterConstant(src2Index);

	mov	ecx, DWORD PTR _src2Index$[ebp]
	push	ecx
	mov	ecx, DWORD PTR _constants$[ebp]
	call	?GetScalarRegisterConstant@SuperBlockConstants@@QAEII@Z ; SuperBlockConstants::GetScalarRegisterConstant
	mov	DWORD PTR _src2$[ebp], eax

; 953  :     constants.nuance->fields[FIELD_ALU_HANDLER] = Handler_SUBImmediateReverse;

	mov	edx, DWORD PTR _constants$[ebp]
	mov	eax, DWORD PTR [edx+4]
	mov	DWORD PTR [eax], 66			; 00000042H

; 954  :     constants.nuance->fields[FIELD_ALU_SRC2] = src2;

	mov	ecx, DWORD PTR _constants$[ebp]
	mov	edx, DWORD PTR [ecx+4]
	mov	eax, DWORD PTR _src2$[ebp]
	mov	DWORD PTR [edx+12], eax

; 955  :     constants.ClearScalarInputDependency(src2Index);

	mov	ecx, DWORD PTR _src2Index$[ebp]
	push	ecx
	mov	ecx, DWORD PTR _constants$[ebp]
	call	?ClearScalarInputDependency@SuperBlockConstants@@QAEXI@Z ; SuperBlockConstants::ClearScalarInputDependency

; 956  :     constants.SetScalarInputDependency(src1Index);

	mov	edx, DWORD PTR _src1Index$[ebp]
	push	edx
	mov	ecx, DWORD PTR _constants$[ebp]
	call	?SetScalarInputDependency@SuperBlockConstants@@QAEXI@Z ; SuperBlockConstants::SetScalarInputDependency

; 957  :     PropagateConstants_SUBImmediateReverse(constants);    

	mov	eax, DWORD PTR _constants$[ebp]
	push	eax
	call	?PropagateConstants_SUBImmediateReverse@@YAXAAVSuperBlockConstants@@@Z ; PropagateConstants_SUBImmediateReverse
	add	esp, 4

; 958  :   }
; 959  :   else

	jmp	SHORT $LN7@PropagateC@24
$LN2@PropagateC@24:

; 960  :   {
; 961  :     constants.status.status = PROPAGATE_CONSTANTS_STATUS_ALU_OK;

	mov	ecx, DWORD PTR _constants$[ebp]
	mov	DWORD PTR [ecx+12], 2

; 962  :     constants.ClearMiscRegisterConstant(CONSTANT_REG_N);    

	push	18					; 00000012H
	mov	ecx, DWORD PTR _constants$[ebp]
	call	?ClearMiscRegisterConstant@SuperBlockConstants@@QAEXI@Z ; SuperBlockConstants::ClearMiscRegisterConstant

; 963  :     constants.ClearMiscRegisterConstant(CONSTANT_REG_V);    

	push	17					; 00000011H
	mov	ecx, DWORD PTR _constants$[ebp]
	call	?ClearMiscRegisterConstant@SuperBlockConstants@@QAEXI@Z ; SuperBlockConstants::ClearMiscRegisterConstant

; 964  :     constants.ClearMiscRegisterConstant(CONSTANT_REG_C);    

	push	15					; 0000000fH
	mov	ecx, DWORD PTR _constants$[ebp]
	call	?ClearMiscRegisterConstant@SuperBlockConstants@@QAEXI@Z ; SuperBlockConstants::ClearMiscRegisterConstant

; 965  :     constants.ClearMiscRegisterConstant(CONSTANT_REG_Z);    

	push	16					; 00000010H
	mov	ecx, DWORD PTR _constants$[ebp]
	call	?ClearMiscRegisterConstant@SuperBlockConstants@@QAEXI@Z ; SuperBlockConstants::ClearMiscRegisterConstant

; 966  :     constants.ClearScalarRegisterConstant(destIndex);    

	mov	edx, DWORD PTR _destIndex$[ebp]
	push	edx
	mov	ecx, DWORD PTR _constants$[ebp]
	call	?ClearScalarRegisterConstant@SuperBlockConstants@@QAEXI@Z ; SuperBlockConstants::ClearScalarRegisterConstant
$LN7@PropagateC@24:

; 967  :   }
; 968  : }

	add	esp, 20					; 00000014H
	cmp	ebp, esp
	call	__RTC_CheckEsp
	mov	esp, ebp
	pop	ebp
	ret	0
?PropagateConstants_SUBScalar@@YAXAAVSuperBlockConstants@@@Z ENDP ; PropagateConstants_SUBScalar
_TEXT	ENDS
PUBLIC	?PropagateConstants_SUBScalarShiftRightImmediate@@YAXAAVSuperBlockConstants@@@Z ; PropagateConstants_SUBScalarShiftRightImmediate
; Function compile flags: /Odtp /RTCsu
_TEXT	SEGMENT
_src1$ = -16						; size = 4
_destIndex$ = -12					; size = 4
_src2$ = -8						; size = 4
_src1Index$ = -4					; size = 4
_constants$ = 8						; size = 4
?PropagateConstants_SUBScalarShiftRightImmediate@@YAXAAVSuperBlockConstants@@@Z PROC ; PropagateConstants_SUBScalarShiftRightImmediate

; 970  : {

	push	ebp
	mov	ebp, esp
	sub	esp, 16					; 00000010H
	mov	eax, -858993460				; ccccccccH
	mov	DWORD PTR [ebp-16], eax
	mov	DWORD PTR [ebp-12], eax
	mov	DWORD PTR [ebp-8], eax
	mov	DWORD PTR [ebp-4], eax

; 971  :   uint32 src1Index = constants.nuance->fields[FIELD_ALU_SRC1];

	mov	eax, DWORD PTR _constants$[ebp]
	mov	ecx, DWORD PTR [eax+4]
	mov	edx, DWORD PTR [ecx+8]
	mov	DWORD PTR _src1Index$[ebp], edx

; 972  :   uint32 src2 = constants.nuance->fields[FIELD_ALU_SRC2];

	mov	eax, DWORD PTR _constants$[ebp]
	mov	ecx, DWORD PTR [eax+4]
	mov	edx, DWORD PTR [ecx+12]
	mov	DWORD PTR _src2$[ebp], edx

; 973  :   uint32 destIndex = constants.nuance->fields[FIELD_ALU_DEST]; 

	mov	eax, DWORD PTR _constants$[ebp]
	mov	ecx, DWORD PTR [eax+4]
	mov	edx, DWORD PTR [ecx+16]
	mov	DWORD PTR _destIndex$[ebp], edx

; 974  :   uint32 src1;
; 975  : 
; 976  :   if(constants.IsScalarRegisterConstant(src1Index) && ALLOW_ALU_PROPAGATION)

	mov	eax, DWORD PTR _src1Index$[ebp]
	push	eax
	mov	ecx, DWORD PTR _constants$[ebp]
	call	?IsScalarRegisterConstant@SuperBlockConstants@@QAE_NI@Z ; SuperBlockConstants::IsScalarRegisterConstant
	movzx	ecx, al
	test	ecx, ecx
	je	SHORT $LN2@PropagateC@25
	mov	edx, 1
	test	edx, edx
	je	SHORT $LN2@PropagateC@25

; 977  :   {
; 978  :     src1 = constants.GetScalarRegisterConstant(src1Index);

	mov	eax, DWORD PTR _src1Index$[ebp]
	push	eax
	mov	ecx, DWORD PTR _constants$[ebp]
	call	?GetScalarRegisterConstant@SuperBlockConstants@@QAEII@Z ; SuperBlockConstants::GetScalarRegisterConstant
	mov	DWORD PTR _src1$[ebp], eax

; 979  :     constants.nuance->fields[FIELD_ALU_HANDLER] = Handler_SUBImmediate;

	mov	ecx, DWORD PTR _constants$[ebp]
	mov	edx, DWORD PTR [ecx+4]
	mov	DWORD PTR [edx], 65			; 00000041H

; 980  :     constants.nuance->fields[FIELD_ALU_SRC1] = ((int32)src1) >> src2;

	mov	eax, DWORD PTR _src1$[ebp]
	mov	ecx, DWORD PTR _src2$[ebp]
	sar	eax, cl
	mov	ecx, DWORD PTR _constants$[ebp]
	mov	edx, DWORD PTR [ecx+4]
	mov	DWORD PTR [edx+8], eax

; 981  :     constants.nuance->fields[FIELD_ALU_SRC2] = destIndex;

	mov	eax, DWORD PTR _constants$[ebp]
	mov	ecx, DWORD PTR [eax+4]
	mov	edx, DWORD PTR _destIndex$[ebp]
	mov	DWORD PTR [ecx+12], edx

; 982  :     constants.ClearScalarInputDependency(src1Index);

	mov	eax, DWORD PTR _src1Index$[ebp]
	push	eax
	mov	ecx, DWORD PTR _constants$[ebp]
	call	?ClearScalarInputDependency@SuperBlockConstants@@QAEXI@Z ; SuperBlockConstants::ClearScalarInputDependency

; 983  :     constants.SetScalarInputDependency(destIndex);

	mov	ecx, DWORD PTR _destIndex$[ebp]
	push	ecx
	mov	ecx, DWORD PTR _constants$[ebp]
	call	?SetScalarInputDependency@SuperBlockConstants@@QAEXI@Z ; SuperBlockConstants::SetScalarInputDependency

; 984  :     PropagateConstants_SUBImmediate(constants);

	mov	edx, DWORD PTR _constants$[ebp]
	push	edx
	call	?PropagateConstants_SUBImmediate@@YAXAAVSuperBlockConstants@@@Z ; PropagateConstants_SUBImmediate
	add	esp, 4

; 985  :   }
; 986  :   else

	jmp	SHORT $LN3@PropagateC@25
$LN2@PropagateC@25:

; 987  :   {
; 988  :     constants.status.status = PROPAGATE_CONSTANTS_STATUS_ALU_OK;

	mov	eax, DWORD PTR _constants$[ebp]
	mov	DWORD PTR [eax+12], 2

; 989  :     constants.ClearMiscRegisterConstant(CONSTANT_REG_N);    

	push	18					; 00000012H
	mov	ecx, DWORD PTR _constants$[ebp]
	call	?ClearMiscRegisterConstant@SuperBlockConstants@@QAEXI@Z ; SuperBlockConstants::ClearMiscRegisterConstant

; 990  :     constants.ClearMiscRegisterConstant(CONSTANT_REG_V);    

	push	17					; 00000011H
	mov	ecx, DWORD PTR _constants$[ebp]
	call	?ClearMiscRegisterConstant@SuperBlockConstants@@QAEXI@Z ; SuperBlockConstants::ClearMiscRegisterConstant

; 991  :     constants.ClearMiscRegisterConstant(CONSTANT_REG_C);    

	push	15					; 0000000fH
	mov	ecx, DWORD PTR _constants$[ebp]
	call	?ClearMiscRegisterConstant@SuperBlockConstants@@QAEXI@Z ; SuperBlockConstants::ClearMiscRegisterConstant

; 992  :     constants.ClearMiscRegisterConstant(CONSTANT_REG_Z);    

	push	16					; 00000010H
	mov	ecx, DWORD PTR _constants$[ebp]
	call	?ClearMiscRegisterConstant@SuperBlockConstants@@QAEXI@Z ; SuperBlockConstants::ClearMiscRegisterConstant

; 993  :     constants.ClearScalarRegisterConstant(destIndex);    

	mov	ecx, DWORD PTR _destIndex$[ebp]
	push	ecx
	mov	ecx, DWORD PTR _constants$[ebp]
	call	?ClearScalarRegisterConstant@SuperBlockConstants@@QAEXI@Z ; SuperBlockConstants::ClearScalarRegisterConstant
$LN3@PropagateC@25:

; 994  :   }
; 995  : }

	add	esp, 16					; 00000010H
	cmp	ebp, esp
	call	__RTC_CheckEsp
	mov	esp, ebp
	pop	ebp
	ret	0
?PropagateConstants_SUBScalarShiftRightImmediate@@YAXAAVSuperBlockConstants@@@Z ENDP ; PropagateConstants_SUBScalarShiftRightImmediate
_TEXT	ENDS
PUBLIC	?PropagateConstants_SUBScalarShiftLeftImmediate@@YAXAAVSuperBlockConstants@@@Z ; PropagateConstants_SUBScalarShiftLeftImmediate
; Function compile flags: /Odtp /RTCsu
_TEXT	SEGMENT
_src1$ = -16						; size = 4
_destIndex$ = -12					; size = 4
_src2$ = -8						; size = 4
_src1Index$ = -4					; size = 4
_constants$ = 8						; size = 4
?PropagateConstants_SUBScalarShiftLeftImmediate@@YAXAAVSuperBlockConstants@@@Z PROC ; PropagateConstants_SUBScalarShiftLeftImmediate

; 997  : {

	push	ebp
	mov	ebp, esp
	sub	esp, 16					; 00000010H
	mov	eax, -858993460				; ccccccccH
	mov	DWORD PTR [ebp-16], eax
	mov	DWORD PTR [ebp-12], eax
	mov	DWORD PTR [ebp-8], eax
	mov	DWORD PTR [ebp-4], eax

; 998  :   uint32 src1Index = constants.nuance->fields[FIELD_ALU_SRC1];

	mov	eax, DWORD PTR _constants$[ebp]
	mov	ecx, DWORD PTR [eax+4]
	mov	edx, DWORD PTR [ecx+8]
	mov	DWORD PTR _src1Index$[ebp], edx

; 999  :   uint32 src2 = constants.nuance->fields[FIELD_ALU_SRC2];

	mov	eax, DWORD PTR _constants$[ebp]
	mov	ecx, DWORD PTR [eax+4]
	mov	edx, DWORD PTR [ecx+12]
	mov	DWORD PTR _src2$[ebp], edx

; 1000 :   uint32 destIndex = constants.nuance->fields[FIELD_ALU_DEST]; 

	mov	eax, DWORD PTR _constants$[ebp]
	mov	ecx, DWORD PTR [eax+4]
	mov	edx, DWORD PTR [ecx+16]
	mov	DWORD PTR _destIndex$[ebp], edx

; 1001 :   uint32 src1;
; 1002 : 
; 1003 :   if(constants.IsScalarRegisterConstant(src1Index) && ALLOW_ALU_PROPAGATION)

	mov	eax, DWORD PTR _src1Index$[ebp]
	push	eax
	mov	ecx, DWORD PTR _constants$[ebp]
	call	?IsScalarRegisterConstant@SuperBlockConstants@@QAE_NI@Z ; SuperBlockConstants::IsScalarRegisterConstant
	movzx	ecx, al
	test	ecx, ecx
	je	SHORT $LN2@PropagateC@26
	mov	edx, 1
	test	edx, edx
	je	SHORT $LN2@PropagateC@26

; 1004 :   {
; 1005 :     src1 = constants.GetScalarRegisterConstant(src1Index);

	mov	eax, DWORD PTR _src1Index$[ebp]
	push	eax
	mov	ecx, DWORD PTR _constants$[ebp]
	call	?GetScalarRegisterConstant@SuperBlockConstants@@QAEII@Z ; SuperBlockConstants::GetScalarRegisterConstant
	mov	DWORD PTR _src1$[ebp], eax

; 1006 :     constants.nuance->fields[FIELD_ALU_HANDLER] = Handler_SUBImmediate;

	mov	ecx, DWORD PTR _constants$[ebp]
	mov	edx, DWORD PTR [ecx+4]
	mov	DWORD PTR [edx], 65			; 00000041H

; 1007 :     constants.nuance->fields[FIELD_ALU_SRC1] = src1 << src2;

	mov	eax, DWORD PTR _src1$[ebp]
	mov	ecx, DWORD PTR _src2$[ebp]
	shl	eax, cl
	mov	ecx, DWORD PTR _constants$[ebp]
	mov	edx, DWORD PTR [ecx+4]
	mov	DWORD PTR [edx+8], eax

; 1008 :     constants.nuance->fields[FIELD_ALU_SRC2] = destIndex;

	mov	eax, DWORD PTR _constants$[ebp]
	mov	ecx, DWORD PTR [eax+4]
	mov	edx, DWORD PTR _destIndex$[ebp]
	mov	DWORD PTR [ecx+12], edx

; 1009 :     constants.ClearScalarInputDependency(src1Index);

	mov	eax, DWORD PTR _src1Index$[ebp]
	push	eax
	mov	ecx, DWORD PTR _constants$[ebp]
	call	?ClearScalarInputDependency@SuperBlockConstants@@QAEXI@Z ; SuperBlockConstants::ClearScalarInputDependency

; 1010 :     constants.SetScalarInputDependency(destIndex);

	mov	ecx, DWORD PTR _destIndex$[ebp]
	push	ecx
	mov	ecx, DWORD PTR _constants$[ebp]
	call	?SetScalarInputDependency@SuperBlockConstants@@QAEXI@Z ; SuperBlockConstants::SetScalarInputDependency

; 1011 :     PropagateConstants_SUBImmediate(constants);

	mov	edx, DWORD PTR _constants$[ebp]
	push	edx
	call	?PropagateConstants_SUBImmediate@@YAXAAVSuperBlockConstants@@@Z ; PropagateConstants_SUBImmediate
	add	esp, 4

; 1012 :   }
; 1013 :   else

	jmp	SHORT $LN3@PropagateC@26
$LN2@PropagateC@26:

; 1014 :   {
; 1015 :     constants.status.status = PROPAGATE_CONSTANTS_STATUS_ALU_OK;

	mov	eax, DWORD PTR _constants$[ebp]
	mov	DWORD PTR [eax+12], 2

; 1016 :     constants.ClearMiscRegisterConstant(CONSTANT_REG_N);    

	push	18					; 00000012H
	mov	ecx, DWORD PTR _constants$[ebp]
	call	?ClearMiscRegisterConstant@SuperBlockConstants@@QAEXI@Z ; SuperBlockConstants::ClearMiscRegisterConstant

; 1017 :     constants.ClearMiscRegisterConstant(CONSTANT_REG_V);    

	push	17					; 00000011H
	mov	ecx, DWORD PTR _constants$[ebp]
	call	?ClearMiscRegisterConstant@SuperBlockConstants@@QAEXI@Z ; SuperBlockConstants::ClearMiscRegisterConstant

; 1018 :     constants.ClearMiscRegisterConstant(CONSTANT_REG_C);    

	push	15					; 0000000fH
	mov	ecx, DWORD PTR _constants$[ebp]
	call	?ClearMiscRegisterConstant@SuperBlockConstants@@QAEXI@Z ; SuperBlockConstants::ClearMiscRegisterConstant

; 1019 :     constants.ClearMiscRegisterConstant(CONSTANT_REG_Z);    

	push	16					; 00000010H
	mov	ecx, DWORD PTR _constants$[ebp]
	call	?ClearMiscRegisterConstant@SuperBlockConstants@@QAEXI@Z ; SuperBlockConstants::ClearMiscRegisterConstant

; 1020 :     constants.ClearScalarRegisterConstant(destIndex);    

	mov	ecx, DWORD PTR _destIndex$[ebp]
	push	ecx
	mov	ecx, DWORD PTR _constants$[ebp]
	call	?ClearScalarRegisterConstant@SuperBlockConstants@@QAEXI@Z ; SuperBlockConstants::ClearScalarRegisterConstant
$LN3@PropagateC@26:

; 1021 :   }
; 1022 : }

	add	esp, 16					; 00000010H
	cmp	ebp, esp
	call	__RTC_CheckEsp
	mov	esp, ebp
	pop	ebp
	ret	0
?PropagateConstants_SUBScalarShiftLeftImmediate@@YAXAAVSuperBlockConstants@@@Z ENDP ; PropagateConstants_SUBScalarShiftLeftImmediate
_TEXT	ENDS
PUBLIC	?PropagateConstants_CMPImmediate@@YAXAAVSuperBlockConstants@@@Z ; PropagateConstants_CMPImmediate
; Function compile flags: /Odtp /RTCsu
_TEXT	SEGMENT
tv216 = -60						; size = 8
tv205 = -52						; size = 8
tv184 = -44						; size = 8
_destValue$ = -36					; size = 8
_src2$ = -28						; size = 8
_src1$ = -20						; size = 8
_flagValues$ = -12					; size = 4
_destIndex$ = -8					; size = 4
_src2Index$ = -4					; size = 4
_constants$ = 8						; size = 4
?PropagateConstants_CMPImmediate@@YAXAAVSuperBlockConstants@@@Z PROC ; PropagateConstants_CMPImmediate

; 1024 : {

	push	ebp
	mov	ebp, esp
	sub	esp, 60					; 0000003cH
	push	edi
	lea	edi, DWORD PTR [ebp-60]
	mov	ecx, 15					; 0000000fH
	mov	eax, -858993460				; ccccccccH
	rep stosd

; 1025 :   uint32 src2Index = constants.nuance->fields[FIELD_ALU_SRC2];

	mov	eax, DWORD PTR _constants$[ebp]
	mov	ecx, DWORD PTR [eax+4]
	mov	edx, DWORD PTR [ecx+12]
	mov	DWORD PTR _src2Index$[ebp], edx

; 1026 :   uint32 destIndex = constants.nuance->fields[FIELD_ALU_DEST]; 

	mov	eax, DWORD PTR _constants$[ebp]
	mov	ecx, DWORD PTR [eax+4]
	mov	edx, DWORD PTR [ecx+16]
	mov	DWORD PTR _destIndex$[ebp], edx

; 1027 :   uint32 flagValues = 0;

	mov	DWORD PTR _flagValues$[ebp], 0

; 1028 :   uint64 src1, src2, destValue;
; 1029 : 
; 1030 :   if(constants.IsScalarRegisterConstant(src2Index) && ALLOW_ALU_PROPAGATION)

	mov	eax, DWORD PTR _src2Index$[ebp]
	push	eax
	mov	ecx, DWORD PTR _constants$[ebp]
	call	?IsScalarRegisterConstant@SuperBlockConstants@@QAE_NI@Z ; SuperBlockConstants::IsScalarRegisterConstant
	movzx	ecx, al
	test	ecx, ecx
	je	$LN8@PropagateC@27
	mov	edx, 1
	test	edx, edx
	je	$LN8@PropagateC@27

; 1031 :   {
; 1032 :     src1 = constants.nuance->fields[FIELD_ALU_SRC1];

	mov	eax, DWORD PTR _constants$[ebp]
	mov	ecx, DWORD PTR [eax+4]
	mov	edx, DWORD PTR [ecx+8]
	xor	eax, eax
	mov	DWORD PTR _src1$[ebp], edx
	mov	DWORD PTR _src1$[ebp+4], eax

; 1033 :     src2 = constants.GetScalarRegisterConstant(src2Index);

	mov	ecx, DWORD PTR _src2Index$[ebp]
	push	ecx
	mov	ecx, DWORD PTR _constants$[ebp]
	call	?GetScalarRegisterConstant@SuperBlockConstants@@QAEII@Z ; SuperBlockConstants::GetScalarRegisterConstant
	xor	edx, edx
	mov	DWORD PTR _src2$[ebp], eax
	mov	DWORD PTR _src2$[ebp+4], edx

; 1034 :     destValue = src2 - src1;

	mov	eax, DWORD PTR _src2$[ebp]
	sub	eax, DWORD PTR _src1$[ebp]
	mov	ecx, DWORD PTR _src2$[ebp+4]
	sbb	ecx, DWORD PTR _src1$[ebp+4]
	mov	DWORD PTR _destValue$[ebp], eax
	mov	DWORD PTR _destValue$[ebp+4], ecx

; 1035 :     if(destValue & (uint64)0x0000000100000000)

	mov	edx, DWORD PTR _destValue$[ebp]
	and	edx, 0
	mov	eax, DWORD PTR _destValue$[ebp+4]
	and	eax, 1
	mov	DWORD PTR tv184[ebp], edx
	mov	DWORD PTR tv184[ebp+4], eax
	mov	ecx, DWORD PTR tv184[ebp]
	or	ecx, DWORD PTR tv184[ebp+4]
	je	SHORT $LN7@PropagateC@27

; 1036 :     {
; 1037 :       flagValues = CC_ALU_CARRY;

	mov	DWORD PTR _flagValues$[ebp], 2
$LN7@PropagateC@27:

; 1038 :     }
; 1039 : 
; 1040 :     if(((int32)(src1 ^ src2)) < 0)

	mov	edx, DWORD PTR _src1$[ebp]
	xor	edx, DWORD PTR _src2$[ebp]
	mov	eax, DWORD PTR _src1$[ebp+4]
	xor	eax, DWORD PTR _src2$[ebp+4]
	test	edx, edx
	jge	SHORT $LN6@PropagateC@27

; 1041 :     {
; 1042 :       if(((int32)(src2 ^ (destValue & 0xFFFFFFFFUL))) < 0)

	mov	ecx, DWORD PTR _destValue$[ebp]
	mov	edx, DWORD PTR _destValue$[ebp+4]
	and	edx, 0
	xor	ecx, DWORD PTR _src2$[ebp]
	xor	edx, DWORD PTR _src2$[ebp+4]
	test	ecx, ecx
	jge	SHORT $LN6@PropagateC@27

; 1043 :       {
; 1044 :         flagValues |= CC_ALU_OVERFLOW;

	mov	eax, DWORD PTR _flagValues$[ebp]
	or	eax, 4
	mov	DWORD PTR _flagValues$[ebp], eax
$LN6@PropagateC@27:

; 1045 :       }
; 1046 :     }
; 1047 : 
; 1048 :     if(destValue & (uint64)0x0000000080000000)

	mov	ecx, DWORD PTR _destValue$[ebp]
	and	ecx, -2147483648			; 80000000H
	mov	edx, DWORD PTR _destValue$[ebp+4]
	and	edx, 0
	mov	DWORD PTR tv205[ebp], ecx
	mov	DWORD PTR tv205[ebp+4], edx
	mov	eax, DWORD PTR tv205[ebp]
	or	eax, DWORD PTR tv205[ebp+4]
	je	SHORT $LN4@PropagateC@27

; 1049 :     {
; 1050 :       flagValues |= CC_ALU_NEGATIVE;

	mov	ecx, DWORD PTR _flagValues$[ebp]
	or	ecx, 8
	mov	DWORD PTR _flagValues$[ebp], ecx
	jmp	SHORT $LN3@PropagateC@27
$LN4@PropagateC@27:

; 1051 :     }
; 1052 :     else if(!(destValue & (uint64)0x00000000FFFFFFFF))

	mov	edx, DWORD PTR _destValue$[ebp]
	mov	eax, DWORD PTR _destValue$[ebp+4]
	and	eax, 0
	mov	DWORD PTR tv216[ebp], edx
	mov	DWORD PTR tv216[ebp+4], eax
	mov	ecx, DWORD PTR tv216[ebp]
	or	ecx, DWORD PTR tv216[ebp+4]
	jne	SHORT $LN3@PropagateC@27

; 1053 :     {
; 1054 :       flagValues |= CC_ALU_ZERO;

	mov	edx, DWORD PTR _flagValues$[ebp]
	or	edx, 1
	mov	DWORD PTR _flagValues$[ebp], edx
$LN3@PropagateC@27:

; 1055 :     }
; 1056 :     constants.nuance->fields[FIELD_CONSTANT_HANDLER] = Handler_StoreMiscRegisterConstant;

	mov	eax, DWORD PTR _constants$[ebp]
	mov	ecx, DWORD PTR [eax+4]
	mov	DWORD PTR [ecx], 218			; 000000daH

; 1057 :     constants.nuance->fields[FIELD_CONSTANT_ADDRESS] = CONSTANT_REG_DISCARD;

	mov	edx, DWORD PTR _constants$[ebp]
	mov	eax, DWORD PTR [edx+4]
	mov	DWORD PTR [eax+4], 32			; 00000020H

; 1058 :     constants.nuance->fields[FIELD_CONSTANT_VALUE] = destValue;

	mov	ecx, DWORD PTR _destValue$[ebp]
	mov	edx, DWORD PTR _constants$[ebp]
	mov	eax, DWORD PTR [edx+4]
	mov	DWORD PTR [eax+8], ecx

; 1059 :     constants.nuance->fields[FIELD_CONSTANT_FLAGMASK] = CC_ALU_NEGATIVE | CC_ALU_ZERO | CC_ALU_OVERFLOW | CC_ALU_CARRY;

	mov	ecx, DWORD PTR _constants$[ebp]
	mov	edx, DWORD PTR [ecx+4]
	mov	DWORD PTR [edx+12], 15			; 0000000fH

; 1060 :     constants.nuance->fields[FIELD_CONSTANT_FLAGVALUES] = flagValues;

	mov	eax, DWORD PTR _constants$[ebp]
	mov	ecx, DWORD PTR [eax+4]
	mov	edx, DWORD PTR _flagValues$[ebp]
	mov	DWORD PTR [ecx+16], edx

; 1061 :     constants.ClearScalarInputDependency(src2Index);

	mov	eax, DWORD PTR _src2Index$[ebp]
	push	eax
	mov	ecx, DWORD PTR _constants$[ebp]
	call	?ClearScalarInputDependency@SuperBlockConstants@@QAEXI@Z ; SuperBlockConstants::ClearScalarInputDependency

; 1062 :     PropagateConstants_StoreMiscRegisterConstant(constants);    

	mov	ecx, DWORD PTR _constants$[ebp]
	push	ecx
	call	?PropagateConstants_StoreMiscRegisterConstant@@YAXAAVSuperBlockConstants@@@Z ; PropagateConstants_StoreMiscRegisterConstant
	add	esp, 4

; 1063 :   }
; 1064 :   else

	jmp	SHORT $LN9@PropagateC@27
$LN8@PropagateC@27:

; 1065 :   {
; 1066 :     constants.status.status = PROPAGATE_CONSTANTS_STATUS_ALU_OK;

	mov	edx, DWORD PTR _constants$[ebp]
	mov	DWORD PTR [edx+12], 2

; 1067 :     constants.ClearMiscRegisterConstant(CONSTANT_REG_N);    

	push	18					; 00000012H
	mov	ecx, DWORD PTR _constants$[ebp]
	call	?ClearMiscRegisterConstant@SuperBlockConstants@@QAEXI@Z ; SuperBlockConstants::ClearMiscRegisterConstant

; 1068 :     constants.ClearMiscRegisterConstant(CONSTANT_REG_V);    

	push	17					; 00000011H
	mov	ecx, DWORD PTR _constants$[ebp]
	call	?ClearMiscRegisterConstant@SuperBlockConstants@@QAEXI@Z ; SuperBlockConstants::ClearMiscRegisterConstant

; 1069 :     constants.ClearMiscRegisterConstant(CONSTANT_REG_C);    

	push	15					; 0000000fH
	mov	ecx, DWORD PTR _constants$[ebp]
	call	?ClearMiscRegisterConstant@SuperBlockConstants@@QAEXI@Z ; SuperBlockConstants::ClearMiscRegisterConstant

; 1070 :     constants.ClearMiscRegisterConstant(CONSTANT_REG_Z);    

	push	16					; 00000010H
	mov	ecx, DWORD PTR _constants$[ebp]
	call	?ClearMiscRegisterConstant@SuperBlockConstants@@QAEXI@Z ; SuperBlockConstants::ClearMiscRegisterConstant
$LN9@PropagateC@27:

; 1071 :   }
; 1072 : }

	pop	edi
	add	esp, 60					; 0000003cH
	cmp	ebp, esp
	call	__RTC_CheckEsp
	mov	esp, ebp
	pop	ebp
	ret	0
?PropagateConstants_CMPImmediate@@YAXAAVSuperBlockConstants@@@Z ENDP ; PropagateConstants_CMPImmediate
_TEXT	ENDS
PUBLIC	?PropagateConstants_CMPImmediateReverse@@YAXAAVSuperBlockConstants@@@Z ; PropagateConstants_CMPImmediateReverse
; Function compile flags: /Odtp /RTCsu
_TEXT	SEGMENT
tv216 = -60						; size = 8
tv205 = -52						; size = 8
tv184 = -44						; size = 8
_destValue$ = -36					; size = 8
_src2$ = -28						; size = 8
_src1$ = -20						; size = 8
_flagValues$ = -12					; size = 4
_destIndex$ = -8					; size = 4
_src1Index$ = -4					; size = 4
_constants$ = 8						; size = 4
?PropagateConstants_CMPImmediateReverse@@YAXAAVSuperBlockConstants@@@Z PROC ; PropagateConstants_CMPImmediateReverse

; 1074 : {

	push	ebp
	mov	ebp, esp
	sub	esp, 60					; 0000003cH
	push	edi
	lea	edi, DWORD PTR [ebp-60]
	mov	ecx, 15					; 0000000fH
	mov	eax, -858993460				; ccccccccH
	rep stosd

; 1075 :   uint32 src1Index = constants.nuance->fields[FIELD_ALU_SRC1];

	mov	eax, DWORD PTR _constants$[ebp]
	mov	ecx, DWORD PTR [eax+4]
	mov	edx, DWORD PTR [ecx+8]
	mov	DWORD PTR _src1Index$[ebp], edx

; 1076 :   uint32 destIndex = constants.nuance->fields[FIELD_ALU_DEST]; 

	mov	eax, DWORD PTR _constants$[ebp]
	mov	ecx, DWORD PTR [eax+4]
	mov	edx, DWORD PTR [ecx+16]
	mov	DWORD PTR _destIndex$[ebp], edx

; 1077 :   uint32 flagValues = 0;

	mov	DWORD PTR _flagValues$[ebp], 0

; 1078 :   uint64 src1, src2, destValue;
; 1079 : 
; 1080 :   if(constants.IsScalarRegisterConstant(src1Index) && ALLOW_ALU_PROPAGATION)

	mov	eax, DWORD PTR _src1Index$[ebp]
	push	eax
	mov	ecx, DWORD PTR _constants$[ebp]
	call	?IsScalarRegisterConstant@SuperBlockConstants@@QAE_NI@Z ; SuperBlockConstants::IsScalarRegisterConstant
	movzx	ecx, al
	test	ecx, ecx
	je	$LN8@PropagateC@28
	mov	edx, 1
	test	edx, edx
	je	$LN8@PropagateC@28

; 1081 :   {
; 1082 :     src2 = constants.nuance->fields[FIELD_ALU_SRC2];

	mov	eax, DWORD PTR _constants$[ebp]
	mov	ecx, DWORD PTR [eax+4]
	mov	edx, DWORD PTR [ecx+12]
	xor	eax, eax
	mov	DWORD PTR _src2$[ebp], edx
	mov	DWORD PTR _src2$[ebp+4], eax

; 1083 :     src1 = constants.GetScalarRegisterConstant(src1Index);

	mov	ecx, DWORD PTR _src1Index$[ebp]
	push	ecx
	mov	ecx, DWORD PTR _constants$[ebp]
	call	?GetScalarRegisterConstant@SuperBlockConstants@@QAEII@Z ; SuperBlockConstants::GetScalarRegisterConstant
	xor	edx, edx
	mov	DWORD PTR _src1$[ebp], eax
	mov	DWORD PTR _src1$[ebp+4], edx

; 1084 :     destValue = src2 - src1;

	mov	eax, DWORD PTR _src2$[ebp]
	sub	eax, DWORD PTR _src1$[ebp]
	mov	ecx, DWORD PTR _src2$[ebp+4]
	sbb	ecx, DWORD PTR _src1$[ebp+4]
	mov	DWORD PTR _destValue$[ebp], eax
	mov	DWORD PTR _destValue$[ebp+4], ecx

; 1085 :     if(destValue & (uint64)0x0000000100000000)

	mov	edx, DWORD PTR _destValue$[ebp]
	and	edx, 0
	mov	eax, DWORD PTR _destValue$[ebp+4]
	and	eax, 1
	mov	DWORD PTR tv184[ebp], edx
	mov	DWORD PTR tv184[ebp+4], eax
	mov	ecx, DWORD PTR tv184[ebp]
	or	ecx, DWORD PTR tv184[ebp+4]
	je	SHORT $LN7@PropagateC@28

; 1086 :     {
; 1087 :       flagValues = CC_ALU_CARRY;

	mov	DWORD PTR _flagValues$[ebp], 2
$LN7@PropagateC@28:

; 1088 :     }
; 1089 : 
; 1090 :     if(((int32)(src1 ^ src2)) < 0)

	mov	edx, DWORD PTR _src1$[ebp]
	xor	edx, DWORD PTR _src2$[ebp]
	mov	eax, DWORD PTR _src1$[ebp+4]
	xor	eax, DWORD PTR _src2$[ebp+4]
	test	edx, edx
	jge	SHORT $LN6@PropagateC@28

; 1091 :     {
; 1092 :       if(((int32)(src2 ^ (destValue & 0xFFFFFFFFUL))) < 0)

	mov	ecx, DWORD PTR _destValue$[ebp]
	mov	edx, DWORD PTR _destValue$[ebp+4]
	and	edx, 0
	xor	ecx, DWORD PTR _src2$[ebp]
	xor	edx, DWORD PTR _src2$[ebp+4]
	test	ecx, ecx
	jge	SHORT $LN6@PropagateC@28

; 1093 :       {
; 1094 :         flagValues |= CC_ALU_OVERFLOW;

	mov	eax, DWORD PTR _flagValues$[ebp]
	or	eax, 4
	mov	DWORD PTR _flagValues$[ebp], eax
$LN6@PropagateC@28:

; 1095 :       }
; 1096 :     }
; 1097 : 
; 1098 :     if(destValue & (uint64)0x0000000080000000)

	mov	ecx, DWORD PTR _destValue$[ebp]
	and	ecx, -2147483648			; 80000000H
	mov	edx, DWORD PTR _destValue$[ebp+4]
	and	edx, 0
	mov	DWORD PTR tv205[ebp], ecx
	mov	DWORD PTR tv205[ebp+4], edx
	mov	eax, DWORD PTR tv205[ebp]
	or	eax, DWORD PTR tv205[ebp+4]
	je	SHORT $LN4@PropagateC@28

; 1099 :     {
; 1100 :       flagValues |= CC_ALU_NEGATIVE;

	mov	ecx, DWORD PTR _flagValues$[ebp]
	or	ecx, 8
	mov	DWORD PTR _flagValues$[ebp], ecx
	jmp	SHORT $LN3@PropagateC@28
$LN4@PropagateC@28:

; 1101 :     }
; 1102 :     else if(!(destValue & (uint64)0x00000000FFFFFFFF))

	mov	edx, DWORD PTR _destValue$[ebp]
	mov	eax, DWORD PTR _destValue$[ebp+4]
	and	eax, 0
	mov	DWORD PTR tv216[ebp], edx
	mov	DWORD PTR tv216[ebp+4], eax
	mov	ecx, DWORD PTR tv216[ebp]
	or	ecx, DWORD PTR tv216[ebp+4]
	jne	SHORT $LN3@PropagateC@28

; 1103 :     {
; 1104 :       flagValues |= CC_ALU_ZERO;

	mov	edx, DWORD PTR _flagValues$[ebp]
	or	edx, 1
	mov	DWORD PTR _flagValues$[ebp], edx
$LN3@PropagateC@28:

; 1105 :     }
; 1106 :     constants.nuance->fields[FIELD_CONSTANT_HANDLER] = Handler_StoreMiscRegisterConstant;

	mov	eax, DWORD PTR _constants$[ebp]
	mov	ecx, DWORD PTR [eax+4]
	mov	DWORD PTR [ecx], 218			; 000000daH

; 1107 :     constants.nuance->fields[FIELD_CONSTANT_ADDRESS] = CONSTANT_REG_DISCARD;

	mov	edx, DWORD PTR _constants$[ebp]
	mov	eax, DWORD PTR [edx+4]
	mov	DWORD PTR [eax+4], 32			; 00000020H

; 1108 :     constants.nuance->fields[FIELD_CONSTANT_VALUE] = destValue;

	mov	ecx, DWORD PTR _destValue$[ebp]
	mov	edx, DWORD PTR _constants$[ebp]
	mov	eax, DWORD PTR [edx+4]
	mov	DWORD PTR [eax+8], ecx

; 1109 :     constants.nuance->fields[FIELD_CONSTANT_FLAGMASK] = CC_ALU_NEGATIVE | CC_ALU_ZERO | CC_ALU_OVERFLOW | CC_ALU_CARRY;

	mov	ecx, DWORD PTR _constants$[ebp]
	mov	edx, DWORD PTR [ecx+4]
	mov	DWORD PTR [edx+12], 15			; 0000000fH

; 1110 :     constants.nuance->fields[FIELD_CONSTANT_FLAGVALUES] = flagValues;

	mov	eax, DWORD PTR _constants$[ebp]
	mov	ecx, DWORD PTR [eax+4]
	mov	edx, DWORD PTR _flagValues$[ebp]
	mov	DWORD PTR [ecx+16], edx

; 1111 :     constants.ClearScalarInputDependency(src1Index);

	mov	eax, DWORD PTR _src1Index$[ebp]
	push	eax
	mov	ecx, DWORD PTR _constants$[ebp]
	call	?ClearScalarInputDependency@SuperBlockConstants@@QAEXI@Z ; SuperBlockConstants::ClearScalarInputDependency

; 1112 :     PropagateConstants_StoreMiscRegisterConstant(constants);    

	mov	ecx, DWORD PTR _constants$[ebp]
	push	ecx
	call	?PropagateConstants_StoreMiscRegisterConstant@@YAXAAVSuperBlockConstants@@@Z ; PropagateConstants_StoreMiscRegisterConstant
	add	esp, 4

; 1113 :   }
; 1114 :   else

	jmp	SHORT $LN9@PropagateC@28
$LN8@PropagateC@28:

; 1115 :   {
; 1116 :     constants.status.status = PROPAGATE_CONSTANTS_STATUS_ALU_OK;

	mov	edx, DWORD PTR _constants$[ebp]
	mov	DWORD PTR [edx+12], 2

; 1117 :     constants.ClearMiscRegisterConstant(CONSTANT_REG_N);    

	push	18					; 00000012H
	mov	ecx, DWORD PTR _constants$[ebp]
	call	?ClearMiscRegisterConstant@SuperBlockConstants@@QAEXI@Z ; SuperBlockConstants::ClearMiscRegisterConstant

; 1118 :     constants.ClearMiscRegisterConstant(CONSTANT_REG_V);    

	push	17					; 00000011H
	mov	ecx, DWORD PTR _constants$[ebp]
	call	?ClearMiscRegisterConstant@SuperBlockConstants@@QAEXI@Z ; SuperBlockConstants::ClearMiscRegisterConstant

; 1119 :     constants.ClearMiscRegisterConstant(CONSTANT_REG_C);    

	push	15					; 0000000fH
	mov	ecx, DWORD PTR _constants$[ebp]
	call	?ClearMiscRegisterConstant@SuperBlockConstants@@QAEXI@Z ; SuperBlockConstants::ClearMiscRegisterConstant

; 1120 :     constants.ClearMiscRegisterConstant(CONSTANT_REG_Z);    

	push	16					; 00000010H
	mov	ecx, DWORD PTR _constants$[ebp]
	call	?ClearMiscRegisterConstant@SuperBlockConstants@@QAEXI@Z ; SuperBlockConstants::ClearMiscRegisterConstant
$LN9@PropagateC@28:

; 1121 :   }
; 1122 : }

	pop	edi
	add	esp, 60					; 0000003cH
	cmp	ebp, esp
	call	__RTC_CheckEsp
	mov	esp, ebp
	pop	ebp
	ret	0
?PropagateConstants_CMPImmediateReverse@@YAXAAVSuperBlockConstants@@@Z ENDP ; PropagateConstants_CMPImmediateReverse
_TEXT	ENDS
PUBLIC	?PropagateConstants_CMPScalar@@YAXAAVSuperBlockConstants@@@Z ; PropagateConstants_CMPScalar
; Function compile flags: /Odtp /RTCsu
_TEXT	SEGMENT
_src2$ = -20						; size = 4
_src1$ = -16						; size = 4
_destIndex$ = -12					; size = 4
_src2Index$ = -8					; size = 4
_src1Index$ = -4					; size = 4
_constants$ = 8						; size = 4
?PropagateConstants_CMPScalar@@YAXAAVSuperBlockConstants@@@Z PROC ; PropagateConstants_CMPScalar

; 1124 : {

	push	ebp
	mov	ebp, esp
	sub	esp, 20					; 00000014H
	mov	eax, -858993460				; ccccccccH
	mov	DWORD PTR [ebp-20], eax
	mov	DWORD PTR [ebp-16], eax
	mov	DWORD PTR [ebp-12], eax
	mov	DWORD PTR [ebp-8], eax
	mov	DWORD PTR [ebp-4], eax

; 1125 :   uint32 src1Index = constants.nuance->fields[FIELD_ALU_SRC1];

	mov	eax, DWORD PTR _constants$[ebp]
	mov	ecx, DWORD PTR [eax+4]
	mov	edx, DWORD PTR [ecx+8]
	mov	DWORD PTR _src1Index$[ebp], edx

; 1126 :   uint32 src2Index = constants.nuance->fields[FIELD_ALU_SRC2];

	mov	eax, DWORD PTR _constants$[ebp]
	mov	ecx, DWORD PTR [eax+4]
	mov	edx, DWORD PTR [ecx+12]
	mov	DWORD PTR _src2Index$[ebp], edx

; 1127 :   uint32 destIndex = constants.nuance->fields[FIELD_ALU_DEST]; 

	mov	eax, DWORD PTR _constants$[ebp]
	mov	ecx, DWORD PTR [eax+4]
	mov	edx, DWORD PTR [ecx+16]
	mov	DWORD PTR _destIndex$[ebp], edx

; 1128 :   uint32 src1, src2;
; 1129 : 
; 1130 :   if(constants.IsScalarRegisterConstant(src1Index) && ALLOW_ALU_PROPAGATION)

	mov	eax, DWORD PTR _src1Index$[ebp]
	push	eax
	mov	ecx, DWORD PTR _constants$[ebp]
	call	?IsScalarRegisterConstant@SuperBlockConstants@@QAE_NI@Z ; SuperBlockConstants::IsScalarRegisterConstant
	movzx	ecx, al
	test	ecx, ecx
	je	SHORT $LN4@PropagateC@29
	mov	edx, 1
	test	edx, edx
	je	SHORT $LN4@PropagateC@29

; 1131 :   {
; 1132 :     src1 = constants.GetScalarRegisterConstant(src1Index);

	mov	eax, DWORD PTR _src1Index$[ebp]
	push	eax
	mov	ecx, DWORD PTR _constants$[ebp]
	call	?GetScalarRegisterConstant@SuperBlockConstants@@QAEII@Z ; SuperBlockConstants::GetScalarRegisterConstant
	mov	DWORD PTR _src1$[ebp], eax

; 1133 :     constants.nuance->fields[FIELD_ALU_HANDLER] = Handler_CMPImmediate;

	mov	ecx, DWORD PTR _constants$[ebp]
	mov	edx, DWORD PTR [ecx+4]
	mov	DWORD PTR [edx], 70			; 00000046H

; 1134 :     constants.nuance->fields[FIELD_ALU_SRC1] = src1;

	mov	eax, DWORD PTR _constants$[ebp]
	mov	ecx, DWORD PTR [eax+4]
	mov	edx, DWORD PTR _src1$[ebp]
	mov	DWORD PTR [ecx+8], edx

; 1135 :     constants.ClearScalarInputDependency(src1Index);

	mov	eax, DWORD PTR _src1Index$[ebp]
	push	eax
	mov	ecx, DWORD PTR _constants$[ebp]
	call	?ClearScalarInputDependency@SuperBlockConstants@@QAEXI@Z ; SuperBlockConstants::ClearScalarInputDependency

; 1136 :     constants.SetScalarInputDependency(src2Index);

	mov	ecx, DWORD PTR _src2Index$[ebp]
	push	ecx
	mov	ecx, DWORD PTR _constants$[ebp]
	call	?SetScalarInputDependency@SuperBlockConstants@@QAEXI@Z ; SuperBlockConstants::SetScalarInputDependency

; 1137 :     PropagateConstants_CMPImmediate(constants);    

	mov	edx, DWORD PTR _constants$[ebp]
	push	edx
	call	?PropagateConstants_CMPImmediate@@YAXAAVSuperBlockConstants@@@Z ; PropagateConstants_CMPImmediate
	add	esp, 4
	jmp	$LN5@PropagateC@29
$LN4@PropagateC@29:

; 1138 :   }
; 1139 :   else if(constants.IsScalarRegisterConstant(src2Index) && ALLOW_ALU_PROPAGATION)

	mov	eax, DWORD PTR _src2Index$[ebp]
	push	eax
	mov	ecx, DWORD PTR _constants$[ebp]
	call	?IsScalarRegisterConstant@SuperBlockConstants@@QAE_NI@Z ; SuperBlockConstants::IsScalarRegisterConstant
	movzx	ecx, al
	test	ecx, ecx
	je	SHORT $LN2@PropagateC@29
	mov	edx, 1
	test	edx, edx
	je	SHORT $LN2@PropagateC@29

; 1140 :   {
; 1141 :     src2 = constants.GetScalarRegisterConstant(src2Index);

	mov	eax, DWORD PTR _src2Index$[ebp]
	push	eax
	mov	ecx, DWORD PTR _constants$[ebp]
	call	?GetScalarRegisterConstant@SuperBlockConstants@@QAEII@Z ; SuperBlockConstants::GetScalarRegisterConstant
	mov	DWORD PTR _src2$[ebp], eax

; 1142 :     constants.nuance->fields[FIELD_ALU_HANDLER] = Handler_CMPImmediateReverse;

	mov	ecx, DWORD PTR _constants$[ebp]
	mov	edx, DWORD PTR [ecx+4]
	mov	DWORD PTR [edx], 71			; 00000047H

; 1143 :     constants.nuance->fields[FIELD_ALU_SRC2] = src2;

	mov	eax, DWORD PTR _constants$[ebp]
	mov	ecx, DWORD PTR [eax+4]
	mov	edx, DWORD PTR _src2$[ebp]
	mov	DWORD PTR [ecx+12], edx

; 1144 :     constants.ClearScalarInputDependency(src2Index);

	mov	eax, DWORD PTR _src2Index$[ebp]
	push	eax
	mov	ecx, DWORD PTR _constants$[ebp]
	call	?ClearScalarInputDependency@SuperBlockConstants@@QAEXI@Z ; SuperBlockConstants::ClearScalarInputDependency

; 1145 :     constants.SetScalarInputDependency(src1Index);

	mov	ecx, DWORD PTR _src1Index$[ebp]
	push	ecx
	mov	ecx, DWORD PTR _constants$[ebp]
	call	?SetScalarInputDependency@SuperBlockConstants@@QAEXI@Z ; SuperBlockConstants::SetScalarInputDependency

; 1146 :     PropagateConstants_CMPImmediateReverse(constants);    

	mov	edx, DWORD PTR _constants$[ebp]
	push	edx
	call	?PropagateConstants_CMPImmediateReverse@@YAXAAVSuperBlockConstants@@@Z ; PropagateConstants_CMPImmediateReverse
	add	esp, 4

; 1147 :   }
; 1148 :   else

	jmp	SHORT $LN5@PropagateC@29
$LN2@PropagateC@29:

; 1149 :   {
; 1150 :     constants.status.status = PROPAGATE_CONSTANTS_STATUS_ALU_OK;

	mov	eax, DWORD PTR _constants$[ebp]
	mov	DWORD PTR [eax+12], 2

; 1151 :     constants.ClearMiscRegisterConstant(CONSTANT_REG_N);    

	push	18					; 00000012H
	mov	ecx, DWORD PTR _constants$[ebp]
	call	?ClearMiscRegisterConstant@SuperBlockConstants@@QAEXI@Z ; SuperBlockConstants::ClearMiscRegisterConstant

; 1152 :     constants.ClearMiscRegisterConstant(CONSTANT_REG_V);    

	push	17					; 00000011H
	mov	ecx, DWORD PTR _constants$[ebp]
	call	?ClearMiscRegisterConstant@SuperBlockConstants@@QAEXI@Z ; SuperBlockConstants::ClearMiscRegisterConstant

; 1153 :     constants.ClearMiscRegisterConstant(CONSTANT_REG_C);    

	push	15					; 0000000fH
	mov	ecx, DWORD PTR _constants$[ebp]
	call	?ClearMiscRegisterConstant@SuperBlockConstants@@QAEXI@Z ; SuperBlockConstants::ClearMiscRegisterConstant

; 1154 :     constants.ClearMiscRegisterConstant(CONSTANT_REG_Z);    

	push	16					; 00000010H
	mov	ecx, DWORD PTR _constants$[ebp]
	call	?ClearMiscRegisterConstant@SuperBlockConstants@@QAEXI@Z ; SuperBlockConstants::ClearMiscRegisterConstant
$LN5@PropagateC@29:

; 1155 :   }
; 1156 : }

	add	esp, 20					; 00000014H
	cmp	ebp, esp
	call	__RTC_CheckEsp
	mov	esp, ebp
	pop	ebp
	ret	0
?PropagateConstants_CMPScalar@@YAXAAVSuperBlockConstants@@@Z ENDP ; PropagateConstants_CMPScalar
_TEXT	ENDS
PUBLIC	?PropagateConstants_CMPScalarShiftRightImmediate@@YAXAAVSuperBlockConstants@@@Z ; PropagateConstants_CMPScalarShiftRightImmediate
; Function compile flags: /Odtp /RTCsu
_TEXT	SEGMENT
_src1$ = -16						; size = 4
_destIndex$ = -12					; size = 4
_src2$ = -8						; size = 4
_src1Index$ = -4					; size = 4
_constants$ = 8						; size = 4
?PropagateConstants_CMPScalarShiftRightImmediate@@YAXAAVSuperBlockConstants@@@Z PROC ; PropagateConstants_CMPScalarShiftRightImmediate

; 1158 : {

	push	ebp
	mov	ebp, esp
	sub	esp, 16					; 00000010H
	mov	eax, -858993460				; ccccccccH
	mov	DWORD PTR [ebp-16], eax
	mov	DWORD PTR [ebp-12], eax
	mov	DWORD PTR [ebp-8], eax
	mov	DWORD PTR [ebp-4], eax

; 1159 :   uint32 src1Index = constants.nuance->fields[FIELD_ALU_SRC1];

	mov	eax, DWORD PTR _constants$[ebp]
	mov	ecx, DWORD PTR [eax+4]
	mov	edx, DWORD PTR [ecx+8]
	mov	DWORD PTR _src1Index$[ebp], edx

; 1160 :   uint32 src2 = constants.nuance->fields[FIELD_ALU_SRC2];

	mov	eax, DWORD PTR _constants$[ebp]
	mov	ecx, DWORD PTR [eax+4]
	mov	edx, DWORD PTR [ecx+12]
	mov	DWORD PTR _src2$[ebp], edx

; 1161 :   uint32 destIndex = constants.nuance->fields[FIELD_ALU_DEST]; 

	mov	eax, DWORD PTR _constants$[ebp]
	mov	ecx, DWORD PTR [eax+4]
	mov	edx, DWORD PTR [ecx+16]
	mov	DWORD PTR _destIndex$[ebp], edx

; 1162 :   uint32 src1;
; 1163 : 
; 1164 :   if(constants.IsScalarRegisterConstant(src1Index) && ALLOW_ALU_PROPAGATION)

	mov	eax, DWORD PTR _src1Index$[ebp]
	push	eax
	mov	ecx, DWORD PTR _constants$[ebp]
	call	?IsScalarRegisterConstant@SuperBlockConstants@@QAE_NI@Z ; SuperBlockConstants::IsScalarRegisterConstant
	movzx	ecx, al
	test	ecx, ecx
	je	SHORT $LN2@PropagateC@30
	mov	edx, 1
	test	edx, edx
	je	SHORT $LN2@PropagateC@30

; 1165 :   {
; 1166 :     src1 = constants.GetScalarRegisterConstant(src1Index);

	mov	eax, DWORD PTR _src1Index$[ebp]
	push	eax
	mov	ecx, DWORD PTR _constants$[ebp]
	call	?GetScalarRegisterConstant@SuperBlockConstants@@QAEII@Z ; SuperBlockConstants::GetScalarRegisterConstant
	mov	DWORD PTR _src1$[ebp], eax

; 1167 :     constants.nuance->fields[FIELD_CONSTANT_HANDLER] = Handler_CMPImmediate;

	mov	ecx, DWORD PTR _constants$[ebp]
	mov	edx, DWORD PTR [ecx+4]
	mov	DWORD PTR [edx], 70			; 00000046H

; 1168 :     constants.nuance->fields[FIELD_ALU_SRC1] = ((int32)src1) >> src2;

	mov	eax, DWORD PTR _src1$[ebp]
	mov	ecx, DWORD PTR _src2$[ebp]
	sar	eax, cl
	mov	ecx, DWORD PTR _constants$[ebp]
	mov	edx, DWORD PTR [ecx+4]
	mov	DWORD PTR [edx+8], eax

; 1169 :     constants.nuance->fields[FIELD_ALU_SRC2] = destIndex;

	mov	eax, DWORD PTR _constants$[ebp]
	mov	ecx, DWORD PTR [eax+4]
	mov	edx, DWORD PTR _destIndex$[ebp]
	mov	DWORD PTR [ecx+12], edx

; 1170 :     constants.ClearScalarInputDependency(src1Index);

	mov	eax, DWORD PTR _src1Index$[ebp]
	push	eax
	mov	ecx, DWORD PTR _constants$[ebp]
	call	?ClearScalarInputDependency@SuperBlockConstants@@QAEXI@Z ; SuperBlockConstants::ClearScalarInputDependency

; 1171 :     constants.SetScalarInputDependency(destIndex);

	mov	ecx, DWORD PTR _destIndex$[ebp]
	push	ecx
	mov	ecx, DWORD PTR _constants$[ebp]
	call	?SetScalarInputDependency@SuperBlockConstants@@QAEXI@Z ; SuperBlockConstants::SetScalarInputDependency

; 1172 :     PropagateConstants_CMPImmediate(constants);

	mov	edx, DWORD PTR _constants$[ebp]
	push	edx
	call	?PropagateConstants_CMPImmediate@@YAXAAVSuperBlockConstants@@@Z ; PropagateConstants_CMPImmediate
	add	esp, 4

; 1173 :   }
; 1174 :   else

	jmp	SHORT $LN3@PropagateC@30
$LN2@PropagateC@30:

; 1175 :   {
; 1176 :     constants.status.status = PROPAGATE_CONSTANTS_STATUS_ALU_OK;

	mov	eax, DWORD PTR _constants$[ebp]
	mov	DWORD PTR [eax+12], 2

; 1177 :     constants.ClearMiscRegisterConstant(CONSTANT_REG_N);    

	push	18					; 00000012H
	mov	ecx, DWORD PTR _constants$[ebp]
	call	?ClearMiscRegisterConstant@SuperBlockConstants@@QAEXI@Z ; SuperBlockConstants::ClearMiscRegisterConstant

; 1178 :     constants.ClearMiscRegisterConstant(CONSTANT_REG_V);    

	push	17					; 00000011H
	mov	ecx, DWORD PTR _constants$[ebp]
	call	?ClearMiscRegisterConstant@SuperBlockConstants@@QAEXI@Z ; SuperBlockConstants::ClearMiscRegisterConstant

; 1179 :     constants.ClearMiscRegisterConstant(CONSTANT_REG_C);    

	push	15					; 0000000fH
	mov	ecx, DWORD PTR _constants$[ebp]
	call	?ClearMiscRegisterConstant@SuperBlockConstants@@QAEXI@Z ; SuperBlockConstants::ClearMiscRegisterConstant

; 1180 :     constants.ClearMiscRegisterConstant(CONSTANT_REG_Z);    

	push	16					; 00000010H
	mov	ecx, DWORD PTR _constants$[ebp]
	call	?ClearMiscRegisterConstant@SuperBlockConstants@@QAEXI@Z ; SuperBlockConstants::ClearMiscRegisterConstant
$LN3@PropagateC@30:

; 1181 :   }
; 1182 : }

	add	esp, 16					; 00000010H
	cmp	ebp, esp
	call	__RTC_CheckEsp
	mov	esp, ebp
	pop	ebp
	ret	0
?PropagateConstants_CMPScalarShiftRightImmediate@@YAXAAVSuperBlockConstants@@@Z ENDP ; PropagateConstants_CMPScalarShiftRightImmediate
_TEXT	ENDS
PUBLIC	?PropagateConstants_CMPScalarShiftLeftImmediate@@YAXAAVSuperBlockConstants@@@Z ; PropagateConstants_CMPScalarShiftLeftImmediate
; Function compile flags: /Odtp /RTCsu
_TEXT	SEGMENT
_src1$ = -16						; size = 4
_destIndex$ = -12					; size = 4
_src2$ = -8						; size = 4
_src1Index$ = -4					; size = 4
_constants$ = 8						; size = 4
?PropagateConstants_CMPScalarShiftLeftImmediate@@YAXAAVSuperBlockConstants@@@Z PROC ; PropagateConstants_CMPScalarShiftLeftImmediate

; 1184 : {

	push	ebp
	mov	ebp, esp
	sub	esp, 16					; 00000010H
	mov	eax, -858993460				; ccccccccH
	mov	DWORD PTR [ebp-16], eax
	mov	DWORD PTR [ebp-12], eax
	mov	DWORD PTR [ebp-8], eax
	mov	DWORD PTR [ebp-4], eax

; 1185 :   uint32 src1Index = constants.nuance->fields[FIELD_ALU_SRC1];

	mov	eax, DWORD PTR _constants$[ebp]
	mov	ecx, DWORD PTR [eax+4]
	mov	edx, DWORD PTR [ecx+8]
	mov	DWORD PTR _src1Index$[ebp], edx

; 1186 :   uint32 src2 = constants.nuance->fields[FIELD_ALU_SRC2];

	mov	eax, DWORD PTR _constants$[ebp]
	mov	ecx, DWORD PTR [eax+4]
	mov	edx, DWORD PTR [ecx+12]
	mov	DWORD PTR _src2$[ebp], edx

; 1187 :   uint32 destIndex = constants.nuance->fields[FIELD_ALU_DEST]; 

	mov	eax, DWORD PTR _constants$[ebp]
	mov	ecx, DWORD PTR [eax+4]
	mov	edx, DWORD PTR [ecx+16]
	mov	DWORD PTR _destIndex$[ebp], edx

; 1188 :   uint32 src1;
; 1189 : 
; 1190 :   if(constants.IsScalarRegisterConstant(src1Index) && ALLOW_ALU_PROPAGATION)

	mov	eax, DWORD PTR _src1Index$[ebp]
	push	eax
	mov	ecx, DWORD PTR _constants$[ebp]
	call	?IsScalarRegisterConstant@SuperBlockConstants@@QAE_NI@Z ; SuperBlockConstants::IsScalarRegisterConstant
	movzx	ecx, al
	test	ecx, ecx
	je	SHORT $LN2@PropagateC@31
	mov	edx, 1
	test	edx, edx
	je	SHORT $LN2@PropagateC@31

; 1191 :   {
; 1192 :     src1 = constants.GetScalarRegisterConstant(src1Index);

	mov	eax, DWORD PTR _src1Index$[ebp]
	push	eax
	mov	ecx, DWORD PTR _constants$[ebp]
	call	?GetScalarRegisterConstant@SuperBlockConstants@@QAEII@Z ; SuperBlockConstants::GetScalarRegisterConstant
	mov	DWORD PTR _src1$[ebp], eax

; 1193 :     constants.nuance->fields[FIELD_ALU_HANDLER] = Handler_CMPImmediate;

	mov	ecx, DWORD PTR _constants$[ebp]
	mov	edx, DWORD PTR [ecx+4]
	mov	DWORD PTR [edx], 70			; 00000046H

; 1194 :     constants.nuance->fields[FIELD_ALU_SRC1] = src1 << src2;

	mov	eax, DWORD PTR _src1$[ebp]
	mov	ecx, DWORD PTR _src2$[ebp]
	shl	eax, cl
	mov	ecx, DWORD PTR _constants$[ebp]
	mov	edx, DWORD PTR [ecx+4]
	mov	DWORD PTR [edx+8], eax

; 1195 :     constants.nuance->fields[FIELD_ALU_SRC2] = destIndex;

	mov	eax, DWORD PTR _constants$[ebp]
	mov	ecx, DWORD PTR [eax+4]
	mov	edx, DWORD PTR _destIndex$[ebp]
	mov	DWORD PTR [ecx+12], edx

; 1196 :     constants.ClearScalarInputDependency(src1Index);

	mov	eax, DWORD PTR _src1Index$[ebp]
	push	eax
	mov	ecx, DWORD PTR _constants$[ebp]
	call	?ClearScalarInputDependency@SuperBlockConstants@@QAEXI@Z ; SuperBlockConstants::ClearScalarInputDependency

; 1197 :     constants.SetScalarInputDependency(destIndex);

	mov	ecx, DWORD PTR _destIndex$[ebp]
	push	ecx
	mov	ecx, DWORD PTR _constants$[ebp]
	call	?SetScalarInputDependency@SuperBlockConstants@@QAEXI@Z ; SuperBlockConstants::SetScalarInputDependency

; 1198 :     PropagateConstants_CMPImmediate(constants);

	mov	edx, DWORD PTR _constants$[ebp]
	push	edx
	call	?PropagateConstants_CMPImmediate@@YAXAAVSuperBlockConstants@@@Z ; PropagateConstants_CMPImmediate
	add	esp, 4

; 1199 :   }
; 1200 :   else

	jmp	SHORT $LN3@PropagateC@31
$LN2@PropagateC@31:

; 1201 :   {
; 1202 :     constants.status.status = PROPAGATE_CONSTANTS_STATUS_ALU_OK;

	mov	eax, DWORD PTR _constants$[ebp]
	mov	DWORD PTR [eax+12], 2

; 1203 :     constants.ClearMiscRegisterConstant(CONSTANT_REG_N);    

	push	18					; 00000012H
	mov	ecx, DWORD PTR _constants$[ebp]
	call	?ClearMiscRegisterConstant@SuperBlockConstants@@QAEXI@Z ; SuperBlockConstants::ClearMiscRegisterConstant

; 1204 :     constants.ClearMiscRegisterConstant(CONSTANT_REG_V);    

	push	17					; 00000011H
	mov	ecx, DWORD PTR _constants$[ebp]
	call	?ClearMiscRegisterConstant@SuperBlockConstants@@QAEXI@Z ; SuperBlockConstants::ClearMiscRegisterConstant

; 1205 :     constants.ClearMiscRegisterConstant(CONSTANT_REG_C);    

	push	15					; 0000000fH
	mov	ecx, DWORD PTR _constants$[ebp]
	call	?ClearMiscRegisterConstant@SuperBlockConstants@@QAEXI@Z ; SuperBlockConstants::ClearMiscRegisterConstant

; 1206 :     constants.ClearMiscRegisterConstant(CONSTANT_REG_Z);    

	push	16					; 00000010H
	mov	ecx, DWORD PTR _constants$[ebp]
	call	?ClearMiscRegisterConstant@SuperBlockConstants@@QAEXI@Z ; SuperBlockConstants::ClearMiscRegisterConstant
$LN3@PropagateC@31:

; 1207 :   }
; 1208 : }

	add	esp, 16					; 00000010H
	cmp	ebp, esp
	call	__RTC_CheckEsp
	mov	esp, ebp
	pop	ebp
	ret	0
?PropagateConstants_CMPScalarShiftLeftImmediate@@YAXAAVSuperBlockConstants@@@Z ENDP ; PropagateConstants_CMPScalarShiftLeftImmediate
_TEXT	ENDS
PUBLIC	?PropagateConstants_ANDImmediate@@YAXAAVSuperBlockConstants@@@Z ; PropagateConstants_ANDImmediate
; Function compile flags: /Odtp /RTCsu
_TEXT	SEGMENT
_destValue$ = -24					; size = 4
_src2$ = -20						; size = 4
_src1$ = -16						; size = 4
_flagValues$ = -12					; size = 4
_destIndex$ = -8					; size = 4
_src2Index$ = -4					; size = 4
_constants$ = 8						; size = 4
?PropagateConstants_ANDImmediate@@YAXAAVSuperBlockConstants@@@Z PROC ; PropagateConstants_ANDImmediate

; 1210 : {

	push	ebp
	mov	ebp, esp
	sub	esp, 24					; 00000018H
	mov	eax, -858993460				; ccccccccH
	mov	DWORD PTR [ebp-24], eax
	mov	DWORD PTR [ebp-20], eax
	mov	DWORD PTR [ebp-16], eax
	mov	DWORD PTR [ebp-12], eax
	mov	DWORD PTR [ebp-8], eax
	mov	DWORD PTR [ebp-4], eax

; 1211 :   uint32 src2Index = constants.nuance->fields[FIELD_ALU_SRC2];

	mov	eax, DWORD PTR _constants$[ebp]
	mov	ecx, DWORD PTR [eax+4]
	mov	edx, DWORD PTR [ecx+12]
	mov	DWORD PTR _src2Index$[ebp], edx

; 1212 :   uint32 destIndex = constants.nuance->fields[FIELD_ALU_DEST]; 

	mov	eax, DWORD PTR _constants$[ebp]
	mov	ecx, DWORD PTR [eax+4]
	mov	edx, DWORD PTR [ecx+16]
	mov	DWORD PTR _destIndex$[ebp], edx

; 1213 :   uint32 flagValues = 0;

	mov	DWORD PTR _flagValues$[ebp], 0

; 1214 :   uint32 src1, src2, destValue;
; 1215 : 
; 1216 :   constants.SetMiscRegisterConstant(CONSTANT_REG_V,0);

	push	0
	push	17					; 00000011H
	mov	ecx, DWORD PTR _constants$[ebp]
	call	?SetMiscRegisterConstant@SuperBlockConstants@@QAEXII@Z ; SuperBlockConstants::SetMiscRegisterConstant

; 1217 : 
; 1218 :   if(constants.IsScalarRegisterConstant(src2Index) && ALLOW_ALU_PROPAGATION)

	mov	eax, DWORD PTR _src2Index$[ebp]
	push	eax
	mov	ecx, DWORD PTR _constants$[ebp]
	call	?IsScalarRegisterConstant@SuperBlockConstants@@QAE_NI@Z ; SuperBlockConstants::IsScalarRegisterConstant
	movzx	ecx, al
	test	ecx, ecx
	je	$LN4@PropagateC@32
	mov	edx, 1
	test	edx, edx
	je	$LN4@PropagateC@32

; 1219 :   {
; 1220 :     src1 = constants.nuance->fields[FIELD_ALU_SRC1];

	mov	eax, DWORD PTR _constants$[ebp]
	mov	ecx, DWORD PTR [eax+4]
	mov	edx, DWORD PTR [ecx+8]
	mov	DWORD PTR _src1$[ebp], edx

; 1221 :     src2 = constants.GetScalarRegisterConstant(src2Index);

	mov	eax, DWORD PTR _src2Index$[ebp]
	push	eax
	mov	ecx, DWORD PTR _constants$[ebp]
	call	?GetScalarRegisterConstant@SuperBlockConstants@@QAEII@Z ; SuperBlockConstants::GetScalarRegisterConstant
	mov	DWORD PTR _src2$[ebp], eax

; 1222 :     destValue = src1 & src2;

	mov	ecx, DWORD PTR _src1$[ebp]
	and	ecx, DWORD PTR _src2$[ebp]
	mov	DWORD PTR _destValue$[ebp], ecx

; 1223 :     if(destValue == 0)

	jne	SHORT $LN3@PropagateC@32

; 1224 :     {
; 1225 :       flagValues = CC_ALU_ZERO;

	mov	DWORD PTR _flagValues$[ebp], 1

; 1226 :     }
; 1227 :     else

	jmp	SHORT $LN2@PropagateC@32
$LN3@PropagateC@32:

; 1228 :     {
; 1229 :       flagValues |= ((destValue >> 28) & CC_ALU_NEGATIVE);

	mov	edx, DWORD PTR _destValue$[ebp]
	shr	edx, 28					; 0000001cH
	and	edx, 8
	or	edx, DWORD PTR _flagValues$[ebp]
	mov	DWORD PTR _flagValues$[ebp], edx
$LN2@PropagateC@32:

; 1230 :     }
; 1231 :     constants.nuance->fields[FIELD_CONSTANT_HANDLER] = Handler_StoreScalarRegisterConstant;

	mov	eax, DWORD PTR _constants$[ebp]
	mov	ecx, DWORD PTR [eax+4]
	mov	DWORD PTR [ecx], 217			; 000000d9H

; 1232 :     constants.nuance->fields[FIELD_CONSTANT_ADDRESS] = destIndex;

	mov	edx, DWORD PTR _constants$[ebp]
	mov	eax, DWORD PTR [edx+4]
	mov	ecx, DWORD PTR _destIndex$[ebp]
	mov	DWORD PTR [eax+4], ecx

; 1233 :     constants.nuance->fields[FIELD_CONSTANT_VALUE] = destValue;

	mov	edx, DWORD PTR _constants$[ebp]
	mov	eax, DWORD PTR [edx+4]
	mov	ecx, DWORD PTR _destValue$[ebp]
	mov	DWORD PTR [eax+8], ecx

; 1234 :     constants.nuance->fields[FIELD_CONSTANT_FLAGMASK] = CC_ALU_NEGATIVE | CC_ALU_ZERO | CC_ALU_OVERFLOW;

	mov	edx, DWORD PTR _constants$[ebp]
	mov	eax, DWORD PTR [edx+4]
	mov	DWORD PTR [eax+12], 13			; 0000000dH

; 1235 :     constants.nuance->fields[FIELD_CONSTANT_FLAGVALUES] = flagValues;

	mov	ecx, DWORD PTR _constants$[ebp]
	mov	edx, DWORD PTR [ecx+4]
	mov	eax, DWORD PTR _flagValues$[ebp]
	mov	DWORD PTR [edx+16], eax

; 1236 :     constants.ClearScalarInputDependency(src2Index);

	mov	ecx, DWORD PTR _src2Index$[ebp]
	push	ecx
	mov	ecx, DWORD PTR _constants$[ebp]
	call	?ClearScalarInputDependency@SuperBlockConstants@@QAEXI@Z ; SuperBlockConstants::ClearScalarInputDependency

; 1237 :     PropagateConstants_StoreScalarRegisterConstant(constants);    

	mov	edx, DWORD PTR _constants$[ebp]
	push	edx
	call	?PropagateConstants_StoreScalarRegisterConstant@@YAXAAVSuperBlockConstants@@@Z ; PropagateConstants_StoreScalarRegisterConstant
	add	esp, 4

; 1238 :   }
; 1239 :   else

	jmp	SHORT $LN5@PropagateC@32
$LN4@PropagateC@32:

; 1240 :   {
; 1241 :     constants.status.status = PROPAGATE_CONSTANTS_STATUS_ALU_OK;

	mov	eax, DWORD PTR _constants$[ebp]
	mov	DWORD PTR [eax+12], 2

; 1242 :     constants.ClearMiscRegisterConstant(CONSTANT_REG_N);    

	push	18					; 00000012H
	mov	ecx, DWORD PTR _constants$[ebp]
	call	?ClearMiscRegisterConstant@SuperBlockConstants@@QAEXI@Z ; SuperBlockConstants::ClearMiscRegisterConstant

; 1243 :     constants.ClearMiscRegisterConstant(CONSTANT_REG_Z);    

	push	16					; 00000010H
	mov	ecx, DWORD PTR _constants$[ebp]
	call	?ClearMiscRegisterConstant@SuperBlockConstants@@QAEXI@Z ; SuperBlockConstants::ClearMiscRegisterConstant

; 1244 :     constants.ClearScalarRegisterConstant(destIndex);    

	mov	ecx, DWORD PTR _destIndex$[ebp]
	push	ecx
	mov	ecx, DWORD PTR _constants$[ebp]
	call	?ClearScalarRegisterConstant@SuperBlockConstants@@QAEXI@Z ; SuperBlockConstants::ClearScalarRegisterConstant
$LN5@PropagateC@32:

; 1245 :   }
; 1246 : }

	add	esp, 24					; 00000018H
	cmp	ebp, esp
	call	__RTC_CheckEsp
	mov	esp, ebp
	pop	ebp
	ret	0
?PropagateConstants_ANDImmediate@@YAXAAVSuperBlockConstants@@@Z ENDP ; PropagateConstants_ANDImmediate
_TEXT	ENDS
PUBLIC	?PropagateConstants_ANDScalar@@YAXAAVSuperBlockConstants@@@Z ; PropagateConstants_ANDScalar
; Function compile flags: /Odtp /RTCsu
_TEXT	SEGMENT
_flagValues$ = -16					; size = 4
_destIndex$ = -12					; size = 4
_src2Index$ = -8					; size = 4
_src1Index$ = -4					; size = 4
_constants$ = 8						; size = 4
?PropagateConstants_ANDScalar@@YAXAAVSuperBlockConstants@@@Z PROC ; PropagateConstants_ANDScalar

; 1248 : {

	push	ebp
	mov	ebp, esp
	sub	esp, 16					; 00000010H
	mov	eax, -858993460				; ccccccccH
	mov	DWORD PTR [ebp-16], eax
	mov	DWORD PTR [ebp-12], eax
	mov	DWORD PTR [ebp-8], eax
	mov	DWORD PTR [ebp-4], eax

; 1249 :   uint32 src1Index = constants.nuance->fields[FIELD_ALU_SRC1];

	mov	eax, DWORD PTR _constants$[ebp]
	mov	ecx, DWORD PTR [eax+4]
	mov	edx, DWORD PTR [ecx+8]
	mov	DWORD PTR _src1Index$[ebp], edx

; 1250 :   uint32 src2Index = constants.nuance->fields[FIELD_ALU_SRC2];

	mov	eax, DWORD PTR _constants$[ebp]
	mov	ecx, DWORD PTR [eax+4]
	mov	edx, DWORD PTR [ecx+12]
	mov	DWORD PTR _src2Index$[ebp], edx

; 1251 :   uint32 destIndex = constants.nuance->fields[FIELD_ALU_DEST]; 

	mov	eax, DWORD PTR _constants$[ebp]
	mov	ecx, DWORD PTR [eax+4]
	mov	edx, DWORD PTR [ecx+16]
	mov	DWORD PTR _destIndex$[ebp], edx

; 1252 :   uint32 flagValues = 0;

	mov	DWORD PTR _flagValues$[ebp], 0

; 1253 : 
; 1254 :   constants.SetMiscRegisterConstant(CONSTANT_REG_V,0);

	push	0
	push	17					; 00000011H
	mov	ecx, DWORD PTR _constants$[ebp]
	call	?SetMiscRegisterConstant@SuperBlockConstants@@QAEXII@Z ; SuperBlockConstants::SetMiscRegisterConstant

; 1255 : 
; 1256 :   if(constants.IsScalarRegisterConstant(src1Index) && ALLOW_ALU_PROPAGATION)

	mov	eax, DWORD PTR _src1Index$[ebp]
	push	eax
	mov	ecx, DWORD PTR _constants$[ebp]
	call	?IsScalarRegisterConstant@SuperBlockConstants@@QAE_NI@Z ; SuperBlockConstants::IsScalarRegisterConstant
	movzx	ecx, al
	test	ecx, ecx
	je	SHORT $LN4@PropagateC@33
	mov	edx, 1
	test	edx, edx
	je	SHORT $LN4@PropagateC@33

; 1257 :   {
; 1258 :     constants.nuance->fields[FIELD_ALU_HANDLER] = Handler_ANDImmediate;

	mov	eax, DWORD PTR _constants$[ebp]
	mov	ecx, DWORD PTR [eax+4]
	mov	DWORD PTR [ecx], 75			; 0000004bH

; 1259 :     constants.nuance->fields[FIELD_ALU_SRC1] = constants.GetScalarRegisterConstant(src1Index);

	mov	edx, DWORD PTR _src1Index$[ebp]
	push	edx
	mov	ecx, DWORD PTR _constants$[ebp]
	call	?GetScalarRegisterConstant@SuperBlockConstants@@QAEII@Z ; SuperBlockConstants::GetScalarRegisterConstant
	mov	ecx, DWORD PTR _constants$[ebp]
	mov	edx, DWORD PTR [ecx+4]
	mov	DWORD PTR [edx+8], eax

; 1260 :     constants.ClearScalarInputDependency(src1Index);

	mov	eax, DWORD PTR _src1Index$[ebp]
	push	eax
	mov	ecx, DWORD PTR _constants$[ebp]
	call	?ClearScalarInputDependency@SuperBlockConstants@@QAEXI@Z ; SuperBlockConstants::ClearScalarInputDependency

; 1261 :     constants.SetScalarInputDependency(src2Index);

	mov	ecx, DWORD PTR _src2Index$[ebp]
	push	ecx
	mov	ecx, DWORD PTR _constants$[ebp]
	call	?SetScalarInputDependency@SuperBlockConstants@@QAEXI@Z ; SuperBlockConstants::SetScalarInputDependency

; 1262 :     PropagateConstants_ANDImmediate(constants);    

	mov	edx, DWORD PTR _constants$[ebp]
	push	edx
	call	?PropagateConstants_ANDImmediate@@YAXAAVSuperBlockConstants@@@Z ; PropagateConstants_ANDImmediate
	add	esp, 4
	jmp	$LN5@PropagateC@33
$LN4@PropagateC@33:

; 1263 :   }
; 1264 :   else if(constants.IsScalarRegisterConstant(src2Index) && ALLOW_ALU_PROPAGATION)

	mov	eax, DWORD PTR _src2Index$[ebp]
	push	eax
	mov	ecx, DWORD PTR _constants$[ebp]
	call	?IsScalarRegisterConstant@SuperBlockConstants@@QAE_NI@Z ; SuperBlockConstants::IsScalarRegisterConstant
	movzx	ecx, al
	test	ecx, ecx
	je	SHORT $LN2@PropagateC@33
	mov	edx, 1
	test	edx, edx
	je	SHORT $LN2@PropagateC@33

; 1265 :   {
; 1266 :     constants.nuance->fields[FIELD_ALU_HANDLER] = Handler_ANDImmediate;

	mov	eax, DWORD PTR _constants$[ebp]
	mov	ecx, DWORD PTR [eax+4]
	mov	DWORD PTR [ecx], 75			; 0000004bH

; 1267 :     constants.nuance->fields[FIELD_ALU_SRC1] = constants.GetScalarRegisterConstant(src2Index);

	mov	edx, DWORD PTR _src2Index$[ebp]
	push	edx
	mov	ecx, DWORD PTR _constants$[ebp]
	call	?GetScalarRegisterConstant@SuperBlockConstants@@QAEII@Z ; SuperBlockConstants::GetScalarRegisterConstant
	mov	ecx, DWORD PTR _constants$[ebp]
	mov	edx, DWORD PTR [ecx+4]
	mov	DWORD PTR [edx+8], eax

; 1268 :     constants.nuance->fields[FIELD_ALU_SRC2] = src1Index;

	mov	eax, DWORD PTR _constants$[ebp]
	mov	ecx, DWORD PTR [eax+4]
	mov	edx, DWORD PTR _src1Index$[ebp]
	mov	DWORD PTR [ecx+12], edx

; 1269 :     constants.ClearScalarInputDependency(src2Index);

	mov	eax, DWORD PTR _src2Index$[ebp]
	push	eax
	mov	ecx, DWORD PTR _constants$[ebp]
	call	?ClearScalarInputDependency@SuperBlockConstants@@QAEXI@Z ; SuperBlockConstants::ClearScalarInputDependency

; 1270 :     constants.SetScalarInputDependency(src1Index);

	mov	ecx, DWORD PTR _src1Index$[ebp]
	push	ecx
	mov	ecx, DWORD PTR _constants$[ebp]
	call	?SetScalarInputDependency@SuperBlockConstants@@QAEXI@Z ; SuperBlockConstants::SetScalarInputDependency

; 1271 :     PropagateConstants_ANDImmediate(constants);    

	mov	edx, DWORD PTR _constants$[ebp]
	push	edx
	call	?PropagateConstants_ANDImmediate@@YAXAAVSuperBlockConstants@@@Z ; PropagateConstants_ANDImmediate
	add	esp, 4

; 1272 :   }
; 1273 :   else

	jmp	SHORT $LN5@PropagateC@33
$LN2@PropagateC@33:

; 1274 :   {
; 1275 :     constants.status.status = PROPAGATE_CONSTANTS_STATUS_ALU_OK;

	mov	eax, DWORD PTR _constants$[ebp]
	mov	DWORD PTR [eax+12], 2

; 1276 :     constants.ClearMiscRegisterConstant(CONSTANT_REG_N);    

	push	18					; 00000012H
	mov	ecx, DWORD PTR _constants$[ebp]
	call	?ClearMiscRegisterConstant@SuperBlockConstants@@QAEXI@Z ; SuperBlockConstants::ClearMiscRegisterConstant

; 1277 :     constants.ClearMiscRegisterConstant(CONSTANT_REG_Z);    

	push	16					; 00000010H
	mov	ecx, DWORD PTR _constants$[ebp]
	call	?ClearMiscRegisterConstant@SuperBlockConstants@@QAEXI@Z ; SuperBlockConstants::ClearMiscRegisterConstant

; 1278 :     constants.ClearScalarRegisterConstant(destIndex);    

	mov	ecx, DWORD PTR _destIndex$[ebp]
	push	ecx
	mov	ecx, DWORD PTR _constants$[ebp]
	call	?ClearScalarRegisterConstant@SuperBlockConstants@@QAEXI@Z ; SuperBlockConstants::ClearScalarRegisterConstant
$LN5@PropagateC@33:

; 1279 :   }
; 1280 : }

	add	esp, 16					; 00000010H
	cmp	ebp, esp
	call	__RTC_CheckEsp
	mov	esp, ebp
	pop	ebp
	ret	0
?PropagateConstants_ANDScalar@@YAXAAVSuperBlockConstants@@@Z ENDP ; PropagateConstants_ANDScalar
_TEXT	ENDS
PUBLIC	?PropagateConstants_ANDImmediateShiftScalar@@YAXAAVSuperBlockConstants@@@Z ; PropagateConstants_ANDImmediateShiftScalar
; Function compile flags: /Odtp /RTCsu
_TEXT	SEGMENT
_src2$ = -20						; size = 4
_src1$ = -16						; size = 4
_flagValues$ = -12					; size = 4
_destIndex$ = -8					; size = 4
_src2Index$ = -4					; size = 4
_constants$ = 8						; size = 4
?PropagateConstants_ANDImmediateShiftScalar@@YAXAAVSuperBlockConstants@@@Z PROC ; PropagateConstants_ANDImmediateShiftScalar

; 1282 : {

	push	ebp
	mov	ebp, esp
	sub	esp, 20					; 00000014H
	mov	eax, -858993460				; ccccccccH
	mov	DWORD PTR [ebp-20], eax
	mov	DWORD PTR [ebp-16], eax
	mov	DWORD PTR [ebp-12], eax
	mov	DWORD PTR [ebp-8], eax
	mov	DWORD PTR [ebp-4], eax

; 1283 :   uint32 src2Index = constants.nuance->fields[FIELD_ALU_SRC2];

	mov	eax, DWORD PTR _constants$[ebp]
	mov	ecx, DWORD PTR [eax+4]
	mov	edx, DWORD PTR [ecx+12]
	mov	DWORD PTR _src2Index$[ebp], edx

; 1284 :   uint32 destIndex = constants.nuance->fields[FIELD_ALU_DEST]; 

	mov	eax, DWORD PTR _constants$[ebp]
	mov	ecx, DWORD PTR [eax+4]
	mov	edx, DWORD PTR [ecx+16]
	mov	DWORD PTR _destIndex$[ebp], edx

; 1285 :   uint32 flagValues = 0;

	mov	DWORD PTR _flagValues$[ebp], 0

; 1286 :   uint32 src1, src2;
; 1287 : 
; 1288 :   constants.SetMiscRegisterConstant(CONSTANT_REG_V,0);

	push	0
	push	17					; 00000011H
	mov	ecx, DWORD PTR _constants$[ebp]
	call	?SetMiscRegisterConstant@SuperBlockConstants@@QAEXII@Z ; SuperBlockConstants::SetMiscRegisterConstant

; 1289 : 
; 1290 :   if(constants.IsScalarRegisterConstant(src2Index) && ALLOW_ALU_PROPAGATION)

	mov	eax, DWORD PTR _src2Index$[ebp]
	push	eax
	mov	ecx, DWORD PTR _constants$[ebp]
	call	?IsScalarRegisterConstant@SuperBlockConstants@@QAE_NI@Z ; SuperBlockConstants::IsScalarRegisterConstant
	movzx	ecx, al
	test	ecx, ecx
	je	$LN4@PropagateC@34
	mov	edx, 1
	test	edx, edx
	je	$LN4@PropagateC@34

; 1291 :   {
; 1292 :     src1 = constants.nuance->fields[FIELD_ALU_SRC1];

	mov	eax, DWORD PTR _constants$[ebp]
	mov	ecx, DWORD PTR [eax+4]
	mov	edx, DWORD PTR [ecx+8]
	mov	DWORD PTR _src1$[ebp], edx

; 1293 :     src2 = (((int32)(constants.GetScalarRegisterConstant(src2Index) << 26)) >> 26) & 0x3FUL;

	mov	eax, DWORD PTR _src2Index$[ebp]
	push	eax
	mov	ecx, DWORD PTR _constants$[ebp]
	call	?GetScalarRegisterConstant@SuperBlockConstants@@QAEII@Z ; SuperBlockConstants::GetScalarRegisterConstant
	shl	eax, 26					; 0000001aH
	sar	eax, 26					; 0000001aH
	and	eax, 63					; 0000003fH
	mov	DWORD PTR _src2$[ebp], eax

; 1294 :     if(src2 & 0x20)

	mov	ecx, DWORD PTR _src2$[ebp]
	and	ecx, 32					; 00000020H
	je	SHORT $LN3@PropagateC@34

; 1295 :     {
; 1296 :       src1 = (src1 << (64UL - src2));

	mov	ecx, 64					; 00000040H
	sub	ecx, DWORD PTR _src2$[ebp]
	mov	edx, DWORD PTR _src1$[ebp]
	shl	edx, cl
	mov	DWORD PTR _src1$[ebp], edx

; 1297 :     }
; 1298 :     else

	jmp	SHORT $LN2@PropagateC@34
$LN3@PropagateC@34:

; 1299 :     {
; 1300 :       src1 = (src1 >> src2);

	mov	eax, DWORD PTR _src1$[ebp]
	mov	ecx, DWORD PTR _src2$[ebp]
	shr	eax, cl
	mov	DWORD PTR _src1$[ebp], eax
$LN2@PropagateC@34:

; 1301 :     }
; 1302 :     
; 1303 :     constants.nuance->fields[FIELD_ALU_HANDLER] = Handler_ANDImmediate;

	mov	ecx, DWORD PTR _constants$[ebp]
	mov	edx, DWORD PTR [ecx+4]
	mov	DWORD PTR [edx], 75			; 0000004bH

; 1304 :     constants.nuance->fields[FIELD_ALU_SRC1] = src1;

	mov	eax, DWORD PTR _constants$[ebp]
	mov	ecx, DWORD PTR [eax+4]
	mov	edx, DWORD PTR _src1$[ebp]
	mov	DWORD PTR [ecx+8], edx

; 1305 :     constants.nuance->fields[FIELD_ALU_SRC2] = destIndex;

	mov	eax, DWORD PTR _constants$[ebp]
	mov	ecx, DWORD PTR [eax+4]
	mov	edx, DWORD PTR _destIndex$[ebp]
	mov	DWORD PTR [ecx+12], edx

; 1306 :     constants.ClearScalarInputDependency(src2Index);

	mov	eax, DWORD PTR _src2Index$[ebp]
	push	eax
	mov	ecx, DWORD PTR _constants$[ebp]
	call	?ClearScalarInputDependency@SuperBlockConstants@@QAEXI@Z ; SuperBlockConstants::ClearScalarInputDependency

; 1307 :     constants.SetScalarInputDependency(destIndex);

	mov	ecx, DWORD PTR _destIndex$[ebp]
	push	ecx
	mov	ecx, DWORD PTR _constants$[ebp]
	call	?SetScalarInputDependency@SuperBlockConstants@@QAEXI@Z ; SuperBlockConstants::SetScalarInputDependency

; 1308 :     PropagateConstants_ANDImmediate(constants);    

	mov	edx, DWORD PTR _constants$[ebp]
	push	edx
	call	?PropagateConstants_ANDImmediate@@YAXAAVSuperBlockConstants@@@Z ; PropagateConstants_ANDImmediate
	add	esp, 4

; 1309 :   }
; 1310 :   else

	jmp	SHORT $LN5@PropagateC@34
$LN4@PropagateC@34:

; 1311 :   {
; 1312 :     constants.status.status = PROPAGATE_CONSTANTS_STATUS_ALU_OK;

	mov	eax, DWORD PTR _constants$[ebp]
	mov	DWORD PTR [eax+12], 2

; 1313 :     constants.ClearMiscRegisterConstant(CONSTANT_REG_N);    

	push	18					; 00000012H
	mov	ecx, DWORD PTR _constants$[ebp]
	call	?ClearMiscRegisterConstant@SuperBlockConstants@@QAEXI@Z ; SuperBlockConstants::ClearMiscRegisterConstant

; 1314 :     constants.ClearMiscRegisterConstant(CONSTANT_REG_Z);    

	push	16					; 00000010H
	mov	ecx, DWORD PTR _constants$[ebp]
	call	?ClearMiscRegisterConstant@SuperBlockConstants@@QAEXI@Z ; SuperBlockConstants::ClearMiscRegisterConstant

; 1315 :     constants.ClearScalarRegisterConstant(destIndex);    

	mov	ecx, DWORD PTR _destIndex$[ebp]
	push	ecx
	mov	ecx, DWORD PTR _constants$[ebp]
	call	?ClearScalarRegisterConstant@SuperBlockConstants@@QAEXI@Z ; SuperBlockConstants::ClearScalarRegisterConstant
$LN5@PropagateC@34:

; 1316 :   }
; 1317 : }

	add	esp, 20					; 00000014H
	cmp	ebp, esp
	call	__RTC_CheckEsp
	mov	esp, ebp
	pop	ebp
	ret	0
?PropagateConstants_ANDImmediateShiftScalar@@YAXAAVSuperBlockConstants@@@Z ENDP ; PropagateConstants_ANDImmediateShiftScalar
_TEXT	ENDS
PUBLIC	?PropagateConstants_ANDScalarShiftRightImmediate@@YAXAAVSuperBlockConstants@@@Z ; PropagateConstants_ANDScalarShiftRightImmediate
; Function compile flags: /Odtp /RTCsu
_TEXT	SEGMENT
_src1$ = -16						; size = 4
_flagValues$ = -12					; size = 4
_destIndex$ = -8					; size = 4
_src1Index$ = -4					; size = 4
_constants$ = 8						; size = 4
?PropagateConstants_ANDScalarShiftRightImmediate@@YAXAAVSuperBlockConstants@@@Z PROC ; PropagateConstants_ANDScalarShiftRightImmediate

; 1319 : {

	push	ebp
	mov	ebp, esp
	sub	esp, 16					; 00000010H
	mov	eax, -858993460				; ccccccccH
	mov	DWORD PTR [ebp-16], eax
	mov	DWORD PTR [ebp-12], eax
	mov	DWORD PTR [ebp-8], eax
	mov	DWORD PTR [ebp-4], eax

; 1320 :   uint32 src1Index = constants.nuance->fields[FIELD_ALU_SRC1];

	mov	eax, DWORD PTR _constants$[ebp]
	mov	ecx, DWORD PTR [eax+4]
	mov	edx, DWORD PTR [ecx+8]
	mov	DWORD PTR _src1Index$[ebp], edx

; 1321 :   uint32 destIndex = constants.nuance->fields[FIELD_ALU_DEST]; 

	mov	eax, DWORD PTR _constants$[ebp]
	mov	ecx, DWORD PTR [eax+4]
	mov	edx, DWORD PTR [ecx+16]
	mov	DWORD PTR _destIndex$[ebp], edx

; 1322 :   uint32 flagValues = 0;

	mov	DWORD PTR _flagValues$[ebp], 0

; 1323 :   uint32 src1;
; 1324 : 
; 1325 :   constants.SetMiscRegisterConstant(CONSTANT_REG_V,0);

	push	0
	push	17					; 00000011H
	mov	ecx, DWORD PTR _constants$[ebp]
	call	?SetMiscRegisterConstant@SuperBlockConstants@@QAEXII@Z ; SuperBlockConstants::SetMiscRegisterConstant

; 1326 : 
; 1327 :   if(constants.IsScalarRegisterConstant(src1Index) && ALLOW_ALU_PROPAGATION)

	mov	eax, DWORD PTR _src1Index$[ebp]
	push	eax
	mov	ecx, DWORD PTR _constants$[ebp]
	call	?IsScalarRegisterConstant@SuperBlockConstants@@QAE_NI@Z ; SuperBlockConstants::IsScalarRegisterConstant
	movzx	ecx, al
	test	ecx, ecx
	je	SHORT $LN2@PropagateC@35
	mov	edx, 1
	test	edx, edx
	je	SHORT $LN2@PropagateC@35

; 1328 :   {
; 1329 :     src1 = constants.GetScalarRegisterConstant(src1Index);

	mov	eax, DWORD PTR _src1Index$[ebp]
	push	eax
	mov	ecx, DWORD PTR _constants$[ebp]
	call	?GetScalarRegisterConstant@SuperBlockConstants@@QAEII@Z ; SuperBlockConstants::GetScalarRegisterConstant
	mov	DWORD PTR _src1$[ebp], eax

; 1330 :     constants.nuance->fields[FIELD_ALU_HANDLER] = Handler_ANDImmediate;

	mov	ecx, DWORD PTR _constants$[ebp]
	mov	edx, DWORD PTR [ecx+4]
	mov	DWORD PTR [edx], 75			; 0000004bH

; 1331 :     constants.nuance->fields[FIELD_ALU_SRC1] = src1 >> (constants.nuance->fields[FIELD_ALU_SRC2] & 0x3FUL);

	mov	eax, DWORD PTR _constants$[ebp]
	mov	ecx, DWORD PTR [eax+4]
	mov	ecx, DWORD PTR [ecx+12]
	and	ecx, 63					; 0000003fH
	mov	edx, DWORD PTR _src1$[ebp]
	shr	edx, cl
	mov	eax, DWORD PTR _constants$[ebp]
	mov	ecx, DWORD PTR [eax+4]
	mov	DWORD PTR [ecx+8], edx

; 1332 :     constants.nuance->fields[FIELD_ALU_SRC2] = destIndex;

	mov	edx, DWORD PTR _constants$[ebp]
	mov	eax, DWORD PTR [edx+4]
	mov	ecx, DWORD PTR _destIndex$[ebp]
	mov	DWORD PTR [eax+12], ecx

; 1333 :     constants.ClearScalarInputDependency(src1Index);

	mov	edx, DWORD PTR _src1Index$[ebp]
	push	edx
	mov	ecx, DWORD PTR _constants$[ebp]
	call	?ClearScalarInputDependency@SuperBlockConstants@@QAEXI@Z ; SuperBlockConstants::ClearScalarInputDependency

; 1334 :     constants.SetScalarInputDependency(destIndex);

	mov	eax, DWORD PTR _destIndex$[ebp]
	push	eax
	mov	ecx, DWORD PTR _constants$[ebp]
	call	?SetScalarInputDependency@SuperBlockConstants@@QAEXI@Z ; SuperBlockConstants::SetScalarInputDependency

; 1335 :     PropagateConstants_ANDImmediate(constants);    

	mov	ecx, DWORD PTR _constants$[ebp]
	push	ecx
	call	?PropagateConstants_ANDImmediate@@YAXAAVSuperBlockConstants@@@Z ; PropagateConstants_ANDImmediate
	add	esp, 4

; 1336 :   }
; 1337 :   else

	jmp	SHORT $LN3@PropagateC@35
$LN2@PropagateC@35:

; 1338 :   {
; 1339 :     constants.status.status = PROPAGATE_CONSTANTS_STATUS_ALU_OK;

	mov	edx, DWORD PTR _constants$[ebp]
	mov	DWORD PTR [edx+12], 2

; 1340 :     constants.ClearMiscRegisterConstant(CONSTANT_REG_N);    

	push	18					; 00000012H
	mov	ecx, DWORD PTR _constants$[ebp]
	call	?ClearMiscRegisterConstant@SuperBlockConstants@@QAEXI@Z ; SuperBlockConstants::ClearMiscRegisterConstant

; 1341 :     constants.ClearMiscRegisterConstant(CONSTANT_REG_Z);    

	push	16					; 00000010H
	mov	ecx, DWORD PTR _constants$[ebp]
	call	?ClearMiscRegisterConstant@SuperBlockConstants@@QAEXI@Z ; SuperBlockConstants::ClearMiscRegisterConstant

; 1342 :     constants.ClearScalarRegisterConstant(destIndex);    

	mov	eax, DWORD PTR _destIndex$[ebp]
	push	eax
	mov	ecx, DWORD PTR _constants$[ebp]
	call	?ClearScalarRegisterConstant@SuperBlockConstants@@QAEXI@Z ; SuperBlockConstants::ClearScalarRegisterConstant
$LN3@PropagateC@35:

; 1343 :   }
; 1344 : }

	add	esp, 16					; 00000010H
	cmp	ebp, esp
	call	__RTC_CheckEsp
	mov	esp, ebp
	pop	ebp
	ret	0
?PropagateConstants_ANDScalarShiftRightImmediate@@YAXAAVSuperBlockConstants@@@Z ENDP ; PropagateConstants_ANDScalarShiftRightImmediate
_TEXT	ENDS
PUBLIC	?PropagateConstants_ANDScalarShiftLeftImmediate@@YAXAAVSuperBlockConstants@@@Z ; PropagateConstants_ANDScalarShiftLeftImmediate
; Function compile flags: /Odtp /RTCsu
_TEXT	SEGMENT
_src1$ = -16						; size = 4
_flagValues$ = -12					; size = 4
_destIndex$ = -8					; size = 4
_src1Index$ = -4					; size = 4
_constants$ = 8						; size = 4
?PropagateConstants_ANDScalarShiftLeftImmediate@@YAXAAVSuperBlockConstants@@@Z PROC ; PropagateConstants_ANDScalarShiftLeftImmediate

; 1346 : {

	push	ebp
	mov	ebp, esp
	sub	esp, 16					; 00000010H
	mov	eax, -858993460				; ccccccccH
	mov	DWORD PTR [ebp-16], eax
	mov	DWORD PTR [ebp-12], eax
	mov	DWORD PTR [ebp-8], eax
	mov	DWORD PTR [ebp-4], eax

; 1347 :   uint32 src1Index = constants.nuance->fields[FIELD_ALU_SRC1];

	mov	eax, DWORD PTR _constants$[ebp]
	mov	ecx, DWORD PTR [eax+4]
	mov	edx, DWORD PTR [ecx+8]
	mov	DWORD PTR _src1Index$[ebp], edx

; 1348 :   uint32 destIndex = constants.nuance->fields[FIELD_ALU_DEST]; 

	mov	eax, DWORD PTR _constants$[ebp]
	mov	ecx, DWORD PTR [eax+4]
	mov	edx, DWORD PTR [ecx+16]
	mov	DWORD PTR _destIndex$[ebp], edx

; 1349 :   uint32 flagValues = 0;

	mov	DWORD PTR _flagValues$[ebp], 0

; 1350 :   uint32 src1;
; 1351 : 
; 1352 :   constants.SetMiscRegisterConstant(CONSTANT_REG_V,0);

	push	0
	push	17					; 00000011H
	mov	ecx, DWORD PTR _constants$[ebp]
	call	?SetMiscRegisterConstant@SuperBlockConstants@@QAEXII@Z ; SuperBlockConstants::SetMiscRegisterConstant

; 1353 : 
; 1354 :   if(constants.IsScalarRegisterConstant(src1Index) && ALLOW_ALU_PROPAGATION)

	mov	eax, DWORD PTR _src1Index$[ebp]
	push	eax
	mov	ecx, DWORD PTR _constants$[ebp]
	call	?IsScalarRegisterConstant@SuperBlockConstants@@QAE_NI@Z ; SuperBlockConstants::IsScalarRegisterConstant
	movzx	ecx, al
	test	ecx, ecx
	je	SHORT $LN2@PropagateC@36
	mov	edx, 1
	test	edx, edx
	je	SHORT $LN2@PropagateC@36

; 1355 :   {
; 1356 :     src1 = constants.GetScalarRegisterConstant(src1Index);

	mov	eax, DWORD PTR _src1Index$[ebp]
	push	eax
	mov	ecx, DWORD PTR _constants$[ebp]
	call	?GetScalarRegisterConstant@SuperBlockConstants@@QAEII@Z ; SuperBlockConstants::GetScalarRegisterConstant
	mov	DWORD PTR _src1$[ebp], eax

; 1357 :     constants.nuance->fields[FIELD_ALU_HANDLER] = Handler_ANDImmediate;

	mov	ecx, DWORD PTR _constants$[ebp]
	mov	edx, DWORD PTR [ecx+4]
	mov	DWORD PTR [edx], 75			; 0000004bH

; 1358 :     constants.nuance->fields[FIELD_ALU_SRC1] = src1 << (constants.nuance->fields[FIELD_ALU_SRC2] & 0x3FUL);

	mov	eax, DWORD PTR _constants$[ebp]
	mov	ecx, DWORD PTR [eax+4]
	mov	ecx, DWORD PTR [ecx+12]
	and	ecx, 63					; 0000003fH
	mov	edx, DWORD PTR _src1$[ebp]
	shl	edx, cl
	mov	eax, DWORD PTR _constants$[ebp]
	mov	ecx, DWORD PTR [eax+4]
	mov	DWORD PTR [ecx+8], edx

; 1359 :     constants.nuance->fields[FIELD_ALU_SRC2] = destIndex;

	mov	edx, DWORD PTR _constants$[ebp]
	mov	eax, DWORD PTR [edx+4]
	mov	ecx, DWORD PTR _destIndex$[ebp]
	mov	DWORD PTR [eax+12], ecx

; 1360 :     constants.ClearScalarInputDependency(src1Index);

	mov	edx, DWORD PTR _src1Index$[ebp]
	push	edx
	mov	ecx, DWORD PTR _constants$[ebp]
	call	?ClearScalarInputDependency@SuperBlockConstants@@QAEXI@Z ; SuperBlockConstants::ClearScalarInputDependency

; 1361 :     constants.SetScalarInputDependency(destIndex);

	mov	eax, DWORD PTR _destIndex$[ebp]
	push	eax
	mov	ecx, DWORD PTR _constants$[ebp]
	call	?SetScalarInputDependency@SuperBlockConstants@@QAEXI@Z ; SuperBlockConstants::SetScalarInputDependency

; 1362 :     PropagateConstants_ANDImmediate(constants);    

	mov	ecx, DWORD PTR _constants$[ebp]
	push	ecx
	call	?PropagateConstants_ANDImmediate@@YAXAAVSuperBlockConstants@@@Z ; PropagateConstants_ANDImmediate
	add	esp, 4

; 1363 :   }
; 1364 :   else

	jmp	SHORT $LN3@PropagateC@36
$LN2@PropagateC@36:

; 1365 :   {
; 1366 :     constants.status.status = PROPAGATE_CONSTANTS_STATUS_ALU_OK;

	mov	edx, DWORD PTR _constants$[ebp]
	mov	DWORD PTR [edx+12], 2

; 1367 :     constants.ClearMiscRegisterConstant(CONSTANT_REG_N);    

	push	18					; 00000012H
	mov	ecx, DWORD PTR _constants$[ebp]
	call	?ClearMiscRegisterConstant@SuperBlockConstants@@QAEXI@Z ; SuperBlockConstants::ClearMiscRegisterConstant

; 1368 :     constants.ClearMiscRegisterConstant(CONSTANT_REG_Z);    

	push	16					; 00000010H
	mov	ecx, DWORD PTR _constants$[ebp]
	call	?ClearMiscRegisterConstant@SuperBlockConstants@@QAEXI@Z ; SuperBlockConstants::ClearMiscRegisterConstant

; 1369 :     constants.ClearScalarRegisterConstant(destIndex);    

	mov	eax, DWORD PTR _destIndex$[ebp]
	push	eax
	mov	ecx, DWORD PTR _constants$[ebp]
	call	?ClearScalarRegisterConstant@SuperBlockConstants@@QAEXI@Z ; SuperBlockConstants::ClearScalarRegisterConstant
$LN3@PropagateC@36:

; 1370 :   }
; 1371 : }

	add	esp, 16					; 00000010H
	cmp	ebp, esp
	call	__RTC_CheckEsp
	mov	esp, ebp
	pop	ebp
	ret	0
?PropagateConstants_ANDScalarShiftLeftImmediate@@YAXAAVSuperBlockConstants@@@Z ENDP ; PropagateConstants_ANDScalarShiftLeftImmediate
_TEXT	ENDS
PUBLIC	?PropagateConstants_ANDScalarShiftScalar@@YAXAAVSuperBlockConstants@@@Z ; PropagateConstants_ANDScalarShiftScalar
; Function compile flags: /Odtp /RTCsu
_TEXT	SEGMENT
_src1$ = -20						; size = 4
_flagValues$ = -16					; size = 4
_destIndex$ = -12					; size = 4
_src2Index$ = -8					; size = 4
_src1Index$ = -4					; size = 4
_constants$ = 8						; size = 4
?PropagateConstants_ANDScalarShiftScalar@@YAXAAVSuperBlockConstants@@@Z PROC ; PropagateConstants_ANDScalarShiftScalar

; 1373 : {

	push	ebp
	mov	ebp, esp
	sub	esp, 20					; 00000014H
	mov	eax, -858993460				; ccccccccH
	mov	DWORD PTR [ebp-20], eax
	mov	DWORD PTR [ebp-16], eax
	mov	DWORD PTR [ebp-12], eax
	mov	DWORD PTR [ebp-8], eax
	mov	DWORD PTR [ebp-4], eax

; 1374 :   uint32 src1Index = constants.nuance->fields[FIELD_ALU_SRC1];

	mov	eax, DWORD PTR _constants$[ebp]
	mov	ecx, DWORD PTR [eax+4]
	mov	edx, DWORD PTR [ecx+8]
	mov	DWORD PTR _src1Index$[ebp], edx

; 1375 :   uint32 src2Index = constants.nuance->fields[FIELD_ALU_SRC2];

	mov	eax, DWORD PTR _constants$[ebp]
	mov	ecx, DWORD PTR [eax+4]
	mov	edx, DWORD PTR [ecx+12]
	mov	DWORD PTR _src2Index$[ebp], edx

; 1376 :   uint32 destIndex = constants.nuance->fields[FIELD_ALU_DEST]; 

	mov	eax, DWORD PTR _constants$[ebp]
	mov	ecx, DWORD PTR [eax+4]
	mov	edx, DWORD PTR [ecx+16]
	mov	DWORD PTR _destIndex$[ebp], edx

; 1377 :   uint32 flagValues = 0;

	mov	DWORD PTR _flagValues$[ebp], 0

; 1378 :   uint32 src1;
; 1379 : 
; 1380 :   constants.SetMiscRegisterConstant(CONSTANT_REG_V,0);

	push	0
	push	17					; 00000011H
	mov	ecx, DWORD PTR _constants$[ebp]
	call	?SetMiscRegisterConstant@SuperBlockConstants@@QAEXII@Z ; SuperBlockConstants::SetMiscRegisterConstant

; 1381 : 
; 1382 :   if(constants.IsScalarRegisterConstant(src1Index) && ALLOW_ALU_PROPAGATION)

	mov	eax, DWORD PTR _src1Index$[ebp]
	push	eax
	mov	ecx, DWORD PTR _constants$[ebp]
	call	?IsScalarRegisterConstant@SuperBlockConstants@@QAE_NI@Z ; SuperBlockConstants::IsScalarRegisterConstant
	movzx	ecx, al
	test	ecx, ecx
	je	SHORT $LN2@PropagateC@37
	mov	edx, 1
	test	edx, edx
	je	SHORT $LN2@PropagateC@37

; 1383 :   {
; 1384 :     src1 = constants.GetScalarRegisterConstant(src1Index);

	mov	eax, DWORD PTR _src1Index$[ebp]
	push	eax
	mov	ecx, DWORD PTR _constants$[ebp]
	call	?GetScalarRegisterConstant@SuperBlockConstants@@QAEII@Z ; SuperBlockConstants::GetScalarRegisterConstant
	mov	DWORD PTR _src1$[ebp], eax

; 1385 :     constants.nuance->fields[FIELD_ALU_HANDLER] = Handler_ANDImmediateShiftScalar;

	mov	ecx, DWORD PTR _constants$[ebp]
	mov	edx, DWORD PTR [ecx+4]
	mov	DWORD PTR [edx], 77			; 0000004dH

; 1386 :     constants.nuance->fields[FIELD_ALU_SRC1] = constants.GetScalarRegisterConstant(src1Index);

	mov	eax, DWORD PTR _src1Index$[ebp]
	push	eax
	mov	ecx, DWORD PTR _constants$[ebp]
	call	?GetScalarRegisterConstant@SuperBlockConstants@@QAEII@Z ; SuperBlockConstants::GetScalarRegisterConstant
	mov	ecx, DWORD PTR _constants$[ebp]
	mov	edx, DWORD PTR [ecx+4]
	mov	DWORD PTR [edx+8], eax

; 1387 :     constants.ClearScalarInputDependency(src1Index);

	mov	eax, DWORD PTR _src1Index$[ebp]
	push	eax
	mov	ecx, DWORD PTR _constants$[ebp]
	call	?ClearScalarInputDependency@SuperBlockConstants@@QAEXI@Z ; SuperBlockConstants::ClearScalarInputDependency

; 1388 :     constants.SetScalarInputDependency(src2Index);

	mov	ecx, DWORD PTR _src2Index$[ebp]
	push	ecx
	mov	ecx, DWORD PTR _constants$[ebp]
	call	?SetScalarInputDependency@SuperBlockConstants@@QAEXI@Z ; SuperBlockConstants::SetScalarInputDependency

; 1389 :     constants.SetScalarInputDependency(destIndex);

	mov	edx, DWORD PTR _destIndex$[ebp]
	push	edx
	mov	ecx, DWORD PTR _constants$[ebp]
	call	?SetScalarInputDependency@SuperBlockConstants@@QAEXI@Z ; SuperBlockConstants::SetScalarInputDependency

; 1390 :     PropagateConstants_ANDImmediateShiftScalar(constants);    

	mov	eax, DWORD PTR _constants$[ebp]
	push	eax
	call	?PropagateConstants_ANDImmediateShiftScalar@@YAXAAVSuperBlockConstants@@@Z ; PropagateConstants_ANDImmediateShiftScalar
	add	esp, 4

; 1391 :   }
; 1392 :   else

	jmp	SHORT $LN3@PropagateC@37
$LN2@PropagateC@37:

; 1393 :   {
; 1394 :     constants.status.status = PROPAGATE_CONSTANTS_STATUS_ALU_OK;

	mov	ecx, DWORD PTR _constants$[ebp]
	mov	DWORD PTR [ecx+12], 2

; 1395 :     constants.ClearMiscRegisterConstant(CONSTANT_REG_N);    

	push	18					; 00000012H
	mov	ecx, DWORD PTR _constants$[ebp]
	call	?ClearMiscRegisterConstant@SuperBlockConstants@@QAEXI@Z ; SuperBlockConstants::ClearMiscRegisterConstant

; 1396 :     constants.ClearMiscRegisterConstant(CONSTANT_REG_Z);    

	push	16					; 00000010H
	mov	ecx, DWORD PTR _constants$[ebp]
	call	?ClearMiscRegisterConstant@SuperBlockConstants@@QAEXI@Z ; SuperBlockConstants::ClearMiscRegisterConstant

; 1397 :     constants.ClearScalarRegisterConstant(destIndex);    

	mov	edx, DWORD PTR _destIndex$[ebp]
	push	edx
	mov	ecx, DWORD PTR _constants$[ebp]
	call	?ClearScalarRegisterConstant@SuperBlockConstants@@QAEXI@Z ; SuperBlockConstants::ClearScalarRegisterConstant
$LN3@PropagateC@37:

; 1398 :   }
; 1399 : }

	add	esp, 20					; 00000014H
	cmp	ebp, esp
	call	__RTC_CheckEsp
	mov	esp, ebp
	pop	ebp
	ret	0
?PropagateConstants_ANDScalarShiftScalar@@YAXAAVSuperBlockConstants@@@Z ENDP ; PropagateConstants_ANDScalarShiftScalar
_TEXT	ENDS
PUBLIC	?PropagateConstants_ANDScalarRotateScalar@@YAXAAVSuperBlockConstants@@@Z ; PropagateConstants_ANDScalarRotateScalar
; Function compile flags: /Odtp /RTCsu
_TEXT	SEGMENT
_src2$ = -24						; size = 4
_src1$ = -20						; size = 4
_flagValues$ = -16					; size = 4
_destIndex$ = -12					; size = 4
_src2Index$ = -8					; size = 4
_src1Index$ = -4					; size = 4
_constants$ = 8						; size = 4
?PropagateConstants_ANDScalarRotateScalar@@YAXAAVSuperBlockConstants@@@Z PROC ; PropagateConstants_ANDScalarRotateScalar

; 1401 : {

	push	ebp
	mov	ebp, esp
	sub	esp, 24					; 00000018H
	mov	eax, -858993460				; ccccccccH
	mov	DWORD PTR [ebp-24], eax
	mov	DWORD PTR [ebp-20], eax
	mov	DWORD PTR [ebp-16], eax
	mov	DWORD PTR [ebp-12], eax
	mov	DWORD PTR [ebp-8], eax
	mov	DWORD PTR [ebp-4], eax

; 1402 :   uint32 src1Index = constants.nuance->fields[FIELD_ALU_SRC1];

	mov	eax, DWORD PTR _constants$[ebp]
	mov	ecx, DWORD PTR [eax+4]
	mov	edx, DWORD PTR [ecx+8]
	mov	DWORD PTR _src1Index$[ebp], edx

; 1403 :   uint32 src2Index = constants.nuance->fields[FIELD_ALU_SRC2];

	mov	eax, DWORD PTR _constants$[ebp]
	mov	ecx, DWORD PTR [eax+4]
	mov	edx, DWORD PTR [ecx+12]
	mov	DWORD PTR _src2Index$[ebp], edx

; 1404 :   uint32 destIndex = constants.nuance->fields[FIELD_ALU_DEST]; 

	mov	eax, DWORD PTR _constants$[ebp]
	mov	ecx, DWORD PTR [eax+4]
	mov	edx, DWORD PTR [ecx+16]
	mov	DWORD PTR _destIndex$[ebp], edx

; 1405 :   uint32 flagValues = 0;

	mov	DWORD PTR _flagValues$[ebp], 0

; 1406 :   uint32 src1, src2;
; 1407 : 
; 1408 :   constants.SetMiscRegisterConstant(CONSTANT_REG_V,0);

	push	0
	push	17					; 00000011H
	mov	ecx, DWORD PTR _constants$[ebp]
	call	?SetMiscRegisterConstant@SuperBlockConstants@@QAEXII@Z ; SuperBlockConstants::SetMiscRegisterConstant

; 1409 : 
; 1410 :   if(constants.IsScalarRegisterConstant(src1Index) && constants.IsScalarRegisterConstant(src2Index) && ALLOW_ALU_PROPAGATION)

	mov	eax, DWORD PTR _src1Index$[ebp]
	push	eax
	mov	ecx, DWORD PTR _constants$[ebp]
	call	?IsScalarRegisterConstant@SuperBlockConstants@@QAE_NI@Z ; SuperBlockConstants::IsScalarRegisterConstant
	movzx	ecx, al
	test	ecx, ecx
	je	$LN4@PropagateC@38
	mov	edx, DWORD PTR _src2Index$[ebp]
	push	edx
	mov	ecx, DWORD PTR _constants$[ebp]
	call	?IsScalarRegisterConstant@SuperBlockConstants@@QAE_NI@Z ; SuperBlockConstants::IsScalarRegisterConstant
	movzx	eax, al
	test	eax, eax
	je	$LN4@PropagateC@38
	mov	ecx, 1
	test	ecx, ecx
	je	$LN4@PropagateC@38

; 1411 :   {
; 1412 :     src1 = constants.GetScalarRegisterConstant(src1Index);

	mov	edx, DWORD PTR _src1Index$[ebp]
	push	edx
	mov	ecx, DWORD PTR _constants$[ebp]
	call	?GetScalarRegisterConstant@SuperBlockConstants@@QAEII@Z ; SuperBlockConstants::GetScalarRegisterConstant
	mov	DWORD PTR _src1$[ebp], eax

; 1413 :     src2 = (((int32)(constants.GetScalarRegisterConstant(src2Index) << 26)) >> 26) & 0x3FUL;

	mov	eax, DWORD PTR _src2Index$[ebp]
	push	eax
	mov	ecx, DWORD PTR _constants$[ebp]
	call	?GetScalarRegisterConstant@SuperBlockConstants@@QAEII@Z ; SuperBlockConstants::GetScalarRegisterConstant
	shl	eax, 26					; 0000001aH
	sar	eax, 26					; 0000001aH
	and	eax, 63					; 0000003fH
	mov	DWORD PTR _src2$[ebp], eax

; 1414 : 
; 1415 :     if(src2 & 0x20)

	mov	ecx, DWORD PTR _src2$[ebp]
	and	ecx, 32					; 00000020H
	je	SHORT $LN3@PropagateC@38

; 1416 :     {
; 1417 :       src1 = _lrotl(src1, 64UL - src2);

	mov	edx, 64					; 00000040H
	sub	edx, DWORD PTR _src2$[ebp]
	push	edx
	mov	eax, DWORD PTR _src1$[ebp]
	push	eax
	call	__lrotl
	add	esp, 8
	mov	DWORD PTR _src1$[ebp], eax

; 1418 :     }
; 1419 :     else

	jmp	SHORT $LN2@PropagateC@38
$LN3@PropagateC@38:

; 1420 :     {
; 1421 :       src1 = _lrotr(src1, src2);

