; Listing generated by Microsoft (R) Optimizing Compiler Version 14.00.50727.762 

	TITLE	c:\NuanceExperimental\PropagateConstants_MEM.cpp
	.686P
	.XMM
	include listing.inc
	.model	flat

INCLUDELIB LIBCMTD
INCLUDELIB OLDNAMES

_DATA	SEGMENT
__bad_alloc_Message DD FLAT:$SG12404
_DATA	ENDS
CONST	SEGMENT
$SG12404 DB	'bad allocation', 00H
CONST	ENDS
PUBLIC	?SetMiscRegisterConstant@SuperBlockConstants@@QAEXII@Z ; SuperBlockConstants::SetMiscRegisterConstant
PUBLIC	?SetInstructionFlags@SuperBlockConstants@@QAEXI@Z ; SuperBlockConstants::SetInstructionFlags
PUBLIC	?PropagateConstants_UpdateFlagConstants@@YAXAAVSuperBlockConstants@@@Z ; PropagateConstants_UpdateFlagConstants
EXTRN	__RTC_CheckEsp:PROC
EXTRN	__RTC_Shutdown:PROC
EXTRN	__RTC_InitBase:PROC
;	COMDAT rtc$TMZ
; File c:\nuanceexperimental\propagateconstants_mem.cpp
rtc$TMZ	SEGMENT
__RTC_Shutdown.rtc$TMZ DD FLAT:__RTC_Shutdown
rtc$TMZ	ENDS
;	COMDAT rtc$IMZ
rtc$IMZ	SEGMENT
__RTC_InitBase.rtc$IMZ DD FLAT:__RTC_InitBase
; Function compile flags: /Odtp /RTCsu
rtc$IMZ	ENDS
_TEXT	SEGMENT
_flagMask$ = -8						; size = 4
_flagValues$ = -4					; size = 4
_constants$ = 8						; size = 4
?PropagateConstants_UpdateFlagConstants@@YAXAAVSuperBlockConstants@@@Z PROC ; PropagateConstants_UpdateFlagConstants

; 15   : {

	push	ebp
	mov	ebp, esp
	sub	esp, 8
	mov	DWORD PTR [ebp-8], -858993460		; ccccccccH
	mov	DWORD PTR [ebp-4], -858993460		; ccccccccH

; 16   :   uint32 flagValues;
; 17   :   uint32 flagMask = constants.nuance->fields[FIELD_CONSTANT_FLAGMASK];

	mov	eax, DWORD PTR _constants$[ebp]
	mov	ecx, DWORD PTR [eax+4]
	mov	edx, DWORD PTR [ecx+12]
	mov	DWORD PTR _flagMask$[ebp], edx

; 18   : 
; 19   :   if(flagMask)

	cmp	DWORD PTR _flagMask$[ebp], 0
	je	$LN13@PropagateC

; 20   :   {
; 21   :     flagValues = constants.nuance->fields[FIELD_CONSTANT_FLAGVALUES];

	mov	eax, DWORD PTR _constants$[ebp]
	mov	ecx, DWORD PTR [eax+4]
	mov	edx, DWORD PTR [ecx+16]
	mov	DWORD PTR _flagValues$[ebp], edx

; 22   :     //Lock instruction in place if it sets flag constants
; 23   :     constants.SetInstructionFlags(SUPERBLOCKINFO_LOCKED);

	push	65536					; 00010000H
	mov	ecx, DWORD PTR _constants$[ebp]
	call	?SetInstructionFlags@SuperBlockConstants@@QAEXI@Z ; SuperBlockConstants::SetInstructionFlags

; 24   :     if(flagMask & CC_COPROCESSOR0)

	mov	eax, DWORD PTR _flagMask$[ebp]
	and	eax, 512				; 00000200H
	je	SHORT $LN11@PropagateC

; 25   :     {
; 26   :       constants.SetMiscRegisterConstant(CONSTANT_REG_CP0, (flagValues & CC_COPROCESSOR0) ? 1 : 0);

	mov	ecx, DWORD PTR _flagValues$[ebp]
	and	ecx, 512				; 00000200H
	neg	ecx
	sbb	ecx, ecx
	neg	ecx
	push	ecx
	push	24					; 00000018H
	mov	ecx, DWORD PTR _constants$[ebp]
	call	?SetMiscRegisterConstant@SuperBlockConstants@@QAEXII@Z ; SuperBlockConstants::SetMiscRegisterConstant
$LN11@PropagateC:

; 27   :     }
; 28   :     if(flagMask & CC_COPROCESSOR1)

	mov	edx, DWORD PTR _flagMask$[ebp]
	and	edx, 1024				; 00000400H
	je	SHORT $LN10@PropagateC

; 29   :     {
; 30   :       constants.SetMiscRegisterConstant(CONSTANT_REG_CP1, (flagValues & CC_COPROCESSOR1) ? 1 : 0);

	mov	eax, DWORD PTR _flagValues$[ebp]
	and	eax, 1024				; 00000400H
	neg	eax
	sbb	eax, eax
	neg	eax
	push	eax
	push	25					; 00000019H
	mov	ecx, DWORD PTR _constants$[ebp]
	call	?SetMiscRegisterConstant@SuperBlockConstants@@QAEXII@Z ; SuperBlockConstants::SetMiscRegisterConstant
$LN10@PropagateC:

; 31   :     }
; 32   :     if(flagMask & CC_MODMI)

	mov	ecx, DWORD PTR _flagMask$[ebp]
	and	ecx, 256				; 00000100H
	je	SHORT $LN9@PropagateC

; 33   :     {
; 34   :       constants.SetMiscRegisterConstant(CONSTANT_REG_MODMI, (flagValues & CC_MODMI) ? 1 : 0);

	mov	edx, DWORD PTR _flagValues$[ebp]
	and	edx, 256				; 00000100H
	neg	edx
	sbb	edx, edx
	neg	edx
	push	edx
	push	23					; 00000017H
	mov	ecx, DWORD PTR _constants$[ebp]
	call	?SetMiscRegisterConstant@SuperBlockConstants@@QAEXII@Z ; SuperBlockConstants::SetMiscRegisterConstant
$LN9@PropagateC:

; 35   :     }
; 36   :     if(flagMask & CC_MODGE)

	mov	eax, DWORD PTR _flagMask$[ebp]
	and	eax, 128				; 00000080H
	je	SHORT $LN8@PropagateC

; 37   :     {
; 38   :       constants.SetMiscRegisterConstant(CONSTANT_REG_MODGE, (flagValues & CC_MODGE) ? 1 : 0);

	mov	ecx, DWORD PTR _flagValues$[ebp]
	and	ecx, 128				; 00000080H
	neg	ecx
	sbb	ecx, ecx
	neg	ecx
	push	ecx
	push	22					; 00000016H
	mov	ecx, DWORD PTR _constants$[ebp]
	call	?SetMiscRegisterConstant@SuperBlockConstants@@QAEXII@Z ; SuperBlockConstants::SetMiscRegisterConstant
$LN8@PropagateC:

; 39   :     }
; 40   :     if(flagMask & CC_COUNTER0_ZERO)

	mov	edx, DWORD PTR _flagMask$[ebp]
	and	edx, 32					; 00000020H
	je	SHORT $LN7@PropagateC

; 41   :     {
; 42   :       constants.SetMiscRegisterConstant(CONSTANT_REG_C0Z, (flagValues & CC_COUNTER0_ZERO) ? 1 : 0);

	mov	eax, DWORD PTR _flagValues$[ebp]
	and	eax, 32					; 00000020H
	neg	eax
	sbb	eax, eax
	neg	eax
	push	eax
	push	20					; 00000014H
	mov	ecx, DWORD PTR _constants$[ebp]
	call	?SetMiscRegisterConstant@SuperBlockConstants@@QAEXII@Z ; SuperBlockConstants::SetMiscRegisterConstant
$LN7@PropagateC:

; 43   :     }
; 44   :     if(flagMask & CC_COUNTER1_ZERO)

	mov	ecx, DWORD PTR _flagMask$[ebp]
	and	ecx, 64					; 00000040H
	je	SHORT $LN6@PropagateC

; 45   :     {
; 46   :       constants.SetMiscRegisterConstant(CONSTANT_REG_C1Z, (flagValues & CC_COUNTER1_ZERO) ? 1 : 0);

	mov	edx, DWORD PTR _flagValues$[ebp]
	and	edx, 64					; 00000040H
	neg	edx
	sbb	edx, edx
	neg	edx
	push	edx
	push	21					; 00000015H
	mov	ecx, DWORD PTR _constants$[ebp]
	call	?SetMiscRegisterConstant@SuperBlockConstants@@QAEXII@Z ; SuperBlockConstants::SetMiscRegisterConstant
$LN6@PropagateC:

; 47   :     }
; 48   :     if(flagMask & CC_MUL_OVERFLOW)

	mov	eax, DWORD PTR _flagMask$[ebp]
	and	eax, 16					; 00000010H
	je	SHORT $LN5@PropagateC

; 49   :     {
; 50   :       constants.SetMiscRegisterConstant(CONSTANT_REG_MV, (flagValues & CC_MUL_OVERFLOW) ? 1 : 0);

	mov	ecx, DWORD PTR _flagValues$[ebp]
	and	ecx, 16					; 00000010H
	neg	ecx
	sbb	ecx, ecx
	neg	ecx
	push	ecx
	push	19					; 00000013H
	mov	ecx, DWORD PTR _constants$[ebp]
	call	?SetMiscRegisterConstant@SuperBlockConstants@@QAEXII@Z ; SuperBlockConstants::SetMiscRegisterConstant
$LN5@PropagateC:

; 51   :     }
; 52   :     if(flagMask & CC_ALU_NEGATIVE)

	mov	edx, DWORD PTR _flagMask$[ebp]
	and	edx, 8
	je	SHORT $LN4@PropagateC

; 53   :     {
; 54   :       constants.SetMiscRegisterConstant(CONSTANT_REG_N, (flagValues & CC_ALU_NEGATIVE) ? 1 : 0);

	mov	eax, DWORD PTR _flagValues$[ebp]
	and	eax, 8
	neg	eax
	sbb	eax, eax
	neg	eax
	push	eax
	push	18					; 00000012H
	mov	ecx, DWORD PTR _constants$[ebp]
	call	?SetMiscRegisterConstant@SuperBlockConstants@@QAEXII@Z ; SuperBlockConstants::SetMiscRegisterConstant
$LN4@PropagateC:

; 55   :     }
; 56   :     if(flagMask & CC_ALU_OVERFLOW)

	mov	ecx, DWORD PTR _flagMask$[ebp]
	and	ecx, 4
	je	SHORT $LN3@PropagateC

; 57   :     {
; 58   :       constants.SetMiscRegisterConstant(CONSTANT_REG_V, (flagValues & CC_ALU_OVERFLOW) ? 1 : 0);

	mov	edx, DWORD PTR _flagValues$[ebp]
	and	edx, 4
	neg	edx
	sbb	edx, edx
	neg	edx
	push	edx
	push	17					; 00000011H
	mov	ecx, DWORD PTR _constants$[ebp]
	call	?SetMiscRegisterConstant@SuperBlockConstants@@QAEXII@Z ; SuperBlockConstants::SetMiscRegisterConstant
$LN3@PropagateC:

; 59   :     }
; 60   :     if(flagMask & CC_ALU_CARRY)

	mov	eax, DWORD PTR _flagMask$[ebp]
	and	eax, 2
	je	SHORT $LN2@PropagateC

; 61   :     {
; 62   :       constants.SetMiscRegisterConstant(CONSTANT_REG_C, (flagValues & CC_ALU_CARRY) ? 1 : 0);

	mov	ecx, DWORD PTR _flagValues$[ebp]
	and	ecx, 2
	neg	ecx
	sbb	ecx, ecx
	neg	ecx
	push	ecx
	push	15					; 0000000fH
	mov	ecx, DWORD PTR _constants$[ebp]
	call	?SetMiscRegisterConstant@SuperBlockConstants@@QAEXII@Z ; SuperBlockConstants::SetMiscRegisterConstant
$LN2@PropagateC:

; 63   :     }
; 64   :     if(flagMask & CC_ALU_ZERO)

	mov	edx, DWORD PTR _flagMask$[ebp]
	and	edx, 1
	je	SHORT $LN13@PropagateC

; 65   :     {
; 66   :       constants.SetMiscRegisterConstant(CONSTANT_REG_Z, (flagValues & CC_ALU_ZERO) ? 1 : 0);

	mov	eax, DWORD PTR _flagValues$[ebp]
	and	eax, 1
	neg	eax
	sbb	eax, eax
	neg	eax
	push	eax
	push	16					; 00000010H
	mov	ecx, DWORD PTR _constants$[ebp]
	call	?SetMiscRegisterConstant@SuperBlockConstants@@QAEXII@Z ; SuperBlockConstants::SetMiscRegisterConstant
$LN13@PropagateC:

; 67   :     }
; 68   :   }
; 69   : }

	add	esp, 8
	cmp	ebp, esp
	call	__RTC_CheckEsp
	mov	esp, ebp
	pop	ebp
	ret	0
?PropagateConstants_UpdateFlagConstants@@YAXAAVSuperBlockConstants@@@Z ENDP ; PropagateConstants_UpdateFlagConstants
; Function compile flags: /Odtp /RTCsu
; File c:\nuanceexperimental\superblockconstants.h
_TEXT	ENDS
;	COMDAT ?SetInstructionFlags@SuperBlockConstants@@QAEXI@Z
_TEXT	SEGMENT
_this$ = -4						; size = 4
_mask$ = 8						; size = 4
?SetInstructionFlags@SuperBlockConstants@@QAEXI@Z PROC	; SuperBlockConstants::SetInstructionFlags, COMDAT
; _this$ = ecx

; 81   :   {

	push	ebp
	mov	ebp, esp
	push	ecx
	mov	DWORD PTR [ebp-4], -858993460		; ccccccccH
	mov	DWORD PTR _this$[ebp], ecx

; 82   :     pCurrentInstructionEntry->flags |= mask;

	mov	eax, DWORD PTR _this$[ebp]
	mov	ecx, DWORD PTR [eax+8]
	mov	edx, DWORD PTR [ecx+28]
	or	edx, DWORD PTR _mask$[ebp]
	mov	eax, DWORD PTR _this$[ebp]
	mov	ecx, DWORD PTR [eax+8]
	mov	DWORD PTR [ecx+28], edx

; 83   :   }

	mov	esp, ebp
	pop	ebp
	ret	4
?SetInstructionFlags@SuperBlockConstants@@QAEXI@Z ENDP	; SuperBlockConstants::SetInstructionFlags
; Function compile flags: /Odtp /RTCsu
_TEXT	ENDS
;	COMDAT ?SetMiscRegisterConstant@SuperBlockConstants@@QAEXII@Z
_TEXT	SEGMENT
_this$ = -4						; size = 4
_index$ = 8						; size = 4
_value$ = 12						; size = 4
?SetMiscRegisterConstant@SuperBlockConstants@@QAEXII@Z PROC ; SuperBlockConstants::SetMiscRegisterConstant, COMDAT
; _this$ = ecx

; 173  :   {

	push	ebp
	mov	ebp, esp
	push	ecx
	mov	DWORD PTR [ebp-4], -858993460		; ccccccccH
	mov	DWORD PTR _this$[ebp], ecx

; 174  :     tempMiscRegisterConstantsStatus |= (1UL << index);

	mov	eax, 1
	mov	ecx, DWORD PTR _index$[ebp]
	shl	eax, cl
	mov	ecx, DWORD PTR _this$[ebp]
	or	eax, DWORD PTR [ecx+568]
	mov	edx, DWORD PTR _this$[ebp]
	mov	DWORD PTR [edx+568], eax

; 175  :     tempMiscRegisterConstants[index] = value;

	mov	eax, DWORD PTR _index$[ebp]
	mov	ecx, DWORD PTR _this$[ebp]
	mov	edx, DWORD PTR _value$[ebp]
	mov	DWORD PTR [ecx+eax*4+172], edx

; 176  :   }

	mov	esp, ebp
	pop	ebp
	ret	8
?SetMiscRegisterConstant@SuperBlockConstants@@QAEXII@Z ENDP ; SuperBlockConstants::SetMiscRegisterConstant
_TEXT	ENDS
PUBLIC	?SetScalarRegisterConstant@SuperBlockConstants@@QAEXII@Z ; SuperBlockConstants::SetScalarRegisterConstant
PUBLIC	?PropagateConstants_StoreScalarRegisterConstant@@YAXAAVSuperBlockConstants@@@Z ; PropagateConstants_StoreScalarRegisterConstant
; Function compile flags: /Odtp /RTCsu
; File c:\nuanceexperimental\propagateconstants_mem.cpp
_TEXT	SEGMENT
_constants$ = 8						; size = 4
?PropagateConstants_StoreScalarRegisterConstant@@YAXAAVSuperBlockConstants@@@Z PROC ; PropagateConstants_StoreScalarRegisterConstant

; 72   : {

	push	ebp
	mov	ebp, esp

; 73   :   constants.status.status = PROPAGATE_CONSTANTS_STORE_SCALAR_REGISTER_CONSTANT;

	mov	eax, DWORD PTR _constants$[ebp]
	mov	DWORD PTR [eax+12], -1

; 74   :   constants.status.info[0] = constants.nuance->fields[FIELD_CONSTANT_ADDRESS];

	mov	ecx, DWORD PTR _constants$[ebp]
	mov	edx, DWORD PTR [ecx+4]
	mov	eax, DWORD PTR _constants$[ebp]
	mov	ecx, DWORD PTR [edx+4]
	mov	DWORD PTR [eax+16], ecx

; 75   :   constants.SetScalarRegisterConstant(constants.nuance->fields[FIELD_CONSTANT_ADDRESS],constants.nuance->fields[FIELD_CONSTANT_VALUE]);

	mov	edx, DWORD PTR _constants$[ebp]
	mov	eax, DWORD PTR [edx+4]
	mov	ecx, DWORD PTR [eax+8]
	push	ecx
	mov	edx, DWORD PTR _constants$[ebp]
	mov	eax, DWORD PTR [edx+4]
	mov	ecx, DWORD PTR [eax+4]
	push	ecx
	mov	ecx, DWORD PTR _constants$[ebp]
	call	?SetScalarRegisterConstant@SuperBlockConstants@@QAEXII@Z ; SuperBlockConstants::SetScalarRegisterConstant

; 76   :   constants.bConstantPropagated = true;

	mov	edx, DWORD PTR _constants$[ebp]
	mov	BYTE PTR [edx+36], 1

; 77   :   PropagateConstants_UpdateFlagConstants(constants);

	mov	eax, DWORD PTR _constants$[ebp]
	push	eax
	call	?PropagateConstants_UpdateFlagConstants@@YAXAAVSuperBlockConstants@@@Z ; PropagateConstants_UpdateFlagConstants
	add	esp, 4

; 78   : }

	cmp	ebp, esp
	call	__RTC_CheckEsp
	pop	ebp
	ret	0
?PropagateConstants_StoreScalarRegisterConstant@@YAXAAVSuperBlockConstants@@@Z ENDP ; PropagateConstants_StoreScalarRegisterConstant
; Function compile flags: /Odtp /RTCsu
; File c:\nuanceexperimental\superblockconstants.h
_TEXT	ENDS
;	COMDAT ?SetScalarRegisterConstant@SuperBlockConstants@@QAEXII@Z
_TEXT	SEGMENT
_this$ = -4						; size = 4
_index$ = 8						; size = 4
_value$ = 12						; size = 4
?SetScalarRegisterConstant@SuperBlockConstants@@QAEXII@Z PROC ; SuperBlockConstants::SetScalarRegisterConstant, COMDAT
; _this$ = ecx

; 168  :   {

	push	ebp
	mov	ebp, esp
	push	ecx
	mov	DWORD PTR [ebp-4], -858993460		; ccccccccH
	mov	DWORD PTR _this$[ebp], ecx

; 169  :     tempScalarRegisterConstantsStatus |= (1UL << index);

	mov	eax, 1
	mov	ecx, DWORD PTR _index$[ebp]
	shl	eax, cl
	mov	ecx, DWORD PTR _this$[ebp]
	or	eax, DWORD PTR [ecx+564]
	mov	edx, DWORD PTR _this$[ebp]
	mov	DWORD PTR [edx+564], eax

; 170  :     tempScalarRegisterConstants[index] = value;

	mov	eax, DWORD PTR _index$[ebp]
	mov	ecx, DWORD PTR _this$[ebp]
	mov	edx, DWORD PTR _value$[ebp]
	mov	DWORD PTR [ecx+eax*4+44], edx

; 171  :   }

	mov	esp, ebp
	pop	ebp
	ret	8
?SetScalarRegisterConstant@SuperBlockConstants@@QAEXII@Z ENDP ; SuperBlockConstants::SetScalarRegisterConstant
_TEXT	ENDS
PUBLIC	?PropagateConstants_StoreMiscRegisterConstant@@YAXAAVSuperBlockConstants@@@Z ; PropagateConstants_StoreMiscRegisterConstant
; Function compile flags: /Odtp /RTCsu
; File c:\nuanceexperimental\propagateconstants_mem.cpp
_TEXT	SEGMENT
_constants$ = 8						; size = 4
?PropagateConstants_StoreMiscRegisterConstant@@YAXAAVSuperBlockConstants@@@Z PROC ; PropagateConstants_StoreMiscRegisterConstant

; 81   : {

	push	ebp
	mov	ebp, esp

; 82   :   constants.status.status = PROPAGATE_CONSTANTS_STORE_MISC_REGISTER_CONSTANT;

	mov	eax, DWORD PTR _constants$[ebp]
	mov	DWORD PTR [eax+12], -2			; fffffffeH

; 83   :   constants.status.info[0] = constants.nuance->fields[FIELD_CONSTANT_ADDRESS];

	mov	ecx, DWORD PTR _constants$[ebp]
	mov	edx, DWORD PTR [ecx+4]
	mov	eax, DWORD PTR _constants$[ebp]
	mov	ecx, DWORD PTR [edx+4]
	mov	DWORD PTR [eax+16], ecx

; 84   : 
; 85   :   if(constants.nuance->fields[FIELD_CONSTANT_ADDRESS] != CONSTANT_REG_DISCARD)

	mov	edx, DWORD PTR _constants$[ebp]
	mov	eax, DWORD PTR [edx+4]
	cmp	DWORD PTR [eax+4], 32			; 00000020H
	je	SHORT $LN1@PropagateC@2

; 86   :   {
; 87   :     constants.SetMiscRegisterConstant(constants.nuance->fields[FIELD_CONSTANT_ADDRESS],constants.nuance->fields[FIELD_CONSTANT_VALUE]);

	mov	ecx, DWORD PTR _constants$[ebp]
	mov	edx, DWORD PTR [ecx+4]
	mov	eax, DWORD PTR [edx+8]
	push	eax
	mov	ecx, DWORD PTR _constants$[ebp]
	mov	edx, DWORD PTR [ecx+4]
	mov	eax, DWORD PTR [edx+4]
	push	eax
	mov	ecx, DWORD PTR _constants$[ebp]
	call	?SetMiscRegisterConstant@SuperBlockConstants@@QAEXII@Z ; SuperBlockConstants::SetMiscRegisterConstant

; 88   :     //This lock should be updated with a mask that only locks if a side-effect will occur
; 89   :     constants.SetInstructionFlags(SUPERBLOCKINFO_LOCKED);

	push	65536					; 00010000H
	mov	ecx, DWORD PTR _constants$[ebp]
	call	?SetInstructionFlags@SuperBlockConstants@@QAEXI@Z ; SuperBlockConstants::SetInstructionFlags
$LN1@PropagateC@2:

; 90   :   }
; 91   :   constants.bConstantPropagated = true;

	mov	ecx, DWORD PTR _constants$[ebp]
	mov	BYTE PTR [ecx+36], 1

; 92   :   PropagateConstants_UpdateFlagConstants(constants);

	mov	edx, DWORD PTR _constants$[ebp]
	push	edx
	call	?PropagateConstants_UpdateFlagConstants@@YAXAAVSuperBlockConstants@@@Z ; PropagateConstants_UpdateFlagConstants
	add	esp, 4

; 93   : }

	cmp	ebp, esp
	call	__RTC_CheckEsp
	pop	ebp
	ret	0
?PropagateConstants_StoreMiscRegisterConstant@@YAXAAVSuperBlockConstants@@@Z ENDP ; PropagateConstants_StoreMiscRegisterConstant
_TEXT	ENDS
PUBLIC	?ClearScalarRegisterConstant@SuperBlockConstants@@QAEXI@Z ; SuperBlockConstants::ClearScalarRegisterConstant
PUBLIC	?ClearScalarInputDependency@SuperBlockConstants@@QAEXI@Z ; SuperBlockConstants::ClearScalarInputDependency
PUBLIC	?GetScalarRegisterConstant@SuperBlockConstants@@QAEII@Z ; SuperBlockConstants::GetScalarRegisterConstant
PUBLIC	?IsScalarRegisterConstant@SuperBlockConstants@@QAE_NI@Z ; SuperBlockConstants::IsScalarRegisterConstant
PUBLIC	?PropagateConstants_Mirror@@YAXAAVSuperBlockConstants@@@Z ; PropagateConstants_Mirror
; Function compile flags: /Odtp /RTCsu
_TEXT	SEGMENT
_destValue$ = -12					; size = 4
_destIndex$ = -8					; size = 4
_srcIndex$ = -4						; size = 4
_constants$ = 8						; size = 4
?PropagateConstants_Mirror@@YAXAAVSuperBlockConstants@@@Z PROC ; PropagateConstants_Mirror

; 96   : {

	push	ebp
	mov	ebp, esp
	sub	esp, 12					; 0000000cH
	mov	DWORD PTR [ebp-12], -858993460		; ccccccccH
	mov	DWORD PTR [ebp-8], -858993460		; ccccccccH
	mov	DWORD PTR [ebp-4], -858993460		; ccccccccH

; 97   :   uint32 srcIndex = constants.nuance->fields[FIELD_MEM_FROM];

	mov	eax, DWORD PTR _constants$[ebp]
	mov	ecx, DWORD PTR [eax+4]
	mov	edx, DWORD PTR [ecx+12]
	mov	DWORD PTR _srcIndex$[ebp], edx

; 98   :   uint32 destIndex = constants.nuance->fields[FIELD_MEM_TO]; 

	mov	eax, DWORD PTR _constants$[ebp]
	mov	ecx, DWORD PTR [eax+4]
	mov	edx, DWORD PTR [ecx+8]
	mov	DWORD PTR _destIndex$[ebp], edx

; 99   :   uint32 destValue;
; 100  : 
; 101  :   if(constants.IsScalarRegisterConstant(srcIndex) && ALLOW_MEM_PROPAGATION)

	mov	eax, DWORD PTR _srcIndex$[ebp]
	push	eax
	mov	ecx, DWORD PTR _constants$[ebp]
	call	?IsScalarRegisterConstant@SuperBlockConstants@@QAE_NI@Z ; SuperBlockConstants::IsScalarRegisterConstant
	movzx	ecx, al
	test	ecx, ecx
	je	$LN2@PropagateC@3
	mov	edx, 1
	test	edx, edx
	je	$LN2@PropagateC@3

; 102  :   {
; 103  :     destValue = constants.GetScalarRegisterConstant(srcIndex);

	mov	eax, DWORD PTR _srcIndex$[ebp]
	push	eax
	mov	ecx, DWORD PTR _constants$[ebp]
	call	?GetScalarRegisterConstant@SuperBlockConstants@@QAEII@Z ; SuperBlockConstants::GetScalarRegisterConstant
	mov	DWORD PTR _destValue$[ebp], eax

; 104  : 
; 105  :     destValue = (((destValue & 0xaaaaaaaa) >> 1) | ((destValue & 0x55555555) << 1));

	mov	ecx, DWORD PTR _destValue$[ebp]
	and	ecx, -1431655766			; aaaaaaaaH
	shr	ecx, 1
	mov	edx, DWORD PTR _destValue$[ebp]
	and	edx, 1431655765				; 55555555H
	shl	edx, 1
	or	ecx, edx
	mov	DWORD PTR _destValue$[ebp], ecx

; 106  : 	  destValue = (((destValue & 0xcccccccc) >> 2) | ((destValue & 0x33333333) << 2));

	mov	eax, DWORD PTR _destValue$[ebp]
	and	eax, -858993460				; ccccccccH
	shr	eax, 2
	mov	ecx, DWORD PTR _destValue$[ebp]
	and	ecx, 858993459				; 33333333H
	shl	ecx, 2
	or	eax, ecx
	mov	DWORD PTR _destValue$[ebp], eax

; 107  : 	  destValue = (((destValue & 0xf0f0f0f0) >> 4) | ((destValue & 0x0f0f0f0f) << 4));

	mov	edx, DWORD PTR _destValue$[ebp]
	and	edx, -252645136				; f0f0f0f0H
	shr	edx, 4
	mov	eax, DWORD PTR _destValue$[ebp]
	and	eax, 252645135				; 0f0f0f0fH
	shl	eax, 4
	or	edx, eax
	mov	DWORD PTR _destValue$[ebp], edx

; 108  : 	  destValue = (((destValue & 0xff00ff00) >> 8) | ((destValue & 0x00ff00ff) << 8));

	mov	ecx, DWORD PTR _destValue$[ebp]
	and	ecx, -16711936				; ff00ff00H
	shr	ecx, 8
	mov	edx, DWORD PTR _destValue$[ebp]
	and	edx, 16711935				; 00ff00ffH
	shl	edx, 8
	or	ecx, edx
	mov	DWORD PTR _destValue$[ebp], ecx

; 109  : 	
; 110  :     destValue = ((destValue >> 16) | (destValue << 16));

	mov	eax, DWORD PTR _destValue$[ebp]
	shr	eax, 16					; 00000010H
	mov	ecx, DWORD PTR _destValue$[ebp]
	shl	ecx, 16					; 00000010H
	or	eax, ecx
	mov	DWORD PTR _destValue$[ebp], eax

; 111  :     constants.nuance->fields[FIELD_CONSTANT_HANDLER] = Handler_StoreScalarRegisterConstant;

	mov	edx, DWORD PTR _constants$[ebp]
	mov	eax, DWORD PTR [edx+4]
	mov	DWORD PTR [eax], 217			; 000000d9H

; 112  :     constants.nuance->fields[FIELD_CONSTANT_ADDRESS] = destIndex;

	mov	ecx, DWORD PTR _constants$[ebp]
	mov	edx, DWORD PTR [ecx+4]
	mov	eax, DWORD PTR _destIndex$[ebp]
	mov	DWORD PTR [edx+4], eax

; 113  :     constants.nuance->fields[FIELD_CONSTANT_VALUE] = destValue;

	mov	ecx, DWORD PTR _constants$[ebp]
	mov	edx, DWORD PTR [ecx+4]
	mov	eax, DWORD PTR _destValue$[ebp]
	mov	DWORD PTR [edx+8], eax

; 114  :     constants.nuance->fields[FIELD_CONSTANT_FLAGMASK] = 0;

	mov	ecx, DWORD PTR _constants$[ebp]
	mov	edx, DWORD PTR [ecx+4]
	mov	DWORD PTR [edx+12], 0

; 115  :     constants.ClearScalarInputDependency(srcIndex);

	mov	eax, DWORD PTR _srcIndex$[ebp]
	push	eax
	mov	ecx, DWORD PTR _constants$[ebp]
	call	?ClearScalarInputDependency@SuperBlockConstants@@QAEXI@Z ; SuperBlockConstants::ClearScalarInputDependency

; 116  :     constants.bConstantPropagated = true;

	mov	ecx, DWORD PTR _constants$[ebp]
	mov	BYTE PTR [ecx+36], 1

; 117  :     PropagateConstants_StoreScalarRegisterConstant(constants);    

	mov	edx, DWORD PTR _constants$[ebp]
	push	edx
	call	?PropagateConstants_StoreScalarRegisterConstant@@YAXAAVSuperBlockConstants@@@Z ; PropagateConstants_StoreScalarRegisterConstant
	add	esp, 4

; 118  :   }
; 119  :   else

	jmp	SHORT $LN3@PropagateC@3
$LN2@PropagateC@3:

; 120  :   {
; 121  :     constants.status.status = PROPAGATE_CONSTANTS_STATUS_MEM_OK;  

	mov	eax, DWORD PTR _constants$[ebp]
	mov	DWORD PTR [eax+12], 4

; 122  :     constants.ClearScalarRegisterConstant(destIndex);

	mov	ecx, DWORD PTR _destIndex$[ebp]
	push	ecx
	mov	ecx, DWORD PTR _constants$[ebp]
	call	?ClearScalarRegisterConstant@SuperBlockConstants@@QAEXI@Z ; SuperBlockConstants::ClearScalarRegisterConstant
$LN3@PropagateC@3:

; 123  :   }
; 124  : }

	add	esp, 12					; 0000000cH
	cmp	ebp, esp
	call	__RTC_CheckEsp
	mov	esp, ebp
	pop	ebp
	ret	0
?PropagateConstants_Mirror@@YAXAAVSuperBlockConstants@@@Z ENDP ; PropagateConstants_Mirror
; Function compile flags: /Odtp /RTCsu
; File c:\nuanceexperimental\superblockconstants.h
_TEXT	ENDS
;	COMDAT ?ClearScalarInputDependency@SuperBlockConstants@@QAEXI@Z
_TEXT	SEGMENT
_this$ = -4						; size = 4
_index$ = 8						; size = 4
?ClearScalarInputDependency@SuperBlockConstants@@QAEXI@Z PROC ; SuperBlockConstants::ClearScalarInputDependency, COMDAT
; _this$ = ecx

; 93   :   {

	push	ebp
	mov	ebp, esp
	push	ecx
	mov	DWORD PTR [ebp-4], -858993460		; ccccccccH
	mov	DWORD PTR _this$[ebp], ecx

; 94   :     pCurrentInstructionEntry->scalarInputDependencies &= ~(1UL << index);

	mov	eax, DWORD PTR _this$[ebp]
	mov	edx, DWORD PTR [eax+8]
	mov	eax, 1
	mov	ecx, DWORD PTR _index$[ebp]
	shl	eax, cl
	not	eax
	and	eax, DWORD PTR [edx+32]
	mov	ecx, DWORD PTR _this$[ebp]
	mov	edx, DWORD PTR [ecx+8]
	mov	DWORD PTR [edx+32], eax

; 95   :   }

	mov	esp, ebp
	pop	ebp
	ret	4
?ClearScalarInputDependency@SuperBlockConstants@@QAEXI@Z ENDP ; SuperBlockConstants::ClearScalarInputDependency
; Function compile flags: /Odtp /RTCsu
_TEXT	ENDS
;	COMDAT ?ClearScalarRegisterConstant@SuperBlockConstants@@QAEXI@Z
_TEXT	SEGMENT
_this$ = -4						; size = 4
_index$ = 8						; size = 4
?ClearScalarRegisterConstant@SuperBlockConstants@@QAEXI@Z PROC ; SuperBlockConstants::ClearScalarRegisterConstant, COMDAT
; _this$ = ecx

; 141  :   {

	push	ebp
	mov	ebp, esp
	push	ecx
	mov	DWORD PTR [ebp-4], -858993460		; ccccccccH
	mov	DWORD PTR _this$[ebp], ecx

; 142  :     tempScalarRegisterConstantsStatus &= ~(0x1UL << index);

	mov	eax, 1
	mov	ecx, DWORD PTR _index$[ebp]
	shl	eax, cl
	not	eax
	mov	ecx, DWORD PTR _this$[ebp]
	and	eax, DWORD PTR [ecx+564]
	mov	edx, DWORD PTR _this$[ebp]
	mov	DWORD PTR [edx+564], eax

; 143  :   }

	mov	esp, ebp
	pop	ebp
	ret	4
?ClearScalarRegisterConstant@SuperBlockConstants@@QAEXI@Z ENDP ; SuperBlockConstants::ClearScalarRegisterConstant
; Function compile flags: /Odtp /RTCsu
_TEXT	ENDS
;	COMDAT ?IsScalarRegisterConstant@SuperBlockConstants@@QAE_NI@Z
_TEXT	SEGMENT
_this$ = -4						; size = 4
_index$ = 8						; size = 4
?IsScalarRegisterConstant@SuperBlockConstants@@QAE_NI@Z PROC ; SuperBlockConstants::IsScalarRegisterConstant, COMDAT
; _this$ = ecx

; 205  :   {

	push	ebp
	mov	ebp, esp
	push	ecx
	mov	DWORD PTR [ebp-4], -858993460		; ccccccccH
	mov	DWORD PTR _this$[ebp], ecx

; 206  :     return (scalarRegisterConstantsStatus & (1UL << index)) != 0;

	mov	eax, 1
	mov	ecx, DWORD PTR _index$[ebp]
	shl	eax, cl
	mov	ecx, DWORD PTR _this$[ebp]
	and	eax, DWORD PTR [ecx+556]
	neg	eax
	sbb	eax, eax
	neg	eax

; 207  :   }

	mov	esp, ebp
	pop	ebp
	ret	4
?IsScalarRegisterConstant@SuperBlockConstants@@QAE_NI@Z ENDP ; SuperBlockConstants::IsScalarRegisterConstant
; Function compile flags: /Odtp /RTCsu
_TEXT	ENDS
;	COMDAT ?GetScalarRegisterConstant@SuperBlockConstants@@QAEII@Z
_TEXT	SEGMENT
_this$ = -4						; size = 4
_index$ = 8						; size = 4
?GetScalarRegisterConstant@SuperBlockConstants@@QAEII@Z PROC ; SuperBlockConstants::GetScalarRegisterConstant, COMDAT
; _this$ = ecx

; 213  :   {

	push	ebp
	mov	ebp, esp
	push	ecx
	mov	DWORD PTR [ebp-4], -858993460		; ccccccccH
	mov	DWORD PTR _this$[ebp], ecx

; 214  :     return scalarRegisterConstants[index];

	mov	eax, DWORD PTR _index$[ebp]
	mov	ecx, DWORD PTR _this$[ebp]
	mov	eax, DWORD PTR [ecx+eax*4+300]

; 215  :   }

	mov	esp, ebp
	pop	ebp
	ret	4
?GetScalarRegisterConstant@SuperBlockConstants@@QAEII@Z ENDP ; SuperBlockConstants::GetScalarRegisterConstant
_TEXT	ENDS
PUBLIC	?PropagateConstants_MV_SImmediate@@YAXAAVSuperBlockConstants@@@Z ; PropagateConstants_MV_SImmediate
; Function compile flags: /Odtp /RTCsu
; File c:\nuanceexperimental\propagateconstants_mem.cpp
_TEXT	SEGMENT
_destIndex$ = -8					; size = 4
_srcValue$ = -4						; size = 4
_constants$ = 8						; size = 4
?PropagateConstants_MV_SImmediate@@YAXAAVSuperBlockConstants@@@Z PROC ; PropagateConstants_MV_SImmediate

; 126  : {

	push	ebp
	mov	ebp, esp
	sub	esp, 8
	mov	DWORD PTR [ebp-8], -858993460		; ccccccccH
	mov	DWORD PTR [ebp-4], -858993460		; ccccccccH

; 127  :   uint32 srcValue = constants.nuance->fields[FIELD_MEM_FROM];

	mov	eax, DWORD PTR _constants$[ebp]
	mov	ecx, DWORD PTR [eax+4]
	mov	edx, DWORD PTR [ecx+12]
	mov	DWORD PTR _srcValue$[ebp], edx

; 128  :   uint32 destIndex = constants.nuance->fields[FIELD_MEM_TO]; 

	mov	eax, DWORD PTR _constants$[ebp]
	mov	ecx, DWORD PTR [eax+4]
	mov	edx, DWORD PTR [ecx+8]
	mov	DWORD PTR _destIndex$[ebp], edx

; 129  :   constants.SetScalarRegisterConstant(destIndex,srcValue);

	mov	eax, DWORD PTR _srcValue$[ebp]
	push	eax
	mov	ecx, DWORD PTR _destIndex$[ebp]
	push	ecx
	mov	ecx, DWORD PTR _constants$[ebp]
	call	?SetScalarRegisterConstant@SuperBlockConstants@@QAEXII@Z ; SuperBlockConstants::SetScalarRegisterConstant

; 130  :   constants.status.status = PROPAGATE_CONSTANTS_STATUS_MEM_OK;

	mov	edx, DWORD PTR _constants$[ebp]
	mov	DWORD PTR [edx+12], 4

; 131  : }

	add	esp, 8
	cmp	ebp, esp
	call	__RTC_CheckEsp
	mov	esp, ebp
	pop	ebp
	ret	0
?PropagateConstants_MV_SImmediate@@YAXAAVSuperBlockConstants@@@Z ENDP ; PropagateConstants_MV_SImmediate
_TEXT	ENDS
PUBLIC	?PropagateConstants_MV_SScalar@@YAXAAVSuperBlockConstants@@@Z ; PropagateConstants_MV_SScalar
; Function compile flags: /Odtp /RTCsu
_TEXT	SEGMENT
_srcValue$ = -12					; size = 4
_destIndex$ = -8					; size = 4
_srcIndex$ = -4						; size = 4
_constants$ = 8						; size = 4
?PropagateConstants_MV_SScalar@@YAXAAVSuperBlockConstants@@@Z PROC ; PropagateConstants_MV_SScalar

; 134  : {

	push	ebp
	mov	ebp, esp
	sub	esp, 12					; 0000000cH
	mov	DWORD PTR [ebp-12], -858993460		; ccccccccH
	mov	DWORD PTR [ebp-8], -858993460		; ccccccccH
	mov	DWORD PTR [ebp-4], -858993460		; ccccccccH

; 135  :   uint32 srcIndex = constants.nuance->fields[FIELD_MEM_FROM];

	mov	eax, DWORD PTR _constants$[ebp]
	mov	ecx, DWORD PTR [eax+4]
	mov	edx, DWORD PTR [ecx+12]
	mov	DWORD PTR _srcIndex$[ebp], edx

; 136  :   uint32 destIndex = constants.nuance->fields[FIELD_MEM_TO]; 

	mov	eax, DWORD PTR _constants$[ebp]
	mov	ecx, DWORD PTR [eax+4]
	mov	edx, DWORD PTR [ecx+8]
	mov	DWORD PTR _destIndex$[ebp], edx

; 137  :   uint32 srcValue;
; 138  : 
; 139  :   if(constants.IsScalarRegisterConstant(srcIndex) && ALLOW_MEM_PROPAGATION)

	mov	eax, DWORD PTR _srcIndex$[ebp]
	push	eax
	mov	ecx, DWORD PTR _constants$[ebp]
	call	?IsScalarRegisterConstant@SuperBlockConstants@@QAE_NI@Z ; SuperBlockConstants::IsScalarRegisterConstant
	movzx	ecx, al
	test	ecx, ecx
	je	SHORT $LN2@PropagateC@4
	mov	edx, 1
	test	edx, edx
	je	SHORT $LN2@PropagateC@4

; 140  :   {
; 141  :     constants.nuance->fields[FIELD_MEM_HANDLER] = Handler_MV_SImmediate;

	mov	eax, DWORD PTR _constants$[ebp]
	mov	ecx, DWORD PTR [eax+4]
	mov	DWORD PTR [ecx], 152			; 00000098H

; 142  :     srcValue = constants.GetScalarRegisterConstant(srcIndex);

	mov	edx, DWORD PTR _srcIndex$[ebp]
	push	edx
	mov	ecx, DWORD PTR _constants$[ebp]
	call	?GetScalarRegisterConstant@SuperBlockConstants@@QAEII@Z ; SuperBlockConstants::GetScalarRegisterConstant
	mov	DWORD PTR _srcValue$[ebp], eax

; 143  :     constants.nuance->fields[FIELD_MEM_FROM] = srcValue;

	mov	eax, DWORD PTR _constants$[ebp]
	mov	ecx, DWORD PTR [eax+4]
	mov	edx, DWORD PTR _srcValue$[ebp]
	mov	DWORD PTR [ecx+12], edx

; 144  :     constants.ClearScalarInputDependency(srcIndex);

	mov	eax, DWORD PTR _srcIndex$[ebp]
	push	eax
	mov	ecx, DWORD PTR _constants$[ebp]
	call	?ClearScalarInputDependency@SuperBlockConstants@@QAEXI@Z ; SuperBlockConstants::ClearScalarInputDependency

; 145  :     constants.SetScalarRegisterConstant(destIndex,srcValue);

	mov	ecx, DWORD PTR _srcValue$[ebp]
	push	ecx
	mov	edx, DWORD PTR _destIndex$[ebp]
	push	edx
	mov	ecx, DWORD PTR _constants$[ebp]
	call	?SetScalarRegisterConstant@SuperBlockConstants@@QAEXII@Z ; SuperBlockConstants::SetScalarRegisterConstant

; 146  :     constants.status.status = PROPAGATE_CONSTANTS_STATUS_MEM_OK;

	mov	eax, DWORD PTR _constants$[ebp]
	mov	DWORD PTR [eax+12], 4

; 147  :   }
; 148  :   else

	jmp	SHORT $LN3@PropagateC@4
$LN2@PropagateC@4:

; 149  :   {
; 150  :     constants.status.status = PROPAGATE_CONSTANTS_STATUS_MEM_OK;  

	mov	ecx, DWORD PTR _constants$[ebp]
	mov	DWORD PTR [ecx+12], 4

; 151  :     constants.ClearScalarRegisterConstant(destIndex);

	mov	edx, DWORD PTR _destIndex$[ebp]
	push	edx
	mov	ecx, DWORD PTR _constants$[ebp]
	call	?ClearScalarRegisterConstant@SuperBlockConstants@@QAEXI@Z ; SuperBlockConstants::ClearScalarRegisterConstant
$LN3@PropagateC@4:

; 152  :   }
; 153  : }

	add	esp, 12					; 0000000cH
	cmp	ebp, esp
	call	__RTC_CheckEsp
	mov	esp, ebp
	pop	ebp
	ret	0
?PropagateConstants_MV_SScalar@@YAXAAVSuperBlockConstants@@@Z ENDP ; PropagateConstants_MV_SScalar
_TEXT	ENDS
PUBLIC	?ClearVectorRegisterConstant@SuperBlockConstants@@QAEXI@Z ; SuperBlockConstants::ClearVectorRegisterConstant
PUBLIC	?PropagateConstants_MV_V@@YAXAAVSuperBlockConstants@@@Z ; PropagateConstants_MV_V
; Function compile flags: /Odtp /RTCsu
_TEXT	SEGMENT
_destIndex$ = -4					; size = 4
_constants$ = 8						; size = 4
?PropagateConstants_MV_V@@YAXAAVSuperBlockConstants@@@Z PROC ; PropagateConstants_MV_V

; 155  : {

	push	ebp
	mov	ebp, esp
	push	ecx
	mov	DWORD PTR [ebp-4], -858993460		; ccccccccH

; 156  :   uint32 destIndex = constants.nuance->fields[FIELD_MEM_TO];

	mov	eax, DWORD PTR _constants$[ebp]
	mov	ecx, DWORD PTR [eax+4]
	mov	edx, DWORD PTR [ecx+8]
	mov	DWORD PTR _destIndex$[ebp], edx

; 157  :   constants.status.status = PROPAGATE_CONSTANTS_STATUS_MEM_OK;  

	mov	eax, DWORD PTR _constants$[ebp]
	mov	DWORD PTR [eax+12], 4

; 158  :   constants.ClearVectorRegisterConstant(destIndex);

	mov	ecx, DWORD PTR _destIndex$[ebp]
	push	ecx
	mov	ecx, DWORD PTR _constants$[ebp]
	call	?ClearVectorRegisterConstant@SuperBlockConstants@@QAEXI@Z ; SuperBlockConstants::ClearVectorRegisterConstant

; 159  : }

	add	esp, 4
	cmp	ebp, esp
	call	__RTC_CheckEsp
	mov	esp, ebp
	pop	ebp
	ret	0
?PropagateConstants_MV_V@@YAXAAVSuperBlockConstants@@@Z ENDP ; PropagateConstants_MV_V
; Function compile flags: /Odtp /RTCsu
; File c:\nuanceexperimental\superblockconstants.h
_TEXT	ENDS
;	COMDAT ?ClearVectorRegisterConstant@SuperBlockConstants@@QAEXI@Z
_TEXT	SEGMENT
_this$ = -4						; size = 4
_index$ = 8						; size = 4
?ClearVectorRegisterConstant@SuperBlockConstants@@QAEXI@Z PROC ; SuperBlockConstants::ClearVectorRegisterConstant, COMDAT
; _this$ = ecx

; 153  :   {

	push	ebp
	mov	ebp, esp
	push	ecx
	mov	DWORD PTR [ebp-4], -858993460		; ccccccccH
	mov	DWORD PTR _this$[ebp], ecx

; 154  :     tempScalarRegisterConstantsStatus &= ~(0xFUL << index);

	mov	eax, 15					; 0000000fH
	mov	ecx, DWORD PTR _index$[ebp]
	shl	eax, cl
	not	eax
	mov	ecx, DWORD PTR _this$[ebp]
	and	eax, DWORD PTR [ecx+564]
	mov	edx, DWORD PTR _this$[ebp]
	mov	DWORD PTR [edx+564], eax

; 155  :   }

	mov	esp, ebp
	pop	ebp
	ret	4
?ClearVectorRegisterConstant@SuperBlockConstants@@QAEXI@Z ENDP ; SuperBlockConstants::ClearVectorRegisterConstant
_TEXT	ENDS
PUBLIC	?PropagateConstants_PopVector@@YAXAAVSuperBlockConstants@@@Z ; PropagateConstants_PopVector
; Function compile flags: /Odtp /RTCsu
; File c:\nuanceexperimental\propagateconstants_mem.cpp
_TEXT	SEGMENT
_destIndex$ = -4					; size = 4
_constants$ = 8						; size = 4
?PropagateConstants_PopVector@@YAXAAVSuperBlockConstants@@@Z PROC ; PropagateConstants_PopVector

; 161  : {

	push	ebp
	mov	ebp, esp
	push	ecx
	mov	DWORD PTR [ebp-4], -858993460		; ccccccccH

; 162  :   uint32 destIndex = constants.nuance->fields[FIELD_MEM_TO]; 

	mov	eax, DWORD PTR _constants$[ebp]
	mov	ecx, DWORD PTR [eax+4]
	mov	edx, DWORD PTR [ecx+8]
	mov	DWORD PTR _destIndex$[ebp], edx

; 163  : 
; 164  :   constants.status.status = PROPAGATE_CONSTANTS_STATUS_MEM_OK;  

	mov	eax, DWORD PTR _constants$[ebp]
	mov	DWORD PTR [eax+12], 4

; 165  :   constants.ClearVectorRegisterConstant(destIndex);

	mov	ecx, DWORD PTR _destIndex$[ebp]
	push	ecx
	mov	ecx, DWORD PTR _constants$[ebp]
	call	?ClearVectorRegisterConstant@SuperBlockConstants@@QAEXI@Z ; SuperBlockConstants::ClearVectorRegisterConstant

; 166  :   constants.SetInstructionFlags(SUPERBLOCKINFO_LOCKED);

	push	65536					; 00010000H
	mov	ecx, DWORD PTR _constants$[ebp]
	call	?SetInstructionFlags@SuperBlockConstants@@QAEXI@Z ; SuperBlockConstants::SetInstructionFlags

; 167  : }

	add	esp, 4
	cmp	ebp, esp
	call	__RTC_CheckEsp
	mov	esp, ebp
	pop	ebp
	ret	0
?PropagateConstants_PopVector@@YAXAAVSuperBlockConstants@@@Z ENDP ; PropagateConstants_PopVector
_TEXT	ENDS
PUBLIC	?ClearMiscRegisterConstant@SuperBlockConstants@@QAEXI@Z ; SuperBlockConstants::ClearMiscRegisterConstant
PUBLIC	?ClearPixelRegisterConstant@SuperBlockConstants@@QAEXI@Z ; SuperBlockConstants::ClearPixelRegisterConstant
PUBLIC	?PropagateConstants_PopVectorRz@@YAXAAVSuperBlockConstants@@@Z ; PropagateConstants_PopVectorRz
; Function compile flags: /Odtp /RTCsu
_TEXT	SEGMENT
_destIndex$ = -4					; size = 4
_constants$ = 8						; size = 4
?PropagateConstants_PopVectorRz@@YAXAAVSuperBlockConstants@@@Z PROC ; PropagateConstants_PopVectorRz

; 169  : {

	push	ebp
	mov	ebp, esp
	push	ecx
	mov	DWORD PTR [ebp-4], -858993460		; ccccccccH

; 170  :   uint32 destIndex = constants.nuance->fields[FIELD_MEM_TO]; 

	mov	eax, DWORD PTR _constants$[ebp]
	mov	ecx, DWORD PTR [eax+4]
	mov	edx, DWORD PTR [ecx+8]
	mov	DWORD PTR _destIndex$[ebp], edx

; 171  : 
; 172  :   constants.status.status = PROPAGATE_CONSTANTS_STATUS_MEM_OK;  

	mov	eax, DWORD PTR _constants$[ebp]
	mov	DWORD PTR [eax+12], 4

; 173  :   constants.ClearPixelRegisterConstant(destIndex);

	mov	ecx, DWORD PTR _destIndex$[ebp]
	push	ecx
	mov	ecx, DWORD PTR _constants$[ebp]
	call	?ClearPixelRegisterConstant@SuperBlockConstants@@QAEXI@Z ; SuperBlockConstants::ClearPixelRegisterConstant

; 174  :   constants.ClearMiscRegisterConstant(CONSTANT_REG_RZ);

	push	6
	mov	ecx, DWORD PTR _constants$[ebp]
	call	?ClearMiscRegisterConstant@SuperBlockConstants@@QAEXI@Z ; SuperBlockConstants::ClearMiscRegisterConstant

; 175  :   constants.SetInstructionFlags(SUPERBLOCKINFO_LOCKED);

	push	65536					; 00010000H
	mov	ecx, DWORD PTR _constants$[ebp]
	call	?SetInstructionFlags@SuperBlockConstants@@QAEXI@Z ; SuperBlockConstants::SetInstructionFlags

; 176  : }

	add	esp, 4
	cmp	ebp, esp
	call	__RTC_CheckEsp
	mov	esp, ebp
	pop	ebp
	ret	0
?PropagateConstants_PopVectorRz@@YAXAAVSuperBlockConstants@@@Z ENDP ; PropagateConstants_PopVectorRz
; Function compile flags: /Odtp /RTCsu
; File c:\nuanceexperimental\superblockconstants.h
_TEXT	ENDS
;	COMDAT ?ClearPixelRegisterConstant@SuperBlockConstants@@QAEXI@Z
_TEXT	SEGMENT
_this$ = -4						; size = 4
_index$ = 8						; size = 4
?ClearPixelRegisterConstant@SuperBlockConstants@@QAEXI@Z PROC ; SuperBlockConstants::ClearPixelRegisterConstant, COMDAT
; _this$ = ecx

; 145  :   {

	push	ebp
	mov	ebp, esp
	push	ecx
	mov	DWORD PTR [ebp-4], -858993460		; ccccccccH
	mov	DWORD PTR _this$[ebp], ecx

; 146  :     tempScalarRegisterConstantsStatus &= ~(0x7UL << index);

	mov	eax, 7
	mov	ecx, DWORD PTR _index$[ebp]
	shl	eax, cl
	not	eax
	mov	ecx, DWORD PTR _this$[ebp]
	and	eax, DWORD PTR [ecx+564]
	mov	edx, DWORD PTR _this$[ebp]
	mov	DWORD PTR [edx+564], eax

; 147  :   }

	mov	esp, ebp
	pop	ebp
	ret	4
?ClearPixelRegisterConstant@SuperBlockConstants@@QAEXI@Z ENDP ; SuperBlockConstants::ClearPixelRegisterConstant
; Function compile flags: /Odtp /RTCsu
_TEXT	ENDS
;	COMDAT ?ClearMiscRegisterConstant@SuperBlockConstants@@QAEXI@Z
_TEXT	SEGMENT
_this$ = -4						; size = 4
_index$ = 8						; size = 4
?ClearMiscRegisterConstant@SuperBlockConstants@@QAEXI@Z PROC ; SuperBlockConstants::ClearMiscRegisterConstant, COMDAT
; _this$ = ecx

; 157  :   {

	push	ebp
	mov	ebp, esp
	push	ecx
	mov	DWORD PTR [ebp-4], -858993460		; ccccccccH
	mov	DWORD PTR _this$[ebp], ecx

; 158  :     if(index != CONSTANT_REG_ALLFLAGS)

	cmp	DWORD PTR _index$[ebp], -1
	je	SHORT $LN2@ClearMiscR

; 159  :     {
; 160  :       tempMiscRegisterConstantsStatus &= ~(1UL << index);

	mov	eax, 1
	mov	ecx, DWORD PTR _index$[ebp]
	shl	eax, cl
	not	eax
	mov	ecx, DWORD PTR _this$[ebp]
	and	eax, DWORD PTR [ecx+568]
	mov	edx, DWORD PTR _this$[ebp]
	mov	DWORD PTR [edx+568], eax

; 161  :     }
; 162  :     else

	jmp	SHORT $LN3@ClearMiscR
$LN2@ClearMiscR:

; 163  :     {
; 164  :       tempMiscRegisterConstantsStatus &= ~DEPENDENCY_FLAG_ALLFLAGS;

	mov	eax, DWORD PTR _this$[ebp]
	mov	ecx, DWORD PTR [eax+568]
	and	ecx, -67076097				; fc007fffH
	mov	edx, DWORD PTR _this$[ebp]
	mov	DWORD PTR [edx+568], ecx
$LN3@ClearMiscR:

; 165  :     }
; 166  :   }

	mov	esp, ebp
	pop	ebp
	ret	4
?ClearMiscRegisterConstant@SuperBlockConstants@@QAEXI@Z ENDP ; SuperBlockConstants::ClearMiscRegisterConstant
_TEXT	ENDS
PUBLIC	?PropagateConstants_PopScalarRzi1@@YAXAAVSuperBlockConstants@@@Z ; PropagateConstants_PopScalarRzi1
; Function compile flags: /Odtp /RTCsu
; File c:\nuanceexperimental\propagateconstants_mem.cpp
_TEXT	SEGMENT
_destIndex$ = -4					; size = 4
_constants$ = 8						; size = 4
?PropagateConstants_PopScalarRzi1@@YAXAAVSuperBlockConstants@@@Z PROC ; PropagateConstants_PopScalarRzi1

; 178  : {

	push	ebp
	mov	ebp, esp
	push	ecx
	mov	DWORD PTR [ebp-4], -858993460		; ccccccccH

; 179  :   uint32 destIndex = constants.nuance->fields[FIELD_MEM_TO]; 

	mov	eax, DWORD PTR _constants$[ebp]
	mov	ecx, DWORD PTR [eax+4]
	mov	edx, DWORD PTR [ecx+8]
	mov	DWORD PTR _destIndex$[ebp], edx

; 180  : 
; 181  :   constants.status.status = PROPAGATE_CONSTANTS_STATUS_MEM_OK;

	mov	eax, DWORD PTR _constants$[ebp]
	mov	DWORD PTR [eax+12], 4

; 182  :   constants.ClearScalarRegisterConstant(destIndex);

	mov	ecx, DWORD PTR _destIndex$[ebp]
	push	ecx
	mov	ecx, DWORD PTR _constants$[ebp]
	call	?ClearScalarRegisterConstant@SuperBlockConstants@@QAEXI@Z ; SuperBlockConstants::ClearScalarRegisterConstant

; 183  :   constants.ClearMiscRegisterConstant(CONSTANT_REG_RZ);

	push	6
	mov	ecx, DWORD PTR _constants$[ebp]
	call	?ClearMiscRegisterConstant@SuperBlockConstants@@QAEXI@Z ; SuperBlockConstants::ClearMiscRegisterConstant

; 184  :   constants.ClearMiscRegisterConstant(CONSTANT_REG_RZI1);

	push	7
	mov	ecx, DWORD PTR _constants$[ebp]
	call	?ClearMiscRegisterConstant@SuperBlockConstants@@QAEXI@Z ; SuperBlockConstants::ClearMiscRegisterConstant

; 185  :   constants.ClearMiscRegisterConstant(CONSTANT_REG_ALLFLAGS);

	push	-1
	mov	ecx, DWORD PTR _constants$[ebp]
	call	?ClearMiscRegisterConstant@SuperBlockConstants@@QAEXI@Z ; SuperBlockConstants::ClearMiscRegisterConstant

; 186  :   constants.SetInstructionFlags(SUPERBLOCKINFO_LOCKED);

	push	65536					; 00010000H
	mov	ecx, DWORD PTR _constants$[ebp]
	call	?SetInstructionFlags@SuperBlockConstants@@QAEXI@Z ; SuperBlockConstants::SetInstructionFlags

; 187  : }

	add	esp, 4
	cmp	ebp, esp
	call	__RTC_CheckEsp
	mov	esp, ebp
	pop	ebp
	ret	0
?PropagateConstants_PopScalarRzi1@@YAXAAVSuperBlockConstants@@@Z ENDP ; PropagateConstants_PopScalarRzi1
_TEXT	ENDS
PUBLIC	?PropagateConstants_PopScalarRzi2@@YAXAAVSuperBlockConstants@@@Z ; PropagateConstants_PopScalarRzi2
; Function compile flags: /Odtp /RTCsu
_TEXT	SEGMENT
_destIndex$ = -4					; size = 4
_constants$ = 8						; size = 4
?PropagateConstants_PopScalarRzi2@@YAXAAVSuperBlockConstants@@@Z PROC ; PropagateConstants_PopScalarRzi2

; 189  : {

	push	ebp
	mov	ebp, esp
	push	ecx
	mov	DWORD PTR [ebp-4], -858993460		; ccccccccH

; 190  :   uint32 destIndex = constants.nuance->fields[FIELD_MEM_TO]; 

	mov	eax, DWORD PTR _constants$[ebp]
	mov	ecx, DWORD PTR [eax+4]
	mov	edx, DWORD PTR [ecx+8]
	mov	DWORD PTR _destIndex$[ebp], edx

; 191  : 
; 192  :   constants.status.status = PROPAGATE_CONSTANTS_STATUS_MEM_OK;

	mov	eax, DWORD PTR _constants$[ebp]
	mov	DWORD PTR [eax+12], 4

; 193  :   constants.ClearScalarRegisterConstant(destIndex);

	mov	ecx, DWORD PTR _destIndex$[ebp]
	push	ecx
	mov	ecx, DWORD PTR _constants$[ebp]
	call	?ClearScalarRegisterConstant@SuperBlockConstants@@QAEXI@Z ; SuperBlockConstants::ClearScalarRegisterConstant

; 194  :   constants.ClearMiscRegisterConstant(CONSTANT_REG_RZ);

	push	6
	mov	ecx, DWORD PTR _constants$[ebp]
	call	?ClearMiscRegisterConstant@SuperBlockConstants@@QAEXI@Z ; SuperBlockConstants::ClearMiscRegisterConstant

; 195  :   constants.ClearMiscRegisterConstant(CONSTANT_REG_RZI2);

	push	8
	mov	ecx, DWORD PTR _constants$[ebp]
	call	?ClearMiscRegisterConstant@SuperBlockConstants@@QAEXI@Z ; SuperBlockConstants::ClearMiscRegisterConstant

; 196  :   constants.ClearMiscRegisterConstant(CONSTANT_REG_ALLFLAGS);

	push	-1
	mov	ecx, DWORD PTR _constants$[ebp]
	call	?ClearMiscRegisterConstant@SuperBlockConstants@@QAEXI@Z ; SuperBlockConstants::ClearMiscRegisterConstant

; 197  :   constants.SetInstructionFlags(SUPERBLOCKINFO_LOCKED);

	push	65536					; 00010000H
	mov	ecx, DWORD PTR _constants$[ebp]
	call	?SetInstructionFlags@SuperBlockConstants@@QAEXI@Z ; SuperBlockConstants::SetInstructionFlags

; 198  : }

	add	esp, 4
	cmp	ebp, esp
	call	__RTC_CheckEsp
	mov	esp, ebp
	pop	ebp
	ret	0
?PropagateConstants_PopScalarRzi2@@YAXAAVSuperBlockConstants@@@Z ENDP ; PropagateConstants_PopScalarRzi2
_TEXT	ENDS
PUBLIC	?PropagateConstants_PushVector@@YAXAAVSuperBlockConstants@@@Z ; PropagateConstants_PushVector
; Function compile flags: /Odtp /RTCsu
_TEXT	SEGMENT
_constants$ = 8						; size = 4
?PropagateConstants_PushVector@@YAXAAVSuperBlockConstants@@@Z PROC ; PropagateConstants_PushVector

; 200  : {

	push	ebp
	mov	ebp, esp

; 201  :   constants.status.status = PROPAGATE_CONSTANTS_STATUS_MEM_OK;

	mov	eax, DWORD PTR _constants$[ebp]
	mov	DWORD PTR [eax+12], 4

; 202  :   constants.SetInstructionFlags(SUPERBLOCKINFO_LOCKED);

	push	65536					; 00010000H
	mov	ecx, DWORD PTR _constants$[ebp]
	call	?SetInstructionFlags@SuperBlockConstants@@QAEXI@Z ; SuperBlockConstants::SetInstructionFlags

; 203  : }

	cmp	ebp, esp
	call	__RTC_CheckEsp
	pop	ebp
	ret	0
?PropagateConstants_PushVector@@YAXAAVSuperBlockConstants@@@Z ENDP ; PropagateConstants_PushVector
_TEXT	ENDS
PUBLIC	?PropagateConstants_PushVectorRz@@YAXAAVSuperBlockConstants@@@Z ; PropagateConstants_PushVectorRz
; Function compile flags: /Odtp /RTCsu
_TEXT	SEGMENT
_constants$ = 8						; size = 4
?PropagateConstants_PushVectorRz@@YAXAAVSuperBlockConstants@@@Z PROC ; PropagateConstants_PushVectorRz

; 205  : {

	push	ebp
	mov	ebp, esp

; 206  :   constants.status.status = PROPAGATE_CONSTANTS_STATUS_MEM_OK;

	mov	eax, DWORD PTR _constants$[ebp]
	mov	DWORD PTR [eax+12], 4

; 207  :   constants.SetInstructionFlags(SUPERBLOCKINFO_LOCKED);

	push	65536					; 00010000H
	mov	ecx, DWORD PTR _constants$[ebp]
	call	?SetInstructionFlags@SuperBlockConstants@@QAEXI@Z ; SuperBlockConstants::SetInstructionFlags

; 208  : }

	cmp	ebp, esp
	call	__RTC_CheckEsp
	pop	ebp
	ret	0
?PropagateConstants_PushVectorRz@@YAXAAVSuperBlockConstants@@@Z ENDP ; PropagateConstants_PushVectorRz
_TEXT	ENDS
PUBLIC	?PropagateConstants_PushScalarRzi1@@YAXAAVSuperBlockConstants@@@Z ; PropagateConstants_PushScalarRzi1
; Function compile flags: /Odtp /RTCsu
_TEXT	SEGMENT
_constants$ = 8						; size = 4
?PropagateConstants_PushScalarRzi1@@YAXAAVSuperBlockConstants@@@Z PROC ; PropagateConstants_PushScalarRzi1

; 210  : {

	push	ebp
	mov	ebp, esp

; 211  :   constants.status.status = PROPAGATE_CONSTANTS_STATUS_MEM_OK;

	mov	eax, DWORD PTR _constants$[ebp]
	mov	DWORD PTR [eax+12], 4

; 212  :   constants.SetInstructionFlags(SUPERBLOCKINFO_LOCKED);

	push	65536					; 00010000H
	mov	ecx, DWORD PTR _constants$[ebp]
	call	?SetInstructionFlags@SuperBlockConstants@@QAEXI@Z ; SuperBlockConstants::SetInstructionFlags

; 213  : }

	cmp	ebp, esp
	call	__RTC_CheckEsp
	pop	ebp
	ret	0
?PropagateConstants_PushScalarRzi1@@YAXAAVSuperBlockConstants@@@Z ENDP ; PropagateConstants_PushScalarRzi1
_TEXT	ENDS
PUBLIC	?PropagateConstants_PushScalarRzi2@@YAXAAVSuperBlockConstants@@@Z ; PropagateConstants_PushScalarRzi2
; Function compile flags: /Odtp /RTCsu
_TEXT	SEGMENT
_constants$ = 8						; size = 4
?PropagateConstants_PushScalarRzi2@@YAXAAVSuperBlockConstants@@@Z PROC ; PropagateConstants_PushScalarRzi2

; 215  : {

	push	ebp
	mov	ebp, esp

; 216  :   constants.status.status = PROPAGATE_CONSTANTS_STATUS_MEM_OK;

	mov	eax, DWORD PTR _constants$[ebp]
	mov	DWORD PTR [eax+12], 4

; 217  :   constants.SetInstructionFlags(SUPERBLOCKINFO_LOCKED);

	push	65536					; 00010000H
	mov	ecx, DWORD PTR _constants$[ebp]
	call	?SetInstructionFlags@SuperBlockConstants@@QAEXI@Z ; SuperBlockConstants::SetInstructionFlags

; 218  : }

	cmp	ebp, esp
	call	__RTC_CheckEsp
	pop	ebp
	ret	0
?PropagateConstants_PushScalarRzi2@@YAXAAVSuperBlockConstants@@@Z ENDP ; PropagateConstants_PushScalarRzi2
_TEXT	ENDS
PUBLIC	?ClearAllMiscInputDependencies@SuperBlockConstants@@QAEXXZ ; SuperBlockConstants::ClearAllMiscInputDependencies
PUBLIC	?GetMiscRegisterConstant@SuperBlockConstants@@QAEII@Z ; SuperBlockConstants::GetMiscRegisterConstant
PUBLIC	?IsMiscRegisterConstant@SuperBlockConstants@@QAE_NI@Z ; SuperBlockConstants::IsMiscRegisterConstant
PUBLIC	?PropagateConstants_LoadScalarControlRegisterAbsolute@@YAXAAVSuperBlockConstants@@@Z ; PropagateConstants_LoadScalarControlRegisterAbsolute
EXTRN	__RTC_UninitUse:PROC
; Function compile flags: /Odtp /RTCsu
_TEXT	SEGMENT
tv70 = -20						; size = 4
$T44224 = -14						; size = 1
_bIsConstant$ = -13					; size = 1
_regValue$ = -12					; size = 4
_regIndex$ = -8						; size = 4
_destIndex$ = -4					; size = 4
_constants$ = 8						; size = 4
?PropagateConstants_LoadScalarControlRegisterAbsolute@@YAXAAVSuperBlockConstants@@@Z PROC ; PropagateConstants_LoadScalarControlRegisterAbsolute

; 221  : {

	push	ebp
	mov	ebp, esp
	sub	esp, 20					; 00000014H
	mov	eax, -858993460				; ccccccccH
	mov	DWORD PTR [ebp-20], eax
	mov	DWORD PTR [ebp-16], eax
	mov	DWORD PTR [ebp-12], eax
	mov	DWORD PTR [ebp-8], eax
	mov	DWORD PTR [ebp-4], eax
	mov	BYTE PTR $T44224[ebp], 0

; 222  :   uint32 destIndex = constants.nuance->fields[FIELD_MEM_TO]; 

	mov	eax, DWORD PTR _constants$[ebp]
	mov	ecx, DWORD PTR [eax+4]
	mov	edx, DWORD PTR [ecx+8]
	mov	DWORD PTR _destIndex$[ebp], edx

; 223  :   uint32 regIndex, regValue;
; 224  :   bool bIsConstant = true;

	mov	BYTE PTR _bIsConstant$[ebp], 1

; 225  : 
; 226  :   regIndex = (constants.nuance->fields[FIELD_MEM_FROM] - MPE_CTRL_BASE) >> 4;

	mov	eax, DWORD PTR _constants$[ebp]
	mov	ecx, DWORD PTR [eax+4]
	mov	edx, DWORD PTR [ecx+12]
	sub	edx, 542113792				; 20500000H
	shr	edx, 4
	mov	DWORD PTR _regIndex$[ebp], edx

; 227  :   switch(regIndex)

	mov	eax, DWORD PTR _regIndex$[ebp]
	mov	DWORD PTR tv70[ebp], eax
	mov	ecx, DWORD PTR tv70[ebp]
	sub	ecx, 7
	mov	DWORD PTR tv70[ebp], ecx
	cmp	DWORD PTR tv70[ebp], 72			; 00000048H
	ja	$LN3@PropagateC@5
	mov	edx, DWORD PTR tv70[ebp]
	movzx	eax, BYTE PTR $LN31@PropagateC@5[edx]
	jmp	DWORD PTR $LN33@PropagateC@5[eax*4]
$LN24@PropagateC@5:

; 228  :   {
; 229  :     case 0x7:
; 230  :       //PCEXEC: at time of load, pcexec has already been incremented to the next packet address
; 231  :       //I don't know what the return value would be for a load in delay slot 2 and the only code
; 232  :       //encountered which loads the value of pcexec are the 3D libraries.  These libraries only
; 233  :       //load the value of pcexec outside of a delay slot so the value is always pcroute
; 234  :       bIsConstant = true;

	mov	BYTE PTR _bIsConstant$[ebp], 1

; 235  :       regValue = constants.pCurrentInstructionEntry->packet->pcroute;

	mov	ecx, DWORD PTR _constants$[ebp]
	mov	edx, DWORD PTR [ecx+8]
	mov	eax, DWORD PTR [edx]
	mov	BYTE PTR $T44224[ebp], 1
	mov	ecx, DWORD PTR [eax+4]
	mov	DWORD PTR _regValue$[ebp], ecx

; 236  :       break;

	jmp	$LN25@PropagateC@5
$LN23@PropagateC@5:

; 237  :     case 0x8:
; 238  :       //RZ
; 239  :       bIsConstant = false;

	mov	BYTE PTR _bIsConstant$[ebp], 0

; 240  :       if(constants.IsMiscRegisterConstant(CONSTANT_REG_RZ) && ALLOW_MEM_PROPAGATION)

	push	6
	mov	ecx, DWORD PTR _constants$[ebp]
	call	?IsMiscRegisterConstant@SuperBlockConstants@@QAE_NI@Z ; SuperBlockConstants::IsMiscRegisterConstant
	movzx	edx, al
	test	edx, edx
	je	SHORT $LN22@PropagateC@5
	mov	eax, 1
	test	eax, eax
	je	SHORT $LN22@PropagateC@5

; 241  :       {
; 242  :         bIsConstant = true;

	mov	BYTE PTR _bIsConstant$[ebp], 1

; 243  :         regValue = constants.GetMiscRegisterConstant(CONSTANT_REG_RZ);

	push	6
	mov	ecx, DWORD PTR _constants$[ebp]
	call	?GetMiscRegisterConstant@SuperBlockConstants@@QAEII@Z ; SuperBlockConstants::GetMiscRegisterConstant
	mov	BYTE PTR $T44224[ebp], 1
	mov	DWORD PTR _regValue$[ebp], eax
$LN22@PropagateC@5:

; 244  :       }
; 245  :       break;

	jmp	$LN25@PropagateC@5
$LN21@PropagateC@5:

; 246  :     case 0x1E:
; 247  :       //RC0
; 248  :       bIsConstant = false;

	mov	BYTE PTR _bIsConstant$[ebp], 0

; 249  :       if(constants.IsMiscRegisterConstant(CONSTANT_REG_RC0) && ALLOW_MEM_PROPAGATION)

	push	0
	mov	ecx, DWORD PTR _constants$[ebp]
	call	?IsMiscRegisterConstant@SuperBlockConstants@@QAE_NI@Z ; SuperBlockConstants::IsMiscRegisterConstant
	movzx	ecx, al
	test	ecx, ecx
	je	SHORT $LN20@PropagateC@5
	mov	edx, 1
	test	edx, edx
	je	SHORT $LN20@PropagateC@5

; 250  :       {
; 251  :         bIsConstant = true;

	mov	BYTE PTR _bIsConstant$[ebp], 1

; 252  :         regValue = constants.GetMiscRegisterConstant(CONSTANT_REG_RC0);

	push	0
	mov	ecx, DWORD PTR _constants$[ebp]
	call	?GetMiscRegisterConstant@SuperBlockConstants@@QAEII@Z ; SuperBlockConstants::GetMiscRegisterConstant
	mov	BYTE PTR $T44224[ebp], 1
	mov	DWORD PTR _regValue$[ebp], eax
$LN20@PropagateC@5:

; 253  :       }
; 254  :       break;

	jmp	$LN25@PropagateC@5
$LN19@PropagateC@5:

; 255  :     case 0x1F:
; 256  :       //RC1
; 257  :       bIsConstant = false;

	mov	BYTE PTR _bIsConstant$[ebp], 0

; 258  :       if(constants.IsMiscRegisterConstant(CONSTANT_REG_RC1) && ALLOW_MEM_PROPAGATION)

	push	1
	mov	ecx, DWORD PTR _constants$[ebp]
	call	?IsMiscRegisterConstant@SuperBlockConstants@@QAE_NI@Z ; SuperBlockConstants::IsMiscRegisterConstant
	movzx	eax, al
	test	eax, eax
	je	SHORT $LN18@PropagateC@5
	mov	ecx, 1
	test	ecx, ecx
	je	SHORT $LN18@PropagateC@5

; 259  :       {
; 260  :         bIsConstant = true;

	mov	BYTE PTR _bIsConstant$[ebp], 1

; 261  :         regValue = constants.GetMiscRegisterConstant(CONSTANT_REG_RC1);

	push	1
	mov	ecx, DWORD PTR _constants$[ebp]
	call	?GetMiscRegisterConstant@SuperBlockConstants@@QAEII@Z ; SuperBlockConstants::GetMiscRegisterConstant
	mov	BYTE PTR $T44224[ebp], 1
	mov	DWORD PTR _regValue$[ebp], eax
$LN18@PropagateC@5:

; 262  :       }
; 263  :       break;

	jmp	$LN25@PropagateC@5
$LN17@PropagateC@5:

; 264  :     case 0x20:
; 265  :       //RX
; 266  :       bIsConstant = false;

	mov	BYTE PTR _bIsConstant$[ebp], 0

; 267  :       if(constants.IsMiscRegisterConstant(CONSTANT_REG_RX) && ALLOW_MEM_PROPAGATION)

	push	2
	mov	ecx, DWORD PTR _constants$[ebp]
	call	?IsMiscRegisterConstant@SuperBlockConstants@@QAE_NI@Z ; SuperBlockConstants::IsMiscRegisterConstant
	movzx	edx, al
	test	edx, edx
	je	SHORT $LN16@PropagateC@5
	mov	eax, 1
	test	eax, eax
	je	SHORT $LN16@PropagateC@5

; 268  :       {
; 269  :         bIsConstant = true;

	mov	BYTE PTR _bIsConstant$[ebp], 1

; 270  :         regValue = constants.GetMiscRegisterConstant(CONSTANT_REG_RX);

	push	2
	mov	ecx, DWORD PTR _constants$[ebp]
	call	?GetMiscRegisterConstant@SuperBlockConstants@@QAEII@Z ; SuperBlockConstants::GetMiscRegisterConstant
	mov	BYTE PTR $T44224[ebp], 1
	mov	DWORD PTR _regValue$[ebp], eax
$LN16@PropagateC@5:

; 271  :       }
; 272  :       break;    

	jmp	$LN25@PropagateC@5
$LN15@PropagateC@5:

; 273  :     case 0x21:
; 274  :       //RY
; 275  :       bIsConstant = false;

	mov	BYTE PTR _bIsConstant$[ebp], 0

; 276  :       if(constants.IsMiscRegisterConstant(CONSTANT_REG_RY) && ALLOW_MEM_PROPAGATION)

	push	3
	mov	ecx, DWORD PTR _constants$[ebp]
	call	?IsMiscRegisterConstant@SuperBlockConstants@@QAE_NI@Z ; SuperBlockConstants::IsMiscRegisterConstant
	movzx	ecx, al
	test	ecx, ecx
	je	SHORT $LN14@PropagateC@5
	mov	edx, 1
	test	edx, edx
	je	SHORT $LN14@PropagateC@5

; 277  :       {
; 278  :         bIsConstant = true;

	mov	BYTE PTR _bIsConstant$[ebp], 1

; 279  :         regValue = constants.GetMiscRegisterConstant(CONSTANT_REG_RY);

	push	3
	mov	ecx, DWORD PTR _constants$[ebp]
	call	?GetMiscRegisterConstant@SuperBlockConstants@@QAEII@Z ; SuperBlockConstants::GetMiscRegisterConstant
	mov	BYTE PTR $T44224[ebp], 1
	mov	DWORD PTR _regValue$[ebp], eax
$LN14@PropagateC@5:

; 280  :       }
; 281  :       break;    

	jmp	$LN25@PropagateC@5
$LN13@PropagateC@5:

; 282  :     case 0x25:
; 283  :       //RU
; 284  :       bIsConstant = false;

	mov	BYTE PTR _bIsConstant$[ebp], 0

; 285  :       if(constants.IsMiscRegisterConstant(CONSTANT_REG_RU) && ALLOW_MEM_PROPAGATION)

	push	4
	mov	ecx, DWORD PTR _constants$[ebp]
	call	?IsMiscRegisterConstant@SuperBlockConstants@@QAE_NI@Z ; SuperBlockConstants::IsMiscRegisterConstant
	movzx	eax, al
	test	eax, eax
	je	SHORT $LN12@PropagateC@5
	mov	ecx, 1
	test	ecx, ecx
	je	SHORT $LN12@PropagateC@5

; 286  :       {
; 287  :         bIsConstant = true;

	mov	BYTE PTR _bIsConstant$[ebp], 1

; 288  :         regValue = constants.GetMiscRegisterConstant(CONSTANT_REG_RU);

	push	4
	mov	ecx, DWORD PTR _constants$[ebp]
	call	?GetMiscRegisterConstant@SuperBlockConstants@@QAEII@Z ; SuperBlockConstants::GetMiscRegisterConstant
	mov	BYTE PTR $T44224[ebp], 1
	mov	DWORD PTR _regValue$[ebp], eax
$LN12@PropagateC@5:

; 289  :       }
; 290  :       break;    

	jmp	$LN25@PropagateC@5
$LN11@PropagateC@5:

; 291  :     case 0x26:
; 292  :       //RV
; 293  :       bIsConstant = false;

	mov	BYTE PTR _bIsConstant$[ebp], 0

; 294  :       if(constants.IsMiscRegisterConstant(CONSTANT_REG_RV) && ALLOW_MEM_PROPAGATION)

	push	5
	mov	ecx, DWORD PTR _constants$[ebp]
	call	?IsMiscRegisterConstant@SuperBlockConstants@@QAE_NI@Z ; SuperBlockConstants::IsMiscRegisterConstant
	movzx	edx, al
	test	edx, edx
	je	SHORT $LN10@PropagateC@5
	mov	eax, 1
	test	eax, eax
	je	SHORT $LN10@PropagateC@5

; 295  :       {
; 296  :         bIsConstant = true;

	mov	BYTE PTR _bIsConstant$[ebp], 1

; 297  :         regValue = constants.GetMiscRegisterConstant(CONSTANT_REG_RV);

	push	5
	mov	ecx, DWORD PTR _constants$[ebp]
	call	?GetMiscRegisterConstant@SuperBlockConstants@@QAEII@Z ; SuperBlockConstants::GetMiscRegisterConstant
	mov	BYTE PTR $T44224[ebp], 1
	mov	DWORD PTR _regValue$[ebp], eax
$LN10@PropagateC@5:

; 298  :       }
; 299  :       break;    

	jmp	$LN25@PropagateC@5
$LN9@PropagateC@5:

; 300  :     case 0x2C:
; 301  :       //SVSHIFT
; 302  :       bIsConstant = false;

	mov	BYTE PTR _bIsConstant$[ebp], 0

; 303  :       if(constants.IsMiscRegisterConstant(CONSTANT_REG_SVSHIFT) && ALLOW_MEM_PROPAGATION)

	push	14					; 0000000eH
	mov	ecx, DWORD PTR _constants$[ebp]
	call	?IsMiscRegisterConstant@SuperBlockConstants@@QAE_NI@Z ; SuperBlockConstants::IsMiscRegisterConstant
	movzx	ecx, al
	test	ecx, ecx
	je	SHORT $LN8@PropagateC@5
	mov	edx, 1
	test	edx, edx
	je	SHORT $LN8@PropagateC@5

; 304  :       {
; 305  :         bIsConstant = true;

	mov	BYTE PTR _bIsConstant$[ebp], 1

; 306  :         regValue = constants.GetMiscRegisterConstant(CONSTANT_REG_SVSHIFT);

	push	14					; 0000000eH
	mov	ecx, DWORD PTR _constants$[ebp]
	call	?GetMiscRegisterConstant@SuperBlockConstants@@QAEII@Z ; SuperBlockConstants::GetMiscRegisterConstant
	mov	BYTE PTR $T44224[ebp], 1
	mov	DWORD PTR _regValue$[ebp], eax
$LN8@PropagateC@5:

; 307  :       }
; 308  :       break;    

	jmp	SHORT $LN25@PropagateC@5
$LN7@PropagateC@5:

; 309  :     case 0x2D:
; 310  :       //ACSHIFT
; 311  :       bIsConstant = false;

	mov	BYTE PTR _bIsConstant$[ebp], 0

; 312  :       if(constants.IsMiscRegisterConstant(CONSTANT_REG_ACSHIFT) && ALLOW_MEM_PROPAGATION)

	push	13					; 0000000dH
	mov	ecx, DWORD PTR _constants$[ebp]
	call	?IsMiscRegisterConstant@SuperBlockConstants@@QAE_NI@Z ; SuperBlockConstants::IsMiscRegisterConstant
	movzx	eax, al
	test	eax, eax
	je	SHORT $LN6@PropagateC@5
	mov	ecx, 1
	test	ecx, ecx
	je	SHORT $LN6@PropagateC@5

; 313  :       {
; 314  :         bIsConstant = true;

	mov	BYTE PTR _bIsConstant$[ebp], 1

; 315  :         regValue = ((int32)(constants.GetMiscRegisterConstant(CONSTANT_REG_ACSHIFT) << 25)) >> 25;

	push	13					; 0000000dH
	mov	ecx, DWORD PTR _constants$[ebp]
	call	?GetMiscRegisterConstant@SuperBlockConstants@@QAEII@Z ; SuperBlockConstants::GetMiscRegisterConstant
	shl	eax, 25					; 00000019H
	sar	eax, 25					; 00000019H
	mov	BYTE PTR $T44224[ebp], 1
	mov	DWORD PTR _regValue$[ebp], eax
$LN6@PropagateC@5:

; 316  :       }
; 317  :       break;

	jmp	SHORT $LN25@PropagateC@5
$LN5@PropagateC@5:

; 318  :     case 0x30:
; 319  :     case 0x31:
; 320  :     case 0x32:
; 321  :     case 0x33:
; 322  :     case 0x34:
; 323  :     case 0x35:
; 324  :     case 0x36:
; 325  :     case 0x37:
; 326  :     case 0x38:
; 327  :     case 0x39:
; 328  :     case 0x3A:
; 329  :     case 0x3B:
; 330  :     case 0x3C:
; 331  :     case 0x3D:
; 332  :     case 0x3E:
; 333  :     case 0x3F:
; 334  :     case 0x40:
; 335  :     case 0x41:
; 336  :     case 0x42:
; 337  :     case 0x43:
; 338  :     case 0x44:
; 339  :     case 0x45:
; 340  :     case 0x46:
; 341  :     case 0x47:
; 342  :     case 0x48:
; 343  :     case 0x49:
; 344  :     case 0x4A:
; 345  :     case 0x4B:
; 346  :     case 0x4C:
; 347  :     case 0x4D:
; 348  :     case 0x4E:
; 349  :     case 0x4F:
; 350  :       bIsConstant = false;

	mov	BYTE PTR _bIsConstant$[ebp], 0

; 351  :       if(constants.IsScalarRegisterConstant(regIndex - 0x30UL) && ALLOW_MEM_PROPAGATION)

	mov	edx, DWORD PTR _regIndex$[ebp]
	sub	edx, 48					; 00000030H
	push	edx
	mov	ecx, DWORD PTR _constants$[ebp]
	call	?IsScalarRegisterConstant@SuperBlockConstants@@QAE_NI@Z ; SuperBlockConstants::IsScalarRegisterConstant
	movzx	eax, al
	test	eax, eax
	je	SHORT $LN4@PropagateC@5
	mov	ecx, 1
	test	ecx, ecx
	je	SHORT $LN4@PropagateC@5

; 352  :       {
; 353  :         bIsConstant = true;

	mov	BYTE PTR _bIsConstant$[ebp], 1

; 354  :         regValue = constants.GetScalarRegisterConstant(regIndex - 0x30UL);

	mov	edx, DWORD PTR _regIndex$[ebp]
	sub	edx, 48					; 00000030H
	push	edx
	mov	ecx, DWORD PTR _constants$[ebp]
	call	?GetScalarRegisterConstant@SuperBlockConstants@@QAEII@Z ; SuperBlockConstants::GetScalarRegisterConstant
	mov	BYTE PTR $T44224[ebp], 1
	mov	DWORD PTR _regValue$[ebp], eax
$LN4@PropagateC@5:

; 355  :       }
; 356  :       break;

	jmp	SHORT $LN25@PropagateC@5
$LN3@PropagateC@5:

; 357  :     default:
; 358  :       bIsConstant = false;

	mov	BYTE PTR _bIsConstant$[ebp], 0
$LN25@PropagateC@5:

; 359  :       break;
; 360  :   }
; 361  : 
; 362  :   if(bIsConstant && ALLOW_MEM_PROPAGATION)

	movzx	eax, BYTE PTR _bIsConstant$[ebp]
	test	eax, eax
	je	SHORT $LN2@PropagateC@5
	mov	ecx, 1
	test	ecx, ecx
	je	SHORT $LN2@PropagateC@5

; 363  :   {
; 364  :     constants.nuance->fields[FIELD_MEM_HANDLER] = Handler_MV_SImmediate;

	mov	edx, DWORD PTR _constants$[ebp]
	mov	eax, DWORD PTR [edx+4]
	mov	DWORD PTR [eax], 152			; 00000098H

; 365  :     constants.nuance->fields[FIELD_MEM_FROM] = regValue;

	cmp	BYTE PTR $T44224[ebp], 0
	jne	SHORT $LN29@PropagateC@5
	push	OFFSET $LN30@PropagateC@5
	call	__RTC_UninitUse
	add	esp, 4
$LN29@PropagateC@5:
	mov	ecx, DWORD PTR _constants$[ebp]
	mov	edx, DWORD PTR [ecx+4]
	mov	eax, DWORD PTR _regValue$[ebp]
	mov	DWORD PTR [edx+12], eax

; 366  :     constants.ClearAllMiscInputDependencies();

	mov	ecx, DWORD PTR _constants$[ebp]
	call	?ClearAllMiscInputDependencies@SuperBlockConstants@@QAEXXZ ; SuperBlockConstants::ClearAllMiscInputDependencies

; 367  :     constants.bConstantPropagated = true;

	mov	ecx, DWORD PTR _constants$[ebp]
	mov	BYTE PTR [ecx+36], 1

; 368  :     PropagateConstants_MV_SImmediate(constants);

	mov	edx, DWORD PTR _constants$[ebp]
	push	edx
	call	?PropagateConstants_MV_SImmediate@@YAXAAVSuperBlockConstants@@@Z ; PropagateConstants_MV_SImmediate
	add	esp, 4

; 369  :   }
; 370  :   else

	jmp	SHORT $LN1@PropagateC@5
$LN2@PropagateC@5:

; 371  :   {
; 372  :     constants.ClearScalarRegisterConstant(destIndex);

	mov	eax, DWORD PTR _destIndex$[ebp]
	push	eax
	mov	ecx, DWORD PTR _constants$[ebp]
	call	?ClearScalarRegisterConstant@SuperBlockConstants@@QAEXI@Z ; SuperBlockConstants::ClearScalarRegisterConstant

; 373  :     constants.SetInstructionFlags(SUPERBLOCKINFO_LOCKED);

	push	65536					; 00010000H
	mov	ecx, DWORD PTR _constants$[ebp]
	call	?SetInstructionFlags@SuperBlockConstants@@QAEXI@Z ; SuperBlockConstants::SetInstructionFlags
$LN1@PropagateC@5:

; 374  :   }
; 375  : 
; 376  :   constants.status.status = PROPAGATE_CONSTANTS_STATUS_MEM_OK;  

	mov	ecx, DWORD PTR _constants$[ebp]
	mov	DWORD PTR [ecx+12], 4

; 377  : }

	add	esp, 20					; 00000014H
	cmp	ebp, esp
	call	__RTC_CheckEsp
	mov	esp, ebp
	pop	ebp
	ret	0
$LN32@PropagateC@5:
$LN30@PropagateC@5:
	DB	114					; 00000072H
	DB	101					; 00000065H
	DB	103					; 00000067H
	DB	86					; 00000056H
	DB	97					; 00000061H
	DB	108					; 0000006cH
	DB	117					; 00000075H
	DB	101					; 00000065H
	DB	0
	npad	2
$LN33@PropagateC@5:
	DD	$LN24@PropagateC@5
	DD	$LN23@PropagateC@5
	DD	$LN21@PropagateC@5
	DD	$LN19@PropagateC@5
	DD	$LN17@PropagateC@5
	DD	$LN15@PropagateC@5
	DD	$LN13@PropagateC@5
	DD	$LN11@PropagateC@5
	DD	$LN9@PropagateC@5
	DD	$LN7@PropagateC@5
	DD	$LN5@PropagateC@5
	DD	$LN3@PropagateC@5
$LN31@PropagateC@5:
	DB	0
	DB	1
	DB	11					; 0000000bH
	DB	11					; 0000000bH
	DB	11					; 0000000bH
	DB	11					; 0000000bH
	DB	11					; 0000000bH
	DB	11					; 0000000bH
	DB	11					; 0000000bH
	DB	11					; 0000000bH
	DB	11					; 0000000bH
	DB	11					; 0000000bH
	DB	11					; 0000000bH
	DB	11					; 0000000bH
	DB	11					; 0000000bH
	DB	11					; 0000000bH
	DB	11					; 0000000bH
	DB	11					; 0000000bH
	DB	11					; 0000000bH
	DB	11					; 0000000bH
	DB	11					; 0000000bH
	DB	11					; 0000000bH
	DB	11					; 0000000bH
	DB	2
	DB	3
	DB	4
	DB	5
	DB	11					; 0000000bH
	DB	11					; 0000000bH
	DB	11					; 0000000bH
	DB	6
	DB	7
	DB	11					; 0000000bH
	DB	11					; 0000000bH
	DB	11					; 0000000bH
	DB	11					; 0000000bH
	DB	11					; 0000000bH
	DB	8
	DB	9
	DB	11					; 0000000bH
	DB	11					; 0000000bH
	DB	10					; 0000000aH
	DB	10					; 0000000aH
	DB	10					; 0000000aH
	DB	10					; 0000000aH
	DB	10					; 0000000aH
	DB	10					; 0000000aH
	DB	10					; 0000000aH
	DB	10					; 0000000aH
	DB	10					; 0000000aH
	DB	10					; 0000000aH
	DB	10					; 0000000aH
	DB	10					; 0000000aH
	DB	10					; 0000000aH
	DB	10					; 0000000aH
	DB	10					; 0000000aH
	DB	10					; 0000000aH
	DB	10					; 0000000aH
	DB	10					; 0000000aH
	DB	10					; 0000000aH
	DB	10					; 0000000aH
	DB	10					; 0000000aH
	DB	10					; 0000000aH
	DB	10					; 0000000aH
	DB	10					; 0000000aH
	DB	10					; 0000000aH
	DB	10					; 0000000aH
	DB	10					; 0000000aH
	DB	10					; 0000000aH
	DB	10					; 0000000aH
	DB	10					; 0000000aH
	DB	10					; 0000000aH
	DB	10					; 0000000aH
?PropagateConstants_LoadScalarControlRegisterAbsolute@@YAXAAVSuperBlockConstants@@@Z ENDP ; PropagateConstants_LoadScalarControlRegisterAbsolute
; Function compile flags: /Odtp /RTCsu
; File c:\nuanceexperimental\superblockconstants.h
_TEXT	ENDS
;	COMDAT ?ClearAllMiscInputDependencies@SuperBlockConstants@@QAEXXZ
_TEXT	SEGMENT
_this$ = -4						; size = 4
?ClearAllMiscInputDependencies@SuperBlockConstants@@QAEXXZ PROC ; SuperBlockConstants::ClearAllMiscInputDependencies, COMDAT
; _this$ = ecx

; 113  :   {

	push	ebp
	mov	ebp, esp
	push	ecx
	mov	DWORD PTR [ebp-4], -858993460		; ccccccccH
	mov	DWORD PTR _this$[ebp], ecx

; 114  :     pCurrentInstructionEntry->miscInputDependencies = 0;

	mov	eax, DWORD PTR _this$[ebp]
	mov	ecx, DWORD PTR [eax+8]
	mov	DWORD PTR [ecx+36], 0

; 115  :   }

	mov	esp, ebp
	pop	ebp
	ret	0
?ClearAllMiscInputDependencies@SuperBlockConstants@@QAEXXZ ENDP ; SuperBlockConstants::ClearAllMiscInputDependencies
; Function compile flags: /Odtp /RTCsu
_TEXT	ENDS
;	COMDAT ?IsMiscRegisterConstant@SuperBlockConstants@@QAE_NI@Z
_TEXT	SEGMENT
_this$ = -4						; size = 4
_index$ = 8						; size = 4
?IsMiscRegisterConstant@SuperBlockConstants@@QAE_NI@Z PROC ; SuperBlockConstants::IsMiscRegisterConstant, COMDAT
; _this$ = ecx

; 209  :   {

	push	ebp
	mov	ebp, esp
	push	ecx
	mov	DWORD PTR [ebp-4], -858993460		; ccccccccH
	mov	DWORD PTR _this$[ebp], ecx

; 210  :     return (miscRegisterConstantsStatus & (1UL << index)) != 0;

	mov	eax, 1
	mov	ecx, DWORD PTR _index$[ebp]
	shl	eax, cl
	mov	ecx, DWORD PTR _this$[ebp]
	and	eax, DWORD PTR [ecx+560]
	neg	eax
	sbb	eax, eax
	neg	eax

; 211  :   }

	mov	esp, ebp
	pop	ebp
	ret	4
?IsMiscRegisterConstant@SuperBlockConstants@@QAE_NI@Z ENDP ; SuperBlockConstants::IsMiscRegisterConstant
; Function compile flags: /Odtp /RTCsu
_TEXT	ENDS
;	COMDAT ?GetMiscRegisterConstant@SuperBlockConstants@@QAEII@Z
_TEXT	SEGMENT
_this$ = -4						; size = 4
_index$ = 8						; size = 4
?GetMiscRegisterConstant@SuperBlockConstants@@QAEII@Z PROC ; SuperBlockConstants::GetMiscRegisterConstant, COMDAT
; _this$ = ecx

; 217  :   {

	push	ebp
	mov	ebp, esp
	push	ecx
	mov	DWORD PTR [ebp-4], -858993460		; ccccccccH
	mov	DWORD PTR _this$[ebp], ecx

; 218  :     return miscRegisterConstants[index];

	mov	eax, DWORD PTR _index$[ebp]
	mov	ecx, DWORD PTR _this$[ebp]
	mov	eax, DWORD PTR [ecx+eax*4+428]

; 219  :   }

	mov	esp, ebp
	pop	ebp
	ret	4
?GetMiscRegisterConstant@SuperBlockConstants@@QAEII@Z ENDP ; SuperBlockConstants::GetMiscRegisterConstant
_TEXT	ENDS
PUBLIC	?PropagateConstants_LoadByteAbsolute@@YAXAAVSuperBlockConstants@@@Z ; PropagateConstants_LoadByteAbsolute
; Function compile flags: /Odtp /RTCsu
; File c:\nuanceexperimental\propagateconstants_mem.cpp
_TEXT	SEGMENT
_destIndex$ = -4					; size = 4
_constants$ = 8						; size = 4
?PropagateConstants_LoadByteAbsolute@@YAXAAVSuperBlockConstants@@@Z PROC ; PropagateConstants_LoadByteAbsolute

; 379  : {

	push	ebp
	mov	ebp, esp
	push	ecx
	mov	DWORD PTR [ebp-4], -858993460		; ccccccccH

; 380  :   uint32 destIndex = constants.nuance->fields[FIELD_MEM_TO]; 

	mov	eax, DWORD PTR _constants$[ebp]
	mov	ecx, DWORD PTR [eax+4]
	mov	edx, DWORD PTR [ecx+8]
	mov	DWORD PTR _destIndex$[ebp], edx

; 381  : 
; 382  :   constants.status.status = PROPAGATE_CONSTANTS_STATUS_MEM_OK;

	mov	eax, DWORD PTR _constants$[ebp]
	mov	DWORD PTR [eax+12], 4

; 383  :   constants.ClearScalarRegisterConstant(destIndex);

	mov	ecx, DWORD PTR _destIndex$[ebp]
	push	ecx
	mov	ecx, DWORD PTR _constants$[ebp]
	call	?ClearScalarRegisterConstant@SuperBlockConstants@@QAEXI@Z ; SuperBlockConstants::ClearScalarRegisterConstant

; 384  : }

	add	esp, 4
	cmp	ebp, esp
	call	__RTC_CheckEsp
	mov	esp, ebp
	pop	ebp
	ret	0
?PropagateConstants_LoadByteAbsolute@@YAXAAVSuperBlockConstants@@@Z ENDP ; PropagateConstants_LoadByteAbsolute
_TEXT	ENDS
PUBLIC	?PropagateConstants_LoadWordAbsolute@@YAXAAVSuperBlockConstants@@@Z ; PropagateConstants_LoadWordAbsolute
; Function compile flags: /Odtp /RTCsu
_TEXT	SEGMENT
_destIndex$ = -4					; size = 4
_constants$ = 8						; size = 4
?PropagateConstants_LoadWordAbsolute@@YAXAAVSuperBlockConstants@@@Z PROC ; PropagateConstants_LoadWordAbsolute

; 386  : {

	push	ebp
	mov	ebp, esp
	push	ecx
	mov	DWORD PTR [ebp-4], -858993460		; ccccccccH

; 387  :   uint32 destIndex = constants.nuance->fields[FIELD_MEM_TO]; 

	mov	eax, DWORD PTR _constants$[ebp]
	mov	ecx, DWORD PTR [eax+4]
	mov	edx, DWORD PTR [ecx+8]
	mov	DWORD PTR _destIndex$[ebp], edx

; 388  : 
; 389  :   constants.status.status = PROPAGATE_CONSTANTS_STATUS_MEM_OK;

	mov	eax, DWORD PTR _constants$[ebp]
	mov	DWORD PTR [eax+12], 4

; 390  :   constants.ClearScalarRegisterConstant(destIndex);

	mov	ecx, DWORD PTR _destIndex$[ebp]
	push	ecx
	mov	ecx, DWORD PTR _constants$[ebp]
	call	?ClearScalarRegisterConstant@SuperBlockConstants@@QAEXI@Z ; SuperBlockConstants::ClearScalarRegisterConstant

; 391  : }

	add	esp, 4
	cmp	ebp, esp
	call	__RTC_CheckEsp
	mov	esp, ebp
	pop	ebp
	ret	0
?PropagateConstants_LoadWordAbsolute@@YAXAAVSuperBlockConstants@@@Z ENDP ; PropagateConstants_LoadWordAbsolute
_TEXT	ENDS
PUBLIC	?PropagateConstants_LoadScalarAbsolute@@YAXAAVSuperBlockConstants@@@Z ; PropagateConstants_LoadScalarAbsolute
; Function compile flags: /Odtp /RTCsu
_TEXT	SEGMENT
_destIndex$ = -4					; size = 4
_constants$ = 8						; size = 4
?PropagateConstants_LoadScalarAbsolute@@YAXAAVSuperBlockConstants@@@Z PROC ; PropagateConstants_LoadScalarAbsolute

; 393  : {

	push	ebp
	mov	ebp, esp
	push	ecx
	mov	DWORD PTR [ebp-4], -858993460		; ccccccccH

; 394  :   uint32 destIndex = constants.nuance->fields[FIELD_MEM_TO]; 

	mov	eax, DWORD PTR _constants$[ebp]
	mov	ecx, DWORD PTR [eax+4]
	mov	edx, DWORD PTR [ecx+8]
	mov	DWORD PTR _destIndex$[ebp], edx

; 395  : 
; 396  :   constants.status.status = PROPAGATE_CONSTANTS_STATUS_MEM_OK;

	mov	eax, DWORD PTR _constants$[ebp]
	mov	DWORD PTR [eax+12], 4

; 397  :   constants.ClearScalarRegisterConstant(destIndex);

	mov	ecx, DWORD PTR _destIndex$[ebp]
	push	ecx
	mov	ecx, DWORD PTR _constants$[ebp]
	call	?ClearScalarRegisterConstant@SuperBlockConstants@@QAEXI@Z ; SuperBlockConstants::ClearScalarRegisterConstant

; 398  : }

	add	esp, 4
	cmp	ebp, esp
	call	__RTC_CheckEsp
	mov	esp, ebp
	pop	ebp
	ret	0
?PropagateConstants_LoadScalarAbsolute@@YAXAAVSuperBlockConstants@@@Z ENDP ; PropagateConstants_LoadScalarAbsolute
_TEXT	ENDS
PUBLIC	?PropagateConstants_LoadScalarLinear@@YAXAAVSuperBlockConstants@@@Z ; PropagateConstants_LoadScalarLinear
EXTRN	?GetPointerToMemory@NuonEnvironment@@QAEPAXPAVMPE@@I_N@Z:PROC ; NuonEnvironment::GetPointerToMemory
EXTRN	?nuonEnv@@3PAVNuonEnvironment@@A:DWORD		; nuonEnv
; Function compile flags: /Odtp /RTCsu
_TEXT	SEGMENT
_address$ = -12						; size = 4
_destIndex$ = -8					; size = 4
_srcIndex$ = -4						; size = 4
_constants$ = 8						; size = 4
?PropagateConstants_LoadScalarLinear@@YAXAAVSuperBlockConstants@@@Z PROC ; PropagateConstants_LoadScalarLinear

; 400  : {

	push	ebp
	mov	ebp, esp
	sub	esp, 12					; 0000000cH
	mov	DWORD PTR [ebp-12], -858993460		; ccccccccH
	mov	DWORD PTR [ebp-8], -858993460		; ccccccccH
	mov	DWORD PTR [ebp-4], -858993460		; ccccccccH

; 401  :   uint32 srcIndex = constants.nuance->fields[FIELD_MEM_FROM];

	mov	eax, DWORD PTR _constants$[ebp]
	mov	ecx, DWORD PTR [eax+4]
	mov	edx, DWORD PTR [ecx+12]
	mov	DWORD PTR _srcIndex$[ebp], edx

; 402  :   uint32 destIndex = constants.nuance->fields[FIELD_MEM_TO]; 

	mov	eax, DWORD PTR _constants$[ebp]
	mov	ecx, DWORD PTR [eax+4]
	mov	edx, DWORD PTR [ecx+8]
	mov	DWORD PTR _destIndex$[ebp], edx

; 403  :   uint32 address;
; 404  : 
; 405  :   if(constants.IsScalarRegisterConstant(srcIndex) && ALLOW_MEM_PROPAGATION)

	mov	eax, DWORD PTR _srcIndex$[ebp]
	push	eax
	mov	ecx, DWORD PTR _constants$[ebp]
	call	?IsScalarRegisterConstant@SuperBlockConstants@@QAE_NI@Z ; SuperBlockConstants::IsScalarRegisterConstant
	movzx	ecx, al
	test	ecx, ecx
	je	$LN5@PropagateC@6
	mov	edx, 1
	test	edx, edx
	je	$LN5@PropagateC@6

; 406  :   {
; 407  :     address = constants.GetScalarRegisterConstant(srcIndex) & 0xFFFFFFFCUL;

	mov	eax, DWORD PTR _srcIndex$[ebp]
	push	eax
	mov	ecx, DWORD PTR _constants$[ebp]
	call	?GetScalarRegisterConstant@SuperBlockConstants@@QAEII@Z ; SuperBlockConstants::GetScalarRegisterConstant
	and	eax, -4					; fffffffcH
	mov	DWORD PTR _address$[ebp], eax

; 408  :     constants.bConstantPropagated = true;

	mov	ecx, DWORD PTR _constants$[ebp]
	mov	BYTE PTR [ecx+36], 1

; 409  : 
; 410  :     if((address < MPE_CTRL_BASE) || (address >= MPE_RESV_BASE))

	cmp	DWORD PTR _address$[ebp], 542113792	; 20500000H
	jb	SHORT $LN3@PropagateC@6
	cmp	DWORD PTR _address$[ebp], 543162368	; 20600000H
	jb	SHORT $LN4@PropagateC@6
$LN3@PropagateC@6:

; 411  :     {
; 412  :       constants.nuance->fields[FIELD_MEM_HANDLER] = Handler_LoadScalarAbsolute;

	mov	edx, DWORD PTR _constants$[ebp]
	mov	eax, DWORD PTR [edx+4]
	mov	DWORD PTR [eax], 167			; 000000a7H

; 413  :       constants.nuance->fields[FIELD_MEM_FROM] = address;

	mov	ecx, DWORD PTR _constants$[ebp]
	mov	edx, DWORD PTR [ecx+4]
	mov	eax, DWORD PTR _address$[ebp]
	mov	DWORD PTR [edx+12], eax

; 414  :       constants.nuance->fields[FIELD_MEM_POINTER] = (uint32)(nuonEnv->GetPointerToMemory(constants.mpe,address));

	push	1
	mov	ecx, DWORD PTR _address$[ebp]
	push	ecx
	mov	edx, DWORD PTR _constants$[ebp]
	mov	eax, DWORD PTR [edx]
	push	eax
	mov	ecx, DWORD PTR ?nuonEnv@@3PAVNuonEnvironment@@A ; nuonEnv
	call	?GetPointerToMemory@NuonEnvironment@@QAEPAXPAVMPE@@I_N@Z ; NuonEnvironment::GetPointerToMemory
	mov	ecx, DWORD PTR _constants$[ebp]
	mov	edx, DWORD PTR [ecx+4]
	mov	DWORD PTR [edx+16], eax

; 415  :       constants.ClearScalarInputDependency(srcIndex);

	mov	eax, DWORD PTR _srcIndex$[ebp]
	push	eax
	mov	ecx, DWORD PTR _constants$[ebp]
	call	?ClearScalarInputDependency@SuperBlockConstants@@QAEXI@Z ; SuperBlockConstants::ClearScalarInputDependency

; 416  :       PropagateConstants_LoadScalarAbsolute(constants);    

	mov	ecx, DWORD PTR _constants$[ebp]
	push	ecx
	call	?PropagateConstants_LoadScalarAbsolute@@YAXAAVSuperBlockConstants@@@Z ; PropagateConstants_LoadScalarAbsolute
	add	esp, 4

; 417  :     }
; 418  :     else

	jmp	SHORT $LN2@PropagateC@6
$LN4@PropagateC@6:

; 419  :     {
; 420  :       constants.nuance->fields[FIELD_MEM_HANDLER] = Handler_LoadScalarControlRegisterAbsolute;

	mov	edx, DWORD PTR _constants$[ebp]
	mov	eax, DWORD PTR [edx+4]
	mov	DWORD PTR [eax], 164			; 000000a4H

; 421  :       constants.nuance->fields[FIELD_MEM_FROM] = address;

	mov	ecx, DWORD PTR _constants$[ebp]
	mov	edx, DWORD PTR [ecx+4]
	mov	eax, DWORD PTR _address$[ebp]
	mov	DWORD PTR [edx+12], eax

; 422  :       constants.ClearScalarInputDependency(srcIndex);

	mov	ecx, DWORD PTR _srcIndex$[ebp]
	push	ecx
	mov	ecx, DWORD PTR _constants$[ebp]
	call	?ClearScalarInputDependency@SuperBlockConstants@@QAEXI@Z ; SuperBlockConstants::ClearScalarInputDependency

; 423  :       PropagateConstants_LoadScalarControlRegisterAbsolute(constants);    

	mov	edx, DWORD PTR _constants$[ebp]
	push	edx
	call	?PropagateConstants_LoadScalarControlRegisterAbsolute@@YAXAAVSuperBlockConstants@@@Z ; PropagateConstants_LoadScalarControlRegisterAbsolute
	add	esp, 4
$LN2@PropagateC@6:

; 424  :     }
; 425  :   }
; 426  :   else

	jmp	SHORT $LN6@PropagateC@6
$LN5@PropagateC@6:

; 427  :   {
; 428  :     constants.status.status = PROPAGATE_CONSTANTS_STATUS_MEM_OK;

	mov	eax, DWORD PTR _constants$[ebp]
	mov	DWORD PTR [eax+12], 4

; 429  :     constants.ClearScalarRegisterConstant(destIndex);

	mov	ecx, DWORD PTR _destIndex$[ebp]
	push	ecx
	mov	ecx, DWORD PTR _constants$[ebp]
	call	?ClearScalarRegisterConstant@SuperBlockConstants@@QAEXI@Z ; SuperBlockConstants::ClearScalarRegisterConstant
$LN6@PropagateC@6:

; 430  :   }
; 431  : }

	add	esp, 12					; 0000000cH
	cmp	ebp, esp
	call	__RTC_CheckEsp
	mov	esp, ebp
	pop	ebp
	ret	0
?PropagateConstants_LoadScalarLinear@@YAXAAVSuperBlockConstants@@@Z ENDP ; PropagateConstants_LoadScalarLinear
_TEXT	ENDS
PUBLIC	?PropagateConstants_LoadVectorAbsolute@@YAXAAVSuperBlockConstants@@@Z ; PropagateConstants_LoadVectorAbsolute
; Function compile flags: /Odtp /RTCsu
_TEXT	SEGMENT
_destIndex$ = -4					; size = 4
_constants$ = 8						; size = 4
?PropagateConstants_LoadVectorAbsolute@@YAXAAVSuperBlockConstants@@@Z PROC ; PropagateConstants_LoadVectorAbsolute

; 433  : {

	push	ebp
	mov	ebp, esp
	push	ecx
	mov	DWORD PTR [ebp-4], -858993460		; ccccccccH

; 434  :   uint32 destIndex = constants.nuance->fields[FIELD_MEM_TO]; 

	mov	eax, DWORD PTR _constants$[ebp]
	mov	ecx, DWORD PTR [eax+4]
	mov	edx, DWORD PTR [ecx+8]
	mov	DWORD PTR _destIndex$[ebp], edx

; 435  : 
; 436  :   constants.status.status = PROPAGATE_CONSTANTS_STATUS_MEM_OK;

	mov	eax, DWORD PTR _constants$[ebp]
	mov	DWORD PTR [eax+12], 4

; 437  :   constants.ClearVectorRegisterConstant(destIndex);

	mov	ecx, DWORD PTR _destIndex$[ebp]
	push	ecx
	mov	ecx, DWORD PTR _constants$[ebp]
	call	?ClearVectorRegisterConstant@SuperBlockConstants@@QAEXI@Z ; SuperBlockConstants::ClearVectorRegisterConstant

; 438  : }

	add	esp, 4
	cmp	ebp, esp
	call	__RTC_CheckEsp
	mov	esp, ebp
	pop	ebp
	ret	0
?PropagateConstants_LoadVectorAbsolute@@YAXAAVSuperBlockConstants@@@Z ENDP ; PropagateConstants_LoadVectorAbsolute
_TEXT	ENDS
PUBLIC	?PropagateConstants_LoadVectorControlRegisterAbsolute@@YAXAAVSuperBlockConstants@@@Z ; PropagateConstants_LoadVectorControlRegisterAbsolute
; Function compile flags: /Odtp /RTCsu
_TEXT	SEGMENT
_destIndex$ = -4					; size = 4
_constants$ = 8						; size = 4
?PropagateConstants_LoadVectorControlRegisterAbsolute@@YAXAAVSuperBlockConstants@@@Z PROC ; PropagateConstants_LoadVectorControlRegisterAbsolute

; 440  : {

	push	ebp
	mov	ebp, esp
	push	ecx
	mov	DWORD PTR [ebp-4], -858993460		; ccccccccH

; 441  :   uint32 destIndex = constants.nuance->fields[FIELD_MEM_TO]; 

	mov	eax, DWORD PTR _constants$[ebp]
	mov	ecx, DWORD PTR [eax+4]
	mov	edx, DWORD PTR [ecx+8]
	mov	DWORD PTR _destIndex$[ebp], edx

; 442  : 
; 443  :   constants.status.status = PROPAGATE_CONSTANTS_STATUS_MEM_OK;

	mov	eax, DWORD PTR _constants$[ebp]
	mov	DWORD PTR [eax+12], 4

; 444  :   constants.ClearVectorRegisterConstant(destIndex);

	mov	ecx, DWORD PTR _destIndex$[ebp]
	push	ecx
	mov	ecx, DWORD PTR _constants$[ebp]
	call	?ClearVectorRegisterConstant@SuperBlockConstants@@QAEXI@Z ; SuperBlockConstants::ClearVectorRegisterConstant

; 445  :   constants.SetInstructionFlags(SUPERBLOCKINFO_LOCKED);

	push	65536					; 00010000H
	mov	ecx, DWORD PTR _constants$[ebp]
	call	?SetInstructionFlags@SuperBlockConstants@@QAEXI@Z ; SuperBlockConstants::SetInstructionFlags

; 446  : }

	add	esp, 4
	cmp	ebp, esp
	call	__RTC_CheckEsp
	mov	esp, ebp
	pop	ebp
	ret	0
?PropagateConstants_LoadVectorControlRegisterAbsolute@@YAXAAVSuperBlockConstants@@@Z ENDP ; PropagateConstants_LoadVectorControlRegisterAbsolute
_TEXT	ENDS
PUBLIC	?PropagateConstants_LoadPixelAbsolute@@YAXAAVSuperBlockConstants@@@Z ; PropagateConstants_LoadPixelAbsolute
; Function compile flags: /Odtp /RTCsu
_TEXT	SEGMENT
_destIndex$ = -4					; size = 4
_constants$ = 8						; size = 4
?PropagateConstants_LoadPixelAbsolute@@YAXAAVSuperBlockConstants@@@Z PROC ; PropagateConstants_LoadPixelAbsolute

; 448  : {

	push	ebp
	mov	ebp, esp
	push	ecx
	mov	DWORD PTR [ebp-4], -858993460		; ccccccccH

; 449  :   uint32 destIndex = constants.nuance->fields[FIELD_MEM_TO]; 

	mov	eax, DWORD PTR _constants$[ebp]
	mov	ecx, DWORD PTR [eax+4]
	mov	edx, DWORD PTR [ecx+8]
	mov	DWORD PTR _destIndex$[ebp], edx

; 450  : 
; 451  :   constants.status.status = PROPAGATE_CONSTANTS_STATUS_MEM_OK;

	mov	eax, DWORD PTR _constants$[ebp]
	mov	DWORD PTR [eax+12], 4

; 452  :   constants.ClearPixelRegisterConstant(destIndex);

	mov	ecx, DWORD PTR _destIndex$[ebp]
	push	ecx
	mov	ecx, DWORD PTR _constants$[ebp]
	call	?ClearPixelRegisterConstant@SuperBlockConstants@@QAEXI@Z ; SuperBlockConstants::ClearPixelRegisterConstant

; 453  : }

	add	esp, 4
	cmp	ebp, esp
	call	__RTC_CheckEsp
	mov	esp, ebp
	pop	ebp
	ret	0
?PropagateConstants_LoadPixelAbsolute@@YAXAAVSuperBlockConstants@@@Z ENDP ; PropagateConstants_LoadPixelAbsolute
_TEXT	ENDS
PUBLIC	?PropagateConstants_LoadPixelZAbsolute@@YAXAAVSuperBlockConstants@@@Z ; PropagateConstants_LoadPixelZAbsolute
; Function compile flags: /Odtp /RTCsu
_TEXT	SEGMENT
_destIndex$ = -4					; size = 4
_constants$ = 8						; size = 4
?PropagateConstants_LoadPixelZAbsolute@@YAXAAVSuperBlockConstants@@@Z PROC ; PropagateConstants_LoadPixelZAbsolute

; 455  : {

	push	ebp
	mov	ebp, esp
	push	ecx
	mov	DWORD PTR [ebp-4], -858993460		; ccccccccH

; 456  :   uint32 destIndex = constants.nuance->fields[FIELD_MEM_TO]; 

	mov	eax, DWORD PTR _constants$[ebp]
	mov	ecx, DWORD PTR [eax+4]
	mov	edx, DWORD PTR [ecx+8]
	mov	DWORD PTR _destIndex$[ebp], edx

; 457  : 
; 458  :   constants.status.status = PROPAGATE_CONSTANTS_STATUS_MEM_OK;

	mov	eax, DWORD PTR _constants$[ebp]
	mov	DWORD PTR [eax+12], 4

; 459  :   constants.ClearVectorRegisterConstant(destIndex);

	mov	ecx, DWORD PTR _destIndex$[ebp]
	push	ecx
	mov	ecx, DWORD PTR _constants$[ebp]
	call	?ClearVectorRegisterConstant@SuperBlockConstants@@QAEXI@Z ; SuperBlockConstants::ClearVectorRegisterConstant

; 460  : }

	add	esp, 4
	cmp	ebp, esp
	call	__RTC_CheckEsp
	mov	esp, ebp
	pop	ebp
	ret	0
?PropagateConstants_LoadPixelZAbsolute@@YAXAAVSuperBlockConstants@@@Z ENDP ; PropagateConstants_LoadPixelZAbsolute
_TEXT	ENDS
PUBLIC	?PropagateConstants_LoadByteLinear@@YAXAAVSuperBlockConstants@@@Z ; PropagateConstants_LoadByteLinear
; Function compile flags: /Odtp /RTCsu
_TEXT	SEGMENT
_address$ = -12						; size = 4
_destIndex$ = -8					; size = 4
_srcIndex$ = -4						; size = 4
_constants$ = 8						; size = 4
?PropagateConstants_LoadByteLinear@@YAXAAVSuperBlockConstants@@@Z PROC ; PropagateConstants_LoadByteLinear

; 462  : {

	push	ebp
	mov	ebp, esp
	sub	esp, 12					; 0000000cH
	mov	DWORD PTR [ebp-12], -858993460		; ccccccccH
	mov	DWORD PTR [ebp-8], -858993460		; ccccccccH
	mov	DWORD PTR [ebp-4], -858993460		; ccccccccH

; 463  :   uint32 srcIndex = constants.nuance->fields[FIELD_MEM_FROM];

	mov	eax, DWORD PTR _constants$[ebp]
	mov	ecx, DWORD PTR [eax+4]
	mov	edx, DWORD PTR [ecx+12]
	mov	DWORD PTR _srcIndex$[ebp], edx

; 464  :   uint32 destIndex = constants.nuance->fields[FIELD_MEM_TO]; 

	mov	eax, DWORD PTR _constants$[ebp]
	mov	ecx, DWORD PTR [eax+4]
	mov	edx, DWORD PTR [ecx+8]
	mov	DWORD PTR _destIndex$[ebp], edx

; 465  :   uint32 address;
; 466  : 
; 467  :   if(constants.IsScalarRegisterConstant(srcIndex) && ALLOW_MEM_PROPAGATION)

	mov	eax, DWORD PTR _srcIndex$[ebp]
	push	eax
	mov	ecx, DWORD PTR _constants$[ebp]
	call	?IsScalarRegisterConstant@SuperBlockConstants@@QAE_NI@Z ; SuperBlockConstants::IsScalarRegisterConstant
	movzx	ecx, al
	test	ecx, ecx
	je	SHORT $LN2@PropagateC@7
	mov	edx, 1
	test	edx, edx
	je	SHORT $LN2@PropagateC@7

; 468  :   {
; 469  :     address = constants.GetScalarRegisterConstant(srcIndex);

	mov	eax, DWORD PTR _srcIndex$[ebp]
	push	eax
	mov	ecx, DWORD PTR _constants$[ebp]
	call	?GetScalarRegisterConstant@SuperBlockConstants@@QAEII@Z ; SuperBlockConstants::GetScalarRegisterConstant
	mov	DWORD PTR _address$[ebp], eax

; 470  : 
; 471  :     constants.nuance->fields[FIELD_MEM_HANDLER] = Handler_LoadByteAbsolute;

	mov	ecx, DWORD PTR _constants$[ebp]
	mov	edx, DWORD PTR [ecx+4]
	mov	DWORD PTR [edx], 165			; 000000a5H

; 472  :     constants.nuance->fields[FIELD_MEM_FROM] = address;

	mov	eax, DWORD PTR _constants$[ebp]
	mov	ecx, DWORD PTR [eax+4]
	mov	edx, DWORD PTR _address$[ebp]
	mov	DWORD PTR [ecx+12], edx

; 473  :     constants.nuance->fields[FIELD_MEM_POINTER] = (uint32)(nuonEnv->GetPointerToMemory(constants.mpe,address));

	push	1
	mov	eax, DWORD PTR _address$[ebp]
	push	eax
	mov	ecx, DWORD PTR _constants$[ebp]
	mov	edx, DWORD PTR [ecx]
	push	edx
	mov	ecx, DWORD PTR ?nuonEnv@@3PAVNuonEnvironment@@A ; nuonEnv
	call	?GetPointerToMemory@NuonEnvironment@@QAEPAXPAVMPE@@I_N@Z ; NuonEnvironment::GetPointerToMemory
	mov	ecx, DWORD PTR _constants$[ebp]
	mov	edx, DWORD PTR [ecx+4]
	mov	DWORD PTR [edx+16], eax

; 474  :     constants.ClearScalarInputDependency(srcIndex);

	mov	eax, DWORD PTR _srcIndex$[ebp]
	push	eax
	mov	ecx, DWORD PTR _constants$[ebp]
	call	?ClearScalarInputDependency@SuperBlockConstants@@QAEXI@Z ; SuperBlockConstants::ClearScalarInputDependency

; 475  :     constants.bConstantPropagated = true;

	mov	ecx, DWORD PTR _constants$[ebp]
	mov	BYTE PTR [ecx+36], 1

; 476  :     PropagateConstants_LoadByteAbsolute(constants);    

	mov	edx, DWORD PTR _constants$[ebp]
	push	edx
	call	?PropagateConstants_LoadByteAbsolute@@YAXAAVSuperBlockConstants@@@Z ; PropagateConstants_LoadByteAbsolute
	add	esp, 4

; 477  :   }
; 478  :   else

	jmp	SHORT $LN3@PropagateC@7
$LN2@PropagateC@7:

; 479  :   {
; 480  :     constants.status.status = PROPAGATE_CONSTANTS_STATUS_MEM_OK;

	mov	eax, DWORD PTR _constants$[ebp]
	mov	DWORD PTR [eax+12], 4

; 481  :     constants.ClearScalarRegisterConstant(destIndex);

	mov	ecx, DWORD PTR _destIndex$[ebp]
	push	ecx
	mov	ecx, DWORD PTR _constants$[ebp]
	call	?ClearScalarRegisterConstant@SuperBlockConstants@@QAEXI@Z ; SuperBlockConstants::ClearScalarRegisterConstant
$LN3@PropagateC@7:

; 482  :   }
; 483  : }

	add	esp, 12					; 0000000cH
	cmp	ebp, esp
	call	__RTC_CheckEsp
	mov	esp, ebp
	pop	ebp
	ret	0
?PropagateConstants_LoadByteLinear@@YAXAAVSuperBlockConstants@@@Z ENDP ; PropagateConstants_LoadByteLinear
_TEXT	ENDS
PUBLIC	?PropagateConstants_LoadByteBilinearUV@@YAXAAVSuperBlockConstants@@@Z ; PropagateConstants_LoadByteBilinearUV
; Function compile flags: /Odtp /RTCsu
_TEXT	SEGMENT
_destIndex$ = -4					; size = 4
_constants$ = 8						; size = 4
?PropagateConstants_LoadByteBilinearUV@@YAXAAVSuperBlockConstants@@@Z PROC ; PropagateConstants_LoadByteBilinearUV

; 485  : {

	push	ebp
	mov	ebp, esp
	push	ecx
	mov	DWORD PTR [ebp-4], -858993460		; ccccccccH

; 486  :   uint32 destIndex = constants.nuance->fields[FIELD_MEM_TO]; 

	mov	eax, DWORD PTR _constants$[ebp]
	mov	ecx, DWORD PTR [eax+4]
	mov	edx, DWORD PTR [ecx+8]
	mov	DWORD PTR _destIndex$[ebp], edx

; 487  : 
; 488  :   constants.status.status = PROPAGATE_CONSTANTS_STATUS_MEM_OK;

	mov	eax, DWORD PTR _constants$[ebp]
	mov	DWORD PTR [eax+12], 4

; 489  :   constants.ClearScalarRegisterConstant(destIndex);

	mov	ecx, DWORD PTR _destIndex$[ebp]
	push	ecx
	mov	ecx, DWORD PTR _constants$[ebp]
	call	?ClearScalarRegisterConstant@SuperBlockConstants@@QAEXI@Z ; SuperBlockConstants::ClearScalarRegisterConstant

; 490  : }

	add	esp, 4
	cmp	ebp, esp
	call	__RTC_CheckEsp
	mov	esp, ebp
	pop	ebp
	ret	0
?PropagateConstants_LoadByteBilinearUV@@YAXAAVSuperBlockConstants@@@Z ENDP ; PropagateConstants_LoadByteBilinearUV
_TEXT	ENDS
PUBLIC	?PropagateConstants_LoadByteBilinearXY@@YAXAAVSuperBlockConstants@@@Z ; PropagateConstants_LoadByteBilinearXY
; Function compile flags: /Odtp /RTCsu
_TEXT	SEGMENT
_destIndex$ = -4					; size = 4
_constants$ = 8						; size = 4
?PropagateConstants_LoadByteBilinearXY@@YAXAAVSuperBlockConstants@@@Z PROC ; PropagateConstants_LoadByteBilinearXY

; 492  : {

	push	ebp
	mov	ebp, esp
	push	ecx
	mov	DWORD PTR [ebp-4], -858993460		; ccccccccH

; 493  :   uint32 destIndex = constants.nuance->fields[FIELD_MEM_TO]; 

	mov	eax, DWORD PTR _constants$[ebp]
	mov	ecx, DWORD PTR [eax+4]
	mov	edx, DWORD PTR [ecx+8]
	mov	DWORD PTR _destIndex$[ebp], edx

; 494  : 
; 495  :   constants.status.status = PROPAGATE_CONSTANTS_STATUS_MEM_OK;

	mov	eax, DWORD PTR _constants$[ebp]
	mov	DWORD PTR [eax+12], 4

; 496  :   constants.ClearScalarRegisterConstant(destIndex);

	mov	ecx, DWORD PTR _destIndex$[ebp]
	push	ecx
	mov	ecx, DWORD PTR _constants$[ebp]
	call	?ClearScalarRegisterConstant@SuperBlockConstants@@QAEXI@Z ; SuperBlockConstants::ClearScalarRegisterConstant

; 497  : }

	add	esp, 4
	cmp	ebp, esp
	call	__RTC_CheckEsp
	mov	esp, ebp
	pop	ebp
	ret	0
?PropagateConstants_LoadByteBilinearXY@@YAXAAVSuperBlockConstants@@@Z ENDP ; PropagateConstants_LoadByteBilinearXY
_TEXT	ENDS
PUBLIC	?PropagateConstants_LoadWordLinear@@YAXAAVSuperBlockConstants@@@Z ; PropagateConstants_LoadWordLinear
; Function compile flags: /Odtp /RTCsu
_TEXT	SEGMENT
_address$ = -12						; size = 4
_destIndex$ = -8					; size = 4
_srcIndex$ = -4						; size = 4
_constants$ = 8						; size = 4
?PropagateConstants_LoadWordLinear@@YAXAAVSuperBlockConstants@@@Z PROC ; PropagateConstants_LoadWordLinear

; 499  : {

	push	ebp
	mov	ebp, esp
	sub	esp, 12					; 0000000cH
	mov	DWORD PTR [ebp-12], -858993460		; ccccccccH
	mov	DWORD PTR [ebp-8], -858993460		; ccccccccH
	mov	DWORD PTR [ebp-4], -858993460		; ccccccccH

; 500  :   uint32 srcIndex = constants.nuance->fields[FIELD_MEM_FROM];

	mov	eax, DWORD PTR _constants$[ebp]
	mov	ecx, DWORD PTR [eax+4]
	mov	edx, DWORD PTR [ecx+12]
	mov	DWORD PTR _srcIndex$[ebp], edx

; 501  :   uint32 destIndex = constants.nuance->fields[FIELD_MEM_TO]; 

	mov	eax, DWORD PTR _constants$[ebp]
	mov	ecx, DWORD PTR [eax+4]
	mov	edx, DWORD PTR [ecx+8]
	mov	DWORD PTR _destIndex$[ebp], edx

; 502  :   uint32 address;
; 503  : 
; 504  :   if(constants.IsScalarRegisterConstant(srcIndex) && ALLOW_MEM_PROPAGATION)

	mov	eax, DWORD PTR _srcIndex$[ebp]
	push	eax
	mov	ecx, DWORD PTR _constants$[ebp]
	call	?IsScalarRegisterConstant@SuperBlockConstants@@QAE_NI@Z ; SuperBlockConstants::IsScalarRegisterConstant
	movzx	ecx, al
	test	ecx, ecx
	je	SHORT $LN2@PropagateC@8
	mov	edx, 1
	test	edx, edx
	je	SHORT $LN2@PropagateC@8

; 505  :   {
; 506  :     address = constants.GetScalarRegisterConstant(srcIndex) & 0xFFFFFFFEUL;

	mov	eax, DWORD PTR _srcIndex$[ebp]
	push	eax
	mov	ecx, DWORD PTR _constants$[ebp]
	call	?GetScalarRegisterConstant@SuperBlockConstants@@QAEII@Z ; SuperBlockConstants::GetScalarRegisterConstant
	and	eax, -2					; fffffffeH
	mov	DWORD PTR _address$[ebp], eax

; 507  : 
; 508  :     constants.nuance->fields[FIELD_MEM_HANDLER] = Handler_LoadWordAbsolute;

	mov	ecx, DWORD PTR _constants$[ebp]
	mov	edx, DWORD PTR [ecx+4]
	mov	DWORD PTR [edx], 166			; 000000a6H

; 509  :     constants.nuance->fields[FIELD_MEM_FROM] = address;

	mov	eax, DWORD PTR _constants$[ebp]
	mov	ecx, DWORD PTR [eax+4]
	mov	edx, DWORD PTR _address$[ebp]
	mov	DWORD PTR [ecx+12], edx

; 510  :     constants.nuance->fields[FIELD_MEM_POINTER] = (uint32)(nuonEnv->GetPointerToMemory(constants.mpe,address));

	push	1
	mov	eax, DWORD PTR _address$[ebp]
	push	eax
	mov	ecx, DWORD PTR _constants$[ebp]
	mov	edx, DWORD PTR [ecx]
	push	edx
	mov	ecx, DWORD PTR ?nuonEnv@@3PAVNuonEnvironment@@A ; nuonEnv
	call	?GetPointerToMemory@NuonEnvironment@@QAEPAXPAVMPE@@I_N@Z ; NuonEnvironment::GetPointerToMemory
	mov	ecx, DWORD PTR _constants$[ebp]
	mov	edx, DWORD PTR [ecx+4]
	mov	DWORD PTR [edx+16], eax

; 511  :     constants.ClearScalarInputDependency(srcIndex);

	mov	eax, DWORD PTR _srcIndex$[ebp]
	push	eax
	mov	ecx, DWORD PTR _constants$[ebp]
	call	?ClearScalarInputDependency@SuperBlockConstants@@QAEXI@Z ; SuperBlockConstants::ClearScalarInputDependency

; 512  :     constants.bConstantPropagated = true;

	mov	ecx, DWORD PTR _constants$[ebp]
	mov	BYTE PTR [ecx+36], 1

; 513  :     PropagateConstants_LoadWordAbsolute(constants);    

	mov	edx, DWORD PTR _constants$[ebp]
	push	edx
	call	?PropagateConstants_LoadWordAbsolute@@YAXAAVSuperBlockConstants@@@Z ; PropagateConstants_LoadWordAbsolute
	add	esp, 4

; 514  :   }
; 515  :   else

	jmp	SHORT $LN3@PropagateC@8
$LN2@PropagateC@8:

; 516  :   {
; 517  :     constants.status.status = PROPAGATE_CONSTANTS_STATUS_MEM_OK;

	mov	eax, DWORD PTR _constants$[ebp]
	mov	DWORD PTR [eax+12], 4

; 518  :     constants.ClearScalarRegisterConstant(destIndex);

	mov	ecx, DWORD PTR _destIndex$[ebp]
	push	ecx
	mov	ecx, DWORD PTR _constants$[ebp]
	call	?ClearScalarRegisterConstant@SuperBlockConstants@@QAEXI@Z ; SuperBlockConstants::ClearScalarRegisterConstant
$LN3@PropagateC@8:

; 519  :   }
; 520  : }

	add	esp, 12					; 0000000cH
	cmp	ebp, esp
	call	__RTC_CheckEsp
	mov	esp, ebp
	pop	ebp
	ret	0
?PropagateConstants_LoadWordLinear@@YAXAAVSuperBlockConstants@@@Z ENDP ; PropagateConstants_LoadWordLinear
_TEXT	ENDS
PUBLIC	?PropagateConstants_LoadWordBilinearUV@@YAXAAVSuperBlockConstants@@@Z ; PropagateConstants_LoadWordBilinearUV
; Function compile flags: /Odtp /RTCsu
_TEXT	SEGMENT
_destIndex$ = -4					; size = 4
_constants$ = 8						; size = 4
?PropagateConstants_LoadWordBilinearUV@@YAXAAVSuperBlockConstants@@@Z PROC ; PropagateConstants_LoadWordBilinearUV

; 522  : {

	push	ebp
	mov	ebp, esp
	push	ecx
	mov	DWORD PTR [ebp-4], -858993460		; ccccccccH

; 523  :   uint32 destIndex = constants.nuance->fields[FIELD_MEM_TO]; 

	mov	eax, DWORD PTR _constants$[ebp]
	mov	ecx, DWORD PTR [eax+4]
	mov	edx, DWORD PTR [ecx+8]
	mov	DWORD PTR _destIndex$[ebp], edx

; 524  : 
; 525  :   constants.status.status = PROPAGATE_CONSTANTS_STATUS_MEM_OK;

	mov	eax, DWORD PTR _constants$[ebp]
	mov	DWORD PTR [eax+12], 4

; 526  :   constants.ClearScalarRegisterConstant(destIndex);

	mov	ecx, DWORD PTR _destIndex$[ebp]
	push	ecx
	mov	ecx, DWORD PTR _constants$[ebp]
	call	?ClearScalarRegisterConstant@SuperBlockConstants@@QAEXI@Z ; SuperBlockConstants::ClearScalarRegisterConstant

; 527  : }

	add	esp, 4
	cmp	ebp, esp
	call	__RTC_CheckEsp
	mov	esp, ebp
	pop	ebp
	ret	0
?PropagateConstants_LoadWordBilinearUV@@YAXAAVSuperBlockConstants@@@Z ENDP ; PropagateConstants_LoadWordBilinearUV
_TEXT	ENDS
PUBLIC	?PropagateConstants_LoadWordBilinearXY@@YAXAAVSuperBlockConstants@@@Z ; PropagateConstants_LoadWordBilinearXY
; Function compile flags: /Odtp /RTCsu
_TEXT	SEGMENT
_destIndex$ = -4					; size = 4
_constants$ = 8						; size = 4
?PropagateConstants_LoadWordBilinearXY@@YAXAAVSuperBlockConstants@@@Z PROC ; PropagateConstants_LoadWordBilinearXY

; 529  : {

	push	ebp
	mov	ebp, esp
	push	ecx
	mov	DWORD PTR [ebp-4], -858993460		; ccccccccH

; 530  :   uint32 destIndex = constants.nuance->fields[FIELD_MEM_TO]; 

	mov	eax, DWORD PTR _constants$[ebp]
	mov	ecx, DWORD PTR [eax+4]
	mov	edx, DWORD PTR [ecx+8]
	mov	DWORD PTR _destIndex$[ebp], edx

; 531  : 
; 532  :   constants.status.status = PROPAGATE_CONSTANTS_STATUS_MEM_OK;

	mov	eax, DWORD PTR _constants$[ebp]
	mov	DWORD PTR [eax+12], 4

; 533  :   constants.ClearScalarRegisterConstant(destIndex);

	mov	ecx, DWORD PTR _destIndex$[ebp]
	push	ecx
	mov	ecx, DWORD PTR _constants$[ebp]
	call	?ClearScalarRegisterConstant@SuperBlockConstants@@QAEXI@Z ; SuperBlockConstants::ClearScalarRegisterConstant

; 534  : }

	add	esp, 4
	cmp	ebp, esp
	call	__RTC_CheckEsp
	mov	esp, ebp
	pop	ebp
	ret	0
?PropagateConstants_LoadWordBilinearXY@@YAXAAVSuperBlockConstants@@@Z ENDP ; PropagateConstants_LoadWordBilinearXY
_TEXT	ENDS
PUBLIC	?PropagateConstants_LoadScalarBilinearUV@@YAXAAVSuperBlockConstants@@@Z ; PropagateConstants_LoadScalarBilinearUV
; Function compile flags: /Odtp /RTCsu
_TEXT	SEGMENT
_destIndex$ = -4					; size = 4
_constants$ = 8						; size = 4
?PropagateConstants_LoadScalarBilinearUV@@YAXAAVSuperBlockConstants@@@Z PROC ; PropagateConstants_LoadScalarBilinearUV

; 536  : {

	push	ebp
	mov	ebp, esp
	push	ecx
	mov	DWORD PTR [ebp-4], -858993460		; ccccccccH

; 537  :   uint32 destIndex = constants.nuance->fields[FIELD_MEM_TO]; 

	mov	eax, DWORD PTR _constants$[ebp]
	mov	ecx, DWORD PTR [eax+4]
	mov	edx, DWORD PTR [ecx+8]
	mov	DWORD PTR _destIndex$[ebp], edx

; 538  : 
; 539  :   constants.status.status = PROPAGATE_CONSTANTS_STATUS_MEM_OK;

	mov	eax, DWORD PTR _constants$[ebp]
	mov	DWORD PTR [eax+12], 4

; 540  :   constants.ClearScalarRegisterConstant(destIndex);

	mov	ecx, DWORD PTR _destIndex$[ebp]
	push	ecx
	mov	ecx, DWORD PTR _constants$[ebp]
	call	?ClearScalarRegisterConstant@SuperBlockConstants@@QAEXI@Z ; SuperBlockConstants::ClearScalarRegisterConstant

; 541  : }

	add	esp, 4
	cmp	ebp, esp
	call	__RTC_CheckEsp
	mov	esp, ebp
	pop	ebp
	ret	0
?PropagateConstants_LoadScalarBilinearUV@@YAXAAVSuperBlockConstants@@@Z ENDP ; PropagateConstants_LoadScalarBilinearUV
_TEXT	ENDS
PUBLIC	?PropagateConstants_LoadScalarBilinearXY@@YAXAAVSuperBlockConstants@@@Z ; PropagateConstants_LoadScalarBilinearXY
; Function compile flags: /Odtp /RTCsu
_TEXT	SEGMENT
_destIndex$ = -4					; size = 4
_constants$ = 8						; size = 4
?PropagateConstants_LoadScalarBilinearXY@@YAXAAVSuperBlockConstants@@@Z PROC ; PropagateConstants_LoadScalarBilinearXY

; 543  : {

	push	ebp
	mov	ebp, esp
	push	ecx
	mov	DWORD PTR [ebp-4], -858993460		; ccccccccH

; 544  :   uint32 destIndex = constants.nuance->fields[FIELD_MEM_TO]; 

	mov	eax, DWORD PTR _constants$[ebp]
	mov	ecx, DWORD PTR [eax+4]
	mov	edx, DWORD PTR [ecx+8]
	mov	DWORD PTR _destIndex$[ebp], edx

; 545  : 
; 546  :   constants.status.status = PROPAGATE_CONSTANTS_STATUS_MEM_OK;

	mov	eax, DWORD PTR _constants$[ebp]
	mov	DWORD PTR [eax+12], 4

; 547  :   constants.ClearScalarRegisterConstant(destIndex);

	mov	ecx, DWORD PTR _destIndex$[ebp]
	push	ecx
	mov	ecx, DWORD PTR _constants$[ebp]
	call	?ClearScalarRegisterConstant@SuperBlockConstants@@QAEXI@Z ; SuperBlockConstants::ClearScalarRegisterConstant

; 548  : }

	add	esp, 4
	cmp	ebp, esp
	call	__RTC_CheckEsp
	mov	esp, ebp
	pop	ebp
	ret	0
?PropagateConstants_LoadScalarBilinearXY@@YAXAAVSuperBlockConstants@@@Z ENDP ; PropagateConstants_LoadScalarBilinearXY
_TEXT	ENDS
PUBLIC	?PropagateConstants_LoadShortVectorAbsolute@@YAXAAVSuperBlockConstants@@@Z ; PropagateConstants_LoadShortVectorAbsolute
; Function compile flags: /Odtp /RTCsu
_TEXT	SEGMENT
_destIndex$ = -4					; size = 4
_constants$ = 8						; size = 4
?PropagateConstants_LoadShortVectorAbsolute@@YAXAAVSuperBlockConstants@@@Z PROC ; PropagateConstants_LoadShortVectorAbsolute

; 550  : {

	push	ebp
	mov	ebp, esp
	push	ecx
	mov	DWORD PTR [ebp-4], -858993460		; ccccccccH

; 551  :   uint32 destIndex = constants.nuance->fields[FIELD_MEM_TO]; 

	mov	eax, DWORD PTR _constants$[ebp]
	mov	ecx, DWORD PTR [eax+4]
	mov	edx, DWORD PTR [ecx+8]
	mov	DWORD PTR _destIndex$[ebp], edx

; 552  : 
; 553  :   constants.status.status = PROPAGATE_CONSTANTS_STATUS_MEM_OK;

	mov	eax, DWORD PTR _constants$[ebp]
	mov	DWORD PTR [eax+12], 4

; 554  :   constants.ClearVectorRegisterConstant(destIndex);

	mov	ecx, DWORD PTR _destIndex$[ebp]
	push	ecx
	mov	ecx, DWORD PTR _constants$[ebp]
	call	?ClearVectorRegisterConstant@SuperBlockConstants@@QAEXI@Z ; SuperBlockConstants::ClearVectorRegisterConstant

; 555  : }

	add	esp, 4
	cmp	ebp, esp
	call	__RTC_CheckEsp
	mov	esp, ebp
	pop	ebp
	ret	0
?PropagateConstants_LoadShortVectorAbsolute@@YAXAAVSuperBlockConstants@@@Z ENDP ; PropagateConstants_LoadShortVectorAbsolute
_TEXT	ENDS
PUBLIC	?PropagateConstants_LoadShortVectorLinear@@YAXAAVSuperBlockConstants@@@Z ; PropagateConstants_LoadShortVectorLinear
; Function compile flags: /Odtp /RTCsu
_TEXT	SEGMENT
_address$ = -12						; size = 4
_destIndex$ = -8					; size = 4
_srcIndex$ = -4						; size = 4
_constants$ = 8						; size = 4
?PropagateConstants_LoadShortVectorLinear@@YAXAAVSuperBlockConstants@@@Z PROC ; PropagateConstants_LoadShortVectorLinear

; 557  : {

	push	ebp
	mov	ebp, esp
	sub	esp, 12					; 0000000cH
	mov	DWORD PTR [ebp-12], -858993460		; ccccccccH
	mov	DWORD PTR [ebp-8], -858993460		; ccccccccH
	mov	DWORD PTR [ebp-4], -858993460		; ccccccccH

; 558  :   uint32 srcIndex = constants.nuance->fields[FIELD_MEM_FROM];

	mov	eax, DWORD PTR _constants$[ebp]
	mov	ecx, DWORD PTR [eax+4]
	mov	edx, DWORD PTR [ecx+12]
	mov	DWORD PTR _srcIndex$[ebp], edx

; 559  :   uint32 destIndex = constants.nuance->fields[FIELD_MEM_TO]; 

	mov	eax, DWORD PTR _constants$[ebp]
	mov	ecx, DWORD PTR [eax+4]
	mov	edx, DWORD PTR [ecx+8]
	mov	DWORD PTR _destIndex$[ebp], edx

; 560  :   uint32 address;
; 561  : 
; 562  :   if(constants.IsScalarRegisterConstant(srcIndex) && ALLOW_MEM_PROPAGATION)

	mov	eax, DWORD PTR _srcIndex$[ebp]
	push	eax
	mov	ecx, DWORD PTR _constants$[ebp]
	call	?IsScalarRegisterConstant@SuperBlockConstants@@QAE_NI@Z ; SuperBlockConstants::IsScalarRegisterConstant
	movzx	ecx, al
	test	ecx, ecx
	je	SHORT $LN2@PropagateC@9
	mov	edx, 1
	test	edx, edx
	je	SHORT $LN2@PropagateC@9

; 563  :   {
; 564  :     address = constants.GetScalarRegisterConstant(srcIndex) & 0xFFFFFFF8UL;

	mov	eax, DWORD PTR _srcIndex$[ebp]
	push	eax
	mov	ecx, DWORD PTR _constants$[ebp]
	call	?GetScalarRegisterConstant@SuperBlockConstants@@QAEII@Z ; SuperBlockConstants::GetScalarRegisterConstant
	and	eax, -8					; fffffff8H
	mov	DWORD PTR _address$[ebp], eax

; 565  : 
; 566  :     constants.nuance->fields[FIELD_MEM_HANDLER] = Handler_LoadShortVectorAbsolute;

	mov	ecx, DWORD PTR _constants$[ebp]
	mov	edx, DWORD PTR [ecx+4]
	mov	DWORD PTR [edx], 168			; 000000a8H

; 567  :     constants.nuance->fields[FIELD_MEM_FROM] = address;

	mov	eax, DWORD PTR _constants$[ebp]
	mov	ecx, DWORD PTR [eax+4]
	mov	edx, DWORD PTR _address$[ebp]
	mov	DWORD PTR [ecx+12], edx

; 568  :     constants.nuance->fields[FIELD_MEM_POINTER] = (uint32)(nuonEnv->GetPointerToMemory(constants.mpe,address));

	push	1
	mov	eax, DWORD PTR _address$[ebp]
	push	eax
	mov	ecx, DWORD PTR _constants$[ebp]
	mov	edx, DWORD PTR [ecx]
	push	edx
	mov	ecx, DWORD PTR ?nuonEnv@@3PAVNuonEnvironment@@A ; nuonEnv
	call	?GetPointerToMemory@NuonEnvironment@@QAEPAXPAVMPE@@I_N@Z ; NuonEnvironment::GetPointerToMemory
	mov	ecx, DWORD PTR _constants$[ebp]
	mov	edx, DWORD PTR [ecx+4]
	mov	DWORD PTR [edx+16], eax

; 569  :     constants.ClearScalarInputDependency(srcIndex);

	mov	eax, DWORD PTR _srcIndex$[ebp]
	push	eax
	mov	ecx, DWORD PTR _constants$[ebp]
	call	?ClearScalarInputDependency@SuperBlockConstants@@QAEXI@Z ; SuperBlockConstants::ClearScalarInputDependency

; 570  :     constants.bConstantPropagated = true;

	mov	ecx, DWORD PTR _constants$[ebp]
	mov	BYTE PTR [ecx+36], 1

; 571  :     PropagateConstants_LoadShortVectorAbsolute(constants);    

	mov	edx, DWORD PTR _constants$[ebp]
	push	edx
	call	?PropagateConstants_LoadShortVectorAbsolute@@YAXAAVSuperBlockConstants@@@Z ; PropagateConstants_LoadShortVectorAbsolute
	add	esp, 4

; 572  :   }
; 573  :   else

	jmp	SHORT $LN3@PropagateC@9
$LN2@PropagateC@9:

; 574  :   {
; 575  :     constants.status.status = PROPAGATE_CONSTANTS_STATUS_MEM_OK;

	mov	eax, DWORD PTR _constants$[ebp]
	mov	DWORD PTR [eax+12], 4

; 576  :     constants.ClearVectorRegisterConstant(destIndex);

	mov	ecx, DWORD PTR _destIndex$[ebp]
	push	ecx
	mov	ecx, DWORD PTR _constants$[ebp]
	call	?ClearVectorRegisterConstant@SuperBlockConstants@@QAEXI@Z ; SuperBlockConstants::ClearVectorRegisterConstant
$LN3@PropagateC@9:

; 577  :   }
; 578  : }

	add	esp, 12					; 0000000cH
	cmp	ebp, esp
	call	__RTC_CheckEsp
	mov	esp, ebp
	pop	ebp
	ret	0
?PropagateConstants_LoadShortVectorLinear@@YAXAAVSuperBlockConstants@@@Z ENDP ; PropagateConstants_LoadShortVectorLinear
_TEXT	ENDS
PUBLIC	?PropagateConstants_LoadShortVectorBilinearUV@@YAXAAVSuperBlockConstants@@@Z ; PropagateConstants_LoadShortVectorBilinearUV
; Function compile flags: /Odtp /RTCsu
_TEXT	SEGMENT
_destIndex$ = -4					; size = 4
_constants$ = 8						; size = 4
?PropagateConstants_LoadShortVectorBilinearUV@@YAXAAVSuperBlockConstants@@@Z PROC ; PropagateConstants_LoadShortVectorBilinearUV

; 580  : {

	push	ebp
	mov	ebp, esp
	push	ecx
	mov	DWORD PTR [ebp-4], -858993460		; ccccccccH

; 581  :   uint32 destIndex = constants.nuance->fields[FIELD_MEM_TO]; 

	mov	eax, DWORD PTR _constants$[ebp]
	mov	ecx, DWORD PTR [eax+4]
	mov	edx, DWORD PTR [ecx+8]
	mov	DWORD PTR _destIndex$[ebp], edx

; 582  : 
; 583  :   constants.status.status = PROPAGATE_CONSTANTS_STATUS_MEM_OK;

	mov	eax, DWORD PTR _constants$[ebp]
	mov	DWORD PTR [eax+12], 4

; 584  :   constants.ClearVectorRegisterConstant(destIndex);

	mov	ecx, DWORD PTR _destIndex$[ebp]
	push	ecx
	mov	ecx, DWORD PTR _constants$[ebp]
	call	?ClearVectorRegisterConstant@SuperBlockConstants@@QAEXI@Z ; SuperBlockConstants::ClearVectorRegisterConstant

; 585  : }

	add	esp, 4
	cmp	ebp, esp
	call	__RTC_CheckEsp
	mov	esp, ebp
	pop	ebp
	ret	0
?PropagateConstants_LoadShortVectorBilinearUV@@YAXAAVSuperBlockConstants@@@Z ENDP ; PropagateConstants_LoadShortVectorBilinearUV
_TEXT	ENDS
PUBLIC	?PropagateConstants_LoadShortVectorBilinearXY@@YAXAAVSuperBlockConstants@@@Z ; PropagateConstants_LoadShortVectorBilinearXY
; Function compile flags: /Odtp /RTCsu
_TEXT	SEGMENT
_destIndex$ = -4					; size = 4
_constants$ = 8						; size = 4
?PropagateConstants_LoadShortVectorBilinearXY@@YAXAAVSuperBlockConstants@@@Z PROC ; PropagateConstants_LoadShortVectorBilinearXY

; 587  : {

	push	ebp
	mov	ebp, esp
	push	ecx
	mov	DWORD PTR [ebp-4], -858993460		; ccccccccH

; 588  :   uint32 destIndex = constants.nuance->fields[FIELD_MEM_TO]; 

	mov	eax, DWORD PTR _constants$[ebp]
	mov	ecx, DWORD PTR [eax+4]
	mov	edx, DWORD PTR [ecx+8]
	mov	DWORD PTR _destIndex$[ebp], edx

; 589  : 
; 590  :   constants.status.status = PROPAGATE_CONSTANTS_STATUS_MEM_OK;

	mov	eax, DWORD PTR _constants$[ebp]
	mov	DWORD PTR [eax+12], 4

; 591  :   constants.ClearVectorRegisterConstant(destIndex);

	mov	ecx, DWORD PTR _destIndex$[ebp]
	push	ecx
	mov	ecx, DWORD PTR _constants$[ebp]
	call	?ClearVectorRegisterConstant@SuperBlockConstants@@QAEXI@Z ; SuperBlockConstants::ClearVectorRegisterConstant

; 592  : }

	add	esp, 4
	cmp	ebp, esp
	call	__RTC_CheckEsp
	mov	esp, ebp
	pop	ebp
	ret	0
?PropagateConstants_LoadShortVectorBilinearXY@@YAXAAVSuperBlockConstants@@@Z ENDP ; PropagateConstants_LoadShortVectorBilinearXY
_TEXT	ENDS
PUBLIC	?PropagateConstants_LoadVectorLinear@@YAXAAVSuperBlockConstants@@@Z ; PropagateConstants_LoadVectorLinear
; Function compile flags: /Odtp /RTCsu
_TEXT	SEGMENT
_address$ = -12						; size = 4
_destIndex$ = -8					; size = 4
_srcIndex$ = -4						; size = 4
_constants$ = 8						; size = 4
?PropagateConstants_LoadVectorLinear@@YAXAAVSuperBlockConstants@@@Z PROC ; PropagateConstants_LoadVectorLinear

; 594  : {

	push	ebp
	mov	ebp, esp
	sub	esp, 12					; 0000000cH
	mov	DWORD PTR [ebp-12], -858993460		; ccccccccH
	mov	DWORD PTR [ebp-8], -858993460		; ccccccccH
	mov	DWORD PTR [ebp-4], -858993460		; ccccccccH

; 595  :   uint32 srcIndex = constants.nuance->fields[FIELD_MEM_FROM];

	mov	eax, DWORD PTR _constants$[ebp]
	mov	ecx, DWORD PTR [eax+4]
	mov	edx, DWORD PTR [ecx+12]
	mov	DWORD PTR _srcIndex$[ebp], edx

; 596  :   uint32 destIndex = constants.nuance->fields[FIELD_MEM_TO]; 

	mov	eax, DWORD PTR _constants$[ebp]
	mov	ecx, DWORD PTR [eax+4]
	mov	edx, DWORD PTR [ecx+8]
	mov	DWORD PTR _destIndex$[ebp], edx

; 597  :   uint32 address;
; 598  : 
; 599  :   if(constants.IsScalarRegisterConstant(srcIndex) && ALLOW_MEM_PROPAGATION)

	mov	eax, DWORD PTR _srcIndex$[ebp]
	push	eax
	mov	ecx, DWORD PTR _constants$[ebp]
	call	?IsScalarRegisterConstant@SuperBlockConstants@@QAE_NI@Z ; SuperBlockConstants::IsScalarRegisterConstant
	movzx	ecx, al
	test	ecx, ecx
	je	$LN5@PropagateC@10
	mov	edx, 1
	test	edx, edx
	je	$LN5@PropagateC@10

; 600  :   {
; 601  :     address = constants.GetScalarRegisterConstant(srcIndex);

	mov	eax, DWORD PTR _srcIndex$[ebp]
	push	eax
	mov	ecx, DWORD PTR _constants$[ebp]
	call	?GetScalarRegisterConstant@SuperBlockConstants@@QAEII@Z ; SuperBlockConstants::GetScalarRegisterConstant
	mov	DWORD PTR _address$[ebp], eax

; 602  :     constants.bConstantPropagated = true;

	mov	ecx, DWORD PTR _constants$[ebp]
	mov	BYTE PTR [ecx+36], 1

; 603  : 
; 604  :     if((address < MPE_CTRL_BASE) || (address >= MPE_RESV_BASE))

	cmp	DWORD PTR _address$[ebp], 542113792	; 20500000H
	jb	SHORT $LN3@PropagateC@10
	cmp	DWORD PTR _address$[ebp], 543162368	; 20600000H
	jb	SHORT $LN4@PropagateC@10
$LN3@PropagateC@10:

; 605  :     {
; 606  :       constants.nuance->fields[FIELD_MEM_HANDLER] = Handler_LoadVectorAbsolute;

	mov	edx, DWORD PTR _constants$[ebp]
	mov	eax, DWORD PTR [edx+4]
	mov	DWORD PTR [eax], 169			; 000000a9H

; 607  :       constants.nuance->fields[FIELD_MEM_FROM] = address;

	mov	ecx, DWORD PTR _constants$[ebp]
	mov	edx, DWORD PTR [ecx+4]
	mov	eax, DWORD PTR _address$[ebp]
	mov	DWORD PTR [edx+12], eax

; 608  :       constants.nuance->fields[FIELD_MEM_POINTER] = (uint32)(nuonEnv->GetPointerToMemory(constants.mpe,address & 0xFFFFFFF0));

	push	1
	mov	ecx, DWORD PTR _address$[ebp]
	and	ecx, -16				; fffffff0H
	push	ecx
	mov	edx, DWORD PTR _constants$[ebp]
	mov	eax, DWORD PTR [edx]
	push	eax
	mov	ecx, DWORD PTR ?nuonEnv@@3PAVNuonEnvironment@@A ; nuonEnv
	call	?GetPointerToMemory@NuonEnvironment@@QAEPAXPAVMPE@@I_N@Z ; NuonEnvironment::GetPointerToMemory
	mov	ecx, DWORD PTR _constants$[ebp]
	mov	edx, DWORD PTR [ecx+4]
	mov	DWORD PTR [edx+16], eax

; 609  :       constants.ClearScalarInputDependency(srcIndex);

	mov	eax, DWORD PTR _srcIndex$[ebp]
	push	eax
	mov	ecx, DWORD PTR _constants$[ebp]
	call	?ClearScalarInputDependency@SuperBlockConstants@@QAEXI@Z ; SuperBlockConstants::ClearScalarInputDependency

; 610  :       PropagateConstants_LoadVectorAbsolute(constants);    

	mov	ecx, DWORD PTR _constants$[ebp]
	push	ecx
	call	?PropagateConstants_LoadVectorAbsolute@@YAXAAVSuperBlockConstants@@@Z ; PropagateConstants_LoadVectorAbsolute
	add	esp, 4

; 611  :     }
; 612  :     else

	jmp	SHORT $LN2@PropagateC@10
$LN4@PropagateC@10:

; 613  :     {
; 614  :       constants.nuance->fields[FIELD_MEM_HANDLER] = Handler_LoadVectorControlRegisterAbsolute;

	mov	edx, DWORD PTR _constants$[ebp]
	mov	eax, DWORD PTR [edx+4]
	mov	DWORD PTR [eax], 170			; 000000aaH

; 615  :       constants.nuance->fields[FIELD_MEM_FROM] = address;

	mov	ecx, DWORD PTR _constants$[ebp]
	mov	edx, DWORD PTR [ecx+4]
	mov	eax, DWORD PTR _address$[ebp]
	mov	DWORD PTR [edx+12], eax

; 616  :       constants.ClearScalarInputDependency(srcIndex);

	mov	ecx, DWORD PTR _srcIndex$[ebp]
	push	ecx
	mov	ecx, DWORD PTR _constants$[ebp]
	call	?ClearScalarInputDependency@SuperBlockConstants@@QAEXI@Z ; SuperBlockConstants::ClearScalarInputDependency

; 617  :       PropagateConstants_LoadVectorControlRegisterAbsolute(constants);    

	mov	edx, DWORD PTR _constants$[ebp]
	push	edx
	call	?PropagateConstants_LoadVectorControlRegisterAbsolute@@YAXAAVSuperBlockConstants@@@Z ; PropagateConstants_LoadVectorControlRegisterAbsolute
	add	esp, 4
$LN2@PropagateC@10:

; 618  :     }
; 619  :   }
; 620  :   else

	jmp	SHORT $LN6@PropagateC@10
$LN5@PropagateC@10:

; 621  :   {
; 622  :     constants.status.status = PROPAGATE_CONSTANTS_STATUS_MEM_OK;

	mov	eax, DWORD PTR _constants$[ebp]
	mov	DWORD PTR [eax+12], 4

; 623  :     constants.ClearVectorRegisterConstant(destIndex);

	mov	ecx, DWORD PTR _destIndex$[ebp]
	push	ecx
	mov	ecx, DWORD PTR _constants$[ebp]
	call	?ClearVectorRegisterConstant@SuperBlockConstants@@QAEXI@Z ; SuperBlockConstants::ClearVectorRegisterConstant
$LN6@PropagateC@10:

; 624  :   }
; 625  : }

	add	esp, 12					; 0000000cH
	cmp	ebp, esp
	call	__RTC_CheckEsp
	mov	esp, ebp
	pop	ebp
	ret	0
?PropagateConstants_LoadVectorLinear@@YAXAAVSuperBlockConstants@@@Z ENDP ; PropagateConstants_LoadVectorLinear
_TEXT	ENDS
PUBLIC	?PropagateConstants_LoadVectorBilinearUV@@YAXAAVSuperBlockConstants@@@Z ; PropagateConstants_LoadVectorBilinearUV
; Function compile flags: /Odtp /RTCsu
_TEXT	SEGMENT
_destIndex$ = -4					; size = 4
_constants$ = 8						; size = 4
?PropagateConstants_LoadVectorBilinearUV@@YAXAAVSuperBlockConstants@@@Z PROC ; PropagateConstants_LoadVectorBilinearUV

; 627  : {

	push	ebp
	mov	ebp, esp
	push	ecx
	mov	DWORD PTR [ebp-4], -858993460		; ccccccccH

; 628  :   uint32 destIndex = constants.nuance->fields[FIELD_MEM_TO]; 

	mov	eax, DWORD PTR _constants$[ebp]
	mov	ecx, DWORD PTR [eax+4]
	mov	edx, DWORD PTR [ecx+8]
	mov	DWORD PTR _destIndex$[ebp], edx

; 629  : 
; 630  :   constants.status.status = PROPAGATE_CONSTANTS_STATUS_MEM_OK;

	mov	eax, DWORD PTR _constants$[ebp]
	mov	DWORD PTR [eax+12], 4

; 631  :   constants.ClearVectorRegisterConstant(destIndex);

	mov	ecx, DWORD PTR _destIndex$[ebp]
	push	ecx
	mov	ecx, DWORD PTR _constants$[ebp]
	call	?ClearVectorRegisterConstant@SuperBlockConstants@@QAEXI@Z ; SuperBlockConstants::ClearVectorRegisterConstant

; 632  : }

	add	esp, 4
	cmp	ebp, esp
	call	__RTC_CheckEsp
	mov	esp, ebp
	pop	ebp
	ret	0
?PropagateConstants_LoadVectorBilinearUV@@YAXAAVSuperBlockConstants@@@Z ENDP ; PropagateConstants_LoadVectorBilinearUV
_TEXT	ENDS
PUBLIC	?PropagateConstants_LoadVectorBilinearXY@@YAXAAVSuperBlockConstants@@@Z ; PropagateConstants_LoadVectorBilinearXY
; Function compile flags: /Odtp /RTCsu
_TEXT	SEGMENT
_destIndex$ = -4					; size = 4
_constants$ = 8						; size = 4
?PropagateConstants_LoadVectorBilinearXY@@YAXAAVSuperBlockConstants@@@Z PROC ; PropagateConstants_LoadVectorBilinearXY

; 634  : {

	push	ebp
	mov	ebp, esp
	push	ecx
	mov	DWORD PTR [ebp-4], -858993460		; ccccccccH

; 635  :   uint32 destIndex = constants.nuance->fields[FIELD_MEM_TO]; 

	mov	eax, DWORD PTR _constants$[ebp]
	mov	ecx, DWORD PTR [eax+4]
	mov	edx, DWORD PTR [ecx+8]
	mov	DWORD PTR _destIndex$[ebp], edx

; 636  : 
; 637  :   constants.status.status = PROPAGATE_CONSTANTS_STATUS_MEM_OK;

	mov	eax, DWORD PTR _constants$[ebp]
	mov	DWORD PTR [eax+12], 4

; 638  :   constants.ClearVectorRegisterConstant(destIndex);

	mov	ecx, DWORD PTR _destIndex$[ebp]
	push	ecx
	mov	ecx, DWORD PTR _constants$[ebp]
	call	?ClearVectorRegisterConstant@SuperBlockConstants@@QAEXI@Z ; SuperBlockConstants::ClearVectorRegisterConstant

; 639  : }

	add	esp, 4
	cmp	ebp, esp
	call	__RTC_CheckEsp
	mov	esp, ebp
	pop	ebp
	ret	0
?PropagateConstants_LoadVectorBilinearXY@@YAXAAVSuperBlockConstants@@@Z ENDP ; PropagateConstants_LoadVectorBilinearXY
_TEXT	ENDS
PUBLIC	?PropagateConstants_LoadPixelLinear@@YAXAAVSuperBlockConstants@@@Z ; PropagateConstants_LoadPixelLinear
; Function compile flags: /Odtp /RTCsu
_TEXT	SEGMENT
_address$ = -12						; size = 4
_destIndex$ = -8					; size = 4
_srcIndex$ = -4						; size = 4
_constants$ = 8						; size = 4
?PropagateConstants_LoadPixelLinear@@YAXAAVSuperBlockConstants@@@Z PROC ; PropagateConstants_LoadPixelLinear

; 641  : {

	push	ebp
	mov	ebp, esp
	sub	esp, 12					; 0000000cH
	mov	DWORD PTR [ebp-12], -858993460		; ccccccccH
	mov	DWORD PTR [ebp-8], -858993460		; ccccccccH
	mov	DWORD PTR [ebp-4], -858993460		; ccccccccH

; 642  :   uint32 srcIndex = constants.nuance->fields[FIELD_MEM_FROM];

	mov	eax, DWORD PTR _constants$[ebp]
	mov	ecx, DWORD PTR [eax+4]
	mov	edx, DWORD PTR [ecx+12]
	mov	DWORD PTR _srcIndex$[ebp], edx

; 643  :   uint32 destIndex = constants.nuance->fields[FIELD_MEM_TO]; 

	mov	eax, DWORD PTR _constants$[ebp]
	mov	ecx, DWORD PTR [eax+4]
	mov	edx, DWORD PTR [ecx+8]
	mov	DWORD PTR _destIndex$[ebp], edx

; 644  :   uint32 address;
; 645  : 
; 646  :   if(constants.IsScalarRegisterConstant(srcIndex) && ALLOW_MEM_PROPAGATION)

	mov	eax, DWORD PTR _srcIndex$[ebp]
	push	eax
	mov	ecx, DWORD PTR _constants$[ebp]
	call	?IsScalarRegisterConstant@SuperBlockConstants@@QAE_NI@Z ; SuperBlockConstants::IsScalarRegisterConstant
	movzx	ecx, al
	test	ecx, ecx
	je	SHORT $LN2@PropagateC@11
	mov	edx, 1
	test	edx, edx
	je	SHORT $LN2@PropagateC@11

; 647  :   {
; 648  :     address = constants.GetScalarRegisterConstant(srcIndex);

	mov	eax, DWORD PTR _srcIndex$[ebp]
	push	eax
	mov	ecx, DWORD PTR _constants$[ebp]
	call	?GetScalarRegisterConstant@SuperBlockConstants@@QAEII@Z ; SuperBlockConstants::GetScalarRegisterConstant
	mov	DWORD PTR _address$[ebp], eax

; 649  :     constants.nuance->fields[FIELD_MEM_HANDLER] = Handler_LoadPixelAbsolute;

	mov	ecx, DWORD PTR _constants$[ebp]
	mov	edx, DWORD PTR [ecx+4]
	mov	DWORD PTR [edx], 171			; 000000abH

; 650  :     constants.nuance->fields[FIELD_MEM_INFO] = MEM_INFO_LINEAR_INDIRECT;

	mov	eax, DWORD PTR _constants$[ebp]
	mov	ecx, DWORD PTR [eax+4]
	mov	DWORD PTR [ecx+4], 2

; 651  :     constants.nuance->fields[FIELD_MEM_FROM] = address;

	mov	edx, DWORD PTR _constants$[ebp]
	mov	eax, DWORD PTR [edx+4]
	mov	ecx, DWORD PTR _address$[ebp]
	mov	DWORD PTR [eax+12], ecx

; 652  :     constants.nuance->fields[FIELD_MEM_POINTER] = (uint32)(nuonEnv->GetPointerToMemory(constants.mpe,address));

	push	1
	mov	edx, DWORD PTR _address$[ebp]
	push	edx
	mov	eax, DWORD PTR _constants$[ebp]
	mov	ecx, DWORD PTR [eax]
	push	ecx
	mov	ecx, DWORD PTR ?nuonEnv@@3PAVNuonEnvironment@@A ; nuonEnv
	call	?GetPointerToMemory@NuonEnvironment@@QAEPAXPAVMPE@@I_N@Z ; NuonEnvironment::GetPointerToMemory
	mov	edx, DWORD PTR _constants$[ebp]
	mov	ecx, DWORD PTR [edx+4]
	mov	DWORD PTR [ecx+16], eax

; 653  :     constants.ClearScalarInputDependency(srcIndex);

	mov	edx, DWORD PTR _srcIndex$[ebp]
	push	edx
	mov	ecx, DWORD PTR _constants$[ebp]
	call	?ClearScalarInputDependency@SuperBlockConstants@@QAEXI@Z ; SuperBlockConstants::ClearScalarInputDependency

; 654  :     constants.bConstantPropagated = true;

	mov	eax, DWORD PTR _constants$[ebp]
	mov	BYTE PTR [eax+36], 1

; 655  :     PropagateConstants_LoadPixelAbsolute(constants);    

	mov	ecx, DWORD PTR _constants$[ebp]
	push	ecx
	call	?PropagateConstants_LoadPixelAbsolute@@YAXAAVSuperBlockConstants@@@Z ; PropagateConstants_LoadPixelAbsolute
	add	esp, 4

; 656  :   }
; 657  :   else

	jmp	SHORT $LN3@PropagateC@11
$LN2@PropagateC@11:

; 658  :   {
; 659  :     constants.status.status = PROPAGATE_CONSTANTS_STATUS_MEM_OK;

	mov	edx, DWORD PTR _constants$[ebp]
	mov	DWORD PTR [edx+12], 4

; 660  :     constants.ClearPixelRegisterConstant(destIndex);

	mov	eax, DWORD PTR _destIndex$[ebp]
	push	eax
	mov	ecx, DWORD PTR _constants$[ebp]
	call	?ClearPixelRegisterConstant@SuperBlockConstants@@QAEXI@Z ; SuperBlockConstants::ClearPixelRegisterConstant
$LN3@PropagateC@11:

; 661  :   }
; 662  : }

	add	esp, 12					; 0000000cH
	cmp	ebp, esp
	call	__RTC_CheckEsp
	mov	esp, ebp
	pop	ebp
	ret	0
?PropagateConstants_LoadPixelLinear@@YAXAAVSuperBlockConstants@@@Z ENDP ; PropagateConstants_LoadPixelLinear
_TEXT	ENDS
PUBLIC	?PropagateConstants_LoadPixelBilinearUV@@YAXAAVSuperBlockConstants@@@Z ; PropagateConstants_LoadPixelBilinearUV
; Function compile flags: /Odtp /RTCsu
_TEXT	SEGMENT
_destIndex$ = -4					; size = 4
_constants$ = 8						; size = 4
?PropagateConstants_LoadPixelBilinearUV@@YAXAAVSuperBlockConstants@@@Z PROC ; PropagateConstants_LoadPixelBilinearUV

; 664  : {

	push	ebp
	mov	ebp, esp
	push	ecx
	mov	DWORD PTR [ebp-4], -858993460		; ccccccccH

; 665  :   uint32 destIndex = constants.nuance->fields[FIELD_MEM_TO]; 

	mov	eax, DWORD PTR _constants$[ebp]
	mov	ecx, DWORD PTR [eax+4]
	mov	edx, DWORD PTR [ecx+8]
	mov	DWORD PTR _destIndex$[ebp], edx

; 666  :   constants.status.status = PROPAGATE_CONSTANTS_STATUS_MEM_OK;

	mov	eax, DWORD PTR _constants$[ebp]
	mov	DWORD PTR [eax+12], 4

; 667  :   constants.ClearVectorRegisterConstant(destIndex);

	mov	ecx, DWORD PTR _destIndex$[ebp]
	push	ecx
	mov	ecx, DWORD PTR _constants$[ebp]
	call	?ClearVectorRegisterConstant@SuperBlockConstants@@QAEXI@Z ; SuperBlockConstants::ClearVectorRegisterConstant

; 668  : }

	add	esp, 4
	cmp	ebp, esp
	call	__RTC_CheckEsp
	mov	esp, ebp
	pop	ebp
	ret	0
?PropagateConstants_LoadPixelBilinearUV@@YAXAAVSuperBlockConstants@@@Z ENDP ; PropagateConstants_LoadPixelBilinearUV
_TEXT	ENDS
PUBLIC	?PropagateConstants_LoadPixelBilinearXY@@YAXAAVSuperBlockConstants@@@Z ; PropagateConstants_LoadPixelBilinearXY
; Function compile flags: /Odtp /RTCsu
_TEXT	SEGMENT
_destIndex$ = -4					; size = 4
_constants$ = 8						; size = 4
?PropagateConstants_LoadPixelBilinearXY@@YAXAAVSuperBlockConstants@@@Z PROC ; PropagateConstants_LoadPixelBilinearXY

; 670  : {

	push	ebp
	mov	ebp, esp
	push	ecx
	mov	DWORD PTR [ebp-4], -858993460		; ccccccccH

; 671  :   uint32 destIndex = constants.nuance->fields[FIELD_MEM_TO]; 

	mov	eax, DWORD PTR _constants$[ebp]
	mov	ecx, DWORD PTR [eax+4]
	mov	edx, DWORD PTR [ecx+8]
	mov	DWORD PTR _destIndex$[ebp], edx

; 672  :   constants.status.status = PROPAGATE_CONSTANTS_STATUS_MEM_OK;

	mov	eax, DWORD PTR _constants$[ebp]
	mov	DWORD PTR [eax+12], 4

; 673  :   constants.ClearVectorRegisterConstant(destIndex);

	mov	ecx, DWORD PTR _destIndex$[ebp]
	push	ecx
	mov	ecx, DWORD PTR _constants$[ebp]
	call	?ClearVectorRegisterConstant@SuperBlockConstants@@QAEXI@Z ; SuperBlockConstants::ClearVectorRegisterConstant

; 674  : }

	add	esp, 4
	cmp	ebp, esp
	call	__RTC_CheckEsp
	mov	esp, ebp
	pop	ebp
	ret	0
?PropagateConstants_LoadPixelBilinearXY@@YAXAAVSuperBlockConstants@@@Z ENDP ; PropagateConstants_LoadPixelBilinearXY
_TEXT	ENDS
PUBLIC	?PropagateConstants_LoadPixelZLinear@@YAXAAVSuperBlockConstants@@@Z ; PropagateConstants_LoadPixelZLinear
; Function compile flags: /Odtp /RTCsu
_TEXT	SEGMENT
_address$ = -12						; size = 4
_destIndex$ = -8					; size = 4
_srcIndex$ = -4						; size = 4
_constants$ = 8						; size = 4
?PropagateConstants_LoadPixelZLinear@@YAXAAVSuperBlockConstants@@@Z PROC ; PropagateConstants_LoadPixelZLinear

; 676  : {

	push	ebp
	mov	ebp, esp
	sub	esp, 12					; 0000000cH
	mov	DWORD PTR [ebp-12], -858993460		; ccccccccH
	mov	DWORD PTR [ebp-8], -858993460		; ccccccccH
	mov	DWORD PTR [ebp-4], -858993460		; ccccccccH

; 677  :   uint32 srcIndex = constants.nuance->fields[FIELD_MEM_FROM];

	mov	eax, DWORD PTR _constants$[ebp]
	mov	ecx, DWORD PTR [eax+4]
	mov	edx, DWORD PTR [ecx+12]
	mov	DWORD PTR _srcIndex$[ebp], edx

; 678  :   uint32 destIndex = constants.nuance->fields[FIELD_MEM_TO];

	mov	eax, DWORD PTR _constants$[ebp]
	mov	ecx, DWORD PTR [eax+4]
	mov	edx, DWORD PTR [ecx+8]
	mov	DWORD PTR _destIndex$[ebp], edx

; 679  :   uint32 address;
; 680  : 
; 681  :   if(constants.IsScalarRegisterConstant(srcIndex) && ALLOW_MEM_PROPAGATION)

	mov	eax, DWORD PTR _srcIndex$[ebp]
	push	eax
	mov	ecx, DWORD PTR _constants$[ebp]
	call	?IsScalarRegisterConstant@SuperBlockConstants@@QAE_NI@Z ; SuperBlockConstants::IsScalarRegisterConstant
	movzx	ecx, al
	test	ecx, ecx
	je	SHORT $LN2@PropagateC@12
	mov	edx, 1
	test	edx, edx
	je	SHORT $LN2@PropagateC@12

; 682  :   {
; 683  :     address = constants.GetScalarRegisterConstant(srcIndex);

	mov	eax, DWORD PTR _srcIndex$[ebp]
	push	eax
	mov	ecx, DWORD PTR _constants$[ebp]
	call	?GetScalarRegisterConstant@SuperBlockConstants@@QAEII@Z ; SuperBlockConstants::GetScalarRegisterConstant
	mov	DWORD PTR _address$[ebp], eax

; 684  :     constants.nuance->fields[FIELD_MEM_HANDLER] = Handler_LoadPixelZAbsolute;

	mov	ecx, DWORD PTR _constants$[ebp]
	mov	edx, DWORD PTR [ecx+4]
	mov	DWORD PTR [edx], 172			; 000000acH

; 685  :     constants.nuance->fields[FIELD_MEM_INFO] = MEM_INFO_LINEAR_INDIRECT;

	mov	eax, DWORD PTR _constants$[ebp]
	mov	ecx, DWORD PTR [eax+4]
	mov	DWORD PTR [ecx+4], 2

; 686  :     constants.nuance->fields[FIELD_MEM_FROM] = address;

	mov	edx, DWORD PTR _constants$[ebp]
	mov	eax, DWORD PTR [edx+4]
	mov	ecx, DWORD PTR _address$[ebp]
	mov	DWORD PTR [eax+12], ecx

; 687  :     constants.nuance->fields[FIELD_MEM_POINTER] = (uint32)(nuonEnv->GetPointerToMemory(constants.mpe,address));

	push	1
	mov	edx, DWORD PTR _address$[ebp]
	push	edx
	mov	eax, DWORD PTR _constants$[ebp]
	mov	ecx, DWORD PTR [eax]
	push	ecx
	mov	ecx, DWORD PTR ?nuonEnv@@3PAVNuonEnvironment@@A ; nuonEnv
	call	?GetPointerToMemory@NuonEnvironment@@QAEPAXPAVMPE@@I_N@Z ; NuonEnvironment::GetPointerToMemory
	mov	edx, DWORD PTR _constants$[ebp]
	mov	ecx, DWORD PTR [edx+4]
	mov	DWORD PTR [ecx+16], eax

; 688  :     constants.bConstantPropagated = true;

	mov	edx, DWORD PTR _constants$[ebp]
	mov	BYTE PTR [edx+36], 1

; 689  :     PropagateConstants_LoadPixelZAbsolute(constants);

	mov	eax, DWORD PTR _constants$[ebp]
	push	eax
	call	?PropagateConstants_LoadPixelZAbsolute@@YAXAAVSuperBlockConstants@@@Z ; PropagateConstants_LoadPixelZAbsolute
	add	esp, 4

; 690  :   }
; 691  :   else

	jmp	SHORT $LN3@PropagateC@12
$LN2@PropagateC@12:

; 692  :   {
; 693  :     constants.status.status = PROPAGATE_CONSTANTS_STATUS_MEM_OK;

	mov	ecx, DWORD PTR _constants$[ebp]
	mov	DWORD PTR [ecx+12], 4

; 694  :     constants.ClearVectorRegisterConstant(destIndex);

	mov	edx, DWORD PTR _destIndex$[ebp]
	push	edx
	mov	ecx, DWORD PTR _constants$[ebp]
	call	?ClearVectorRegisterConstant@SuperBlockConstants@@QAEXI@Z ; SuperBlockConstants::ClearVectorRegisterConstant
$LN3@PropagateC@12:

; 695  :   }
; 696  : }

	add	esp, 12					; 0000000cH
	cmp	ebp, esp
	call	__RTC_CheckEsp
	mov	esp, ebp
	pop	ebp
	ret	0
?PropagateConstants_LoadPixelZLinear@@YAXAAVSuperBlockConstants@@@Z ENDP ; PropagateConstants_LoadPixelZLinear
_TEXT	ENDS
PUBLIC	?PropagateConstants_LoadPixelZBilinearUV@@YAXAAVSuperBlockConstants@@@Z ; PropagateConstants_LoadPixelZBilinearUV
; Function compile flags: /Odtp /RTCsu
_TEXT	SEGMENT
_destIndex$ = -4					; size = 4
_constants$ = 8						; size = 4
?PropagateConstants_LoadPixelZBilinearUV@@YAXAAVSuperBlockConstants@@@Z PROC ; PropagateConstants_LoadPixelZBilinearUV

; 698  : {

	push	ebp
	mov	ebp, esp
	push	ecx
	mov	DWORD PTR [ebp-4], -858993460		; ccccccccH

; 699  :   uint32 destIndex = constants.nuance->fields[FIELD_MEM_TO]; 

	mov	eax, DWORD PTR _constants$[ebp]
	mov	ecx, DWORD PTR [eax+4]
	mov	edx, DWORD PTR [ecx+8]
	mov	DWORD PTR _destIndex$[ebp], edx

; 700  :   constants.status.status = PROPAGATE_CONSTANTS_STATUS_MEM_OK;

	mov	eax, DWORD PTR _constants$[ebp]
	mov	DWORD PTR [eax+12], 4

; 701  :   constants.ClearVectorRegisterConstant(destIndex);

	mov	ecx, DWORD PTR _destIndex$[ebp]
	push	ecx
	mov	ecx, DWORD PTR _constants$[ebp]
	call	?ClearVectorRegisterConstant@SuperBlockConstants@@QAEXI@Z ; SuperBlockConstants::ClearVectorRegisterConstant

; 702  : }

	add	esp, 4
	cmp	ebp, esp
	call	__RTC_CheckEsp
	mov	esp, ebp
	pop	ebp
	ret	0
?PropagateConstants_LoadPixelZBilinearUV@@YAXAAVSuperBlockConstants@@@Z ENDP ; PropagateConstants_LoadPixelZBilinearUV
_TEXT	ENDS
PUBLIC	?PropagateConstants_LoadPixelZBilinearXY@@YAXAAVSuperBlockConstants@@@Z ; PropagateConstants_LoadPixelZBilinearXY
; Function compile flags: /Odtp /RTCsu
_TEXT	SEGMENT
_destIndex$ = -4					; size = 4
_constants$ = 8						; size = 4
?PropagateConstants_LoadPixelZBilinearXY@@YAXAAVSuperBlockConstants@@@Z PROC ; PropagateConstants_LoadPixelZBilinearXY

; 704  : {

	push	ebp
	mov	ebp, esp
	push	ecx
	mov	DWORD PTR [ebp-4], -858993460		; ccccccccH

; 705  :   uint32 destIndex = constants.nuance->fields[FIELD_MEM_TO]; 

	mov	eax, DWORD PTR _constants$[ebp]
	mov	ecx, DWORD PTR [eax+4]
	mov	edx, DWORD PTR [ecx+8]
	mov	DWORD PTR _destIndex$[ebp], edx

; 706  :   constants.status.status = PROPAGATE_CONSTANTS_STATUS_MEM_OK;

	mov	eax, DWORD PTR _constants$[ebp]
	mov	DWORD PTR [eax+12], 4

; 707  :   constants.ClearVectorRegisterConstant(destIndex);

	mov	ecx, DWORD PTR _destIndex$[ebp]
	push	ecx
	mov	ecx, DWORD PTR _constants$[ebp]
	call	?ClearVectorRegisterConstant@SuperBlockConstants@@QAEXI@Z ; SuperBlockConstants::ClearVectorRegisterConstant

; 708  : }

	add	esp, 4
	cmp	ebp, esp
	call	__RTC_CheckEsp
	mov	esp, ebp
	pop	ebp
	ret	0
?PropagateConstants_LoadPixelZBilinearXY@@YAXAAVSuperBlockConstants@@@Z ENDP ; PropagateConstants_LoadPixelZBilinearXY
_TEXT	ENDS
PUBLIC	?PropagateConstants_StoreScalarImmediate@@YAXAAVSuperBlockConstants@@@Z ; PropagateConstants_StoreScalarImmediate
; Function compile flags: /Odtp /RTCsu
_TEXT	SEGMENT
_constants$ = 8						; size = 4
?PropagateConstants_StoreScalarImmediate@@YAXAAVSuperBlockConstants@@@Z PROC ; PropagateConstants_StoreScalarImmediate

; 711  : {

	push	ebp
	mov	ebp, esp

; 712  :   constants.status.status = PROPAGATE_CONSTANTS_STATUS_MEM_OK;

	mov	eax, DWORD PTR _constants$[ebp]
	mov	DWORD PTR [eax+12], 4

; 713  :   constants.SetInstructionFlags(SUPERBLOCKINFO_LOCKED);

	push	65536					; 00010000H
	mov	ecx, DWORD PTR _constants$[ebp]
	call	?SetInstructionFlags@SuperBlockConstants@@QAEXI@Z ; SuperBlockConstants::SetInstructionFlags

; 714  : }

	cmp	ebp, esp
	call	__RTC_CheckEsp
	pop	ebp
	ret	0
?PropagateConstants_StoreScalarImmediate@@YAXAAVSuperBlockConstants@@@Z ENDP ; PropagateConstants_StoreScalarImmediate
_TEXT	ENDS
PUBLIC	?PropagateConstants_StoreScalarControlRegisterImmediate@@YAXAAVSuperBlockConstants@@@Z ; PropagateConstants_StoreScalarControlRegisterImmediate
; Function compile flags: /Odtp /RTCsu
_TEXT	SEGMENT
tv70 = -24						; size = 4
_flagValues$ = -20					; size = 4
_flagMask$ = -16					; size = 4
_bScalarReg$ = -11					; size = 1
_bLockInstruction$ = -10				; size = 1
_bIsConstant$ = -9					; size = 1
_destIndex$ = -8					; size = 4
_destValue$ = -4					; size = 4
_constants$ = 8						; size = 4
?PropagateConstants_StoreScalarControlRegisterImmediate@@YAXAAVSuperBlockConstants@@@Z PROC ; PropagateConstants_StoreScalarControlRegisterImmediate

; 716  : {

	push	ebp
	mov	ebp, esp
	sub	esp, 24					; 00000018H
	mov	eax, -858993460				; ccccccccH
	mov	DWORD PTR [ebp-24], eax
	mov	DWORD PTR [ebp-20], eax
	mov	DWORD PTR [ebp-16], eax
	mov	DWORD PTR [ebp-12], eax
	mov	DWORD PTR [ebp-8], eax
	mov	DWORD PTR [ebp-4], eax

; 717  :   uint32 destValue = constants.nuance->fields[FIELD_MEM_FROM]; 

	mov	eax, DWORD PTR _constants$[ebp]
	mov	ecx, DWORD PTR [eax+4]
	mov	edx, DWORD PTR [ecx+12]
	mov	DWORD PTR _destValue$[ebp], edx

; 718  :   uint32 destIndex = (constants.nuance->fields[FIELD_MEM_TO] - MPE_CTRL_BASE) >> 4; 

	mov	eax, DWORD PTR _constants$[ebp]
	mov	ecx, DWORD PTR [eax+4]
	mov	edx, DWORD PTR [ecx+8]
	sub	edx, 542113792				; 20500000H
	shr	edx, 4
	mov	DWORD PTR _destIndex$[ebp], edx

; 719  :   bool bIsConstant = true;

	mov	BYTE PTR _bIsConstant$[ebp], 1

; 720  :   bool bLockInstruction = false;

	mov	BYTE PTR _bLockInstruction$[ebp], 0

; 721  :   bool bScalarReg = false;

	mov	BYTE PTR _bScalarReg$[ebp], 0

; 722  :   uint32 flagMask = 0;

	mov	DWORD PTR _flagMask$[ebp], 0

; 723  :   uint32 flagValues = 0;

	mov	DWORD PTR _flagValues$[ebp], 0

; 724  :   
; 725  :   switch(destIndex)

	mov	eax, DWORD PTR _destIndex$[ebp]
	mov	DWORD PTR tv70[ebp], eax
	mov	ecx, DWORD PTR tv70[ebp]
	sub	ecx, 4
	mov	DWORD PTR tv70[ebp], ecx
	cmp	DWORD PTR tv70[ebp], 75			; 0000004bH
	ja	$LN9@PropagateC@13
	mov	edx, DWORD PTR tv70[ebp]
	movzx	eax, BYTE PTR $LN27@PropagateC@13[edx]
	jmp	DWORD PTR $LN28@PropagateC@13[eax*4]
$LN22@PropagateC@13:

; 726  :   {
; 727  :     case 0x4:
; 728  :       //CC
; 729  :       destIndex = CONSTANT_REG_DISCARD;

	mov	DWORD PTR _destIndex$[ebp], 32		; 00000020H

; 730  :       flagMask = CC_ALLFLAGS;

	mov	DWORD PTR _flagMask$[ebp], 2047		; 000007ffH

; 731  :       //Force CP0 and CP1 to zero
; 732  :       flagValues = destValue & 0x1FFUL;

	mov	ecx, DWORD PTR _destValue$[ebp]
	and	ecx, 511				; 000001ffH
	mov	DWORD PTR _flagValues$[ebp], ecx

; 733  :       bLockInstruction = true;

	mov	BYTE PTR _bLockInstruction$[ebp], 1

; 734  :       break;

	jmp	$LN23@PropagateC@13
$LN21@PropagateC@13:

; 735  :     case 0x8:
; 736  :       //RZ
; 737  :       destIndex = CONSTANT_REG_RZ;

	mov	DWORD PTR _destIndex$[ebp], 6

; 738  :       break;

	jmp	$LN23@PropagateC@13
$LN20@PropagateC@13:

; 739  :     case 0x1E:
; 740  :       //RC0
; 741  :       destIndex = CONSTANT_REG_RC0;

	mov	DWORD PTR _destIndex$[ebp], 0

; 742  :       flagMask = CC_COUNTER0_ZERO;

	mov	DWORD PTR _flagMask$[ebp], 32		; 00000020H

; 743  :       if(!destValue)

	cmp	DWORD PTR _destValue$[ebp], 0
	jne	SHORT $LN19@PropagateC@13

; 744  :       {
; 745  :         flagValues = CC_COUNTER0_ZERO;

	mov	DWORD PTR _flagValues$[ebp], 32		; 00000020H
$LN19@PropagateC@13:

; 746  :       }
; 747  :       bLockInstruction = true;

	mov	BYTE PTR _bLockInstruction$[ebp], 1

; 748  :       break;

	jmp	SHORT $LN23@PropagateC@13
$LN18@PropagateC@13:

; 749  :     case 0x1F:
; 750  :       //RC1
; 751  :       destIndex = CONSTANT_REG_RC1;

	mov	DWORD PTR _destIndex$[ebp], 1

; 752  :       flagMask = CC_COUNTER1_ZERO;

	mov	DWORD PTR _flagMask$[ebp], 64		; 00000040H

; 753  :       if(!destValue)

	cmp	DWORD PTR _destValue$[ebp], 0
	jne	SHORT $LN17@PropagateC@13

; 754  :       {
; 755  :         flagValues = CC_COUNTER1_ZERO;

	mov	DWORD PTR _flagValues$[ebp], 64		; 00000040H
$LN17@PropagateC@13:

; 756  :       }
; 757  :       bLockInstruction = true;

	mov	BYTE PTR _bLockInstruction$[ebp], 1

; 758  :       break;

	jmp	SHORT $LN23@PropagateC@13
$LN16@PropagateC@13:

; 759  :     case 0x20:
; 760  :       //RX
; 761  :       destIndex = CONSTANT_REG_RX;

	mov	DWORD PTR _destIndex$[ebp], 2

; 762  :       break;    

	jmp	SHORT $LN23@PropagateC@13
$LN15@PropagateC@13:

; 763  :     case 0x21:
; 764  :       //RY
; 765  :       destIndex = CONSTANT_REG_RY;

	mov	DWORD PTR _destIndex$[ebp], 3

; 766  :       break;    

	jmp	SHORT $LN23@PropagateC@13
$LN14@PropagateC@13:

; 767  :     case 0x25:
; 768  :       //RU
; 769  :       destIndex = CONSTANT_REG_RU;

	mov	DWORD PTR _destIndex$[ebp], 4

; 770  :       break;    

	jmp	SHORT $LN23@PropagateC@13
$LN13@PropagateC@13:

; 771  :     case 0x26:
; 772  :       //RV
; 773  :       destIndex = CONSTANT_REG_RV;

	mov	DWORD PTR _destIndex$[ebp], 5

; 774  :       break;    

	jmp	SHORT $LN23@PropagateC@13
$LN12@PropagateC@13:

; 775  :     case 0x2C:
; 776  :       //SVSHIFT
; 777  :       destIndex = CONSTANT_REG_SVSHIFT;

	mov	DWORD PTR _destIndex$[ebp], 14		; 0000000eH

; 778  :       break;    

	jmp	SHORT $LN23@PropagateC@13
$LN11@PropagateC@13:

; 779  :     case 0x2D:
; 780  :       //ACSHIFT
; 781  :       destIndex = CONSTANT_REG_ACSHIFT;

	mov	DWORD PTR _destIndex$[ebp], 13		; 0000000dH

; 782  :       destValue = ((int32)(destValue << 25)) >> 25;

	mov	edx, DWORD PTR _destValue$[ebp]
	shl	edx, 25					; 00000019H
	sar	edx, 25					; 00000019H
	mov	DWORD PTR _destValue$[ebp], edx

; 783  :       break;

	jmp	SHORT $LN23@PropagateC@13
$LN10@PropagateC@13:

; 784  :     case 0x30:
; 785  :     case 0x31:
; 786  :     case 0x32:
; 787  :     case 0x33:
; 788  :     case 0x34:
; 789  :     case 0x35:
; 790  :     case 0x36:
; 791  :     case 0x37:
; 792  :     case 0x38:
; 793  :     case 0x39:
; 794  :     case 0x3A:
; 795  :     case 0x3B:
; 796  :     case 0x3C:
; 797  :     case 0x3D:
; 798  :     case 0x3E:
; 799  :     case 0x3F:
; 800  :     case 0x40:
; 801  :     case 0x41:
; 802  :     case 0x42:
; 803  :     case 0x43:
; 804  :     case 0x44:
; 805  :     case 0x45:
; 806  :     case 0x46:
; 807  :     case 0x47:
; 808  :     case 0x48:
; 809  :     case 0x49:
; 810  :     case 0x4A:
; 811  :     case 0x4B:
; 812  :     case 0x4C:
; 813  :     case 0x4D:
; 814  :     case 0x4E:
; 815  :     case 0x4F:
; 816  :       destIndex = destIndex - 0x30UL;

	mov	eax, DWORD PTR _destIndex$[ebp]
	sub	eax, 48					; 00000030H
	mov	DWORD PTR _destIndex$[ebp], eax

; 817  :       bScalarReg = true;

	mov	BYTE PTR _bScalarReg$[ebp], 1

; 818  :       break;

	jmp	SHORT $LN23@PropagateC@13
$LN9@PropagateC@13:

; 819  :     default:
; 820  :       bIsConstant = false;

	mov	BYTE PTR _bIsConstant$[ebp], 0

; 821  :       bLockInstruction = true;

	mov	BYTE PTR _bLockInstruction$[ebp], 1
$LN23@PropagateC@13:

; 822  :       break;
; 823  :   }
; 824  : 
; 825  :   if(bIsConstant && ALLOW_MEM_PROPAGATION)

	movzx	ecx, BYTE PTR _bIsConstant$[ebp]
	test	ecx, ecx
	je	$LN8@PropagateC@13
	mov	edx, 1
	test	edx, edx
	je	$LN8@PropagateC@13

; 826  :   {
; 827  :     constants.bConstantPropagated = true;

	mov	eax, DWORD PTR _constants$[ebp]
	mov	BYTE PTR [eax+36], 1

; 828  :     if(!bScalarReg)

	movzx	ecx, BYTE PTR _bScalarReg$[ebp]
	test	ecx, ecx
	jne	SHORT $LN7@PropagateC@13

; 829  :     {
; 830  :       constants.nuance->fields[FIELD_CONSTANT_HANDLER] = Handler_StoreMiscRegisterConstant;

	mov	edx, DWORD PTR _constants$[ebp]
	mov	eax, DWORD PTR [edx+4]
	mov	DWORD PTR [eax], 218			; 000000daH

; 831  :       constants.nuance->fields[FIELD_CONSTANT_ADDRESS] = destIndex;

	mov	ecx, DWORD PTR _constants$[ebp]
	mov	edx, DWORD PTR [ecx+4]
	mov	eax, DWORD PTR _destIndex$[ebp]
	mov	DWORD PTR [edx+4], eax

; 832  :       constants.nuance->fields[FIELD_CONSTANT_VALUE] = destValue;

	mov	ecx, DWORD PTR _constants$[ebp]
	mov	edx, DWORD PTR [ecx+4]
	mov	eax, DWORD PTR _destValue$[ebp]
	mov	DWORD PTR [edx+8], eax

; 833  :       constants.nuance->fields[FIELD_CONSTANT_FLAGMASK] = flagMask;

	mov	ecx, DWORD PTR _constants$[ebp]
	mov	edx, DWORD PTR [ecx+4]
	mov	eax, DWORD PTR _flagMask$[ebp]
	mov	DWORD PTR [edx+12], eax

; 834  :       constants.nuance->fields[FIELD_CONSTANT_FLAGVALUES] = flagValues;

	mov	ecx, DWORD PTR _constants$[ebp]
	mov	edx, DWORD PTR [ecx+4]
	mov	eax, DWORD PTR _flagValues$[ebp]
	mov	DWORD PTR [edx+16], eax

; 835  :       PropagateConstants_StoreMiscRegisterConstant(constants);

	mov	ecx, DWORD PTR _constants$[ebp]
	push	ecx
	call	?PropagateConstants_StoreMiscRegisterConstant@@YAXAAVSuperBlockConstants@@@Z ; PropagateConstants_StoreMiscRegisterConstant
	add	esp, 4

; 836  :     }
; 837  :     else

	jmp	SHORT $LN6@PropagateC@13
$LN7@PropagateC@13:

; 838  :     {
; 839  :       constants.nuance->fields[FIELD_MEM_HANDLER] = Handler_MV_SImmediate;

	mov	edx, DWORD PTR _constants$[ebp]
	mov	eax, DWORD PTR [edx+4]
	mov	DWORD PTR [eax], 152			; 00000098H

; 840  :       constants.nuance->fields[FIELD_MEM_FROM] = destValue;

	mov	ecx, DWORD PTR _constants$[ebp]
	mov	edx, DWORD PTR [ecx+4]
	mov	eax, DWORD PTR _destValue$[ebp]
	mov	DWORD PTR [edx+12], eax

; 841  :       constants.nuance->fields[FIELD_MEM_TO] = destIndex;

	mov	ecx, DWORD PTR _constants$[ebp]
	mov	edx, DWORD PTR [ecx+4]
	mov	eax, DWORD PTR _destIndex$[ebp]
	mov	DWORD PTR [edx+8], eax

; 842  :       PropagateConstants_MV_SImmediate(constants);

	mov	ecx, DWORD PTR _constants$[ebp]
	push	ecx
	call	?PropagateConstants_MV_SImmediate@@YAXAAVSuperBlockConstants@@@Z ; PropagateConstants_MV_SImmediate
	add	esp, 4
$LN6@PropagateC@13:

; 843  :     }
; 844  :   }
; 845  :   else

	jmp	SHORT $LN5@PropagateC@13
$LN8@PropagateC@13:

; 846  :   {
; 847  :     if(bIsConstant)

	movzx	edx, BYTE PTR _bIsConstant$[ebp]
	test	edx, edx
	je	SHORT $LN5@PropagateC@13

; 848  :     {
; 849  :       if(!bScalarReg)

	movzx	eax, BYTE PTR _bScalarReg$[ebp]
	test	eax, eax
	jne	SHORT $LN3@PropagateC@13

; 850  :       {
; 851  :         constants.ClearMiscRegisterConstant(destIndex);

	mov	ecx, DWORD PTR _destIndex$[ebp]
	push	ecx
	mov	ecx, DWORD PTR _constants$[ebp]
	call	?ClearMiscRegisterConstant@SuperBlockConstants@@QAEXI@Z ; SuperBlockConstants::ClearMiscRegisterConstant

; 852  :       }
; 853  :       else

	jmp	SHORT $LN5@PropagateC@13
$LN3@PropagateC@13:

; 854  :       {
; 855  :         constants.ClearScalarRegisterConstant(destIndex);

	mov	edx, DWORD PTR _destIndex$[ebp]
	push	edx
	mov	ecx, DWORD PTR _constants$[ebp]
	call	?ClearScalarRegisterConstant@SuperBlockConstants@@QAEXI@Z ; SuperBlockConstants::ClearScalarRegisterConstant
$LN5@PropagateC@13:

; 856  :       }
; 857  :     }
; 858  :   }
; 859  : 
; 860  :   if(bLockInstruction)

	movzx	eax, BYTE PTR _bLockInstruction$[ebp]
	test	eax, eax
	je	SHORT $LN1@PropagateC@13

; 861  :   {
; 862  :     constants.SetInstructionFlags(SUPERBLOCKINFO_LOCKED);

	push	65536					; 00010000H
	mov	ecx, DWORD PTR _constants$[ebp]
	call	?SetInstructionFlags@SuperBlockConstants@@QAEXI@Z ; SuperBlockConstants::SetInstructionFlags
$LN1@PropagateC@13:

; 863  :   }
; 864  : 
; 865  :   constants.status.status = PROPAGATE_CONSTANTS_STATUS_MEM_OK;

	mov	ecx, DWORD PTR _constants$[ebp]
	mov	DWORD PTR [ecx+12], 4

; 866  : }

	add	esp, 24					; 00000018H
	cmp	ebp, esp
	call	__RTC_CheckEsp
	mov	esp, ebp
	pop	ebp
	ret	0
	npad	1
$LN28@PropagateC@13:
	DD	$LN22@PropagateC@13
	DD	$LN21@PropagateC@13
	DD	$LN20@PropagateC@13
	DD	$LN18@PropagateC@13
	DD	$LN16@PropagateC@13
	DD	$LN15@PropagateC@13
	DD	$LN14@PropagateC@13
	DD	$LN13@PropagateC@13
	DD	$LN12@PropagateC@13
	DD	$LN11@PropagateC@13
	DD	$LN10@PropagateC@13
	DD	$LN9@PropagateC@13
$LN27@PropagateC@13:
	DB	0
	DB	11					; 0000000bH
	DB	11					; 0000000bH
	DB	11					; 0000000bH
	DB	1
	DB	11					; 0000000bH
	DB	11					; 0000000bH
	DB	11					; 0000000bH
	DB	11					; 0000000bH
	DB	11					; 0000000bH
	DB	11					; 0000000bH
	DB	11					; 0000000bH
	DB	11					; 0000000bH
	DB	11					; 0000000bH
	DB	11					; 0000000bH
	DB	11					; 0000000bH
	DB	11					; 0000000bH
	DB	11					; 0000000bH
	DB	11					; 0000000bH
	DB	11					; 0000000bH
	DB	11					; 0000000bH
	DB	11					; 0000000bH
	DB	11					; 0000000bH
	DB	11					; 0000000bH
	DB	11					; 0000000bH
	DB	11					; 0000000bH
	DB	2
	DB	3
	DB	4
	DB	5
	DB	11					; 0000000bH
	DB	11					; 0000000bH
	DB	11					; 0000000bH
	DB	6
	DB	7
	DB	11					; 0000000bH
	DB	11					; 0000000bH
	DB	11					; 0000000bH
	DB	11					; 0000000bH
	DB	11					; 0000000bH
	DB	8
	DB	9
	DB	11					; 0000000bH
	DB	11					; 0000000bH
	DB	10					; 0000000aH
	DB	10					; 0000000aH
	DB	10					; 0000000aH
	DB	10					; 0000000aH
	DB	10					; 0000000aH
	DB	10					; 0000000aH
	DB	10					; 0000000aH
	DB	10					; 0000000aH
	DB	10					; 0000000aH
	DB	10					; 0000000aH
	DB	10					; 0000000aH
	DB	10					; 0000000aH
	DB	10					; 0000000aH
	DB	10					; 0000000aH
	DB	10					; 0000000aH
	DB	10					; 0000000aH
	DB	10					; 0000000aH
	DB	10					; 0000000aH
	DB	10					; 0000000aH
	DB	10					; 0000000aH
	DB	10					; 0000000aH
	DB	10					; 0000000aH
	DB	10					; 0000000aH
	DB	10					; 0000000aH
	DB	10					; 0000000aH
	DB	10					; 0000000aH
	DB	10					; 0000000aH
	DB	10					; 0000000aH
	DB	10					; 0000000aH
	DB	10					; 0000000aH
	DB	10					; 0000000aH
	DB	10					; 0000000aH
?PropagateConstants_StoreScalarControlRegisterImmediate@@YAXAAVSuperBlockConstants@@@Z ENDP ; PropagateConstants_StoreScalarControlRegisterImmediate
_TEXT	ENDS
PUBLIC	?PropagateConstants_StoreScalarControlRegisterAbsolute@@YAXAAVSuperBlockConstants@@@Z ; PropagateConstants_StoreScalarControlRegisterAbsolute
; Function compile flags: /Odtp /RTCsu
_TEXT	SEGMENT
tv85 = -12						; size = 4
_destIndex$ = -8					; size = 4
_srcIndex$ = -4						; size = 4
_constants$ = 8						; size = 4
?PropagateConstants_StoreScalarControlRegisterAbsolute@@YAXAAVSuperBlockConstants@@@Z PROC ; PropagateConstants_StoreScalarControlRegisterAbsolute

; 869  : {

	push	ebp
	mov	ebp, esp
	sub	esp, 12					; 0000000cH
	mov	DWORD PTR [ebp-12], -858993460		; ccccccccH
	mov	DWORD PTR [ebp-8], -858993460		; ccccccccH
	mov	DWORD PTR [ebp-4], -858993460		; ccccccccH

; 870  :   uint32 srcIndex = constants.nuance->fields[FIELD_MEM_FROM];

	mov	eax, DWORD PTR _constants$[ebp]
	mov	ecx, DWORD PTR [eax+4]
	mov	edx, DWORD PTR [ecx+12]
	mov	DWORD PTR _srcIndex$[ebp], edx

; 871  :   uint32 destIndex;
; 872  : 
; 873  :   if(constants.IsScalarRegisterConstant(srcIndex) && ALLOW_MEM_PROPAGATION)

	mov	eax, DWORD PTR _srcIndex$[ebp]
	push	eax
	mov	ecx, DWORD PTR _constants$[ebp]
	call	?IsScalarRegisterConstant@SuperBlockConstants@@QAE_NI@Z ; SuperBlockConstants::IsScalarRegisterConstant
	movzx	ecx, al
	test	ecx, ecx
	je	SHORT $LN16@PropagateC@14
	mov	edx, 1
	test	edx, edx
	je	SHORT $LN16@PropagateC@14

; 874  :   {
; 875  :     constants.nuance->fields[FIELD_MEM_HANDLER] = Handler_StoreScalarControlRegisterImmediate;

	mov	eax, DWORD PTR _constants$[ebp]
	mov	ecx, DWORD PTR [eax+4]
	mov	DWORD PTR [ecx], 215			; 000000d7H

; 876  :     constants.nuance->fields[FIELD_MEM_FROM] = constants.GetScalarRegisterConstant(srcIndex);

	mov	edx, DWORD PTR _srcIndex$[ebp]
	push	edx
	mov	ecx, DWORD PTR _constants$[ebp]
	call	?GetScalarRegisterConstant@SuperBlockConstants@@QAEII@Z ; SuperBlockConstants::GetScalarRegisterConstant
	mov	ecx, DWORD PTR _constants$[ebp]
	mov	edx, DWORD PTR [ecx+4]
	mov	DWORD PTR [edx+12], eax

; 877  :     constants.bConstantPropagated = true;

	mov	eax, DWORD PTR _constants$[ebp]
	mov	BYTE PTR [eax+36], 1

; 878  :     PropagateConstants_StoreScalarControlRegisterImmediate(constants);

	mov	ecx, DWORD PTR _constants$[ebp]
	push	ecx
	call	?PropagateConstants_StoreScalarControlRegisterImmediate@@YAXAAVSuperBlockConstants@@@Z ; PropagateConstants_StoreScalarControlRegisterImmediate
	add	esp, 4

; 879  :   }
; 880  :   else

	jmp	$LN17@PropagateC@14
$LN16@PropagateC@14:

; 881  :   {
; 882  :     destIndex = (constants.nuance->fields[FIELD_MEM_TO] - MPE_CTRL_BASE) >> 4;

	mov	edx, DWORD PTR _constants$[ebp]
	mov	eax, DWORD PTR [edx+4]
	mov	ecx, DWORD PTR [eax+8]
	sub	ecx, 542113792				; 20500000H
	shr	ecx, 4
	mov	DWORD PTR _destIndex$[ebp], ecx

; 883  :     switch(destIndex)

	mov	edx, DWORD PTR _destIndex$[ebp]
	mov	DWORD PTR tv85[ebp], edx
	mov	eax, DWORD PTR tv85[ebp]
	sub	eax, 4
	mov	DWORD PTR tv85[ebp], eax
	cmp	DWORD PTR tv85[ebp], 75			; 0000004bH
	ja	$LN1@PropagateC@14
	mov	ecx, DWORD PTR tv85[ebp]
	movzx	edx, BYTE PTR $LN19@PropagateC@14[ecx]
	jmp	DWORD PTR $LN20@PropagateC@14[edx*4]
$LN12@PropagateC@14:

; 884  :     {
; 885  :       case 0x4:
; 886  :         //CC
; 887  :         constants.ClearMiscRegisterConstant(CONSTANT_REG_ALLFLAGS);

	push	-1
	mov	ecx, DWORD PTR _constants$[ebp]
	call	?ClearMiscRegisterConstant@SuperBlockConstants@@QAEXI@Z ; SuperBlockConstants::ClearMiscRegisterConstant

; 888  :         constants.SetInstructionFlags(SUPERBLOCKINFO_LOCKED);

	push	65536					; 00010000H
	mov	ecx, DWORD PTR _constants$[ebp]
	call	?SetInstructionFlags@SuperBlockConstants@@QAEXI@Z ; SuperBlockConstants::SetInstructionFlags

; 889  :         break;

	jmp	$LN13@PropagateC@14
$LN11@PropagateC@14:

; 890  :       case 0x8:
; 891  :         //RZ
; 892  :         constants.ClearMiscRegisterConstant(CONSTANT_REG_RZ);

	push	6
	mov	ecx, DWORD PTR _constants$[ebp]
	call	?ClearMiscRegisterConstant@SuperBlockConstants@@QAEXI@Z ; SuperBlockConstants::ClearMiscRegisterConstant

; 893  :         break;

	jmp	$LN13@PropagateC@14
$LN10@PropagateC@14:

; 894  :       case 0x1E:
; 895  :         //RC0
; 896  :         constants.ClearMiscRegisterConstant(CONSTANT_REG_RC0);

	push	0
	mov	ecx, DWORD PTR _constants$[ebp]
	call	?ClearMiscRegisterConstant@SuperBlockConstants@@QAEXI@Z ; SuperBlockConstants::ClearMiscRegisterConstant

; 897  :         constants.SetInstructionFlags(SUPERBLOCKINFO_LOCKED);

	push	65536					; 00010000H
	mov	ecx, DWORD PTR _constants$[ebp]
	call	?SetInstructionFlags@SuperBlockConstants@@QAEXI@Z ; SuperBlockConstants::SetInstructionFlags

; 898  :         break;

	jmp	$LN13@PropagateC@14
$LN9@PropagateC@14:

; 899  :       case 0x1F:
; 900  :         //RC1
; 901  :         constants.ClearMiscRegisterConstant(CONSTANT_REG_RC1);

	push	1
	mov	ecx, DWORD PTR _constants$[ebp]
	call	?ClearMiscRegisterConstant@SuperBlockConstants@@QAEXI@Z ; SuperBlockConstants::ClearMiscRegisterConstant

; 902  :         constants.SetInstructionFlags(SUPERBLOCKINFO_LOCKED);

	push	65536					; 00010000H
	mov	ecx, DWORD PTR _constants$[ebp]
	call	?SetInstructionFlags@SuperBlockConstants@@QAEXI@Z ; SuperBlockConstants::SetInstructionFlags

; 903  :         break;

	jmp	SHORT $LN13@PropagateC@14
$LN8@PropagateC@14:

; 904  :       case 0x20:
; 905  :         //RX
; 906  :         constants.ClearMiscRegisterConstant(CONSTANT_REG_RX);

	push	2
	mov	ecx, DWORD PTR _constants$[ebp]
	call	?ClearMiscRegisterConstant@SuperBlockConstants@@QAEXI@Z ; SuperBlockConstants::ClearMiscRegisterConstant

; 907  :         break;    

	jmp	SHORT $LN13@PropagateC@14
$LN7@PropagateC@14:

; 908  :       case 0x21:
; 909  :         //RY
; 910  :         constants.ClearMiscRegisterConstant(CONSTANT_REG_RY);

	push	3
	mov	ecx, DWORD PTR _constants$[ebp]
	call	?ClearMiscRegisterConstant@SuperBlockConstants@@QAEXI@Z ; SuperBlockConstants::ClearMiscRegisterConstant

; 911  :         break;    

	jmp	SHORT $LN13@PropagateC@14
$LN6@PropagateC@14:

; 912  :       case 0x25:
; 913  :         //RU
; 914  :         constants.ClearMiscRegisterConstant(CONSTANT_REG_RU);

	push	4
	mov	ecx, DWORD PTR _constants$[ebp]
	call	?ClearMiscRegisterConstant@SuperBlockConstants@@QAEXI@Z ; SuperBlockConstants::ClearMiscRegisterConstant

; 915  :         break;    

	jmp	SHORT $LN13@PropagateC@14
$LN5@PropagateC@14:

; 916  :       case 0x26:
; 917  :         //RV
; 918  :         constants.ClearMiscRegisterConstant(CONSTANT_REG_RV);

	push	5
	mov	ecx, DWORD PTR _constants$[ebp]
	call	?ClearMiscRegisterConstant@SuperBlockConstants@@QAEXI@Z ; SuperBlockConstants::ClearMiscRegisterConstant

; 919  :         break;    

	jmp	SHORT $LN13@PropagateC@14
$LN4@PropagateC@14:

; 920  :       case 0x2C:
; 921  :         //SVSHIFT
; 922  :         constants.ClearMiscRegisterConstant(CONSTANT_REG_SVSHIFT);

	push	14					; 0000000eH
	mov	ecx, DWORD PTR _constants$[ebp]
	call	?ClearMiscRegisterConstant@SuperBlockConstants@@QAEXI@Z ; SuperBlockConstants::ClearMiscRegisterConstant

; 923  :         break;    

	jmp	SHORT $LN13@PropagateC@14
$LN3@PropagateC@14:

; 924  :       case 0x2D:
; 925  :         //ACSHIFT
; 926  :         constants.ClearMiscRegisterConstant(CONSTANT_REG_ACSHIFT);

	push	13					; 0000000dH
	mov	ecx, DWORD PTR _constants$[ebp]
	call	?ClearMiscRegisterConstant@SuperBlockConstants@@QAEXI@Z ; SuperBlockConstants::ClearMiscRegisterConstant

; 927  :         break;

	jmp	SHORT $LN13@PropagateC@14
$LN2@PropagateC@14:

; 928  :       case 0x30:
; 929  :       case 0x31:
; 930  :       case 0x32:
; 931  :       case 0x33:
; 932  :       case 0x34:
; 933  :       case 0x35:
; 934  :       case 0x36:
; 935  :       case 0x37:
; 936  :       case 0x38:
; 937  :       case 0x39:
; 938  :       case 0x3A:
; 939  :       case 0x3B:
; 940  :       case 0x3C:
; 941  :       case 0x3D:
; 942  :       case 0x3E:
; 943  :       case 0x3F:
; 944  :       case 0x40:
; 945  :       case 0x41:
; 946  :       case 0x42:
; 947  :       case 0x43:
; 948  :       case 0x44:
; 949  :       case 0x45:
; 950  :       case 0x46:
; 951  :       case 0x47:
; 952  :       case 0x48:
; 953  :       case 0x49:
; 954  :       case 0x4A:
; 955  :       case 0x4B:
; 956  :       case 0x4C:
; 957  :       case 0x4D:
; 958  :       case 0x4E:
; 959  :       case 0x4F:
; 960  :         constants.ClearScalarRegisterConstant(destIndex - 0x30UL);

	mov	eax, DWORD PTR _destIndex$[ebp]
	sub	eax, 48					; 00000030H
	push	eax
	mov	ecx, DWORD PTR _constants$[ebp]
	call	?ClearScalarRegisterConstant@SuperBlockConstants@@QAEXI@Z ; SuperBlockConstants::ClearScalarRegisterConstant

; 961  :         break;

	jmp	SHORT $LN13@PropagateC@14
$LN1@PropagateC@14:

; 962  :       default:
; 963  :         constants.SetInstructionFlags(SUPERBLOCKINFO_LOCKED);

	push	65536					; 00010000H
	mov	ecx, DWORD PTR _constants$[ebp]
	call	?SetInstructionFlags@SuperBlockConstants@@QAEXI@Z ; SuperBlockConstants::SetInstructionFlags

; 964  :         //Sync flags
; 965  :         constants.SetInstructionFlags(SUPERBLOCKINFO_SYNC);

	push	524288					; 00080000H
	mov	ecx, DWORD PTR _constants$[ebp]
	call	?SetInstructionFlags@SuperBlockConstants@@QAEXI@Z ; SuperBlockConstants::SetInstructionFlags
$LN13@PropagateC@14:

; 966  :         break;
; 967  :     }
; 968  : 
; 969  :     constants.status.status = PROPAGATE_CONSTANTS_STATUS_MEM_OK;

	mov	ecx, DWORD PTR _constants$[ebp]
	mov	DWORD PTR [ecx+12], 4
$LN17@PropagateC@14:

; 970  :   }
; 971  : }

	add	esp, 12					; 0000000cH
	cmp	ebp, esp
	call	__RTC_CheckEsp
	mov	esp, ebp
	pop	ebp
	ret	0
	npad	2
$LN20@PropagateC@14:
	DD	$LN12@PropagateC@14
	DD	$LN11@PropagateC@14
	DD	$LN10@PropagateC@14
	DD	$LN9@PropagateC@14
	DD	$LN8@PropagateC@14
	DD	$LN7@PropagateC@14
	DD	$LN6@PropagateC@14
	DD	$LN5@PropagateC@14
	DD	$LN4@PropagateC@14
	DD	$LN3@PropagateC@14
	DD	$LN2@PropagateC@14
	DD	$LN1@PropagateC@14
$LN19@PropagateC@14:
	DB	0
	DB	11					; 0000000bH
	DB	11					; 0000000bH
	DB	11					; 0000000bH
	DB	1
	DB	11					; 0000000bH
	DB	11					; 0000000bH
	DB	11					; 0000000bH
	DB	11					; 0000000bH
	DB	11					; 0000000bH
	DB	11					; 0000000bH
	DB	11					; 0000000bH
	DB	11					; 0000000bH
	DB	11					; 0000000bH
	DB	11					; 0000000bH
	DB	11					; 0000000bH
	DB	11					; 0000000bH
	DB	11					; 0000000bH
	DB	11					; 0000000bH
	DB	11					; 0000000bH
	DB	11					; 0000000bH
	DB	11					; 0000000bH
	DB	11					; 0000000bH
	DB	11					; 0000000bH
	DB	11					; 0000000bH
	DB	11					; 0000000bH
	DB	2
	DB	3
	DB	4
	DB	5
	DB	11					; 0000000bH
	DB	11					; 0000000bH
	DB	11					; 0000000bH
	DB	6
	DB	7
	DB	11					; 0000000bH
	DB	11					; 0000000bH
	DB	11					; 0000000bH
	DB	11					; 0000000bH
	DB	11					; 0000000bH
	DB	8
	DB	9
	DB	11					; 0000000bH
	DB	11					; 0000000bH
	DB	10					; 0000000aH
	DB	10					; 0000000aH
	DB	10					; 0000000aH
	DB	10					; 0000000aH
	DB	10					; 0000000aH
	DB	10					; 0000000aH
	DB	10					; 0000000aH
	DB	10					; 0000000aH
	DB	10					; 0000000aH
	DB	10					; 0000000aH
	DB	10					; 0000000aH
	DB	10					; 0000000aH
	DB	10					; 0000000aH
	DB	10					; 0000000aH
	DB	10					; 0000000aH
	DB	10					; 0000000aH
	DB	10					; 0000000aH
	DB	10					; 0000000aH
	DB	10					; 0000000aH
	DB	10					; 0000000aH
	DB	10					; 0000000aH
	DB	10					; 0000000aH
	DB	10					; 0000000aH
	DB	10					; 0000000aH
	DB	10					; 0000000aH
	DB	10					; 0000000aH
	DB	10					; 0000000aH
	DB	10					; 0000000aH
	DB	10					; 0000000aH
	DB	10					; 0000000aH
	DB	10					; 0000000aH
	DB	10					; 0000000aH
?PropagateConstants_StoreScalarControlRegisterAbsolute@@YAXAAVSuperBlockConstants@@@Z ENDP ; PropagateConstants_StoreScalarControlRegisterAbsolute
_TEXT	ENDS
PUBLIC	?PropagateConstants_StoreScalarAbsolute@@YAXAAVSuperBlockConstants@@@Z ; PropagateConstants_StoreScalarAbsolute
; Function compile flags: /Odtp /RTCsu
_TEXT	SEGMENT
_srcIndex$ = -4						; size = 4
_constants$ = 8						; size = 4
?PropagateConstants_StoreScalarAbsolute@@YAXAAVSuperBlockConstants@@@Z PROC ; PropagateConstants_StoreScalarAbsolute

; 974  : {

	push	ebp
	mov	ebp, esp
	push	ecx
	mov	DWORD PTR [ebp-4], -858993460		; ccccccccH

; 975  :   uint32 srcIndex = constants.nuance->fields[FIELD_MEM_FROM];

	mov	eax, DWORD PTR _constants$[ebp]
	mov	ecx, DWORD PTR [eax+4]
	mov	edx, DWORD PTR [ecx+12]
	mov	DWORD PTR _srcIndex$[ebp], edx

; 976  : 
; 977  :   if(constants.IsScalarRegisterConstant(srcIndex) && ALLOW_MEM_PROPAGATION)

	mov	eax, DWORD PTR _srcIndex$[ebp]
	push	eax
	mov	ecx, DWORD PTR _constants$[ebp]
	call	?IsScalarRegisterConstant@SuperBlockConstants@@QAE_NI@Z ; SuperBlockConstants::IsScalarRegisterConstant
	movzx	ecx, al
	test	ecx, ecx
	je	SHORT $LN2@PropagateC@15
	mov	edx, 1
	test	edx, edx
	je	SHORT $LN2@PropagateC@15

; 978  :   {
; 979  :     constants.nuance->fields[FIELD_MEM_HANDLER] = Handler_StoreScalarImmediate;

	mov	eax, DWORD PTR _constants$[ebp]
	mov	ecx, DWORD PTR [eax+4]
	mov	DWORD PTR [ecx], 216			; 000000d8H

; 980  :     constants.nuance->fields[FIELD_MEM_FROM] = constants.GetScalarRegisterConstant(srcIndex);

	mov	edx, DWORD PTR _srcIndex$[ebp]
	push	edx
	mov	ecx, DWORD PTR _constants$[ebp]
	call	?GetScalarRegisterConstant@SuperBlockConstants@@QAEII@Z ; SuperBlockConstants::GetScalarRegisterConstant
	mov	ecx, DWORD PTR _constants$[ebp]
	mov	edx, DWORD PTR [ecx+4]
	mov	DWORD PTR [edx+12], eax

; 981  :     constants.bConstantPropagated = true;

	mov	eax, DWORD PTR _constants$[ebp]
	mov	BYTE PTR [eax+36], 1

; 982  :     PropagateConstants_StoreScalarImmediate(constants);

	mov	ecx, DWORD PTR _constants$[ebp]
	push	ecx
	call	?PropagateConstants_StoreScalarImmediate@@YAXAAVSuperBlockConstants@@@Z ; PropagateConstants_StoreScalarImmediate
	add	esp, 4

; 983  :   }
; 984  :   else

	jmp	SHORT $LN3@PropagateC@15
$LN2@PropagateC@15:

; 985  :   {
; 986  :     constants.status.status = PROPAGATE_CONSTANTS_STATUS_MEM_OK;

	mov	edx, DWORD PTR _constants$[ebp]
	mov	DWORD PTR [edx+12], 4

; 987  :     constants.SetInstructionFlags(SUPERBLOCKINFO_LOCKED);

	push	65536					; 00010000H
	mov	ecx, DWORD PTR _constants$[ebp]
	call	?SetInstructionFlags@SuperBlockConstants@@QAEXI@Z ; SuperBlockConstants::SetInstructionFlags
$LN3@PropagateC@15:

; 988  :   }
; 989  : }

	add	esp, 4
	cmp	ebp, esp
	call	__RTC_CheckEsp
	mov	esp, ebp
	pop	ebp
	ret	0
?PropagateConstants_StoreScalarAbsolute@@YAXAAVSuperBlockConstants@@@Z ENDP ; PropagateConstants_StoreScalarAbsolute
_TEXT	ENDS
PUBLIC	?SetScalarInputDependency@SuperBlockConstants@@QAEXI@Z ; SuperBlockConstants::SetScalarInputDependency
PUBLIC	?PropagateConstants_StoreScalarLinear@@YAXAAVSuperBlockConstants@@@Z ; PropagateConstants_StoreScalarLinear
; Function compile flags: /Odtp /RTCsu
_TEXT	SEGMENT
_destIndex$ = -4					; size = 4
_constants$ = 8						; size = 4
?PropagateConstants_StoreScalarLinear@@YAXAAVSuperBlockConstants@@@Z PROC ; PropagateConstants_StoreScalarLinear

; 992  : {

	push	ebp
	mov	ebp, esp
	push	ecx
	mov	DWORD PTR [ebp-4], -858993460		; ccccccccH

; 993  :   uint32 destIndex = constants.nuance->fields[FIELD_MEM_TO];

	mov	eax, DWORD PTR _constants$[ebp]
	mov	ecx, DWORD PTR [eax+4]
	mov	edx, DWORD PTR [ecx+8]
	mov	DWORD PTR _destIndex$[ebp], edx

; 994  : 
; 995  :   if(constants.IsScalarRegisterConstant(destIndex) && ALLOW_MEM_PROPAGATION)

	mov	eax, DWORD PTR _destIndex$[ebp]
	push	eax
	mov	ecx, DWORD PTR _constants$[ebp]
	call	?IsScalarRegisterConstant@SuperBlockConstants@@QAE_NI@Z ; SuperBlockConstants::IsScalarRegisterConstant
	movzx	ecx, al
	test	ecx, ecx
	je	$LN4@PropagateC@16
	mov	edx, 1
	test	edx, edx
	je	$LN4@PropagateC@16

; 996  :   {
; 997  :     constants.nuance->fields[FIELD_MEM_TO] = constants.GetScalarRegisterConstant(destIndex);

	mov	eax, DWORD PTR _destIndex$[ebp]
	push	eax
	mov	ecx, DWORD PTR _constants$[ebp]
	call	?GetScalarRegisterConstant@SuperBlockConstants@@QAEII@Z ; SuperBlockConstants::GetScalarRegisterConstant
	mov	ecx, DWORD PTR _constants$[ebp]
	mov	edx, DWORD PTR [ecx+4]
	mov	DWORD PTR [edx+8], eax

; 998  :     constants.nuance->fields[FIELD_MEM_POINTER] = (uint32)nuonEnv->GetPointerToMemory(constants.mpe, constants.GetScalarRegisterConstant(destIndex));

	push	1
	mov	eax, DWORD PTR _destIndex$[ebp]
	push	eax
	mov	ecx, DWORD PTR _constants$[ebp]
	call	?GetScalarRegisterConstant@SuperBlockConstants@@QAEII@Z ; SuperBlockConstants::GetScalarRegisterConstant
	push	eax
	mov	ecx, DWORD PTR _constants$[ebp]
	mov	edx, DWORD PTR [ecx]
	push	edx
	mov	ecx, DWORD PTR ?nuonEnv@@3PAVNuonEnvironment@@A ; nuonEnv
	call	?GetPointerToMemory@NuonEnvironment@@QAEPAXPAVMPE@@I_N@Z ; NuonEnvironment::GetPointerToMemory
	mov	ecx, DWORD PTR _constants$[ebp]
	mov	edx, DWORD PTR [ecx+4]
	mov	DWORD PTR [edx+16], eax

; 999  :     constants.ClearScalarInputDependency(destIndex);

	mov	eax, DWORD PTR _destIndex$[ebp]
	push	eax
	mov	ecx, DWORD PTR _constants$[ebp]
	call	?ClearScalarInputDependency@SuperBlockConstants@@QAEXI@Z ; SuperBlockConstants::ClearScalarInputDependency

; 1000 :     constants.SetScalarInputDependency(constants.nuance->fields[FIELD_MEM_FROM]);

	mov	ecx, DWORD PTR _constants$[ebp]
	mov	edx, DWORD PTR [ecx+4]
	mov	eax, DWORD PTR [edx+12]
	push	eax
	mov	ecx, DWORD PTR _constants$[ebp]
	call	?SetScalarInputDependency@SuperBlockConstants@@QAEXI@Z ; SuperBlockConstants::SetScalarInputDependency

; 1001 :     constants.bConstantPropagated = true;

	mov	ecx, DWORD PTR _constants$[ebp]
	mov	BYTE PTR [ecx+36], 1

; 1002 :     if((constants.GetScalarRegisterConstant(destIndex) & MPE_CTRL_BASE) == MPE_CTRL_BASE)

	mov	edx, DWORD PTR _destIndex$[ebp]
	push	edx
	mov	ecx, DWORD PTR _constants$[ebp]
	call	?GetScalarRegisterConstant@SuperBlockConstants@@QAEII@Z ; SuperBlockConstants::GetScalarRegisterConstant
	and	eax, 542113792				; 20500000H
	cmp	eax, 542113792				; 20500000H
	jne	SHORT $LN3@PropagateC@16

; 1003 :     {
; 1004 :       constants.nuance->fields[FIELD_MEM_HANDLER] = Handler_StoreScalarControlRegisterAbsolute;

	mov	eax, DWORD PTR _constants$[ebp]
	mov	ecx, DWORD PTR [eax+4]
	mov	DWORD PTR [ecx], 194			; 000000c2H

; 1005 :       PropagateConstants_StoreScalarControlRegisterAbsolute(constants);

	mov	edx, DWORD PTR _constants$[ebp]
	push	edx
	call	?PropagateConstants_StoreScalarControlRegisterAbsolute@@YAXAAVSuperBlockConstants@@@Z ; PropagateConstants_StoreScalarControlRegisterAbsolute
	add	esp, 4

; 1006 :     }
; 1007 :     else

	jmp	SHORT $LN2@PropagateC@16
$LN3@PropagateC@16:

; 1008 :     {
; 1009 :       constants.nuance->fields[FIELD_MEM_HANDLER] = Handler_StoreScalarAbsolute;

	mov	eax, DWORD PTR _constants$[ebp]
	mov	ecx, DWORD PTR [eax+4]
	mov	DWORD PTR [ecx], 193			; 000000c1H

; 1010 :       PropagateConstants_StoreScalarAbsolute(constants);

	mov	edx, DWORD PTR _constants$[ebp]
	push	edx
	call	?PropagateConstants_StoreScalarAbsolute@@YAXAAVSuperBlockConstants@@@Z ; PropagateConstants_StoreScalarAbsolute
	add	esp, 4
$LN2@PropagateC@16:

; 1011 :     }
; 1012 :   }
; 1013 :   else

	jmp	SHORT $LN5@PropagateC@16
$LN4@PropagateC@16:

; 1014 :   {
; 1015 :     constants.status.status = PROPAGATE_CONSTANTS_STATUS_MEM_OK;

	mov	eax, DWORD PTR _constants$[ebp]
	mov	DWORD PTR [eax+12], 4

; 1016 :     constants.SetInstructionFlags(SUPERBLOCKINFO_LOCKED);

	push	65536					; 00010000H
	mov	ecx, DWORD PTR _constants$[ebp]
	call	?SetInstructionFlags@SuperBlockConstants@@QAEXI@Z ; SuperBlockConstants::SetInstructionFlags
$LN5@PropagateC@16:

; 1017 :   }
; 1018 : }

	add	esp, 4
	cmp	ebp, esp
	call	__RTC_CheckEsp
	mov	esp, ebp
	pop	ebp
	ret	0
?PropagateConstants_StoreScalarLinear@@YAXAAVSuperBlockConstants@@@Z ENDP ; PropagateConstants_StoreScalarLinear
; Function compile flags: /Odtp /RTCsu
; File c:\nuanceexperimental\superblockconstants.h
_TEXT	ENDS
;	COMDAT ?SetScalarInputDependency@SuperBlockConstants@@QAEXI@Z
_TEXT	SEGMENT
_this$ = -4						; size = 4
_index$ = 8						; size = 4
?SetScalarInputDependency@SuperBlockConstants@@QAEXI@Z PROC ; SuperBlockConstants::SetScalarInputDependency, COMDAT
; _this$ = ecx

; 121  :   {

	push	ebp
	mov	ebp, esp
	push	ecx
	mov	DWORD PTR [ebp-4], -858993460		; ccccccccH
	mov	DWORD PTR _this$[ebp], ecx

; 122  :     pCurrentInstructionEntry->scalarInputDependencies |= (1UL << index);

	mov	eax, DWORD PTR _this$[ebp]
	mov	edx, DWORD PTR [eax+8]
	mov	eax, 1
	mov	ecx, DWORD PTR _index$[ebp]
	shl	eax, cl
	or	eax, DWORD PTR [edx+32]
	mov	ecx, DWORD PTR _this$[ebp]
	mov	edx, DWORD PTR [ecx+8]
	mov	DWORD PTR [edx+32], eax

; 123  :   }

	mov	esp, ebp
	pop	ebp
	ret	4
?SetScalarInputDependency@SuperBlockConstants@@QAEXI@Z ENDP ; SuperBlockConstants::SetScalarInputDependency
_TEXT	ENDS
PUBLIC	?PropagateConstants_StoreScalarBilinearUV@@YAXAAVSuperBlockConstants@@@Z ; PropagateConstants_StoreScalarBilinearUV
; Function compile flags: /Odtp /RTCsu
; File c:\nuanceexperimental\propagateconstants_mem.cpp
_TEXT	SEGMENT
_constants$ = 8						; size = 4
?PropagateConstants_StoreScalarBilinearUV@@YAXAAVSuperBlockConstants@@@Z PROC ; PropagateConstants_StoreScalarBilinearUV

; 1021 : {

	push	ebp
	mov	ebp, esp

; 1022 :   constants.status.status = PROPAGATE_CONSTANTS_STATUS_MEM_OK;

	mov	eax, DWORD PTR _constants$[ebp]
	mov	DWORD PTR [eax+12], 4

; 1023 :   constants.SetInstructionFlags(SUPERBLOCKINFO_LOCKED);

	push	65536					; 00010000H
	mov	ecx, DWORD PTR _constants$[ebp]
	call	?SetInstructionFlags@SuperBlockConstants@@QAEXI@Z ; SuperBlockConstants::SetInstructionFlags

; 1024 : }

	cmp	ebp, esp
	call	__RTC_CheckEsp
	pop	ebp
	ret	0
?PropagateConstants_StoreScalarBilinearUV@@YAXAAVSuperBlockConstants@@@Z ENDP ; PropagateConstants_StoreScalarBilinearUV
_TEXT	ENDS
PUBLIC	?PropagateConstants_StoreScalarBilinearXY@@YAXAAVSuperBlockConstants@@@Z ; PropagateConstants_StoreScalarBilinearXY
; Function compile flags: /Odtp /RTCsu
_TEXT	SEGMENT
_constants$ = 8						; size = 4
?PropagateConstants_StoreScalarBilinearXY@@YAXAAVSuperBlockConstants@@@Z PROC ; PropagateConstants_StoreScalarBilinearXY

; 1026 : {

	push	ebp
	mov	ebp, esp

; 1027 :   constants.status.status = PROPAGATE_CONSTANTS_STATUS_MEM_OK;

	mov	eax, DWORD PTR _constants$[ebp]
	mov	DWORD PTR [eax+12], 4

; 1028 :   constants.SetInstructionFlags(SUPERBLOCKINFO_LOCKED);

	push	65536					; 00010000H
	mov	ecx, DWORD PTR _constants$[ebp]
	call	?SetInstructionFlags@SuperBlockConstants@@QAEXI@Z ; SuperBlockConstants::SetInstructionFlags

; 1029 : }

	cmp	ebp, esp
	call	__RTC_CheckEsp
	pop	ebp
	ret	0
?PropagateConstants_StoreScalarBilinearXY@@YAXAAVSuperBlockConstants@@@Z ENDP ; PropagateConstants_StoreScalarBilinearXY
_TEXT	ENDS
PUBLIC	?PropagateConstants_StoreVectorControlRegisterAbsolute@@YAXAAVSuperBlockConstants@@@Z ; PropagateConstants_StoreVectorControlRegisterAbsolute
; Function compile flags: /Odtp /RTCsu
_TEXT	SEGMENT
_constants$ = 8						; size = 4
?PropagateConstants_StoreVectorControlRegisterAbsolute@@YAXAAVSuperBlockConstants@@@Z PROC ; PropagateConstants_StoreVectorControlRegisterAbsolute

; 1031 : {

	push	ebp
	mov	ebp, esp

; 1032 :   constants.status.status = PROPAGATE_CONSTANTS_STATUS_MEM_OK;

	mov	eax, DWORD PTR _constants$[ebp]
	mov	DWORD PTR [eax+12], 4

; 1033 :   constants.SetInstructionFlags(SUPERBLOCKINFO_LOCKED);

	push	65536					; 00010000H
	mov	ecx, DWORD PTR _constants$[ebp]
	call	?SetInstructionFlags@SuperBlockConstants@@QAEXI@Z ; SuperBlockConstants::SetInstructionFlags

; 1034 : }

	cmp	ebp, esp
	call	__RTC_CheckEsp
	pop	ebp
	ret	0
?PropagateConstants_StoreVectorControlRegisterAbsolute@@YAXAAVSuperBlockConstants@@@Z ENDP ; PropagateConstants_StoreVectorControlRegisterAbsolute
_TEXT	ENDS
PUBLIC	?PropagateConstants_StorePixelAbsolute@@YAXAAVSuperBlockConstants@@@Z ; PropagateConstants_StorePixelAbsolute
; Function compile flags: /Odtp /RTCsu
_TEXT	SEGMENT
_constants$ = 8						; size = 4
?PropagateConstants_StorePixelAbsolute@@YAXAAVSuperBlockConstants@@@Z PROC ; PropagateConstants_StorePixelAbsolute

; 1036 : {

	push	ebp
	mov	ebp, esp

; 1037 :   constants.status.status = PROPAGATE_CONSTANTS_STATUS_MEM_OK;

	mov	eax, DWORD PTR _constants$[ebp]
	mov	DWORD PTR [eax+12], 4

; 1038 :   constants.SetInstructionFlags(SUPERBLOCKINFO_LOCKED);

	push	65536					; 00010000H
	mov	ecx, DWORD PTR _constants$[ebp]
	call	?SetInstructionFlags@SuperBlockConstants@@QAEXI@Z ; SuperBlockConstants::SetInstructionFlags

; 1039 : }

	cmp	ebp, esp
	call	__RTC_CheckEsp
	pop	ebp
	ret	0
?PropagateConstants_StorePixelAbsolute@@YAXAAVSuperBlockConstants@@@Z ENDP ; PropagateConstants_StorePixelAbsolute
_TEXT	ENDS
PUBLIC	?PropagateConstants_StorePixelZAbsolute@@YAXAAVSuperBlockConstants@@@Z ; PropagateConstants_StorePixelZAbsolute
; Function compile flags: /Odtp /RTCsu
_TEXT	SEGMENT
_constants$ = 8						; size = 4
?PropagateConstants_StorePixelZAbsolute@@YAXAAVSuperBlockConstants@@@Z PROC ; PropagateConstants_StorePixelZAbsolute

; 1041 : {

	push	ebp
	mov	ebp, esp

; 1042 :   constants.status.status = PROPAGATE_CONSTANTS_STATUS_MEM_OK;

	mov	eax, DWORD PTR _constants$[ebp]
	mov	DWORD PTR [eax+12], 4

; 1043 :   constants.SetInstructionFlags(SUPERBLOCKINFO_LOCKED);

	push	65536					; 00010000H
	mov	ecx, DWORD PTR _constants$[ebp]
	call	?SetInstructionFlags@SuperBlockConstants@@QAEXI@Z ; SuperBlockConstants::SetInstructionFlags

; 1044 : }

	cmp	ebp, esp
	call	__RTC_CheckEsp
	pop	ebp
	ret	0
?PropagateConstants_StorePixelZAbsolute@@YAXAAVSuperBlockConstants@@@Z ENDP ; PropagateConstants_StorePixelZAbsolute
_TEXT	ENDS
PUBLIC	?PropagateConstants_StoreShortVectorAbsolute@@YAXAAVSuperBlockConstants@@@Z ; PropagateConstants_StoreShortVectorAbsolute
; Function compile flags: /Odtp /RTCsu
_TEXT	SEGMENT
_constants$ = 8						; size = 4
?PropagateConstants_StoreShortVectorAbsolute@@YAXAAVSuperBlockConstants@@@Z PROC ; PropagateConstants_StoreShortVectorAbsolute

; 1046 : {

	push	ebp
	mov	ebp, esp

; 1047 :   constants.status.status = PROPAGATE_CONSTANTS_STATUS_MEM_OK;

	mov	eax, DWORD PTR _constants$[ebp]
	mov	DWORD PTR [eax+12], 4

; 1048 :   constants.SetInstructionFlags(SUPERBLOCKINFO_LOCKED);

	push	65536					; 00010000H
	mov	ecx, DWORD PTR _constants$[ebp]
	call	?SetInstructionFlags@SuperBlockConstants@@QAEXI@Z ; SuperBlockConstants::SetInstructionFlags

; 1049 : }

	cmp	ebp, esp
	call	__RTC_CheckEsp
	pop	ebp
	ret	0
?PropagateConstants_StoreShortVectorAbsolute@@YAXAAVSuperBlockConstants@@@Z ENDP ; PropagateConstants_StoreShortVectorAbsolute
_TEXT	ENDS
PUBLIC	?PropagateConstants_StoreShortVectorLinear@@YAXAAVSuperBlockConstants@@@Z ; PropagateConstants_StoreShortVectorLinear
; Function compile flags: /Odtp /RTCsu
_TEXT	SEGMENT
_destIndex$ = -4					; size = 4
_constants$ = 8						; size = 4
?PropagateConstants_StoreShortVectorLinear@@YAXAAVSuperBlockConstants@@@Z PROC ; PropagateConstants_StoreShortVectorLinear

; 1051 : {

	push	ebp
	mov	ebp, esp
	push	ecx
	mov	DWORD PTR [ebp-4], -858993460		; ccccccccH

; 1052 :   uint32 destIndex = constants.nuance->fields[FIELD_MEM_TO];

	mov	eax, DWORD PTR _constants$[ebp]
	mov	ecx, DWORD PTR [eax+4]
	mov	edx, DWORD PTR [ecx+8]
	mov	DWORD PTR _destIndex$[ebp], edx

; 1053 : 
; 1054 :   if(constants.IsScalarRegisterConstant(destIndex) && ALLOW_MEM_PROPAGATION)

	mov	eax, DWORD PTR _destIndex$[ebp]
	push	eax
	mov	ecx, DWORD PTR _constants$[ebp]
	call	?IsScalarRegisterConstant@SuperBlockConstants@@QAE_NI@Z ; SuperBlockConstants::IsScalarRegisterConstant
	movzx	ecx, al
	test	ecx, ecx
	je	SHORT $LN2@PropagateC@17
	mov	edx, 1
	test	edx, edx
	je	SHORT $LN2@PropagateC@17

; 1055 :   {
; 1056 :     constants.nuance->fields[FIELD_MEM_HANDLER] = Handler_StoreShortVectorAbsolute;

	mov	eax, DWORD PTR _constants$[ebp]
	mov	ecx, DWORD PTR [eax+4]
	mov	DWORD PTR [ecx], 195			; 000000c3H

; 1057 :     constants.nuance->fields[FIELD_MEM_TO] = constants.GetScalarRegisterConstant(destIndex);

	mov	edx, DWORD PTR _destIndex$[ebp]
	push	edx
	mov	ecx, DWORD PTR _constants$[ebp]
	call	?GetScalarRegisterConstant@SuperBlockConstants@@QAEII@Z ; SuperBlockConstants::GetScalarRegisterConstant
	mov	ecx, DWORD PTR _constants$[ebp]
	mov	edx, DWORD PTR [ecx+4]
	mov	DWORD PTR [edx+8], eax

; 1058 :     constants.nuance->fields[FIELD_MEM_POINTER] = (uint32)nuonEnv->GetPointerToMemory(constants.mpe, constants.GetScalarRegisterConstant(destIndex));

	push	1
	mov	eax, DWORD PTR _destIndex$[ebp]
	push	eax
	mov	ecx, DWORD PTR _constants$[ebp]
	call	?GetScalarRegisterConstant@SuperBlockConstants@@QAEII@Z ; SuperBlockConstants::GetScalarRegisterConstant
	push	eax
	mov	ecx, DWORD PTR _constants$[ebp]
	mov	edx, DWORD PTR [ecx]
	push	edx
	mov	ecx, DWORD PTR ?nuonEnv@@3PAVNuonEnvironment@@A ; nuonEnv
	call	?GetPointerToMemory@NuonEnvironment@@QAEPAXPAVMPE@@I_N@Z ; NuonEnvironment::GetPointerToMemory
	mov	ecx, DWORD PTR _constants$[ebp]
	mov	edx, DWORD PTR [ecx+4]
	mov	DWORD PTR [edx+16], eax

; 1059 :     constants.bConstantPropagated = true;

	mov	eax, DWORD PTR _constants$[ebp]
	mov	BYTE PTR [eax+36], 1

; 1060 :     PropagateConstants_StoreShortVectorAbsolute(constants);

	mov	ecx, DWORD PTR _constants$[ebp]
	push	ecx
	call	?PropagateConstants_StoreShortVectorAbsolute@@YAXAAVSuperBlockConstants@@@Z ; PropagateConstants_StoreShortVectorAbsolute
	add	esp, 4

; 1061 :   }
; 1062 :   else

	jmp	SHORT $LN3@PropagateC@17
$LN2@PropagateC@17:

; 1063 :   {
; 1064 :     constants.status.status = PROPAGATE_CONSTANTS_STATUS_MEM_OK;

	mov	edx, DWORD PTR _constants$[ebp]
	mov	DWORD PTR [edx+12], 4

; 1065 :     constants.SetInstructionFlags(SUPERBLOCKINFO_LOCKED);

	push	65536					; 00010000H
	mov	ecx, DWORD PTR _constants$[ebp]
	call	?SetInstructionFlags@SuperBlockConstants@@QAEXI@Z ; SuperBlockConstants::SetInstructionFlags
$LN3@PropagateC@17:

; 1066 :   }
; 1067 : }

	add	esp, 4
	cmp	ebp, esp
	call	__RTC_CheckEsp
	mov	esp, ebp
	pop	ebp
	ret	0
?PropagateConstants_StoreShortVectorLinear@@YAXAAVSuperBlockConstants@@@Z ENDP ; PropagateConstants_StoreShortVectorLinear
_TEXT	ENDS
PUBLIC	?PropagateConstants_StoreShortVectorBilinearUV@@YAXAAVSuperBlockConstants@@@Z ; PropagateConstants_StoreShortVectorBilinearUV
; Function compile flags: /Odtp /RTCsu
_TEXT	SEGMENT
_constants$ = 8						; size = 4
?PropagateConstants_StoreShortVectorBilinearUV@@YAXAAVSuperBlockConstants@@@Z PROC ; PropagateConstants_StoreShortVectorBilinearUV

; 1069 : {

	push	ebp
	mov	ebp, esp

; 1070 :   constants.status.status = PROPAGATE_CONSTANTS_STATUS_MEM_OK;

	mov	eax, DWORD PTR _constants$[ebp]
	mov	DWORD PTR [eax+12], 4

; 1071 :   constants.SetInstructionFlags(SUPERBLOCKINFO_LOCKED);

	push	65536					; 00010000H
	mov	ecx, DWORD PTR _constants$[ebp]
	call	?SetInstructionFlags@SuperBlockConstants@@QAEXI@Z ; SuperBlockConstants::SetInstructionFlags

; 1072 : }

	cmp	ebp, esp
	call	__RTC_CheckEsp
	pop	ebp
	ret	0
?PropagateConstants_StoreShortVectorBilinearUV@@YAXAAVSuperBlockConstants@@@Z ENDP ; PropagateConstants_StoreShortVectorBilinearUV
_TEXT	ENDS
PUBLIC	?PropagateConstants_StoreShortVectorBilinearXY@@YAXAAVSuperBlockConstants@@@Z ; PropagateConstants_StoreShortVectorBilinearXY
; Function compile flags: /Odtp /RTCsu
_TEXT	SEGMENT
_constants$ = 8						; size = 4
?PropagateConstants_StoreShortVectorBilinearXY@@YAXAAVSuperBlockConstants@@@Z PROC ; PropagateConstants_StoreShortVectorBilinearXY

; 1074 : {

	push	ebp
	mov	ebp, esp

; 1075 :   constants.status.status = PROPAGATE_CONSTANTS_STATUS_MEM_OK;

	mov	eax, DWORD PTR _constants$[ebp]
	mov	DWORD PTR [eax+12], 4

; 1076 :   constants.SetInstructionFlags(SUPERBLOCKINFO_LOCKED);

	push	65536					; 00010000H
	mov	ecx, DWORD PTR _constants$[ebp]
	call	?SetInstructionFlags@SuperBlockConstants@@QAEXI@Z ; SuperBlockConstants::SetInstructionFlags

; 1077 : }

	cmp	ebp, esp
	call	__RTC_CheckEsp
	pop	ebp
	ret	0
?PropagateConstants_StoreShortVectorBilinearXY@@YAXAAVSuperBlockConstants@@@Z ENDP ; PropagateConstants_StoreShortVectorBilinearXY
_TEXT	ENDS
PUBLIC	?PropagateConstants_StoreVectorAbsolute@@YAXAAVSuperBlockConstants@@@Z ; PropagateConstants_StoreVectorAbsolute
; Function compile flags: /Odtp /RTCsu
_TEXT	SEGMENT
_constants$ = 8						; size = 4
?PropagateConstants_StoreVectorAbsolute@@YAXAAVSuperBlockConstants@@@Z PROC ; PropagateConstants_StoreVectorAbsolute

; 1079 : {

	push	ebp
	mov	ebp, esp

; 1080 :   constants.status.status = PROPAGATE_CONSTANTS_STATUS_MEM_OK;

	mov	eax, DWORD PTR _constants$[ebp]
	mov	DWORD PTR [eax+12], 4

; 1081 :   constants.SetInstructionFlags(SUPERBLOCKINFO_LOCKED);

	push	65536					; 00010000H
	mov	ecx, DWORD PTR _constants$[ebp]
	call	?SetInstructionFlags@SuperBlockConstants@@QAEXI@Z ; SuperBlockConstants::SetInstructionFlags

; 1082 : }

	cmp	ebp, esp
	call	__RTC_CheckEsp
	pop	ebp
	ret	0
?PropagateConstants_StoreVectorAbsolute@@YAXAAVSuperBlockConstants@@@Z ENDP ; PropagateConstants_StoreVectorAbsolute
_TEXT	ENDS
PUBLIC	?PropagateConstants_StoreVectorLinear@@YAXAAVSuperBlockConstants@@@Z ; PropagateConstants_StoreVectorLinear
; Function compile flags: /Odtp /RTCsu
_TEXT	SEGMENT
_destIndex$ = -4					; size = 4
_constants$ = 8						; size = 4
?PropagateConstants_StoreVectorLinear@@YAXAAVSuperBlockConstants@@@Z PROC ; PropagateConstants_StoreVectorLinear

; 1084 : {

	push	ebp
	mov	ebp, esp
	push	ecx
	mov	DWORD PTR [ebp-4], -858993460		; ccccccccH

; 1085 :   uint32 destIndex = constants.nuance->fields[FIELD_MEM_TO];

	mov	eax, DWORD PTR _constants$[ebp]
	mov	ecx, DWORD PTR [eax+4]
	mov	edx, DWORD PTR [ecx+8]
	mov	DWORD PTR _destIndex$[ebp], edx

; 1086 : 
; 1087 :   if(constants.IsScalarRegisterConstant(destIndex) && ALLOW_MEM_PROPAGATION)

	mov	eax, DWORD PTR _destIndex$[ebp]
	push	eax
	mov	ecx, DWORD PTR _constants$[ebp]
	call	?IsScalarRegisterConstant@SuperBlockConstants@@QAE_NI@Z ; SuperBlockConstants::IsScalarRegisterConstant
	movzx	ecx, al
	test	ecx, ecx
	je	SHORT $LN2@PropagateC@18
	mov	edx, 1
	test	edx, edx
	je	SHORT $LN2@PropagateC@18

; 1088 :   {
; 1089 :     constants.nuance->fields[FIELD_MEM_HANDLER] = Handler_StoreVectorAbsolute;

	mov	eax, DWORD PTR _constants$[ebp]
	mov	ecx, DWORD PTR [eax+4]
	mov	DWORD PTR [ecx], 196			; 000000c4H

; 1090 :     constants.nuance->fields[FIELD_MEM_TO] = constants.GetScalarRegisterConstant(destIndex);

	mov	edx, DWORD PTR _destIndex$[ebp]
	push	edx
	mov	ecx, DWORD PTR _constants$[ebp]
	call	?GetScalarRegisterConstant@SuperBlockConstants@@QAEII@Z ; SuperBlockConstants::GetScalarRegisterConstant
	mov	ecx, DWORD PTR _constants$[ebp]
	mov	edx, DWORD PTR [ecx+4]
	mov	DWORD PTR [edx+8], eax

; 1091 :     constants.nuance->fields[FIELD_MEM_POINTER] = (uint32)nuonEnv->GetPointerToMemory(constants.mpe, constants.GetScalarRegisterConstant(destIndex));

	push	1
	mov	eax, DWORD PTR _destIndex$[ebp]
	push	eax
	mov	ecx, DWORD PTR _constants$[ebp]
	call	?GetScalarRegisterConstant@SuperBlockConstants@@QAEII@Z ; SuperBlockConstants::GetScalarRegisterConstant
	push	eax
	mov	ecx, DWORD PTR _constants$[ebp]
	mov	edx, DWORD PTR [ecx]
	push	edx
	mov	ecx, DWORD PTR ?nuonEnv@@3PAVNuonEnvironment@@A ; nuonEnv
	call	?GetPointerToMemory@NuonEnvironment@@QAEPAXPAVMPE@@I_N@Z ; NuonEnvironment::GetPointerToMemory
	mov	ecx, DWORD PTR _constants$[ebp]
	mov	edx, DWORD PTR [ecx+4]
	mov	DWORD PTR [edx+16], eax

; 1092 :     constants.bConstantPropagated = true;

	mov	eax, DWORD PTR _constants$[ebp]
	mov	BYTE PTR [eax+36], 1

; 1093 :     PropagateConstants_StoreVectorAbsolute(constants);

	mov	ecx, DWORD PTR _constants$[ebp]
	push	ecx
	call	?PropagateConstants_StoreVectorAbsolute@@YAXAAVSuperBlockConstants@@@Z ; PropagateConstants_StoreVectorAbsolute
	add	esp, 4

; 1094 :   }
; 1095 :   else

	jmp	SHORT $LN3@PropagateC@18
$LN2@PropagateC@18:

; 1096 :   {
; 1097 :     constants.status.status = PROPAGATE_CONSTANTS_STATUS_MEM_OK;

	mov	edx, DWORD PTR _constants$[ebp]
	mov	DWORD PTR [edx+12], 4

; 1098 :     constants.SetInstructionFlags(SUPERBLOCKINFO_LOCKED);

	push	65536					; 00010000H
	mov	ecx, DWORD PTR _constants$[ebp]
	call	?SetInstructionFlags@SuperBlockConstants@@QAEXI@Z ; SuperBlockConstants::SetInstructionFlags
$LN3@PropagateC@18:

; 1099 :   }
; 1100 : }

	add	esp, 4
	cmp	ebp, esp
	call	__RTC_CheckEsp
	mov	esp, ebp
	pop	ebp
	ret	0
?PropagateConstants_StoreVectorLinear@@YAXAAVSuperBlockConstants@@@Z ENDP ; PropagateConstants_StoreVectorLinear
_TEXT	ENDS
PUBLIC	?PropagateConstants_StoreVectorBilinearUV@@YAXAAVSuperBlockConstants@@@Z ; PropagateConstants_StoreVectorBilinearUV
; Function compile flags: /Odtp /RTCsu
_TEXT	SEGMENT
_constants$ = 8						; size = 4
?PropagateConstants_StoreVectorBilinearUV@@YAXAAVSuperBlockConstants@@@Z PROC ; PropagateConstants_StoreVectorBilinearUV

; 1102 : {

	push	ebp
	mov	ebp, esp

; 1103 :   constants.status.status = PROPAGATE_CONSTANTS_STATUS_MEM_OK;

	mov	eax, DWORD PTR _constants$[ebp]
	mov	DWORD PTR [eax+12], 4

; 1104 :   constants.SetInstructionFlags(SUPERBLOCKINFO_LOCKED);

	push	65536					; 00010000H
	mov	ecx, DWORD PTR _constants$[ebp]
	call	?SetInstructionFlags@SuperBlockConstants@@QAEXI@Z ; SuperBlockConstants::SetInstructionFlags

; 1105 : }

	cmp	ebp, esp
	call	__RTC_CheckEsp
	pop	ebp
	ret	0
?PropagateConstants_StoreVectorBilinearUV@@YAXAAVSuperBlockConstants@@@Z ENDP ; PropagateConstants_StoreVectorBilinearUV
_TEXT	ENDS
PUBLIC	?PropagateConstants_StoreVectorBilinearXY@@YAXAAVSuperBlockConstants@@@Z ; PropagateConstants_StoreVectorBilinearXY
; Function compile flags: /Odtp /RTCsu
_TEXT	SEGMENT
_constants$ = 8						; size = 4
?PropagateConstants_StoreVectorBilinearXY@@YAXAAVSuperBlockConstants@@@Z PROC ; PropagateConstants_StoreVectorBilinearXY

; 1107 : {

	push	ebp
	mov	ebp, esp

; 1108 :   constants.status.status = PROPAGATE_CONSTANTS_STATUS_MEM_OK;

	mov	eax, DWORD PTR _constants$[ebp]
	mov	DWORD PTR [eax+12], 4

; 1109 :   constants.SetInstructionFlags(SUPERBLOCKINFO_LOCKED);

	push	65536					; 00010000H
	mov	ecx, DWORD PTR _constants$[ebp]
	call	?SetInstructionFlags@SuperBlockConstants@@QAEXI@Z ; SuperBlockConstants::SetInstructionFlags

; 1110 : }

	cmp	ebp, esp
	call	__RTC_CheckEsp
	pop	ebp
	ret	0
?PropagateConstants_StoreVectorBilinearXY@@YAXAAVSuperBlockConstants@@@Z ENDP ; PropagateConstants_StoreVectorBilinearXY
_TEXT	ENDS
PUBLIC	?PropagateConstants_StorePixelLinear@@YAXAAVSuperBlockConstants@@@Z ; PropagateConstants_StorePixelLinear
; Function compile flags: /Odtp /RTCsu
_TEXT	SEGMENT
_destIndex$ = -4					; size = 4
_constants$ = 8						; size = 4
?PropagateConstants_StorePixelLinear@@YAXAAVSuperBlockConstants@@@Z PROC ; PropagateConstants_StorePixelLinear

; 1113 : {

	push	ebp
	mov	ebp, esp
	push	ecx
	mov	DWORD PTR [ebp-4], -858993460		; ccccccccH

; 1114 :   uint32 destIndex = constants.nuance->fields[FIELD_MEM_TO];

	mov	eax, DWORD PTR _constants$[ebp]
	mov	ecx, DWORD PTR [eax+4]
	mov	edx, DWORD PTR [ecx+8]
	mov	DWORD PTR _destIndex$[ebp], edx

; 1115 : 
; 1116 :   if(constants.IsScalarRegisterConstant(destIndex) && ALLOW_MEM_PROPAGATION)

	mov	eax, DWORD PTR _destIndex$[ebp]
	push	eax
	mov	ecx, DWORD PTR _constants$[ebp]
	call	?IsScalarRegisterConstant@SuperBlockConstants@@QAE_NI@Z ; SuperBlockConstants::IsScalarRegisterConstant
	movzx	ecx, al
	test	ecx, ecx
	je	SHORT $LN2@PropagateC@19
	mov	edx, 1
	test	edx, edx
	je	SHORT $LN2@PropagateC@19

; 1117 :   {
; 1118 :     constants.nuance->fields[FIELD_MEM_HANDLER] = Handler_StorePixelAbsolute;

	mov	eax, DWORD PTR _constants$[ebp]
	mov	ecx, DWORD PTR [eax+4]
	mov	DWORD PTR [ecx], 198			; 000000c6H

; 1119 :     constants.nuance->fields[FIELD_MEM_INFO] = MEM_INFO_LINEAR_INDIRECT;

	mov	edx, DWORD PTR _constants$[ebp]
	mov	eax, DWORD PTR [edx+4]
	mov	DWORD PTR [eax+4], 2

; 1120 :     constants.nuance->fields[FIELD_MEM_TO] = constants.GetScalarRegisterConstant(destIndex);

	mov	ecx, DWORD PTR _destIndex$[ebp]
	push	ecx
	mov	ecx, DWORD PTR _constants$[ebp]
	call	?GetScalarRegisterConstant@SuperBlockConstants@@QAEII@Z ; SuperBlockConstants::GetScalarRegisterConstant
	mov	edx, DWORD PTR _constants$[ebp]
	mov	ecx, DWORD PTR [edx+4]
	mov	DWORD PTR [ecx+8], eax

; 1121 :     constants.nuance->fields[FIELD_MEM_POINTER] = (uint32)nuonEnv->GetPointerToMemory(constants.mpe, constants.GetScalarRegisterConstant(destIndex));

	push	1
	mov	edx, DWORD PTR _destIndex$[ebp]
	push	edx
	mov	ecx, DWORD PTR _constants$[ebp]
	call	?GetScalarRegisterConstant@SuperBlockConstants@@QAEII@Z ; SuperBlockConstants::GetScalarRegisterConstant
	push	eax
	mov	eax, DWORD PTR _constants$[ebp]
	mov	ecx, DWORD PTR [eax]
	push	ecx
	mov	ecx, DWORD PTR ?nuonEnv@@3PAVNuonEnvironment@@A ; nuonEnv
	call	?GetPointerToMemory@NuonEnvironment@@QAEPAXPAVMPE@@I_N@Z ; NuonEnvironment::GetPointerToMemory
	mov	edx, DWORD PTR _constants$[ebp]
	mov	ecx, DWORD PTR [edx+4]
	mov	DWORD PTR [ecx+16], eax

; 1122 :     constants.bConstantPropagated = true;

	mov	edx, DWORD PTR _constants$[ebp]
	mov	BYTE PTR [edx+36], 1

; 1123 :     PropagateConstants_StorePixelAbsolute(constants);

	mov	eax, DWORD PTR _constants$[ebp]
	push	eax
	call	?PropagateConstants_StorePixelAbsolute@@YAXAAVSuperBlockConstants@@@Z ; PropagateConstants_StorePixelAbsolute
	add	esp, 4

; 1124 :   }
; 1125 :   else

	jmp	SHORT $LN3@PropagateC@19
$LN2@PropagateC@19:

; 1126 :   {
; 1127 :     constants.status.status = PROPAGATE_CONSTANTS_STATUS_MEM_OK;

	mov	ecx, DWORD PTR _constants$[ebp]
	mov	DWORD PTR [ecx+12], 4

; 1128 :     constants.SetInstructionFlags(SUPERBLOCKINFO_LOCKED);

	push	65536					; 00010000H
	mov	ecx, DWORD PTR _constants$[ebp]
	call	?SetInstructionFlags@SuperBlockConstants@@QAEXI@Z ; SuperBlockConstants::SetInstructionFlags
$LN3@PropagateC@19:

; 1129 :   }
; 1130 : }

	add	esp, 4
	cmp	ebp, esp
	call	__RTC_CheckEsp
	mov	esp, ebp
	pop	ebp
	ret	0
?PropagateConstants_StorePixelLinear@@YAXAAVSuperBlockConstants@@@Z ENDP ; PropagateConstants_StorePixelLinear
_TEXT	ENDS
PUBLIC	?PropagateConstants_StorePixelBilinearUV@@YAXAAVSuperBlockConstants@@@Z ; PropagateConstants_StorePixelBilinearUV
; Function compile flags: /Odtp /RTCsu
_TEXT	SEGMENT
_constants$ = 8						; size = 4
?PropagateConstants_StorePixelBilinearUV@@YAXAAVSuperBlockConstants@@@Z PROC ; PropagateConstants_StorePixelBilinearUV

; 1132 : {

	push	ebp
	mov	ebp, esp

; 1133 :   constants.status.status = PROPAGATE_CONSTANTS_STATUS_MEM_OK;

	mov	eax, DWORD PTR _constants$[ebp]
	mov	DWORD PTR [eax+12], 4

; 1134 :   constants.SetInstructionFlags(SUPERBLOCKINFO_LOCKED);

	push	65536					; 00010000H
	mov	ecx, DWORD PTR _constants$[ebp]
	call	?SetInstructionFlags@SuperBlockConstants@@QAEXI@Z ; SuperBlockConstants::SetInstructionFlags

; 1135 : }

	cmp	ebp, esp
	call	__RTC_CheckEsp
	pop	ebp
	ret	0
?PropagateConstants_StorePixelBilinearUV@@YAXAAVSuperBlockConstants@@@Z ENDP ; PropagateConstants_StorePixelBilinearUV
_TEXT	ENDS
PUBLIC	?PropagateConstants_StorePixelBilinearXY@@YAXAAVSuperBlockConstants@@@Z ; PropagateConstants_StorePixelBilinearXY
; Function compile flags: /Odtp /RTCsu
_TEXT	SEGMENT
_constants$ = 8						; size = 4
?PropagateConstants_StorePixelBilinearXY@@YAXAAVSuperBlockConstants@@@Z PROC ; PropagateConstants_StorePixelBilinearXY

; 1137 : {

	push	ebp
	mov	ebp, esp

; 1138 :   constants.status.status = PROPAGATE_CONSTANTS_STATUS_MEM_OK;

	mov	eax, DWORD PTR _constants$[ebp]
	mov	DWORD PTR [eax+12], 4

; 1139 :   constants.SetInstructionFlags(SUPERBLOCKINFO_LOCKED);

	push	65536					; 00010000H
	mov	ecx, DWORD PTR _constants$[ebp]
	call	?SetInstructionFlags@SuperBlockConstants@@QAEXI@Z ; SuperBlockConstants::SetInstructionFlags

; 1140 : }

	cmp	ebp, esp
	call	__RTC_CheckEsp
	pop	ebp
	ret	0
?PropagateConstants_StorePixelBilinearXY@@YAXAAVSuperBlockConstants@@@Z ENDP ; PropagateConstants_StorePixelBilinearXY
_TEXT	ENDS
PUBLIC	?PropagateConstants_StorePixelZLinear@@YAXAAVSuperBlockConstants@@@Z ; PropagateConstants_StorePixelZLinear
; Function compile flags: /Odtp /RTCsu
_TEXT	SEGMENT
_destIndex$ = -4					; size = 4
_constants$ = 8						; size = 4
?PropagateConstants_StorePixelZLinear@@YAXAAVSuperBlockConstants@@@Z PROC ; PropagateConstants_StorePixelZLinear

; 1142 : {

	push	ebp
	mov	ebp, esp
	push	ecx
	mov	DWORD PTR [ebp-4], -858993460		; ccccccccH

; 1143 :   uint32 destIndex = constants.nuance->fields[FIELD_MEM_TO];

	mov	eax, DWORD PTR _constants$[ebp]
	mov	ecx, DWORD PTR [eax+4]
	mov	edx, DWORD PTR [ecx+8]
	mov	DWORD PTR _destIndex$[ebp], edx

; 1144 : 
; 1145 :   if(constants.IsScalarRegisterConstant(destIndex) && ALLOW_MEM_PROPAGATION)

	mov	eax, DWORD PTR _destIndex$[ebp]
	push	eax
	mov	ecx, DWORD PTR _constants$[ebp]
	call	?IsScalarRegisterConstant@SuperBlockConstants@@QAE_NI@Z ; SuperBlockConstants::IsScalarRegisterConstant
	movzx	ecx, al
	test	ecx, ecx
	je	SHORT $LN2@PropagateC@20
	mov	edx, 1
	test	edx, edx
	je	SHORT $LN2@PropagateC@20

; 1146 :   {
; 1147 :     constants.nuance->fields[FIELD_MEM_HANDLER] = Handler_StorePixelZAbsolute;

	mov	eax, DWORD PTR _constants$[ebp]
	mov	ecx, DWORD PTR [eax+4]
	mov	DWORD PTR [ecx], 199			; 000000c7H

; 1148 :     constants.nuance->fields[FIELD_MEM_INFO] = MEM_INFO_LINEAR_INDIRECT;

	mov	edx, DWORD PTR _constants$[ebp]
	mov	eax, DWORD PTR [edx+4]
	mov	DWORD PTR [eax+4], 2

; 1149 :     constants.nuance->fields[FIELD_MEM_TO] = constants.GetScalarRegisterConstant(destIndex);

	mov	ecx, DWORD PTR _destIndex$[ebp]
	push	ecx
	mov	ecx, DWORD PTR _constants$[ebp]
	call	?GetScalarRegisterConstant@SuperBlockConstants@@QAEII@Z ; SuperBlockConstants::GetScalarRegisterConstant
	mov	edx, DWORD PTR _constants$[ebp]
	mov	ecx, DWORD PTR [edx+4]
	mov	DWORD PTR [ecx+8], eax

; 1150 :     constants.nuance->fields[FIELD_MEM_POINTER] = (uint32)nuonEnv->GetPointerToMemory(constants.mpe, constants.GetScalarRegisterConstant(destIndex));

	push	1
	mov	edx, DWORD PTR _destIndex$[ebp]
	push	edx
	mov	ecx, DWORD PTR _constants$[ebp]
	call	?GetScalarRegisterConstant@SuperBlockConstants@@QAEII@Z ; SuperBlockConstants::GetScalarRegisterConstant
	push	eax
	mov	eax, DWORD PTR _constants$[ebp]
	mov	ecx, DWORD PTR [eax]
	push	ecx
	mov	ecx, DWORD PTR ?nuonEnv@@3PAVNuonEnvironment@@A ; nuonEnv
	call	?GetPointerToMemory@NuonEnvironment@@QAEPAXPAVMPE@@I_N@Z ; NuonEnvironment::GetPointerToMemory
	mov	edx, DWORD PTR _constants$[ebp]
	mov	ecx, DWORD PTR [edx+4]
	mov	DWORD PTR [ecx+16], eax

; 1151 :     constants.bConstantPropagated = true;

	mov	edx, DWORD PTR _constants$[ebp]
	mov	BYTE PTR [edx+36], 1

; 1152 :     PropagateConstants_StorePixelZAbsolute(constants);

	mov	eax, DWORD PTR _constants$[ebp]
	push	eax
	call	?PropagateConstants_StorePixelZAbsolute@@YAXAAVSuperBlockConstants@@@Z ; PropagateConstants_StorePixelZAbsolute
	add	esp, 4

; 1153 :   }
; 1154 :   else

	jmp	SHORT $LN3@PropagateC@20
$LN2@PropagateC@20:

; 1155 :   {
; 1156 :     constants.status.status = PROPAGATE_CONSTANTS_STATUS_MEM_OK;

	mov	ecx, DWORD PTR _constants$[ebp]
	mov	DWORD PTR [ecx+12], 4

; 1157 :     constants.SetInstructionFlags(SUPERBLOCKINFO_LOCKED);

	push	65536					; 00010000H
	mov	ecx, DWORD PTR _constants$[ebp]
	call	?SetInstructionFlags@SuperBlockConstants@@QAEXI@Z ; SuperBlockConstants::SetInstructionFlags
$LN3@PropagateC@20:

; 1158 :   }
; 1159 : }

	add	esp, 4
	cmp	ebp, esp
	call	__RTC_CheckEsp
	mov	esp, ebp
	pop	ebp
	ret	0
?PropagateConstants_StorePixelZLinear@@YAXAAVSuperBlockConstants@@@Z ENDP ; PropagateConstants_StorePixelZLinear
_TEXT	ENDS
PUBLIC	?PropagateConstants_StorePixelZBilinearUV@@YAXAAVSuperBlockConstants@@@Z ; PropagateConstants_StorePixelZBilinearUV
; Function compile flags: /Odtp /RTCsu
_TEXT	SEGMENT
_constants$ = 8						; size = 4
?PropagateConstants_StorePixelZBilinearUV@@YAXAAVSuperBlockConstants@@@Z PROC ; PropagateConstants_StorePixelZBilinearUV

; 1161 : {

	push	ebp
	mov	ebp, esp

; 1162 :   constants.status.status = PROPAGATE_CONSTANTS_STATUS_MEM_OK;

	mov	eax, DWORD PTR _constants$[ebp]
	mov	DWORD PTR [eax+12], 4

; 1163 :   constants.SetInstructionFlags(SUPERBLOCKINFO_LOCKED);

	push	65536					; 00010000H
	mov	ecx, DWORD PTR _constants$[ebp]
	call	?SetInstructionFlags@SuperBlockConstants@@QAEXI@Z ; SuperBlockConstants::SetInstructionFlags

; 1164 : }

	cmp	ebp, esp
	call	__RTC_CheckEsp
	pop	ebp
	ret	0
?PropagateConstants_StorePixelZBilinearUV@@YAXAAVSuperBlockConstants@@@Z ENDP ; PropagateConstants_StorePixelZBilinearUV
_TEXT	ENDS
PUBLIC	?PropagateConstants_StorePixelZBilinearXY@@YAXAAVSuperBlockConstants@@@Z ; PropagateConstants_StorePixelZBilinearXY
; Function compile flags: /Odtp /RTCsu
_TEXT	SEGMENT
_constants$ = 8						; size = 4
?PropagateConstants_StorePixelZBilinearXY@@YAXAAVSuperBlockConstants@@@Z PROC ; PropagateConstants_StorePixelZBilinearXY

; 1166 : {

	push	ebp
	mov	ebp, esp

; 1167 :   constants.status.status = PROPAGATE_CONSTANTS_STATUS_MEM_OK;

	mov	eax, DWORD PTR _constants$[ebp]
	mov	DWORD PTR [eax+12], 4

; 1168 :   constants.SetInstructionFlags(SUPERBLOCKINFO_LOCKED);

	push	65536					; 00010000H
	mov	ecx, DWORD PTR _constants$[ebp]
	call	?SetInstructionFlags@SuperBlockConstants@@QAEXI@Z ; SuperBlockConstants::SetInstructionFlags

; 1169 : }

	cmp	ebp, esp
	call	__RTC_CheckEsp
	pop	ebp
	ret	0
?PropagateConstants_StorePixelZBilinearXY@@YAXAAVSuperBlockConstants@@@Z ENDP ; PropagateConstants_StorePixelZBilinearXY
_TEXT	ENDS
END
