; Listing generated by Microsoft (R) Optimizing Compiler Version 14.00.50727.762 

	TITLE	c:\NuanceExperimental\mpe.cpp
	.686P
	.XMM
	include listing.inc
	.model	flat

INCLUDELIB LIBCMT
INCLUDELIB OLDNAMES

PUBLIC	?timer_start@@3_KA				; timer_start
PUBLIC	?mirrorLookup@MPE@@2PAEA			; MPE::mirrorLookup
PUBLIC	?timeDelta@@3NA					; timeDelta
PUBLIC	?timer_end@@3_KA				; timer_end
PUBLIC	?nuanceHandlers@@3PAP6AXAAVMPE@@AAVInstructionCacheEntry@@AAVNuance@@@ZA ; nuanceHandlers
PUBLIC	?printHandlers@@3PAP6AIPADAAVNuance@@_N@ZA	; printHandlers
PUBLIC	?emitHandlers@@3PAP6AXPAVEmitterVariables@@AAVNuance@@@ZA ; emitHandlers
PUBLIC	?logfile@@3PAU_iobuf@@A				; logfile
EXTRN	?Emit_SaveRegs@@YAXPAVEmitterVariables@@AAVNuance@@@Z:PROC ; Emit_SaveRegs
EXTRN	?Emit_StoreMiscRegisterConstant@@YAXPAVEmitterVariables@@AAVNuance@@@Z:PROC ; Emit_StoreMiscRegisterConstant
EXTRN	?Emit_StoreScalarRegisterConstant@@YAXPAVEmitterVariables@@AAVNuance@@@Z:PROC ; Emit_StoreScalarRegisterConstant
EXTRN	?Emit_StoreScalarImmediate@@YAXPAVEmitterVariables@@AAVNuance@@@Z:PROC ; Emit_StoreScalarImmediate
EXTRN	?Emit_StoreScalarControlRegisterImmediate@@YAXPAVEmitterVariables@@AAVNuance@@@Z:PROC ; Emit_StoreScalarControlRegisterImmediate
EXTRN	?Emit_StorePixelZBilinearXY@@YAXPAVEmitterVariables@@AAVNuance@@@Z:PROC ; Emit_StorePixelZBilinearXY
EXTRN	?Emit_StorePixelZBilinearUV@@YAXPAVEmitterVariables@@AAVNuance@@@Z:PROC ; Emit_StorePixelZBilinearUV
EXTRN	?Emit_StorePixelZLinear@@YAXPAVEmitterVariables@@AAVNuance@@@Z:PROC ; Emit_StorePixelZLinear
EXTRN	?Emit_StorePixelBilinearXY@@YAXPAVEmitterVariables@@AAVNuance@@@Z:PROC ; Emit_StorePixelBilinearXY
EXTRN	?Emit_StorePixelBilinearUV@@YAXPAVEmitterVariables@@AAVNuance@@@Z:PROC ; Emit_StorePixelBilinearUV
EXTRN	?Emit_StorePixelLinear@@YAXPAVEmitterVariables@@AAVNuance@@@Z:PROC ; Emit_StorePixelLinear
EXTRN	?Emit_StoreVectorBilinearXY@@YAXPAVEmitterVariables@@AAVNuance@@@Z:PROC ; Emit_StoreVectorBilinearXY
EXTRN	?Emit_StoreVectorBilinearUV@@YAXPAVEmitterVariables@@AAVNuance@@@Z:PROC ; Emit_StoreVectorBilinearUV
EXTRN	?Emit_StoreVectorLinear@@YAXPAVEmitterVariables@@AAVNuance@@@Z:PROC ; Emit_StoreVectorLinear
EXTRN	?Emit_StoreShortVectorBilinearXY@@YAXPAVEmitterVariables@@AAVNuance@@@Z:PROC ; Emit_StoreShortVectorBilinearXY
EXTRN	?Emit_StoreShortVectorBilinearUV@@YAXPAVEmitterVariables@@AAVNuance@@@Z:PROC ; Emit_StoreShortVectorBilinearUV
EXTRN	?Emit_StoreShortVectorLinear@@YAXPAVEmitterVariables@@AAVNuance@@@Z:PROC ; Emit_StoreShortVectorLinear
EXTRN	?Emit_StoreScalarBilinearXY@@YAXPAVEmitterVariables@@AAVNuance@@@Z:PROC ; Emit_StoreScalarBilinearXY
EXTRN	?Emit_StoreScalarBilinearUV@@YAXPAVEmitterVariables@@AAVNuance@@@Z:PROC ; Emit_StoreScalarBilinearUV
EXTRN	?Emit_StoreScalarLinear@@YAXPAVEmitterVariables@@AAVNuance@@@Z:PROC ; Emit_StoreScalarLinear
EXTRN	?Emit_StorePixelZAbsolute@@YAXPAVEmitterVariables@@AAVNuance@@@Z:PROC ; Emit_StorePixelZAbsolute
EXTRN	?Emit_StorePixelAbsolute@@YAXPAVEmitterVariables@@AAVNuance@@@Z:PROC ; Emit_StorePixelAbsolute
EXTRN	?Emit_StoreVectorAbsolute@@YAXPAVEmitterVariables@@AAVNuance@@@Z:PROC ; Emit_StoreVectorAbsolute
EXTRN	?Emit_StoreShortVectorAbsolute@@YAXPAVEmitterVariables@@AAVNuance@@@Z:PROC ; Emit_StoreShortVectorAbsolute
EXTRN	?Emit_StoreScalarControlRegisterAbsolute@@YAXPAVEmitterVariables@@AAVNuance@@@Z:PROC ; Emit_StoreScalarControlRegisterAbsolute
EXTRN	?Emit_StoreScalarAbsolute@@YAXPAVEmitterVariables@@AAVNuance@@@Z:PROC ; Emit_StoreScalarAbsolute
EXTRN	?Emit_LoadPixelZBilinearXY@@YAXPAVEmitterVariables@@AAVNuance@@@Z:PROC ; Emit_LoadPixelZBilinearXY
EXTRN	?Emit_LoadPixelZBilinearUV@@YAXPAVEmitterVariables@@AAVNuance@@@Z:PROC ; Emit_LoadPixelZBilinearUV
EXTRN	?Emit_LoadPixelZLinear@@YAXPAVEmitterVariables@@AAVNuance@@@Z:PROC ; Emit_LoadPixelZLinear
EXTRN	?Emit_LoadPixelBilinearXY@@YAXPAVEmitterVariables@@AAVNuance@@@Z:PROC ; Emit_LoadPixelBilinearXY
EXTRN	?Emit_LoadPixelBilinearUV@@YAXPAVEmitterVariables@@AAVNuance@@@Z:PROC ; Emit_LoadPixelBilinearUV
EXTRN	?Emit_LoadPixelLinear@@YAXPAVEmitterVariables@@AAVNuance@@@Z:PROC ; Emit_LoadPixelLinear
EXTRN	?Emit_LoadVectorBilinearXY@@YAXPAVEmitterVariables@@AAVNuance@@@Z:PROC ; Emit_LoadVectorBilinearXY
EXTRN	?Emit_LoadVectorBilinearUV@@YAXPAVEmitterVariables@@AAVNuance@@@Z:PROC ; Emit_LoadVectorBilinearUV
EXTRN	?Emit_LoadVectorLinear@@YAXPAVEmitterVariables@@AAVNuance@@@Z:PROC ; Emit_LoadVectorLinear
EXTRN	?Emit_LoadShortVectorBilinearXY@@YAXPAVEmitterVariables@@AAVNuance@@@Z:PROC ; Emit_LoadShortVectorBilinearXY
EXTRN	?Emit_LoadShortVectorBilinearUV@@YAXPAVEmitterVariables@@AAVNuance@@@Z:PROC ; Emit_LoadShortVectorBilinearUV
EXTRN	?Emit_LoadShortVectorLinear@@YAXPAVEmitterVariables@@AAVNuance@@@Z:PROC ; Emit_LoadShortVectorLinear
EXTRN	?Emit_LoadScalarBilinearXY@@YAXPAVEmitterVariables@@AAVNuance@@@Z:PROC ; Emit_LoadScalarBilinearXY
EXTRN	?Emit_LoadScalarBilinearUV@@YAXPAVEmitterVariables@@AAVNuance@@@Z:PROC ; Emit_LoadScalarBilinearUV
EXTRN	?Emit_LoadWordBilinearXY@@YAXPAVEmitterVariables@@AAVNuance@@@Z:PROC ; Emit_LoadWordBilinearXY
EXTRN	?Emit_LoadWordBilinearUV@@YAXPAVEmitterVariables@@AAVNuance@@@Z:PROC ; Emit_LoadWordBilinearUV
EXTRN	?Emit_LoadWordLinear@@YAXPAVEmitterVariables@@AAVNuance@@@Z:PROC ; Emit_LoadWordLinear
EXTRN	?Emit_LoadByteBilinearXY@@YAXPAVEmitterVariables@@AAVNuance@@@Z:PROC ; Emit_LoadByteBilinearXY
EXTRN	?Emit_LoadByteBilinearUV@@YAXPAVEmitterVariables@@AAVNuance@@@Z:PROC ; Emit_LoadByteBilinearUV
EXTRN	?Emit_LoadByteLinear@@YAXPAVEmitterVariables@@AAVNuance@@@Z:PROC ; Emit_LoadByteLinear
EXTRN	?Emit_LoadPixelZAbsolute@@YAXPAVEmitterVariables@@AAVNuance@@@Z:PROC ; Emit_LoadPixelZAbsolute
EXTRN	?Emit_LoadPixelAbsolute@@YAXPAVEmitterVariables@@AAVNuance@@@Z:PROC ; Emit_LoadPixelAbsolute
EXTRN	?Emit_LoadVectorAbsolute@@YAXPAVEmitterVariables@@AAVNuance@@@Z:PROC ; Emit_LoadVectorAbsolute
EXTRN	?Emit_LoadShortVectorAbsolute@@YAXPAVEmitterVariables@@AAVNuance@@@Z:PROC ; Emit_LoadShortVectorAbsolute
EXTRN	?Emit_LoadScalarAbsolute@@YAXPAVEmitterVariables@@AAVNuance@@@Z:PROC ; Emit_LoadScalarAbsolute
EXTRN	?Emit_LoadWordAbsolute@@YAXPAVEmitterVariables@@AAVNuance@@@Z:PROC ; Emit_LoadWordAbsolute
EXTRN	?Emit_LoadByteAbsolute@@YAXPAVEmitterVariables@@AAVNuance@@@Z:PROC ; Emit_LoadByteAbsolute
EXTRN	?Emit_LoadScalarControlRegisterAbsolute@@YAXPAVEmitterVariables@@AAVNuance@@@Z:PROC ; Emit_LoadScalarControlRegisterAbsolute
EXTRN	?Emit_LoadScalarLinear@@YAXPAVEmitterVariables@@AAVNuance@@@Z:PROC ; Emit_LoadScalarLinear
EXTRN	?Emit_PushScalarRzi2@@YAXPAVEmitterVariables@@AAVNuance@@@Z:PROC ; Emit_PushScalarRzi2
EXTRN	?Emit_PushScalarRzi1@@YAXPAVEmitterVariables@@AAVNuance@@@Z:PROC ; Emit_PushScalarRzi1
EXTRN	?Emit_PushVectorRz@@YAXPAVEmitterVariables@@AAVNuance@@@Z:PROC ; Emit_PushVectorRz
EXTRN	?Emit_PushVector@@YAXPAVEmitterVariables@@AAVNuance@@@Z:PROC ; Emit_PushVector
EXTRN	?Emit_PopScalarRzi2@@YAXPAVEmitterVariables@@AAVNuance@@@Z:PROC ; Emit_PopScalarRzi2
EXTRN	?Emit_PopScalarRzi1@@YAXPAVEmitterVariables@@AAVNuance@@@Z:PROC ; Emit_PopScalarRzi1
EXTRN	?Emit_PopVectorRz@@YAXPAVEmitterVariables@@AAVNuance@@@Z:PROC ; Emit_PopVectorRz
EXTRN	?Emit_PopVector@@YAXPAVEmitterVariables@@AAVNuance@@@Z:PROC ; Emit_PopVector
EXTRN	?Emit_MV_V@@YAXPAVEmitterVariables@@AAVNuance@@@Z:PROC ; Emit_MV_V
EXTRN	?Emit_MV_SScalar@@YAXPAVEmitterVariables@@AAVNuance@@@Z:PROC ; Emit_MV_SScalar
EXTRN	?Emit_MV_SImmediate@@YAXPAVEmitterVariables@@AAVNuance@@@Z:PROC ; Emit_MV_SImmediate
EXTRN	?Emit_Mirror@@YAXPAVEmitterVariables@@AAVNuance@@@Z:PROC ; Emit_Mirror
EXTRN	?Emit_DOTPVectorShiftSvshift@@YAXPAVEmitterVariables@@AAVNuance@@@Z:PROC ; Emit_DOTPVectorShiftSvshift
EXTRN	?Emit_DOTPVectorShiftImmediate@@YAXPAVEmitterVariables@@AAVNuance@@@Z:PROC ; Emit_DOTPVectorShiftImmediate
EXTRN	?Emit_DOTPScalarShiftSvshift@@YAXPAVEmitterVariables@@AAVNuance@@@Z:PROC ; Emit_DOTPScalarShiftSvshift
EXTRN	?Emit_DOTPScalarShiftImmediate@@YAXPAVEmitterVariables@@AAVNuance@@@Z:PROC ; Emit_DOTPScalarShiftImmediate
EXTRN	?Emit_MUL_PVectorShiftSvshift@@YAXPAVEmitterVariables@@AAVNuance@@@Z:PROC ; Emit_MUL_PVectorShiftSvshift
EXTRN	?Emit_MUL_PVectorShiftImmediate@@YAXPAVEmitterVariables@@AAVNuance@@@Z:PROC ; Emit_MUL_PVectorShiftImmediate
EXTRN	?Emit_MUL_PRvShiftSvshift@@YAXPAVEmitterVariables@@AAVNuance@@@Z:PROC ; Emit_MUL_PRvShiftSvshift
EXTRN	?Emit_MUL_PRvShiftImmediate@@YAXPAVEmitterVariables@@AAVNuance@@@Z:PROC ; Emit_MUL_PRvShiftImmediate
EXTRN	?Emit_MUL_PRuShiftSvshift@@YAXPAVEmitterVariables@@AAVNuance@@@Z:PROC ; Emit_MUL_PRuShiftSvshift
EXTRN	?Emit_MUL_PRuShiftImmediate@@YAXPAVEmitterVariables@@AAVNuance@@@Z:PROC ; Emit_MUL_PRuShiftImmediate
EXTRN	?Emit_MUL_PScalarShiftSvshift@@YAXPAVEmitterVariables@@AAVNuance@@@Z:PROC ; Emit_MUL_PScalarShiftSvshift
EXTRN	?Emit_MUL_PScalarShiftImmediate@@YAXPAVEmitterVariables@@AAVNuance@@@Z:PROC ; Emit_MUL_PScalarShiftImmediate
EXTRN	?Emit_MUL_PImmediateShiftImmediate@@YAXPAVEmitterVariables@@AAVNuance@@@Z:PROC ; Emit_MUL_PImmediateShiftImmediate
EXTRN	?Emit_MUL_SVVectorShiftSvshift@@YAXPAVEmitterVariables@@AAVNuance@@@Z:PROC ; Emit_MUL_SVVectorShiftSvshift
EXTRN	?Emit_MUL_SVVectorShiftImmediate@@YAXPAVEmitterVariables@@AAVNuance@@@Z:PROC ; Emit_MUL_SVVectorShiftImmediate
EXTRN	?Emit_MUL_SVRvShiftSvshift@@YAXPAVEmitterVariables@@AAVNuance@@@Z:PROC ; Emit_MUL_SVRvShiftSvshift
EXTRN	?Emit_MUL_SVRvShiftImmediate@@YAXPAVEmitterVariables@@AAVNuance@@@Z:PROC ; Emit_MUL_SVRvShiftImmediate
EXTRN	?Emit_MUL_SVRuShiftSvshift@@YAXPAVEmitterVariables@@AAVNuance@@@Z:PROC ; Emit_MUL_SVRuShiftSvshift
EXTRN	?Emit_MUL_SVRuShiftImmediate@@YAXPAVEmitterVariables@@AAVNuance@@@Z:PROC ; Emit_MUL_SVRuShiftImmediate
EXTRN	?Emit_MUL_SVScalarShiftSvshift@@YAXPAVEmitterVariables@@AAVNuance@@@Z:PROC ; Emit_MUL_SVScalarShiftSvshift
EXTRN	?Emit_MUL_SVScalarShiftImmediate@@YAXPAVEmitterVariables@@AAVNuance@@@Z:PROC ; Emit_MUL_SVScalarShiftImmediate
EXTRN	?Emit_MUL_SVImmediateShiftImmediate@@YAXPAVEmitterVariables@@AAVNuance@@@Z:PROC ; Emit_MUL_SVImmediateShiftImmediate
EXTRN	?Emit_MULImmediateShiftLeftImmediate@@YAXPAVEmitterVariables@@AAVNuance@@@Z:PROC ; Emit_MULImmediateShiftLeftImmediate
EXTRN	?Emit_MULImmediateShiftRightImmediate@@YAXPAVEmitterVariables@@AAVNuance@@@Z:PROC ; Emit_MULImmediateShiftRightImmediate
EXTRN	?Emit_MULImmediateShiftScalar@@YAXPAVEmitterVariables@@AAVNuance@@@Z:PROC ; Emit_MULImmediateShiftScalar
EXTRN	?Emit_MULScalarShiftScalar@@YAXPAVEmitterVariables@@AAVNuance@@@Z:PROC ; Emit_MULScalarShiftScalar
EXTRN	?Emit_MULImmediateShiftAcshift@@YAXPAVEmitterVariables@@AAVNuance@@@Z:PROC ; Emit_MULImmediateShiftAcshift
EXTRN	?Emit_MULScalarShiftLeftImmediate@@YAXPAVEmitterVariables@@AAVNuance@@@Z:PROC ; Emit_MULScalarShiftLeftImmediate
EXTRN	?Emit_MULScalarShiftRightImmediate@@YAXPAVEmitterVariables@@AAVNuance@@@Z:PROC ; Emit_MULScalarShiftRightImmediate
EXTRN	?Emit_MULScalarShiftAcshift@@YAXPAVEmitterVariables@@AAVNuance@@@Z:PROC ; Emit_MULScalarShiftAcshift
EXTRN	?Emit_SUBMImmediateReverse@@YAXPAVEmitterVariables@@AAVNuance@@@Z:PROC ; Emit_SUBMImmediateReverse
EXTRN	?Emit_SUBM@@YAXPAVEmitterVariables@@AAVNuance@@@Z:PROC ; Emit_SUBM
EXTRN	?Emit_ADDMImmediate@@YAXPAVEmitterVariables@@AAVNuance@@@Z:PROC ; Emit_ADDMImmediate
EXTRN	?Emit_ADDM@@YAXPAVEmitterVariables@@AAVNuance@@@Z:PROC ; Emit_ADDM
EXTRN	?Emit_CMPWCScalarShiftLeftImmediate@@YAXPAVEmitterVariables@@AAVNuance@@@Z:PROC ; Emit_CMPWCScalarShiftLeftImmediate
EXTRN	?Emit_CMPWCScalarShiftRightImmediate@@YAXPAVEmitterVariables@@AAVNuance@@@Z:PROC ; Emit_CMPWCScalarShiftRightImmediate
EXTRN	?Emit_CMPWCImmediateReverse@@YAXPAVEmitterVariables@@AAVNuance@@@Z:PROC ; Emit_CMPWCImmediateReverse
EXTRN	?Emit_CMPWCImmediate@@YAXPAVEmitterVariables@@AAVNuance@@@Z:PROC ; Emit_CMPWCImmediate
EXTRN	?Emit_CMPWCScalar@@YAXPAVEmitterVariables@@AAVNuance@@@Z:PROC ; Emit_CMPWCScalar
EXTRN	?Emit_SUBWCScalarShiftLeftImmediate@@YAXPAVEmitterVariables@@AAVNuance@@@Z:PROC ; Emit_SUBWCScalarShiftLeftImmediate
EXTRN	?Emit_SUBWCScalarShiftRightImmediate@@YAXPAVEmitterVariables@@AAVNuance@@@Z:PROC ; Emit_SUBWCScalarShiftRightImmediate
EXTRN	?Emit_SUBWCImmediateReverse@@YAXPAVEmitterVariables@@AAVNuance@@@Z:PROC ; Emit_SUBWCImmediateReverse
EXTRN	?Emit_SUBWCImmediate@@YAXPAVEmitterVariables@@AAVNuance@@@Z:PROC ; Emit_SUBWCImmediate
EXTRN	?Emit_SUBWCScalar@@YAXPAVEmitterVariables@@AAVNuance@@@Z:PROC ; Emit_SUBWCScalar
EXTRN	?Emit_ADDWCScalarShiftLeftImmediate@@YAXPAVEmitterVariables@@AAVNuance@@@Z:PROC ; Emit_ADDWCScalarShiftLeftImmediate
EXTRN	?Emit_ADDWCScalarShiftRightImmediate@@YAXPAVEmitterVariables@@AAVNuance@@@Z:PROC ; Emit_ADDWCScalarShiftRightImmediate
EXTRN	?Emit_ADDWCImmediate@@YAXPAVEmitterVariables@@AAVNuance@@@Z:PROC ; Emit_ADDWCImmediate
EXTRN	?Emit_ADDWCScalar@@YAXPAVEmitterVariables@@AAVNuance@@@Z:PROC ; Emit_ADDWCScalar
EXTRN	?Emit_EORScalarRotateScalar@@YAXPAVEmitterVariables@@AAVNuance@@@Z:PROC ; Emit_EORScalarRotateScalar
EXTRN	?Emit_EORScalarShiftScalar@@YAXPAVEmitterVariables@@AAVNuance@@@Z:PROC ; Emit_EORScalarShiftScalar
EXTRN	?Emit_EORScalarShiftLeftImmediate@@YAXPAVEmitterVariables@@AAVNuance@@@Z:PROC ; Emit_EORScalarShiftLeftImmediate
EXTRN	?Emit_EORScalarShiftRightImmediate@@YAXPAVEmitterVariables@@AAVNuance@@@Z:PROC ; Emit_EORScalarShiftRightImmediate
EXTRN	?Emit_EORImmediateShiftScalar@@YAXPAVEmitterVariables@@AAVNuance@@@Z:PROC ; Emit_EORImmediateShiftScalar
EXTRN	?Emit_EORScalar@@YAXPAVEmitterVariables@@AAVNuance@@@Z:PROC ; Emit_EORScalar
EXTRN	?Emit_EORImmediate@@YAXPAVEmitterVariables@@AAVNuance@@@Z:PROC ; Emit_EORImmediate
EXTRN	?Emit_ORScalarRotateScalar@@YAXPAVEmitterVariables@@AAVNuance@@@Z:PROC ; Emit_ORScalarRotateScalar
EXTRN	?Emit_ORScalarShiftScalar@@YAXPAVEmitterVariables@@AAVNuance@@@Z:PROC ; Emit_ORScalarShiftScalar
EXTRN	?Emit_ORScalarShiftLeftImmediate@@YAXPAVEmitterVariables@@AAVNuance@@@Z:PROC ; Emit_ORScalarShiftLeftImmediate
EXTRN	?Emit_ORScalarShiftRightImmediate@@YAXPAVEmitterVariables@@AAVNuance@@@Z:PROC ; Emit_ORScalarShiftRightImmediate
EXTRN	?Emit_ORImmediateShiftScalar@@YAXPAVEmitterVariables@@AAVNuance@@@Z:PROC ; Emit_ORImmediateShiftScalar
EXTRN	?Emit_ORScalar@@YAXPAVEmitterVariables@@AAVNuance@@@Z:PROC ; Emit_ORScalar
EXTRN	?Emit_ORImmediate@@YAXPAVEmitterVariables@@AAVNuance@@@Z:PROC ; Emit_ORImmediate
EXTRN	?Emit_FTSTScalarRotateScalar@@YAXPAVEmitterVariables@@AAVNuance@@@Z:PROC ; Emit_FTSTScalarRotateScalar
EXTRN	?Emit_FTSTScalarShiftScalar@@YAXPAVEmitterVariables@@AAVNuance@@@Z:PROC ; Emit_FTSTScalarShiftScalar
EXTRN	?Emit_FTSTScalarShiftLeftImmediate@@YAXPAVEmitterVariables@@AAVNuance@@@Z:PROC ; Emit_FTSTScalarShiftLeftImmediate
EXTRN	?Emit_FTSTScalarShiftRightImmediate@@YAXPAVEmitterVariables@@AAVNuance@@@Z:PROC ; Emit_FTSTScalarShiftRightImmediate
EXTRN	?Emit_FTSTImmediateShiftScalar@@YAXPAVEmitterVariables@@AAVNuance@@@Z:PROC ; Emit_FTSTImmediateShiftScalar
EXTRN	?Emit_FTSTScalar@@YAXPAVEmitterVariables@@AAVNuance@@@Z:PROC ; Emit_FTSTScalar
EXTRN	?Emit_FTSTImmediate@@YAXPAVEmitterVariables@@AAVNuance@@@Z:PROC ; Emit_FTSTImmediate
EXTRN	?Emit_ANDScalarRotateScalar@@YAXPAVEmitterVariables@@AAVNuance@@@Z:PROC ; Emit_ANDScalarRotateScalar
EXTRN	?Emit_ANDScalarShiftScalar@@YAXPAVEmitterVariables@@AAVNuance@@@Z:PROC ; Emit_ANDScalarShiftScalar
EXTRN	?Emit_ANDScalarShiftLeftImmediate@@YAXPAVEmitterVariables@@AAVNuance@@@Z:PROC ; Emit_ANDScalarShiftLeftImmediate
EXTRN	?Emit_ANDScalarShiftRightImmediate@@YAXPAVEmitterVariables@@AAVNuance@@@Z:PROC ; Emit_ANDScalarShiftRightImmediate
EXTRN	?Emit_ANDImmediateShiftScalar@@YAXPAVEmitterVariables@@AAVNuance@@@Z:PROC ; Emit_ANDImmediateShiftScalar
EXTRN	?Emit_ANDScalar@@YAXPAVEmitterVariables@@AAVNuance@@@Z:PROC ; Emit_ANDScalar
EXTRN	?Emit_ANDImmediate@@YAXPAVEmitterVariables@@AAVNuance@@@Z:PROC ; Emit_ANDImmediate
EXTRN	?Emit_CMPScalarShiftLeftImmediate@@YAXPAVEmitterVariables@@AAVNuance@@@Z:PROC ; Emit_CMPScalarShiftLeftImmediate
EXTRN	?Emit_CMPScalarShiftRightImmediate@@YAXPAVEmitterVariables@@AAVNuance@@@Z:PROC ; Emit_CMPScalarShiftRightImmediate
EXTRN	?Emit_CMPScalar@@YAXPAVEmitterVariables@@AAVNuance@@@Z:PROC ; Emit_CMPScalar
EXTRN	?Emit_CMPImmediateReverse@@YAXPAVEmitterVariables@@AAVNuance@@@Z:PROC ; Emit_CMPImmediateReverse
EXTRN	?Emit_CMPImmediate@@YAXPAVEmitterVariables@@AAVNuance@@@Z:PROC ; Emit_CMPImmediate
EXTRN	?Emit_SUBScalarShiftLeftImmediate@@YAXPAVEmitterVariables@@AAVNuance@@@Z:PROC ; Emit_SUBScalarShiftLeftImmediate
EXTRN	?Emit_SUBScalarShiftRightImmediate@@YAXPAVEmitterVariables@@AAVNuance@@@Z:PROC ; Emit_SUBScalarShiftRightImmediate
EXTRN	?Emit_SUBScalar@@YAXPAVEmitterVariables@@AAVNuance@@@Z:PROC ; Emit_SUBScalar
EXTRN	?Emit_SUBImmediateReverse@@YAXPAVEmitterVariables@@AAVNuance@@@Z:PROC ; Emit_SUBImmediateReverse
EXTRN	?Emit_SUBImmediate@@YAXPAVEmitterVariables@@AAVNuance@@@Z:PROC ; Emit_SUBImmediate
EXTRN	?Emit_ADDScalarShiftLeftImmediate@@YAXPAVEmitterVariables@@AAVNuance@@@Z:PROC ; Emit_ADDScalarShiftLeftImmediate
EXTRN	?Emit_ADDScalarShiftRightImmediate@@YAXPAVEmitterVariables@@AAVNuance@@@Z:PROC ; Emit_ADDScalarShiftRightImmediate
EXTRN	?Emit_ADDScalar@@YAXPAVEmitterVariables@@AAVNuance@@@Z:PROC ; Emit_ADDScalar
EXTRN	?Emit_ADDImmediate@@YAXPAVEmitterVariables@@AAVNuance@@@Z:PROC ; Emit_ADDImmediate
EXTRN	?Emit_SUB_SV@@YAXPAVEmitterVariables@@AAVNuance@@@Z:PROC ; Emit_SUB_SV
EXTRN	?Emit_ADD_SV@@YAXPAVEmitterVariables@@AAVNuance@@@Z:PROC ; Emit_ADD_SV
EXTRN	?Emit_SUB_P@@YAXPAVEmitterVariables@@AAVNuance@@@Z:PROC ; Emit_SUB_P
EXTRN	?Emit_ADD_P@@YAXPAVEmitterVariables@@AAVNuance@@@Z:PROC ; Emit_ADD_P
EXTRN	?Emit_ROR@@YAXPAVEmitterVariables@@AAVNuance@@@Z:PROC ; Emit_ROR
EXTRN	?Emit_ROL@@YAXPAVEmitterVariables@@AAVNuance@@@Z:PROC ; Emit_ROL
EXTRN	?Emit_ROT@@YAXPAVEmitterVariables@@AAVNuance@@@Z:PROC ; Emit_ROT
EXTRN	?Emit_LSR@@YAXPAVEmitterVariables@@AAVNuance@@@Z:PROC ; Emit_LSR
EXTRN	?Emit_LS@@YAXPAVEmitterVariables@@AAVNuance@@@Z:PROC ; Emit_LS
EXTRN	?Emit_ASR@@YAXPAVEmitterVariables@@AAVNuance@@@Z:PROC ; Emit_ASR
EXTRN	?Emit_ASL@@YAXPAVEmitterVariables@@AAVNuance@@@Z:PROC ; Emit_ASL
EXTRN	?Emit_AS@@YAXPAVEmitterVariables@@AAVNuance@@@Z:PROC ; Emit_AS
EXTRN	?Emit_SAT@@YAXPAVEmitterVariables@@AAVNuance@@@Z:PROC ; Emit_SAT
EXTRN	?Emit_MSB@@YAXPAVEmitterVariables@@AAVNuance@@@Z:PROC ; Emit_MSB
EXTRN	?Emit_COPY@@YAXPAVEmitterVariables@@AAVNuance@@@Z:PROC ; Emit_COPY
EXTRN	?Emit_BUTT@@YAXPAVEmitterVariables@@AAVNuance@@@Z:PROC ; Emit_BUTT
EXTRN	?Emit_BTST@@YAXPAVEmitterVariables@@AAVNuance@@@Z:PROC ; Emit_BTST
EXTRN	?Emit_BITSImmediate@@YAXPAVEmitterVariables@@AAVNuance@@@Z:PROC ; Emit_BITSImmediate
EXTRN	?Emit_BITSScalar@@YAXPAVEmitterVariables@@AAVNuance@@@Z:PROC ; Emit_BITSScalar
EXTRN	?Emit_ABS@@YAXPAVEmitterVariables@@AAVNuance@@@Z:PROC ; Emit_ABS
EXTRN	?Emit_Modulo@@YAXPAVEmitterVariables@@AAVNuance@@@Z:PROC ; Emit_Modulo
EXTRN	?Emit_ModuloOnly@@YAXPAVEmitterVariables@@AAVNuance@@@Z:PROC ; Emit_ModuloOnly
EXTRN	?Emit_Range@@YAXPAVEmitterVariables@@AAVNuance@@@Z:PROC ; Emit_Range
EXTRN	?Emit_RangeOnly@@YAXPAVEmitterVariables@@AAVNuance@@@Z:PROC ; Emit_RangeOnly
EXTRN	?Emit_MVRScalar@@YAXPAVEmitterVariables@@AAVNuance@@@Z:PROC ; Emit_MVRScalar
EXTRN	?Emit_MVRScalarOnly@@YAXPAVEmitterVariables@@AAVNuance@@@Z:PROC ; Emit_MVRScalarOnly
EXTRN	?Emit_MVRImmediate@@YAXPAVEmitterVariables@@AAVNuance@@@Z:PROC ; Emit_MVRImmediate
EXTRN	?Emit_MVRImmediateOnly@@YAXPAVEmitterVariables@@AAVNuance@@@Z:PROC ; Emit_MVRImmediateOnly
EXTRN	?Emit_ADDRScalar@@YAXPAVEmitterVariables@@AAVNuance@@@Z:PROC ; Emit_ADDRScalar
EXTRN	?Emit_ADDRScalarOnly@@YAXPAVEmitterVariables@@AAVNuance@@@Z:PROC ; Emit_ADDRScalarOnly
EXTRN	?Emit_ADDRImmediate@@YAXPAVEmitterVariables@@AAVNuance@@@Z:PROC ; Emit_ADDRImmediate
EXTRN	?Emit_ADDRImmediateOnly@@YAXPAVEmitterVariables@@AAVNuance@@@Z:PROC ; Emit_ADDRImmediateOnly
EXTRN	?Emit_DECBoth@@YAXPAVEmitterVariables@@AAVNuance@@@Z:PROC ; Emit_DECBoth
EXTRN	?Emit_DECRc0@@YAXPAVEmitterVariables@@AAVNuance@@@Z:PROC ; Emit_DECRc0
EXTRN	?Emit_DECRc1@@YAXPAVEmitterVariables@@AAVNuance@@@Z:PROC ; Emit_DECRc1
EXTRN	?Emit_RTSConditional_NOP@@YAXPAVEmitterVariables@@AAVNuance@@@Z:PROC ; Emit_RTSConditional_NOP
EXTRN	?Emit_RTSConditional@@YAXPAVEmitterVariables@@AAVNuance@@@Z:PROC ; Emit_RTSConditional
EXTRN	?Emit_RTSAlways_NOP@@YAXPAVEmitterVariables@@AAVNuance@@@Z:PROC ; Emit_RTSAlways_NOP
EXTRN	?Emit_RTSAlways@@YAXPAVEmitterVariables@@AAVNuance@@@Z:PROC ; Emit_RTSAlways
EXTRN	?Emit_RTI2Conditional_NOP@@YAXPAVEmitterVariables@@AAVNuance@@@Z:PROC ; Emit_RTI2Conditional_NOP
EXTRN	?Emit_RTI2Conditional@@YAXPAVEmitterVariables@@AAVNuance@@@Z:PROC ; Emit_RTI2Conditional
EXTRN	?Emit_RTI1Conditional_NOP@@YAXPAVEmitterVariables@@AAVNuance@@@Z:PROC ; Emit_RTI1Conditional_NOP
EXTRN	?Emit_RTI1Conditional@@YAXPAVEmitterVariables@@AAVNuance@@@Z:PROC ; Emit_RTI1Conditional
EXTRN	?Emit_JSRConditionalIndirect_NOP@@YAXPAVEmitterVariables@@AAVNuance@@@Z:PROC ; Emit_JSRConditionalIndirect_NOP
EXTRN	?Emit_JSRConditionalIndirect@@YAXPAVEmitterVariables@@AAVNuance@@@Z:PROC ; Emit_JSRConditionalIndirect
EXTRN	?Emit_JSRAlwaysIndirect_NOP@@YAXPAVEmitterVariables@@AAVNuance@@@Z:PROC ; Emit_JSRAlwaysIndirect_NOP
EXTRN	?Emit_JSRAlwaysIndirect@@YAXPAVEmitterVariables@@AAVNuance@@@Z:PROC ; Emit_JSRAlwaysIndirect
EXTRN	?Emit_JSRConditional_NOP@@YAXPAVEmitterVariables@@AAVNuance@@@Z:PROC ; Emit_JSRConditional_NOP
EXTRN	?Emit_JSRConditional@@YAXPAVEmitterVariables@@AAVNuance@@@Z:PROC ; Emit_JSRConditional
EXTRN	?Emit_JSRAlways_NOP@@YAXPAVEmitterVariables@@AAVNuance@@@Z:PROC ; Emit_JSRAlways_NOP
EXTRN	?Emit_JSRAlways@@YAXPAVEmitterVariables@@AAVNuance@@@Z:PROC ; Emit_JSRAlways
EXTRN	?Emit_JMPConditionalIndirect_NOP@@YAXPAVEmitterVariables@@AAVNuance@@@Z:PROC ; Emit_JMPConditionalIndirect_NOP
EXTRN	?Emit_JMPConditionalIndirect@@YAXPAVEmitterVariables@@AAVNuance@@@Z:PROC ; Emit_JMPConditionalIndirect
EXTRN	?Emit_JMPAlwaysIndirect_NOP@@YAXPAVEmitterVariables@@AAVNuance@@@Z:PROC ; Emit_JMPAlwaysIndirect_NOP
EXTRN	?Emit_JMPAlwaysIndirect@@YAXPAVEmitterVariables@@AAVNuance@@@Z:PROC ; Emit_JMPAlwaysIndirect
EXTRN	?Emit_BRAConditional_NOP@@YAXPAVEmitterVariables@@AAVNuance@@@Z:PROC ; Emit_BRAConditional_NOP
EXTRN	?Emit_BRAConditional@@YAXPAVEmitterVariables@@AAVNuance@@@Z:PROC ; Emit_BRAConditional
EXTRN	?Emit_BRAAlways_NOP@@YAXPAVEmitterVariables@@AAVNuance@@@Z:PROC ; Emit_BRAAlways_NOP
EXTRN	?Emit_BRAAlways@@YAXPAVEmitterVariables@@AAVNuance@@@Z:PROC ; Emit_BRAAlways
EXTRN	?Emit_NOP@@YAXPAVEmitterVariables@@AAVNuance@@@Z:PROC ; Emit_NOP
EXTRN	?Print_SaveRegs@@YAIPADAAVNuance@@_N@Z:PROC	; Print_SaveRegs
EXTRN	?Print_SaveFlags@@YAIPADAAVNuance@@_N@Z:PROC	; Print_SaveFlags
EXTRN	?Print_CheckECUSkipCounter@@YAIPADAAVNuance@@_N@Z:PROC ; Print_CheckECUSkipCounter
EXTRN	?Print_PacketEnd@@YAIPADAAVNuance@@_N@Z:PROC	; Print_PacketEnd
EXTRN	?Print_PacketStart@@YAIPADAAVNuance@@_N@Z:PROC	; Print_PacketStart
EXTRN	?Print_StoreMiscRegisterConstant@@YAIPADAAVNuance@@_N@Z:PROC ; Print_StoreMiscRegisterConstant
EXTRN	?Print_StoreScalarRegisterConstant@@YAIPADAAVNuance@@_N@Z:PROC ; Print_StoreScalarRegisterConstant
EXTRN	?Print_StoreScalarImmediate@@YAIPADAAVNuance@@_N@Z:PROC ; Print_StoreScalarImmediate
EXTRN	?Print_StoreScalarControlRegisterImmediate@@YAIPADAAVNuance@@_N@Z:PROC ; Print_StoreScalarControlRegisterImmediate
EXTRN	?Print_StorePixelZBilinearXY@@YAIPADAAVNuance@@_N@Z:PROC ; Print_StorePixelZBilinearXY
EXTRN	?Print_StorePixelZBilinearUV@@YAIPADAAVNuance@@_N@Z:PROC ; Print_StorePixelZBilinearUV
EXTRN	?Print_StorePixelZLinear@@YAIPADAAVNuance@@_N@Z:PROC ; Print_StorePixelZLinear
EXTRN	?Print_StorePixelBilinearXY@@YAIPADAAVNuance@@_N@Z:PROC ; Print_StorePixelBilinearXY
EXTRN	?Print_StorePixelBilinearUV@@YAIPADAAVNuance@@_N@Z:PROC ; Print_StorePixelBilinearUV
EXTRN	?Print_StorePixelLinear@@YAIPADAAVNuance@@_N@Z:PROC ; Print_StorePixelLinear
EXTRN	?Print_StoreVectorBilinearXY@@YAIPADAAVNuance@@_N@Z:PROC ; Print_StoreVectorBilinearXY
EXTRN	?Print_StoreVectorBilinearUV@@YAIPADAAVNuance@@_N@Z:PROC ; Print_StoreVectorBilinearUV
EXTRN	?Print_StoreVectorLinear@@YAIPADAAVNuance@@_N@Z:PROC ; Print_StoreVectorLinear
EXTRN	?Print_StoreShortVectorBilinearXY@@YAIPADAAVNuance@@_N@Z:PROC ; Print_StoreShortVectorBilinearXY
EXTRN	?Print_StoreShortVectorBilinearUV@@YAIPADAAVNuance@@_N@Z:PROC ; Print_StoreShortVectorBilinearUV
EXTRN	?Print_StoreShortVectorLinear@@YAIPADAAVNuance@@_N@Z:PROC ; Print_StoreShortVectorLinear
EXTRN	?Print_StoreScalarBilinearXY@@YAIPADAAVNuance@@_N@Z:PROC ; Print_StoreScalarBilinearXY
EXTRN	?Print_StoreScalarBilinearUV@@YAIPADAAVNuance@@_N@Z:PROC ; Print_StoreScalarBilinearUV
EXTRN	?Print_StoreScalarLinear@@YAIPADAAVNuance@@_N@Z:PROC ; Print_StoreScalarLinear
EXTRN	?Print_StorePixelZAbsolute@@YAIPADAAVNuance@@_N@Z:PROC ; Print_StorePixelZAbsolute
EXTRN	?Print_StorePixelAbsolute@@YAIPADAAVNuance@@_N@Z:PROC ; Print_StorePixelAbsolute
EXTRN	?Print_StoreVectorControlRegisterAbsolute@@YAIPADAAVNuance@@_N@Z:PROC ; Print_StoreVectorControlRegisterAbsolute
EXTRN	?Print_StoreVectorAbsolute@@YAIPADAAVNuance@@_N@Z:PROC ; Print_StoreVectorAbsolute
EXTRN	?Print_StoreShortVectorAbsolute@@YAIPADAAVNuance@@_N@Z:PROC ; Print_StoreShortVectorAbsolute
EXTRN	?Print_StoreScalarControlRegisterAbsolute@@YAIPADAAVNuance@@_N@Z:PROC ; Print_StoreScalarControlRegisterAbsolute
EXTRN	?Print_StoreScalarAbsolute@@YAIPADAAVNuance@@_N@Z:PROC ; Print_StoreScalarAbsolute
EXTRN	?Print_LoadPixelZBilinearXY@@YAIPADAAVNuance@@_N@Z:PROC ; Print_LoadPixelZBilinearXY
EXTRN	?Print_LoadPixelZBilinearUV@@YAIPADAAVNuance@@_N@Z:PROC ; Print_LoadPixelZBilinearUV
EXTRN	?Print_LoadPixelZLinear@@YAIPADAAVNuance@@_N@Z:PROC ; Print_LoadPixelZLinear
EXTRN	?Print_LoadPixelBilinearXY@@YAIPADAAVNuance@@_N@Z:PROC ; Print_LoadPixelBilinearXY
EXTRN	?Print_LoadPixelBilinearUV@@YAIPADAAVNuance@@_N@Z:PROC ; Print_LoadPixelBilinearUV
EXTRN	?Print_LoadPixelLinear@@YAIPADAAVNuance@@_N@Z:PROC ; Print_LoadPixelLinear
EXTRN	?Print_LoadVectorBilinearXY@@YAIPADAAVNuance@@_N@Z:PROC ; Print_LoadVectorBilinearXY
EXTRN	?Print_LoadVectorBilinearUV@@YAIPADAAVNuance@@_N@Z:PROC ; Print_LoadVectorBilinearUV
EXTRN	?Print_LoadVectorLinear@@YAIPADAAVNuance@@_N@Z:PROC ; Print_LoadVectorLinear
EXTRN	?Print_LoadShortVectorBilinearXY@@YAIPADAAVNuance@@_N@Z:PROC ; Print_LoadShortVectorBilinearXY
EXTRN	?Print_LoadShortVectorBilinearUV@@YAIPADAAVNuance@@_N@Z:PROC ; Print_LoadShortVectorBilinearUV
EXTRN	?Print_LoadShortVectorLinear@@YAIPADAAVNuance@@_N@Z:PROC ; Print_LoadShortVectorLinear
EXTRN	?Print_LoadScalarBilinearXY@@YAIPADAAVNuance@@_N@Z:PROC ; Print_LoadScalarBilinearXY
EXTRN	?Print_LoadScalarBilinearUV@@YAIPADAAVNuance@@_N@Z:PROC ; Print_LoadScalarBilinearUV
EXTRN	?Print_LoadWordBilinearXY@@YAIPADAAVNuance@@_N@Z:PROC ; Print_LoadWordBilinearXY
EXTRN	?Print_LoadWordBilinearUV@@YAIPADAAVNuance@@_N@Z:PROC ; Print_LoadWordBilinearUV
EXTRN	?Print_LoadWordLinear@@YAIPADAAVNuance@@_N@Z:PROC ; Print_LoadWordLinear
EXTRN	?Print_LoadByteBilinearXY@@YAIPADAAVNuance@@_N@Z:PROC ; Print_LoadByteBilinearXY
EXTRN	?Print_LoadByteBilinearUV@@YAIPADAAVNuance@@_N@Z:PROC ; Print_LoadByteBilinearUV
EXTRN	?Print_LoadByteLinear@@YAIPADAAVNuance@@_N@Z:PROC ; Print_LoadByteLinear
EXTRN	?Print_LoadPixelZAbsolute@@YAIPADAAVNuance@@_N@Z:PROC ; Print_LoadPixelZAbsolute
EXTRN	?Print_LoadPixelAbsolute@@YAIPADAAVNuance@@_N@Z:PROC ; Print_LoadPixelAbsolute
EXTRN	?Print_LoadVectorControlRegisterAbsolute@@YAIPADAAVNuance@@_N@Z:PROC ; Print_LoadVectorControlRegisterAbsolute
EXTRN	?Print_LoadVectorAbsolute@@YAIPADAAVNuance@@_N@Z:PROC ; Print_LoadVectorAbsolute
EXTRN	?Print_LoadShortVectorAbsolute@@YAIPADAAVNuance@@_N@Z:PROC ; Print_LoadShortVectorAbsolute
EXTRN	?Print_LoadScalarAbsolute@@YAIPADAAVNuance@@_N@Z:PROC ; Print_LoadScalarAbsolute
EXTRN	?Print_LoadWordAbsolute@@YAIPADAAVNuance@@_N@Z:PROC ; Print_LoadWordAbsolute
EXTRN	?Print_LoadByteAbsolute@@YAIPADAAVNuance@@_N@Z:PROC ; Print_LoadByteAbsolute
EXTRN	?Print_LoadScalarControlRegisterAbsolute@@YAIPADAAVNuance@@_N@Z:PROC ; Print_LoadScalarControlRegisterAbsolute
EXTRN	?Print_LoadScalarLinear@@YAIPADAAVNuance@@_N@Z:PROC ; Print_LoadScalarLinear
EXTRN	?Print_PushScalarRzi2@@YAIPADAAVNuance@@_N@Z:PROC ; Print_PushScalarRzi2
EXTRN	?Print_PushScalarRzi1@@YAIPADAAVNuance@@_N@Z:PROC ; Print_PushScalarRzi1
EXTRN	?Print_PushVectorRz@@YAIPADAAVNuance@@_N@Z:PROC	; Print_PushVectorRz
EXTRN	?Print_PushVector@@YAIPADAAVNuance@@_N@Z:PROC	; Print_PushVector
EXTRN	?Print_PopScalarRzi2@@YAIPADAAVNuance@@_N@Z:PROC ; Print_PopScalarRzi2
EXTRN	?Print_PopScalarRzi1@@YAIPADAAVNuance@@_N@Z:PROC ; Print_PopScalarRzi1
EXTRN	?Print_PopVectorRz@@YAIPADAAVNuance@@_N@Z:PROC	; Print_PopVectorRz
EXTRN	?Print_PopVector@@YAIPADAAVNuance@@_N@Z:PROC	; Print_PopVector
EXTRN	?Print_MV_V@@YAIPADAAVNuance@@_N@Z:PROC		; Print_MV_V
EXTRN	?Print_MV_SScalar@@YAIPADAAVNuance@@_N@Z:PROC	; Print_MV_SScalar
EXTRN	?Print_MV_SImmediate@@YAIPADAAVNuance@@_N@Z:PROC ; Print_MV_SImmediate
EXTRN	?Print_Mirror@@YAIPADAAVNuance@@_N@Z:PROC	; Print_Mirror
EXTRN	?Print_DOTPVectorShiftSvshift@@YAIPADAAVNuance@@_N@Z:PROC ; Print_DOTPVectorShiftSvshift
EXTRN	?Print_DOTPVectorShiftImmediate@@YAIPADAAVNuance@@_N@Z:PROC ; Print_DOTPVectorShiftImmediate
EXTRN	?Print_DOTPScalarShiftSvshift@@YAIPADAAVNuance@@_N@Z:PROC ; Print_DOTPScalarShiftSvshift
EXTRN	?Print_DOTPScalarShiftImmediate@@YAIPADAAVNuance@@_N@Z:PROC ; Print_DOTPScalarShiftImmediate
EXTRN	?Print_MUL_PVectorShiftSvshift@@YAIPADAAVNuance@@_N@Z:PROC ; Print_MUL_PVectorShiftSvshift
EXTRN	?Print_MUL_PVectorShiftImmediate@@YAIPADAAVNuance@@_N@Z:PROC ; Print_MUL_PVectorShiftImmediate
EXTRN	?Print_MUL_PRvShiftSvshift@@YAIPADAAVNuance@@_N@Z:PROC ; Print_MUL_PRvShiftSvshift
EXTRN	?Print_MUL_PRvShiftImmediate@@YAIPADAAVNuance@@_N@Z:PROC ; Print_MUL_PRvShiftImmediate
EXTRN	?Print_MUL_PRuShiftSvshift@@YAIPADAAVNuance@@_N@Z:PROC ; Print_MUL_PRuShiftSvshift
EXTRN	?Print_MUL_PRuShiftImmediate@@YAIPADAAVNuance@@_N@Z:PROC ; Print_MUL_PRuShiftImmediate
EXTRN	?Print_MUL_PScalarShiftSvshift@@YAIPADAAVNuance@@_N@Z:PROC ; Print_MUL_PScalarShiftSvshift
EXTRN	?Print_MUL_PScalarShiftImmediate@@YAIPADAAVNuance@@_N@Z:PROC ; Print_MUL_PScalarShiftImmediate
EXTRN	?Print_MUL_PImmediateShiftImmediate@@YAIPADAAVNuance@@_N@Z:PROC ; Print_MUL_PImmediateShiftImmediate
EXTRN	?Print_MUL_SVVectorShiftSvshift@@YAIPADAAVNuance@@_N@Z:PROC ; Print_MUL_SVVectorShiftSvshift
EXTRN	?Print_MUL_SVVectorShiftImmediate@@YAIPADAAVNuance@@_N@Z:PROC ; Print_MUL_SVVectorShiftImmediate
EXTRN	?Print_MUL_SVRvShiftSvshift@@YAIPADAAVNuance@@_N@Z:PROC ; Print_MUL_SVRvShiftSvshift
EXTRN	?Print_MUL_SVRvShiftImmediate@@YAIPADAAVNuance@@_N@Z:PROC ; Print_MUL_SVRvShiftImmediate
EXTRN	?Print_MUL_SVRuShiftSvshift@@YAIPADAAVNuance@@_N@Z:PROC ; Print_MUL_SVRuShiftSvshift
EXTRN	?Print_MUL_SVRuShiftImmediate@@YAIPADAAVNuance@@_N@Z:PROC ; Print_MUL_SVRuShiftImmediate
EXTRN	?Print_MUL_SVScalarShiftSvshift@@YAIPADAAVNuance@@_N@Z:PROC ; Print_MUL_SVScalarShiftSvshift
EXTRN	?Print_MUL_SVScalarShiftImmediate@@YAIPADAAVNuance@@_N@Z:PROC ; Print_MUL_SVScalarShiftImmediate
EXTRN	?Print_MUL_SVImmediateShiftImmediate@@YAIPADAAVNuance@@_N@Z:PROC ; Print_MUL_SVImmediateShiftImmediate
EXTRN	?Print_MULImmediateShiftLeftImmediate@@YAIPADAAVNuance@@_N@Z:PROC ; Print_MULImmediateShiftLeftImmediate
EXTRN	?Print_MULImmediateShiftRightImmediate@@YAIPADAAVNuance@@_N@Z:PROC ; Print_MULImmediateShiftRightImmediate
EXTRN	?Print_MULImmediateShiftScalar@@YAIPADAAVNuance@@_N@Z:PROC ; Print_MULImmediateShiftScalar
EXTRN	?Print_MULScalarShiftScalar@@YAIPADAAVNuance@@_N@Z:PROC ; Print_MULScalarShiftScalar
EXTRN	?Print_MULImmediateShiftAcshift@@YAIPADAAVNuance@@_N@Z:PROC ; Print_MULImmediateShiftAcshift
EXTRN	?Print_MULScalarShiftLeftImmediate@@YAIPADAAVNuance@@_N@Z:PROC ; Print_MULScalarShiftLeftImmediate
EXTRN	?Print_MULScalarShiftRightImmediate@@YAIPADAAVNuance@@_N@Z:PROC ; Print_MULScalarShiftRightImmediate
EXTRN	?Print_MULScalarShiftAcshift@@YAIPADAAVNuance@@_N@Z:PROC ; Print_MULScalarShiftAcshift
EXTRN	?Print_SUBMImmediateReverse@@YAIPADAAVNuance@@_N@Z:PROC ; Print_SUBMImmediateReverse
EXTRN	?Print_SUBM@@YAIPADAAVNuance@@_N@Z:PROC		; Print_SUBM
EXTRN	?Print_ADDMImmediate@@YAIPADAAVNuance@@_N@Z:PROC ; Print_ADDMImmediate
EXTRN	?Print_ADDM@@YAIPADAAVNuance@@_N@Z:PROC		; Print_ADDM
EXTRN	?Print_CMPWCScalarShiftLeftImmediate@@YAIPADAAVNuance@@_N@Z:PROC ; Print_CMPWCScalarShiftLeftImmediate
EXTRN	?Print_CMPWCScalarShiftRightImmediate@@YAIPADAAVNuance@@_N@Z:PROC ; Print_CMPWCScalarShiftRightImmediate
EXTRN	?Print_CMPWCImmediateReverse@@YAIPADAAVNuance@@_N@Z:PROC ; Print_CMPWCImmediateReverse
EXTRN	?Print_CMPWCImmediate@@YAIPADAAVNuance@@_N@Z:PROC ; Print_CMPWCImmediate
EXTRN	?Print_CMPWCScalar@@YAIPADAAVNuance@@_N@Z:PROC	; Print_CMPWCScalar
EXTRN	?Print_SUBWCScalarShiftLeftImmediate@@YAIPADAAVNuance@@_N@Z:PROC ; Print_SUBWCScalarShiftLeftImmediate
EXTRN	?Print_SUBWCScalarShiftRightImmediate@@YAIPADAAVNuance@@_N@Z:PROC ; Print_SUBWCScalarShiftRightImmediate
EXTRN	?Print_SUBWCImmediateReverse@@YAIPADAAVNuance@@_N@Z:PROC ; Print_SUBWCImmediateReverse
EXTRN	?Print_SUBWCImmediate@@YAIPADAAVNuance@@_N@Z:PROC ; Print_SUBWCImmediate
EXTRN	?Print_SUBWCScalar@@YAIPADAAVNuance@@_N@Z:PROC	; Print_SUBWCScalar
EXTRN	?Print_ADDWCScalarShiftLeftImmediate@@YAIPADAAVNuance@@_N@Z:PROC ; Print_ADDWCScalarShiftLeftImmediate
EXTRN	?Print_ADDWCScalarShiftRightImmediate@@YAIPADAAVNuance@@_N@Z:PROC ; Print_ADDWCScalarShiftRightImmediate
EXTRN	?Print_ADDWCImmediate@@YAIPADAAVNuance@@_N@Z:PROC ; Print_ADDWCImmediate
EXTRN	?Print_ADDWCScalar@@YAIPADAAVNuance@@_N@Z:PROC	; Print_ADDWCScalar
EXTRN	?Print_EORScalarRotateScalar@@YAIPADAAVNuance@@_N@Z:PROC ; Print_EORScalarRotateScalar
EXTRN	?Print_EORScalarShiftScalar@@YAIPADAAVNuance@@_N@Z:PROC ; Print_EORScalarShiftScalar
EXTRN	?Print_EORScalarShiftLeftImmediate@@YAIPADAAVNuance@@_N@Z:PROC ; Print_EORScalarShiftLeftImmediate
EXTRN	?Print_EORScalarShiftRightImmediate@@YAIPADAAVNuance@@_N@Z:PROC ; Print_EORScalarShiftRightImmediate
EXTRN	?Print_EORImmediateShiftScalar@@YAIPADAAVNuance@@_N@Z:PROC ; Print_EORImmediateShiftScalar
EXTRN	?Print_EORScalar@@YAIPADAAVNuance@@_N@Z:PROC	; Print_EORScalar
EXTRN	?Print_EORImmediate@@YAIPADAAVNuance@@_N@Z:PROC	; Print_EORImmediate
EXTRN	?Print_ORScalarRotateScalar@@YAIPADAAVNuance@@_N@Z:PROC ; Print_ORScalarRotateScalar
EXTRN	?Print_ORScalarShiftScalar@@YAIPADAAVNuance@@_N@Z:PROC ; Print_ORScalarShiftScalar
EXTRN	?Print_ORScalarShiftLeftImmediate@@YAIPADAAVNuance@@_N@Z:PROC ; Print_ORScalarShiftLeftImmediate
EXTRN	?Print_ORScalarShiftRightImmediate@@YAIPADAAVNuance@@_N@Z:PROC ; Print_ORScalarShiftRightImmediate
EXTRN	?Print_ORImmediateShiftScalar@@YAIPADAAVNuance@@_N@Z:PROC ; Print_ORImmediateShiftScalar
EXTRN	?Print_ORScalar@@YAIPADAAVNuance@@_N@Z:PROC	; Print_ORScalar
EXTRN	?Print_ORImmediate@@YAIPADAAVNuance@@_N@Z:PROC	; Print_ORImmediate
EXTRN	?Print_FTSTScalarRotateScalar@@YAIPADAAVNuance@@_N@Z:PROC ; Print_FTSTScalarRotateScalar
EXTRN	?Print_FTSTScalarShiftScalar@@YAIPADAAVNuance@@_N@Z:PROC ; Print_FTSTScalarShiftScalar
EXTRN	?Print_FTSTScalarShiftLeftImmediate@@YAIPADAAVNuance@@_N@Z:PROC ; Print_FTSTScalarShiftLeftImmediate
EXTRN	?Print_FTSTScalarShiftRightImmediate@@YAIPADAAVNuance@@_N@Z:PROC ; Print_FTSTScalarShiftRightImmediate
EXTRN	?Print_FTSTImmediateShiftScalar@@YAIPADAAVNuance@@_N@Z:PROC ; Print_FTSTImmediateShiftScalar
EXTRN	?Print_FTSTScalar@@YAIPADAAVNuance@@_N@Z:PROC	; Print_FTSTScalar
EXTRN	?Print_FTSTImmediate@@YAIPADAAVNuance@@_N@Z:PROC ; Print_FTSTImmediate
EXTRN	?Print_ANDScalarRotateScalar@@YAIPADAAVNuance@@_N@Z:PROC ; Print_ANDScalarRotateScalar
EXTRN	?Print_ANDScalarShiftScalar@@YAIPADAAVNuance@@_N@Z:PROC ; Print_ANDScalarShiftScalar
EXTRN	?Print_ANDScalarShiftLeftImmediate@@YAIPADAAVNuance@@_N@Z:PROC ; Print_ANDScalarShiftLeftImmediate
EXTRN	?Print_ANDScalarShiftRightImmediate@@YAIPADAAVNuance@@_N@Z:PROC ; Print_ANDScalarShiftRightImmediate
EXTRN	?Print_ANDImmediateShiftScalar@@YAIPADAAVNuance@@_N@Z:PROC ; Print_ANDImmediateShiftScalar
EXTRN	?Print_ANDScalar@@YAIPADAAVNuance@@_N@Z:PROC	; Print_ANDScalar
EXTRN	?Print_ANDImmediate@@YAIPADAAVNuance@@_N@Z:PROC	; Print_ANDImmediate
EXTRN	?Print_CMPScalarShiftLeftImmediate@@YAIPADAAVNuance@@_N@Z:PROC ; Print_CMPScalarShiftLeftImmediate
EXTRN	?Print_CMPScalarShiftRightImmediate@@YAIPADAAVNuance@@_N@Z:PROC ; Print_CMPScalarShiftRightImmediate
EXTRN	?Print_CMPScalar@@YAIPADAAVNuance@@_N@Z:PROC	; Print_CMPScalar
EXTRN	?Print_CMPImmediateReverse@@YAIPADAAVNuance@@_N@Z:PROC ; Print_CMPImmediateReverse
EXTRN	?Print_CMPImmediate@@YAIPADAAVNuance@@_N@Z:PROC	; Print_CMPImmediate
EXTRN	?Print_SUBScalarShiftLeftImmediate@@YAIPADAAVNuance@@_N@Z:PROC ; Print_SUBScalarShiftLeftImmediate
EXTRN	?Print_SUBScalarShiftRightImmediate@@YAIPADAAVNuance@@_N@Z:PROC ; Print_SUBScalarShiftRightImmediate
EXTRN	?Print_SUBScalar@@YAIPADAAVNuance@@_N@Z:PROC	; Print_SUBScalar
EXTRN	?Print_SUBImmediateReverse@@YAIPADAAVNuance@@_N@Z:PROC ; Print_SUBImmediateReverse
EXTRN	?Print_SUBImmediate@@YAIPADAAVNuance@@_N@Z:PROC	; Print_SUBImmediate
EXTRN	?Print_ADDScalarShiftLeftImmediate@@YAIPADAAVNuance@@_N@Z:PROC ; Print_ADDScalarShiftLeftImmediate
EXTRN	?Print_ADDScalarShiftRightImmediate@@YAIPADAAVNuance@@_N@Z:PROC ; Print_ADDScalarShiftRightImmediate
EXTRN	?Print_ADDScalar@@YAIPADAAVNuance@@_N@Z:PROC	; Print_ADDScalar
EXTRN	?Print_ADDImmediate@@YAIPADAAVNuance@@_N@Z:PROC	; Print_ADDImmediate
EXTRN	?Print_SUB_SV@@YAIPADAAVNuance@@_N@Z:PROC	; Print_SUB_SV
EXTRN	?Print_ADD_SV@@YAIPADAAVNuance@@_N@Z:PROC	; Print_ADD_SV
EXTRN	?Print_SUB_P@@YAIPADAAVNuance@@_N@Z:PROC	; Print_SUB_P
EXTRN	?Print_ADD_P@@YAIPADAAVNuance@@_N@Z:PROC	; Print_ADD_P
EXTRN	?Print_ROR@@YAIPADAAVNuance@@_N@Z:PROC		; Print_ROR
EXTRN	?Print_ROL@@YAIPADAAVNuance@@_N@Z:PROC		; Print_ROL
EXTRN	?Print_ROT@@YAIPADAAVNuance@@_N@Z:PROC		; Print_ROT
EXTRN	?Print_LSR@@YAIPADAAVNuance@@_N@Z:PROC		; Print_LSR
EXTRN	?Print_LS@@YAIPADAAVNuance@@_N@Z:PROC		; Print_LS
EXTRN	?Print_ASR@@YAIPADAAVNuance@@_N@Z:PROC		; Print_ASR
EXTRN	?Print_ASL@@YAIPADAAVNuance@@_N@Z:PROC		; Print_ASL
EXTRN	?Print_AS@@YAIPADAAVNuance@@_N@Z:PROC		; Print_AS
EXTRN	?Print_SAT@@YAIPADAAVNuance@@_N@Z:PROC		; Print_SAT
EXTRN	?Print_MSB@@YAIPADAAVNuance@@_N@Z:PROC		; Print_MSB
EXTRN	?Print_COPY@@YAIPADAAVNuance@@_N@Z:PROC		; Print_COPY
EXTRN	?Print_BUTT@@YAIPADAAVNuance@@_N@Z:PROC		; Print_BUTT
EXTRN	?Print_BTST@@YAIPADAAVNuance@@_N@Z:PROC		; Print_BTST
EXTRN	?Print_BITSImmediate@@YAIPADAAVNuance@@_N@Z:PROC ; Print_BITSImmediate
EXTRN	?Print_BITSScalar@@YAIPADAAVNuance@@_N@Z:PROC	; Print_BITSScalar
EXTRN	?Print_ABS@@YAIPADAAVNuance@@_N@Z:PROC		; Print_ABS
EXTRN	?Print_Modulo@@YAIPADAAVNuance@@_N@Z:PROC	; Print_Modulo
EXTRN	?Print_Range@@YAIPADAAVNuance@@_N@Z:PROC	; Print_Range
EXTRN	?Print_MVRScalar@@YAIPADAAVNuance@@_N@Z:PROC	; Print_MVRScalar
EXTRN	?Print_MVRImmediate@@YAIPADAAVNuance@@_N@Z:PROC	; Print_MVRImmediate
EXTRN	?Print_ADDRScalar@@YAIPADAAVNuance@@_N@Z:PROC	; Print_ADDRScalar
EXTRN	?Print_ADDRImmediate@@YAIPADAAVNuance@@_N@Z:PROC ; Print_ADDRImmediate
EXTRN	?Print_DEC@@YAIPADAAVNuance@@_N@Z:PROC		; Print_DEC
EXTRN	?Print_RTSConditional_NOP@@YAIPADAAVNuance@@_N@Z:PROC ; Print_RTSConditional_NOP
EXTRN	?Print_RTSConditional@@YAIPADAAVNuance@@_N@Z:PROC ; Print_RTSConditional
EXTRN	?Print_RTSAlways_NOP@@YAIPADAAVNuance@@_N@Z:PROC ; Print_RTSAlways_NOP
EXTRN	?Print_RTSAlways@@YAIPADAAVNuance@@_N@Z:PROC	; Print_RTSAlways
EXTRN	?Print_RTI2Conditional_NOP@@YAIPADAAVNuance@@_N@Z:PROC ; Print_RTI2Conditional_NOP
EXTRN	?Print_RTI2Conditional@@YAIPADAAVNuance@@_N@Z:PROC ; Print_RTI2Conditional
EXTRN	?Print_RTI1Conditional_NOP@@YAIPADAAVNuance@@_N@Z:PROC ; Print_RTI1Conditional_NOP
EXTRN	?Print_RTI1Conditional@@YAIPADAAVNuance@@_N@Z:PROC ; Print_RTI1Conditional
EXTRN	?Print_JSRConditionalIndirect_NOP@@YAIPADAAVNuance@@_N@Z:PROC ; Print_JSRConditionalIndirect_NOP
EXTRN	?Print_JSRConditionalIndirect@@YAIPADAAVNuance@@_N@Z:PROC ; Print_JSRConditionalIndirect
EXTRN	?Print_JSRAlwaysIndirect_NOP@@YAIPADAAVNuance@@_N@Z:PROC ; Print_JSRAlwaysIndirect_NOP
EXTRN	?Print_JSRAlwaysIndirect@@YAIPADAAVNuance@@_N@Z:PROC ; Print_JSRAlwaysIndirect
EXTRN	?Print_JSRConditional_NOP@@YAIPADAAVNuance@@_N@Z:PROC ; Print_JSRConditional_NOP
EXTRN	?Print_JSRConditional@@YAIPADAAVNuance@@_N@Z:PROC ; Print_JSRConditional
EXTRN	?Print_JSRAlways_NOP@@YAIPADAAVNuance@@_N@Z:PROC ; Print_JSRAlways_NOP
EXTRN	?Print_JSRAlways@@YAIPADAAVNuance@@_N@Z:PROC	; Print_JSRAlways
EXTRN	?Print_JMPConditionalIndirect_NOP@@YAIPADAAVNuance@@_N@Z:PROC ; Print_JMPConditionalIndirect_NOP
EXTRN	?Print_JMPConditionalIndirect@@YAIPADAAVNuance@@_N@Z:PROC ; Print_JMPConditionalIndirect
EXTRN	?Print_JMPAlwaysIndirect_NOP@@YAIPADAAVNuance@@_N@Z:PROC ; Print_JMPAlwaysIndirect_NOP
EXTRN	?Print_JMPAlwaysIndirect@@YAIPADAAVNuance@@_N@Z:PROC ; Print_JMPAlwaysIndirect
EXTRN	?Print_BRAConditional_NOP@@YAIPADAAVNuance@@_N@Z:PROC ; Print_BRAConditional_NOP
EXTRN	?Print_BRAConditional@@YAIPADAAVNuance@@_N@Z:PROC ; Print_BRAConditional
EXTRN	?Print_BRAAlways_NOP@@YAIPADAAVNuance@@_N@Z:PROC ; Print_BRAAlways_NOP
EXTRN	?Print_BRAAlways@@YAIPADAAVNuance@@_N@Z:PROC	; Print_BRAAlways
EXTRN	?Print_Halt@@YAIPADAAVNuance@@_N@Z:PROC		; Print_Halt
EXTRN	?Print_ECU_NOP@@YAIPADAAVNuance@@_N@Z:PROC	; Print_ECU_NOP
EXTRN	?Execute_SaveRegs@@YAXAAVMPE@@AAVInstructionCacheEntry@@AAVNuance@@@Z:PROC ; Execute_SaveRegs
EXTRN	?Execute_SaveFlags@@YAXAAVMPE@@AAVInstructionCacheEntry@@AAVNuance@@@Z:PROC ; Execute_SaveFlags
EXTRN	?Execute_CheckECUSkipCounter@@YAXAAVMPE@@AAVInstructionCacheEntry@@AAVNuance@@@Z:PROC ; Execute_CheckECUSkipCounter
EXTRN	?Execute_StoreMiscRegisterConstant@@YAXAAVMPE@@AAVInstructionCacheEntry@@AAVNuance@@@Z:PROC ; Execute_StoreMiscRegisterConstant
EXTRN	?Execute_StoreScalarRegisterConstant@@YAXAAVMPE@@AAVInstructionCacheEntry@@AAVNuance@@@Z:PROC ; Execute_StoreScalarRegisterConstant
EXTRN	?Execute_StoreScalarImmediate@@YAXAAVMPE@@AAVInstructionCacheEntry@@AAVNuance@@@Z:PROC ; Execute_StoreScalarImmediate
EXTRN	?Execute_StoreScalarControlRegisterImmediate@@YAXAAVMPE@@AAVInstructionCacheEntry@@AAVNuance@@@Z:PROC ; Execute_StoreScalarControlRegisterImmediate
EXTRN	?Execute_StorePixelZBilinearXY@@YAXAAVMPE@@AAVInstructionCacheEntry@@AAVNuance@@@Z:PROC ; Execute_StorePixelZBilinearXY
EXTRN	?Execute_StorePixelZBilinearUV@@YAXAAVMPE@@AAVInstructionCacheEntry@@AAVNuance@@@Z:PROC ; Execute_StorePixelZBilinearUV
EXTRN	?Execute_StorePixelZLinear@@YAXAAVMPE@@AAVInstructionCacheEntry@@AAVNuance@@@Z:PROC ; Execute_StorePixelZLinear
EXTRN	?Execute_StorePixelBilinearXY@@YAXAAVMPE@@AAVInstructionCacheEntry@@AAVNuance@@@Z:PROC ; Execute_StorePixelBilinearXY
EXTRN	?Execute_StorePixelBilinearUV@@YAXAAVMPE@@AAVInstructionCacheEntry@@AAVNuance@@@Z:PROC ; Execute_StorePixelBilinearUV
EXTRN	?Execute_StorePixelLinear@@YAXAAVMPE@@AAVInstructionCacheEntry@@AAVNuance@@@Z:PROC ; Execute_StorePixelLinear
EXTRN	?Execute_StoreVectorBilinearXY@@YAXAAVMPE@@AAVInstructionCacheEntry@@AAVNuance@@@Z:PROC ; Execute_StoreVectorBilinearXY
EXTRN	?Execute_StoreVectorBilinearUV@@YAXAAVMPE@@AAVInstructionCacheEntry@@AAVNuance@@@Z:PROC ; Execute_StoreVectorBilinearUV
EXTRN	?Execute_StoreVectorLinear@@YAXAAVMPE@@AAVInstructionCacheEntry@@AAVNuance@@@Z:PROC ; Execute_StoreVectorLinear
EXTRN	?Execute_StoreShortVectorBilinearXY@@YAXAAVMPE@@AAVInstructionCacheEntry@@AAVNuance@@@Z:PROC ; Execute_StoreShortVectorBilinearXY
EXTRN	?Execute_StoreShortVectorBilinearUV@@YAXAAVMPE@@AAVInstructionCacheEntry@@AAVNuance@@@Z:PROC ; Execute_StoreShortVectorBilinearUV
EXTRN	?Execute_StoreShortVectorLinear@@YAXAAVMPE@@AAVInstructionCacheEntry@@AAVNuance@@@Z:PROC ; Execute_StoreShortVectorLinear
EXTRN	?Execute_StoreScalarBilinearXY@@YAXAAVMPE@@AAVInstructionCacheEntry@@AAVNuance@@@Z:PROC ; Execute_StoreScalarBilinearXY
EXTRN	?Execute_StoreScalarBilinearUV@@YAXAAVMPE@@AAVInstructionCacheEntry@@AAVNuance@@@Z:PROC ; Execute_StoreScalarBilinearUV
EXTRN	?Execute_StoreScalarLinear@@YAXAAVMPE@@AAVInstructionCacheEntry@@AAVNuance@@@Z:PROC ; Execute_StoreScalarLinear
EXTRN	?Execute_StorePixelZAbsolute@@YAXAAVMPE@@AAVInstructionCacheEntry@@AAVNuance@@@Z:PROC ; Execute_StorePixelZAbsolute
EXTRN	?Execute_StorePixelAbsolute@@YAXAAVMPE@@AAVInstructionCacheEntry@@AAVNuance@@@Z:PROC ; Execute_StorePixelAbsolute
EXTRN	?Execute_StoreVectorControlRegisterAbsolute@@YAXAAVMPE@@AAVInstructionCacheEntry@@AAVNuance@@@Z:PROC ; Execute_StoreVectorControlRegisterAbsolute
EXTRN	?Execute_StoreVectorAbsolute@@YAXAAVMPE@@AAVInstructionCacheEntry@@AAVNuance@@@Z:PROC ; Execute_StoreVectorAbsolute
EXTRN	?Execute_StoreShortVectorAbsolute@@YAXAAVMPE@@AAVInstructionCacheEntry@@AAVNuance@@@Z:PROC ; Execute_StoreShortVectorAbsolute
EXTRN	?Execute_StoreScalarControlRegisterAbsolute@@YAXAAVMPE@@AAVInstructionCacheEntry@@AAVNuance@@@Z:PROC ; Execute_StoreScalarControlRegisterAbsolute
EXTRN	?Execute_StoreScalarAbsolute@@YAXAAVMPE@@AAVInstructionCacheEntry@@AAVNuance@@@Z:PROC ; Execute_StoreScalarAbsolute
EXTRN	?Execute_LoadPixelZBilinearXY@@YAXAAVMPE@@AAVInstructionCacheEntry@@AAVNuance@@@Z:PROC ; Execute_LoadPixelZBilinearXY
EXTRN	?Execute_LoadPixelZBilinearUV@@YAXAAVMPE@@AAVInstructionCacheEntry@@AAVNuance@@@Z:PROC ; Execute_LoadPixelZBilinearUV
EXTRN	?Execute_LoadPixelZLinear@@YAXAAVMPE@@AAVInstructionCacheEntry@@AAVNuance@@@Z:PROC ; Execute_LoadPixelZLinear
EXTRN	?Execute_LoadPixelBilinearXY@@YAXAAVMPE@@AAVInstructionCacheEntry@@AAVNuance@@@Z:PROC ; Execute_LoadPixelBilinearXY
EXTRN	?Execute_LoadPixelBilinearUV@@YAXAAVMPE@@AAVInstructionCacheEntry@@AAVNuance@@@Z:PROC ; Execute_LoadPixelBilinearUV
EXTRN	?Execute_LoadPixelLinear@@YAXAAVMPE@@AAVInstructionCacheEntry@@AAVNuance@@@Z:PROC ; Execute_LoadPixelLinear
EXTRN	?Execute_LoadVectorBilinearXY@@YAXAAVMPE@@AAVInstructionCacheEntry@@AAVNuance@@@Z:PROC ; Execute_LoadVectorBilinearXY
EXTRN	?Execute_LoadVectorBilinearUV@@YAXAAVMPE@@AAVInstructionCacheEntry@@AAVNuance@@@Z:PROC ; Execute_LoadVectorBilinearUV
EXTRN	?Execute_LoadVectorLinear@@YAXAAVMPE@@AAVInstructionCacheEntry@@AAVNuance@@@Z:PROC ; Execute_LoadVectorLinear
EXTRN	?Execute_LoadShortVectorBilinearXY@@YAXAAVMPE@@AAVInstructionCacheEntry@@AAVNuance@@@Z:PROC ; Execute_LoadShortVectorBilinearXY
EXTRN	?Execute_LoadShortVectorBilinearUV@@YAXAAVMPE@@AAVInstructionCacheEntry@@AAVNuance@@@Z:PROC ; Execute_LoadShortVectorBilinearUV
EXTRN	?Execute_LoadShortVectorLinear@@YAXAAVMPE@@AAVInstructionCacheEntry@@AAVNuance@@@Z:PROC ; Execute_LoadShortVectorLinear
EXTRN	?Execute_LoadScalarBilinearXY@@YAXAAVMPE@@AAVInstructionCacheEntry@@AAVNuance@@@Z:PROC ; Execute_LoadScalarBilinearXY
EXTRN	?Execute_LoadScalarBilinearUV@@YAXAAVMPE@@AAVInstructionCacheEntry@@AAVNuance@@@Z:PROC ; Execute_LoadScalarBilinearUV
EXTRN	?Execute_LoadWordBilinearXY@@YAXAAVMPE@@AAVInstructionCacheEntry@@AAVNuance@@@Z:PROC ; Execute_LoadWordBilinearXY
EXTRN	?Execute_LoadWordBilinearUV@@YAXAAVMPE@@AAVInstructionCacheEntry@@AAVNuance@@@Z:PROC ; Execute_LoadWordBilinearUV
EXTRN	?Execute_LoadWordLinear@@YAXAAVMPE@@AAVInstructionCacheEntry@@AAVNuance@@@Z:PROC ; Execute_LoadWordLinear
EXTRN	?Execute_LoadByteBilinearXY@@YAXAAVMPE@@AAVInstructionCacheEntry@@AAVNuance@@@Z:PROC ; Execute_LoadByteBilinearXY
EXTRN	?Execute_LoadByteBilinearUV@@YAXAAVMPE@@AAVInstructionCacheEntry@@AAVNuance@@@Z:PROC ; Execute_LoadByteBilinearUV
EXTRN	?Execute_LoadByteLinear@@YAXAAVMPE@@AAVInstructionCacheEntry@@AAVNuance@@@Z:PROC ; Execute_LoadByteLinear
EXTRN	?Execute_LoadPixelZAbsolute@@YAXAAVMPE@@AAVInstructionCacheEntry@@AAVNuance@@@Z:PROC ; Execute_LoadPixelZAbsolute
EXTRN	?Execute_LoadPixelAbsolute@@YAXAAVMPE@@AAVInstructionCacheEntry@@AAVNuance@@@Z:PROC ; Execute_LoadPixelAbsolute
EXTRN	?Execute_LoadVectorControlRegisterAbsolute@@YAXAAVMPE@@AAVInstructionCacheEntry@@AAVNuance@@@Z:PROC ; Execute_LoadVectorControlRegisterAbsolute
EXTRN	?Execute_LoadVectorAbsolute@@YAXAAVMPE@@AAVInstructionCacheEntry@@AAVNuance@@@Z:PROC ; Execute_LoadVectorAbsolute
EXTRN	?Execute_LoadShortVectorAbsolute@@YAXAAVMPE@@AAVInstructionCacheEntry@@AAVNuance@@@Z:PROC ; Execute_LoadShortVectorAbsolute
EXTRN	?Execute_LoadScalarAbsolute@@YAXAAVMPE@@AAVInstructionCacheEntry@@AAVNuance@@@Z:PROC ; Execute_LoadScalarAbsolute
EXTRN	?Execute_LoadWordAbsolute@@YAXAAVMPE@@AAVInstructionCacheEntry@@AAVNuance@@@Z:PROC ; Execute_LoadWordAbsolute
EXTRN	?Execute_LoadByteAbsolute@@YAXAAVMPE@@AAVInstructionCacheEntry@@AAVNuance@@@Z:PROC ; Execute_LoadByteAbsolute
EXTRN	?Execute_LoadScalarControlRegisterAbsolute@@YAXAAVMPE@@AAVInstructionCacheEntry@@AAVNuance@@@Z:PROC ; Execute_LoadScalarControlRegisterAbsolute
EXTRN	?Execute_LoadScalarLinear@@YAXAAVMPE@@AAVInstructionCacheEntry@@AAVNuance@@@Z:PROC ; Execute_LoadScalarLinear
EXTRN	?Execute_PushScalarRzi2@@YAXAAVMPE@@AAVInstructionCacheEntry@@AAVNuance@@@Z:PROC ; Execute_PushScalarRzi2
EXTRN	?Execute_PushScalarRzi1@@YAXAAVMPE@@AAVInstructionCacheEntry@@AAVNuance@@@Z:PROC ; Execute_PushScalarRzi1
EXTRN	?Execute_PushVectorRz@@YAXAAVMPE@@AAVInstructionCacheEntry@@AAVNuance@@@Z:PROC ; Execute_PushVectorRz
EXTRN	?Execute_PushVector@@YAXAAVMPE@@AAVInstructionCacheEntry@@AAVNuance@@@Z:PROC ; Execute_PushVector
EXTRN	?Execute_PopScalarRzi2@@YAXAAVMPE@@AAVInstructionCacheEntry@@AAVNuance@@@Z:PROC ; Execute_PopScalarRzi2
EXTRN	?Execute_PopScalarRzi1@@YAXAAVMPE@@AAVInstructionCacheEntry@@AAVNuance@@@Z:PROC ; Execute_PopScalarRzi1
EXTRN	?Execute_PopVectorRz@@YAXAAVMPE@@AAVInstructionCacheEntry@@AAVNuance@@@Z:PROC ; Execute_PopVectorRz
EXTRN	?Execute_PopVector@@YAXAAVMPE@@AAVInstructionCacheEntry@@AAVNuance@@@Z:PROC ; Execute_PopVector
EXTRN	?Execute_MV_V@@YAXAAVMPE@@AAVInstructionCacheEntry@@AAVNuance@@@Z:PROC ; Execute_MV_V
EXTRN	?Execute_MV_SScalar@@YAXAAVMPE@@AAVInstructionCacheEntry@@AAVNuance@@@Z:PROC ; Execute_MV_SScalar
EXTRN	?Execute_MV_SImmediate@@YAXAAVMPE@@AAVInstructionCacheEntry@@AAVNuance@@@Z:PROC ; Execute_MV_SImmediate
EXTRN	?Execute_Mirror@@YAXAAVMPE@@AAVInstructionCacheEntry@@AAVNuance@@@Z:PROC ; Execute_Mirror
EXTRN	?Execute_DOTPVectorShiftSvshift@@YAXAAVMPE@@AAVInstructionCacheEntry@@AAVNuance@@@Z:PROC ; Execute_DOTPVectorShiftSvshift
EXTRN	?Execute_DOTPVectorShiftImmediate@@YAXAAVMPE@@AAVInstructionCacheEntry@@AAVNuance@@@Z:PROC ; Execute_DOTPVectorShiftImmediate
EXTRN	?Execute_DOTPScalarShiftSvshift@@YAXAAVMPE@@AAVInstructionCacheEntry@@AAVNuance@@@Z:PROC ; Execute_DOTPScalarShiftSvshift
EXTRN	?Execute_DOTPScalarShiftImmediate@@YAXAAVMPE@@AAVInstructionCacheEntry@@AAVNuance@@@Z:PROC ; Execute_DOTPScalarShiftImmediate
EXTRN	?Execute_MUL_PVectorShiftSvshift@@YAXAAVMPE@@AAVInstructionCacheEntry@@AAVNuance@@@Z:PROC ; Execute_MUL_PVectorShiftSvshift
EXTRN	?Execute_MUL_PVectorShiftImmediate@@YAXAAVMPE@@AAVInstructionCacheEntry@@AAVNuance@@@Z:PROC ; Execute_MUL_PVectorShiftImmediate
EXTRN	?Execute_MUL_PRvShiftSvshift@@YAXAAVMPE@@AAVInstructionCacheEntry@@AAVNuance@@@Z:PROC ; Execute_MUL_PRvShiftSvshift
EXTRN	?Execute_MUL_PRvShiftImmediate@@YAXAAVMPE@@AAVInstructionCacheEntry@@AAVNuance@@@Z:PROC ; Execute_MUL_PRvShiftImmediate
EXTRN	?Execute_MUL_PRuShiftSvshift@@YAXAAVMPE@@AAVInstructionCacheEntry@@AAVNuance@@@Z:PROC ; Execute_MUL_PRuShiftSvshift
EXTRN	?Execute_MUL_PRuShiftImmediate@@YAXAAVMPE@@AAVInstructionCacheEntry@@AAVNuance@@@Z:PROC ; Execute_MUL_PRuShiftImmediate
EXTRN	?Execute_MUL_PScalarShiftSvshift@@YAXAAVMPE@@AAVInstructionCacheEntry@@AAVNuance@@@Z:PROC ; Execute_MUL_PScalarShiftSvshift
EXTRN	?Execute_MUL_PScalarShiftImmediate@@YAXAAVMPE@@AAVInstructionCacheEntry@@AAVNuance@@@Z:PROC ; Execute_MUL_PScalarShiftImmediate
EXTRN	?Execute_MUL_PImmediateShiftImmediate@@YAXAAVMPE@@AAVInstructionCacheEntry@@AAVNuance@@@Z:PROC ; Execute_MUL_PImmediateShiftImmediate
EXTRN	?Execute_MUL_SVVectorShiftSvshift@@YAXAAVMPE@@AAVInstructionCacheEntry@@AAVNuance@@@Z:PROC ; Execute_MUL_SVVectorShiftSvshift
EXTRN	?Execute_MUL_SVVectorShiftImmediate@@YAXAAVMPE@@AAVInstructionCacheEntry@@AAVNuance@@@Z:PROC ; Execute_MUL_SVVectorShiftImmediate
EXTRN	?Execute_MUL_SVRvShiftSvshift@@YAXAAVMPE@@AAVInstructionCacheEntry@@AAVNuance@@@Z:PROC ; Execute_MUL_SVRvShiftSvshift
EXTRN	?Execute_MUL_SVRvShiftImmediate@@YAXAAVMPE@@AAVInstructionCacheEntry@@AAVNuance@@@Z:PROC ; Execute_MUL_SVRvShiftImmediate
EXTRN	?Execute_MUL_SVRuShiftSvshift@@YAXAAVMPE@@AAVInstructionCacheEntry@@AAVNuance@@@Z:PROC ; Execute_MUL_SVRuShiftSvshift
EXTRN	?Execute_MUL_SVRuShiftImmediate@@YAXAAVMPE@@AAVInstructionCacheEntry@@AAVNuance@@@Z:PROC ; Execute_MUL_SVRuShiftImmediate
EXTRN	?Execute_MUL_SVScalarShiftSvshift@@YAXAAVMPE@@AAVInstructionCacheEntry@@AAVNuance@@@Z:PROC ; Execute_MUL_SVScalarShiftSvshift
EXTRN	?Execute_MUL_SVScalarShiftImmediate@@YAXAAVMPE@@AAVInstructionCacheEntry@@AAVNuance@@@Z:PROC ; Execute_MUL_SVScalarShiftImmediate
EXTRN	?Execute_MUL_SVImmediateShiftImmediate@@YAXAAVMPE@@AAVInstructionCacheEntry@@AAVNuance@@@Z:PROC ; Execute_MUL_SVImmediateShiftImmediate
EXTRN	?Execute_MULImmediateShiftLeftImmediate@@YAXAAVMPE@@AAVInstructionCacheEntry@@AAVNuance@@@Z:PROC ; Execute_MULImmediateShiftLeftImmediate
EXTRN	?Execute_MULImmediateShiftRightImmediate@@YAXAAVMPE@@AAVInstructionCacheEntry@@AAVNuance@@@Z:PROC ; Execute_MULImmediateShiftRightImmediate
EXTRN	?Execute_MULImmediateShiftScalar@@YAXAAVMPE@@AAVInstructionCacheEntry@@AAVNuance@@@Z:PROC ; Execute_MULImmediateShiftScalar
EXTRN	?Execute_MULScalarShiftScalar@@YAXAAVMPE@@AAVInstructionCacheEntry@@AAVNuance@@@Z:PROC ; Execute_MULScalarShiftScalar
EXTRN	?Execute_MULImmediateShiftAcshift@@YAXAAVMPE@@AAVInstructionCacheEntry@@AAVNuance@@@Z:PROC ; Execute_MULImmediateShiftAcshift
EXTRN	?Execute_MULScalarShiftLeftImmediate@@YAXAAVMPE@@AAVInstructionCacheEntry@@AAVNuance@@@Z:PROC ; Execute_MULScalarShiftLeftImmediate
EXTRN	?Execute_MULScalarShiftRightImmediate@@YAXAAVMPE@@AAVInstructionCacheEntry@@AAVNuance@@@Z:PROC ; Execute_MULScalarShiftRightImmediate
EXTRN	?Execute_MULScalarShiftAcshift@@YAXAAVMPE@@AAVInstructionCacheEntry@@AAVNuance@@@Z:PROC ; Execute_MULScalarShiftAcshift
EXTRN	?Execute_SUBMImmediateReverse@@YAXAAVMPE@@AAVInstructionCacheEntry@@AAVNuance@@@Z:PROC ; Execute_SUBMImmediateReverse
EXTRN	?Execute_SUBM@@YAXAAVMPE@@AAVInstructionCacheEntry@@AAVNuance@@@Z:PROC ; Execute_SUBM
EXTRN	?Execute_ADDMImmediate@@YAXAAVMPE@@AAVInstructionCacheEntry@@AAVNuance@@@Z:PROC ; Execute_ADDMImmediate
EXTRN	?Execute_ADDM@@YAXAAVMPE@@AAVInstructionCacheEntry@@AAVNuance@@@Z:PROC ; Execute_ADDM
EXTRN	?Execute_CMPWCScalarShiftLeftImmediate@@YAXAAVMPE@@AAVInstructionCacheEntry@@AAVNuance@@@Z:PROC ; Execute_CMPWCScalarShiftLeftImmediate
EXTRN	?Execute_CMPWCScalarShiftRightImmediate@@YAXAAVMPE@@AAVInstructionCacheEntry@@AAVNuance@@@Z:PROC ; Execute_CMPWCScalarShiftRightImmediate
EXTRN	?Execute_CMPWCImmediateReverse@@YAXAAVMPE@@AAVInstructionCacheEntry@@AAVNuance@@@Z:PROC ; Execute_CMPWCImmediateReverse
EXTRN	?Execute_CMPWCImmediate@@YAXAAVMPE@@AAVInstructionCacheEntry@@AAVNuance@@@Z:PROC ; Execute_CMPWCImmediate
EXTRN	?Execute_CMPWCScalar@@YAXAAVMPE@@AAVInstructionCacheEntry@@AAVNuance@@@Z:PROC ; Execute_CMPWCScalar
EXTRN	?Execute_SUBWCScalarShiftLeftImmediate@@YAXAAVMPE@@AAVInstructionCacheEntry@@AAVNuance@@@Z:PROC ; Execute_SUBWCScalarShiftLeftImmediate
EXTRN	?Execute_SUBWCScalarShiftRightImmediate@@YAXAAVMPE@@AAVInstructionCacheEntry@@AAVNuance@@@Z:PROC ; Execute_SUBWCScalarShiftRightImmediate
EXTRN	?Execute_SUBWCImmediateReverse@@YAXAAVMPE@@AAVInstructionCacheEntry@@AAVNuance@@@Z:PROC ; Execute_SUBWCImmediateReverse
EXTRN	?Execute_SUBWCImmediate@@YAXAAVMPE@@AAVInstructionCacheEntry@@AAVNuance@@@Z:PROC ; Execute_SUBWCImmediate
EXTRN	?Execute_SUBWCScalar@@YAXAAVMPE@@AAVInstructionCacheEntry@@AAVNuance@@@Z:PROC ; Execute_SUBWCScalar
EXTRN	?Execute_ADDWCScalarShiftLeftImmediate@@YAXAAVMPE@@AAVInstructionCacheEntry@@AAVNuance@@@Z:PROC ; Execute_ADDWCScalarShiftLeftImmediate
EXTRN	?Execute_ADDWCScalarShiftRightImmediate@@YAXAAVMPE@@AAVInstructionCacheEntry@@AAVNuance@@@Z:PROC ; Execute_ADDWCScalarShiftRightImmediate
EXTRN	?Execute_ADDWCImmediate@@YAXAAVMPE@@AAVInstructionCacheEntry@@AAVNuance@@@Z:PROC ; Execute_ADDWCImmediate
EXTRN	?Execute_ADDWCScalar@@YAXAAVMPE@@AAVInstructionCacheEntry@@AAVNuance@@@Z:PROC ; Execute_ADDWCScalar
EXTRN	?Execute_EORScalarRotateScalar@@YAXAAVMPE@@AAVInstructionCacheEntry@@AAVNuance@@@Z:PROC ; Execute_EORScalarRotateScalar
EXTRN	?Execute_EORScalarShiftScalar@@YAXAAVMPE@@AAVInstructionCacheEntry@@AAVNuance@@@Z:PROC ; Execute_EORScalarShiftScalar
EXTRN	?Execute_EORScalarShiftLeftImmediate@@YAXAAVMPE@@AAVInstructionCacheEntry@@AAVNuance@@@Z:PROC ; Execute_EORScalarShiftLeftImmediate
EXTRN	?Execute_EORScalarShiftRightImmediate@@YAXAAVMPE@@AAVInstructionCacheEntry@@AAVNuance@@@Z:PROC ; Execute_EORScalarShiftRightImmediate
EXTRN	?Execute_EORImmediateShiftScalar@@YAXAAVMPE@@AAVInstructionCacheEntry@@AAVNuance@@@Z:PROC ; Execute_EORImmediateShiftScalar
EXTRN	?Execute_EORScalar@@YAXAAVMPE@@AAVInstructionCacheEntry@@AAVNuance@@@Z:PROC ; Execute_EORScalar
EXTRN	?Execute_EORImmediate@@YAXAAVMPE@@AAVInstructionCacheEntry@@AAVNuance@@@Z:PROC ; Execute_EORImmediate
EXTRN	?Execute_ORScalarRotateScalar@@YAXAAVMPE@@AAVInstructionCacheEntry@@AAVNuance@@@Z:PROC ; Execute_ORScalarRotateScalar
EXTRN	?Execute_ORScalarShiftScalar@@YAXAAVMPE@@AAVInstructionCacheEntry@@AAVNuance@@@Z:PROC ; Execute_ORScalarShiftScalar
EXTRN	?Execute_ORScalarShiftLeftImmediate@@YAXAAVMPE@@AAVInstructionCacheEntry@@AAVNuance@@@Z:PROC ; Execute_ORScalarShiftLeftImmediate
EXTRN	?Execute_ORScalarShiftRightImmediate@@YAXAAVMPE@@AAVInstructionCacheEntry@@AAVNuance@@@Z:PROC ; Execute_ORScalarShiftRightImmediate
EXTRN	?Execute_ORImmediateShiftScalar@@YAXAAVMPE@@AAVInstructionCacheEntry@@AAVNuance@@@Z:PROC ; Execute_ORImmediateShiftScalar
EXTRN	?Execute_ORScalar@@YAXAAVMPE@@AAVInstructionCacheEntry@@AAVNuance@@@Z:PROC ; Execute_ORScalar
EXTRN	?Execute_ORImmediate@@YAXAAVMPE@@AAVInstructionCacheEntry@@AAVNuance@@@Z:PROC ; Execute_ORImmediate
EXTRN	?Execute_FTSTScalarRotateScalar@@YAXAAVMPE@@AAVInstructionCacheEntry@@AAVNuance@@@Z:PROC ; Execute_FTSTScalarRotateScalar
EXTRN	?Execute_FTSTScalarShiftScalar@@YAXAAVMPE@@AAVInstructionCacheEntry@@AAVNuance@@@Z:PROC ; Execute_FTSTScalarShiftScalar
EXTRN	?Execute_FTSTScalarShiftLeftImmediate@@YAXAAVMPE@@AAVInstructionCacheEntry@@AAVNuance@@@Z:PROC ; Execute_FTSTScalarShiftLeftImmediate
EXTRN	?Execute_FTSTScalarShiftRightImmediate@@YAXAAVMPE@@AAVInstructionCacheEntry@@AAVNuance@@@Z:PROC ; Execute_FTSTScalarShiftRightImmediate
EXTRN	?Execute_FTSTImmediateShiftScalar@@YAXAAVMPE@@AAVInstructionCacheEntry@@AAVNuance@@@Z:PROC ; Execute_FTSTImmediateShiftScalar
EXTRN	?Execute_FTSTScalar@@YAXAAVMPE@@AAVInstructionCacheEntry@@AAVNuance@@@Z:PROC ; Execute_FTSTScalar
EXTRN	?Execute_FTSTImmediate@@YAXAAVMPE@@AAVInstructionCacheEntry@@AAVNuance@@@Z:PROC ; Execute_FTSTImmediate
EXTRN	?Execute_ANDScalarRotateScalar@@YAXAAVMPE@@AAVInstructionCacheEntry@@AAVNuance@@@Z:PROC ; Execute_ANDScalarRotateScalar
EXTRN	?Execute_ANDScalarShiftScalar@@YAXAAVMPE@@AAVInstructionCacheEntry@@AAVNuance@@@Z:PROC ; Execute_ANDScalarShiftScalar
EXTRN	?Execute_ANDScalarShiftLeftImmediate@@YAXAAVMPE@@AAVInstructionCacheEntry@@AAVNuance@@@Z:PROC ; Execute_ANDScalarShiftLeftImmediate
EXTRN	?Execute_ANDScalarShiftRightImmediate@@YAXAAVMPE@@AAVInstructionCacheEntry@@AAVNuance@@@Z:PROC ; Execute_ANDScalarShiftRightImmediate
EXTRN	?Execute_ANDImmediateShiftScalar@@YAXAAVMPE@@AAVInstructionCacheEntry@@AAVNuance@@@Z:PROC ; Execute_ANDImmediateShiftScalar
EXTRN	?Execute_ANDScalar@@YAXAAVMPE@@AAVInstructionCacheEntry@@AAVNuance@@@Z:PROC ; Execute_ANDScalar
EXTRN	?Execute_ANDImmediate@@YAXAAVMPE@@AAVInstructionCacheEntry@@AAVNuance@@@Z:PROC ; Execute_ANDImmediate
EXTRN	?Execute_CMPScalarShiftLeftImmediate@@YAXAAVMPE@@AAVInstructionCacheEntry@@AAVNuance@@@Z:PROC ; Execute_CMPScalarShiftLeftImmediate
EXTRN	?Execute_CMPScalarShiftRightImmediate@@YAXAAVMPE@@AAVInstructionCacheEntry@@AAVNuance@@@Z:PROC ; Execute_CMPScalarShiftRightImmediate
EXTRN	?Execute_CMPScalar@@YAXAAVMPE@@AAVInstructionCacheEntry@@AAVNuance@@@Z:PROC ; Execute_CMPScalar
EXTRN	?Execute_CMPImmediateReverse@@YAXAAVMPE@@AAVInstructionCacheEntry@@AAVNuance@@@Z:PROC ; Execute_CMPImmediateReverse
EXTRN	?Execute_CMPImmediate@@YAXAAVMPE@@AAVInstructionCacheEntry@@AAVNuance@@@Z:PROC ; Execute_CMPImmediate
EXTRN	?Execute_SUBScalarShiftLeftImmediate@@YAXAAVMPE@@AAVInstructionCacheEntry@@AAVNuance@@@Z:PROC ; Execute_SUBScalarShiftLeftImmediate
EXTRN	?Execute_SUBScalarShiftRightImmediate@@YAXAAVMPE@@AAVInstructionCacheEntry@@AAVNuance@@@Z:PROC ; Execute_SUBScalarShiftRightImmediate
EXTRN	?Execute_SUBScalar@@YAXAAVMPE@@AAVInstructionCacheEntry@@AAVNuance@@@Z:PROC ; Execute_SUBScalar
EXTRN	?Execute_SUBImmediateReverse@@YAXAAVMPE@@AAVInstructionCacheEntry@@AAVNuance@@@Z:PROC ; Execute_SUBImmediateReverse
EXTRN	?Execute_SUBImmediate@@YAXAAVMPE@@AAVInstructionCacheEntry@@AAVNuance@@@Z:PROC ; Execute_SUBImmediate
EXTRN	?Execute_ADDScalarShiftLeftImmediate@@YAXAAVMPE@@AAVInstructionCacheEntry@@AAVNuance@@@Z:PROC ; Execute_ADDScalarShiftLeftImmediate
EXTRN	?Execute_ADDScalarShiftRightImmediate@@YAXAAVMPE@@AAVInstructionCacheEntry@@AAVNuance@@@Z:PROC ; Execute_ADDScalarShiftRightImmediate
EXTRN	?Execute_ADDScalar@@YAXAAVMPE@@AAVInstructionCacheEntry@@AAVNuance@@@Z:PROC ; Execute_ADDScalar
EXTRN	?Execute_ADDImmediate@@YAXAAVMPE@@AAVInstructionCacheEntry@@AAVNuance@@@Z:PROC ; Execute_ADDImmediate
EXTRN	?Execute_SUB_SV@@YAXAAVMPE@@AAVInstructionCacheEntry@@AAVNuance@@@Z:PROC ; Execute_SUB_SV
EXTRN	?Execute_ADD_SV@@YAXAAVMPE@@AAVInstructionCacheEntry@@AAVNuance@@@Z:PROC ; Execute_ADD_SV
EXTRN	?Execute_SUB_P@@YAXAAVMPE@@AAVInstructionCacheEntry@@AAVNuance@@@Z:PROC ; Execute_SUB_P
EXTRN	?Execute_ADD_P@@YAXAAVMPE@@AAVInstructionCacheEntry@@AAVNuance@@@Z:PROC ; Execute_ADD_P
EXTRN	?Execute_ROR@@YAXAAVMPE@@AAVInstructionCacheEntry@@AAVNuance@@@Z:PROC ; Execute_ROR
EXTRN	?Execute_ROL@@YAXAAVMPE@@AAVInstructionCacheEntry@@AAVNuance@@@Z:PROC ; Execute_ROL
EXTRN	?Execute_ROT@@YAXAAVMPE@@AAVInstructionCacheEntry@@AAVNuance@@@Z:PROC ; Execute_ROT
EXTRN	?Execute_LSR@@YAXAAVMPE@@AAVInstructionCacheEntry@@AAVNuance@@@Z:PROC ; Execute_LSR
EXTRN	?Execute_LS@@YAXAAVMPE@@AAVInstructionCacheEntry@@AAVNuance@@@Z:PROC ; Execute_LS
EXTRN	?Execute_ASR@@YAXAAVMPE@@AAVInstructionCacheEntry@@AAVNuance@@@Z:PROC ; Execute_ASR
EXTRN	?Execute_ASL@@YAXAAVMPE@@AAVInstructionCacheEntry@@AAVNuance@@@Z:PROC ; Execute_ASL
EXTRN	?Execute_AS@@YAXAAVMPE@@AAVInstructionCacheEntry@@AAVNuance@@@Z:PROC ; Execute_AS
EXTRN	?Execute_SAT@@YAXAAVMPE@@AAVInstructionCacheEntry@@AAVNuance@@@Z:PROC ; Execute_SAT
EXTRN	?Execute_MSB@@YAXAAVMPE@@AAVInstructionCacheEntry@@AAVNuance@@@Z:PROC ; Execute_MSB
EXTRN	?Execute_COPY@@YAXAAVMPE@@AAVInstructionCacheEntry@@AAVNuance@@@Z:PROC ; Execute_COPY
EXTRN	?Execute_BUTT@@YAXAAVMPE@@AAVInstructionCacheEntry@@AAVNuance@@@Z:PROC ; Execute_BUTT
EXTRN	?Execute_BTST@@YAXAAVMPE@@AAVInstructionCacheEntry@@AAVNuance@@@Z:PROC ; Execute_BTST
EXTRN	?Execute_BITSImmediate@@YAXAAVMPE@@AAVInstructionCacheEntry@@AAVNuance@@@Z:PROC ; Execute_BITSImmediate
EXTRN	?Execute_BITSScalar@@YAXAAVMPE@@AAVInstructionCacheEntry@@AAVNuance@@@Z:PROC ; Execute_BITSScalar
EXTRN	?Execute_ABS@@YAXAAVMPE@@AAVInstructionCacheEntry@@AAVNuance@@@Z:PROC ; Execute_ABS
EXTRN	?Execute_Modulo@@YAXAAVMPE@@AAVInstructionCacheEntry@@AAVNuance@@@Z:PROC ; Execute_Modulo
EXTRN	?Execute_ModuloOnly@@YAXAAVMPE@@AAVInstructionCacheEntry@@AAVNuance@@@Z:PROC ; Execute_ModuloOnly
EXTRN	?Execute_Range@@YAXAAVMPE@@AAVInstructionCacheEntry@@AAVNuance@@@Z:PROC ; Execute_Range
EXTRN	?Execute_RangeOnly@@YAXAAVMPE@@AAVInstructionCacheEntry@@AAVNuance@@@Z:PROC ; Execute_RangeOnly
EXTRN	?Execute_MVRScalar@@YAXAAVMPE@@AAVInstructionCacheEntry@@AAVNuance@@@Z:PROC ; Execute_MVRScalar
EXTRN	?Execute_MVRScalarOnly@@YAXAAVMPE@@AAVInstructionCacheEntry@@AAVNuance@@@Z:PROC ; Execute_MVRScalarOnly
EXTRN	?Execute_MVRImmediate@@YAXAAVMPE@@AAVInstructionCacheEntry@@AAVNuance@@@Z:PROC ; Execute_MVRImmediate
EXTRN	?Execute_MVRImmediateOnly@@YAXAAVMPE@@AAVInstructionCacheEntry@@AAVNuance@@@Z:PROC ; Execute_MVRImmediateOnly
EXTRN	?Execute_ADDRScalar@@YAXAAVMPE@@AAVInstructionCacheEntry@@AAVNuance@@@Z:PROC ; Execute_ADDRScalar
EXTRN	?Execute_ADDRScalarOnly@@YAXAAVMPE@@AAVInstructionCacheEntry@@AAVNuance@@@Z:PROC ; Execute_ADDRScalarOnly
EXTRN	?Execute_ADDRImmediate@@YAXAAVMPE@@AAVInstructionCacheEntry@@AAVNuance@@@Z:PROC ; Execute_ADDRImmediate
EXTRN	?Execute_ADDRImmediateOnly@@YAXAAVMPE@@AAVInstructionCacheEntry@@AAVNuance@@@Z:PROC ; Execute_ADDRImmediateOnly
EXTRN	?Execute_DECBoth@@YAXAAVMPE@@AAVInstructionCacheEntry@@AAVNuance@@@Z:PROC ; Execute_DECBoth
EXTRN	?Execute_DECRc0@@YAXAAVMPE@@AAVInstructionCacheEntry@@AAVNuance@@@Z:PROC ; Execute_DECRc0
EXTRN	?Execute_DECRc1@@YAXAAVMPE@@AAVInstructionCacheEntry@@AAVNuance@@@Z:PROC ; Execute_DECRc1
EXTRN	?Execute_RTSConditional_NOP@@YAXAAVMPE@@AAVInstructionCacheEntry@@AAVNuance@@@Z:PROC ; Execute_RTSConditional_NOP
EXTRN	?Execute_RTSConditional@@YAXAAVMPE@@AAVInstructionCacheEntry@@AAVNuance@@@Z:PROC ; Execute_RTSConditional
EXTRN	?Execute_RTSAlways_NOP@@YAXAAVMPE@@AAVInstructionCacheEntry@@AAVNuance@@@Z:PROC ; Execute_RTSAlways_NOP
EXTRN	?Execute_RTSAlways@@YAXAAVMPE@@AAVInstructionCacheEntry@@AAVNuance@@@Z:PROC ; Execute_RTSAlways
EXTRN	?Execute_RTI2Conditional_NOP@@YAXAAVMPE@@AAVInstructionCacheEntry@@AAVNuance@@@Z:PROC ; Execute_RTI2Conditional_NOP
EXTRN	?Execute_RTI2Conditional@@YAXAAVMPE@@AAVInstructionCacheEntry@@AAVNuance@@@Z:PROC ; Execute_RTI2Conditional
EXTRN	?Execute_RTI1Conditional_NOP@@YAXAAVMPE@@AAVInstructionCacheEntry@@AAVNuance@@@Z:PROC ; Execute_RTI1Conditional_NOP
EXTRN	?Execute_RTI1Conditional@@YAXAAVMPE@@AAVInstructionCacheEntry@@AAVNuance@@@Z:PROC ; Execute_RTI1Conditional
EXTRN	?Execute_JSRConditionalIndirect_NOP@@YAXAAVMPE@@AAVInstructionCacheEntry@@AAVNuance@@@Z:PROC ; Execute_JSRConditionalIndirect_NOP
EXTRN	?Execute_JSRConditionalIndirect@@YAXAAVMPE@@AAVInstructionCacheEntry@@AAVNuance@@@Z:PROC ; Execute_JSRConditionalIndirect
EXTRN	?Execute_JSRAlwaysIndirect_NOP@@YAXAAVMPE@@AAVInstructionCacheEntry@@AAVNuance@@@Z:PROC ; Execute_JSRAlwaysIndirect_NOP
EXTRN	?Execute_JSRAlwaysIndirect@@YAXAAVMPE@@AAVInstructionCacheEntry@@AAVNuance@@@Z:PROC ; Execute_JSRAlwaysIndirect
EXTRN	?Execute_JSRConditional_NOP@@YAXAAVMPE@@AAVInstructionCacheEntry@@AAVNuance@@@Z:PROC ; Execute_JSRConditional_NOP
EXTRN	?Execute_JSRConditional@@YAXAAVMPE@@AAVInstructionCacheEntry@@AAVNuance@@@Z:PROC ; Execute_JSRConditional
EXTRN	?Execute_JSRAlways_NOP@@YAXAAVMPE@@AAVInstructionCacheEntry@@AAVNuance@@@Z:PROC ; Execute_JSRAlways_NOP
EXTRN	?Execute_JSRAlways@@YAXAAVMPE@@AAVInstructionCacheEntry@@AAVNuance@@@Z:PROC ; Execute_JSRAlways
EXTRN	?Execute_JMPConditionalIndirect_NOP@@YAXAAVMPE@@AAVInstructionCacheEntry@@AAVNuance@@@Z:PROC ; Execute_JMPConditionalIndirect_NOP
EXTRN	?Execute_JMPConditionalIndirect@@YAXAAVMPE@@AAVInstructionCacheEntry@@AAVNuance@@@Z:PROC ; Execute_JMPConditionalIndirect
EXTRN	?Execute_JMPAlwaysIndirect_NOP@@YAXAAVMPE@@AAVInstructionCacheEntry@@AAVNuance@@@Z:PROC ; Execute_JMPAlwaysIndirect_NOP
EXTRN	?Execute_JMPAlwaysIndirect@@YAXAAVMPE@@AAVInstructionCacheEntry@@AAVNuance@@@Z:PROC ; Execute_JMPAlwaysIndirect
EXTRN	?Execute_BRAConditional_NOP@@YAXAAVMPE@@AAVInstructionCacheEntry@@AAVNuance@@@Z:PROC ; Execute_BRAConditional_NOP
EXTRN	?Execute_BRAConditional@@YAXAAVMPE@@AAVInstructionCacheEntry@@AAVNuance@@@Z:PROC ; Execute_BRAConditional
EXTRN	?Execute_BRAAlways_NOP@@YAXAAVMPE@@AAVInstructionCacheEntry@@AAVNuance@@@Z:PROC ; Execute_BRAAlways_NOP
EXTRN	?Execute_BRAAlways@@YAXAAVMPE@@AAVInstructionCacheEntry@@AAVNuance@@@Z:PROC ; Execute_BRAAlways
EXTRN	?Execute_Halt@@YAXAAVMPE@@AAVInstructionCacheEntry@@AAVNuance@@@Z:PROC ; Execute_Halt
EXTRN	?Execute_ECU_NOP@@YAXAAVMPE@@AAVInstructionCacheEntry@@AAVNuance@@@Z:PROC ; Execute_ECU_NOP
_BSS	SEGMENT
?timer_start@@3_KA DQ 01H DUP (?)			; timer_start
?mirrorLookup@MPE@@2PAEA DB 0100H DUP (?)		; MPE::mirrorLookup
?timeDelta@@3NA DQ 01H DUP (?)				; timeDelta
?timer_end@@3_KA DQ 01H DUP (?)				; timer_end
?logfile@@3PAU_iobuf@@A DD 01H DUP (?)			; logfile
_BSS	ENDS
_DATA	SEGMENT
__bad_alloc_Message DD FLAT:$SG23340
	ORG $+4
?nuanceHandlers@@3PAP6AXAAVMPE@@AAVInstructionCacheEntry@@AAVNuance@@@ZA DD FLAT:?Execute_ECU_NOP@@YAXAAVMPE@@AAVInstructionCacheEntry@@AAVNuance@@@Z ; nuanceHandlers
	DD	FLAT:?Execute_Halt@@YAXAAVMPE@@AAVInstructionCacheEntry@@AAVNuance@@@Z
	DD	FLAT:?Execute_BRAAlways@@YAXAAVMPE@@AAVInstructionCacheEntry@@AAVNuance@@@Z
	DD	FLAT:?Execute_BRAAlways_NOP@@YAXAAVMPE@@AAVInstructionCacheEntry@@AAVNuance@@@Z
	DD	FLAT:?Execute_BRAConditional@@YAXAAVMPE@@AAVInstructionCacheEntry@@AAVNuance@@@Z
	DD	FLAT:?Execute_BRAConditional_NOP@@YAXAAVMPE@@AAVInstructionCacheEntry@@AAVNuance@@@Z
	DD	FLAT:?Execute_JMPAlwaysIndirect@@YAXAAVMPE@@AAVInstructionCacheEntry@@AAVNuance@@@Z
	DD	FLAT:?Execute_JMPAlwaysIndirect_NOP@@YAXAAVMPE@@AAVInstructionCacheEntry@@AAVNuance@@@Z
	DD	FLAT:?Execute_JMPConditionalIndirect@@YAXAAVMPE@@AAVInstructionCacheEntry@@AAVNuance@@@Z
	DD	FLAT:?Execute_JMPConditionalIndirect_NOP@@YAXAAVMPE@@AAVInstructionCacheEntry@@AAVNuance@@@Z
	DD	FLAT:?Execute_JSRAlways@@YAXAAVMPE@@AAVInstructionCacheEntry@@AAVNuance@@@Z
	DD	FLAT:?Execute_JSRAlways_NOP@@YAXAAVMPE@@AAVInstructionCacheEntry@@AAVNuance@@@Z
	DD	FLAT:?Execute_JSRConditional@@YAXAAVMPE@@AAVInstructionCacheEntry@@AAVNuance@@@Z
	DD	FLAT:?Execute_JSRConditional_NOP@@YAXAAVMPE@@AAVInstructionCacheEntry@@AAVNuance@@@Z
	DD	FLAT:?Execute_JSRAlwaysIndirect@@YAXAAVMPE@@AAVInstructionCacheEntry@@AAVNuance@@@Z
	DD	FLAT:?Execute_JSRAlwaysIndirect_NOP@@YAXAAVMPE@@AAVInstructionCacheEntry@@AAVNuance@@@Z
	DD	FLAT:?Execute_JSRConditionalIndirect@@YAXAAVMPE@@AAVInstructionCacheEntry@@AAVNuance@@@Z
	DD	FLAT:?Execute_JSRConditionalIndirect_NOP@@YAXAAVMPE@@AAVInstructionCacheEntry@@AAVNuance@@@Z
	DD	FLAT:?Execute_RTI1Conditional@@YAXAAVMPE@@AAVInstructionCacheEntry@@AAVNuance@@@Z
	DD	FLAT:?Execute_RTI1Conditional_NOP@@YAXAAVMPE@@AAVInstructionCacheEntry@@AAVNuance@@@Z
	DD	FLAT:?Execute_RTI2Conditional@@YAXAAVMPE@@AAVInstructionCacheEntry@@AAVNuance@@@Z
	DD	FLAT:?Execute_RTI2Conditional_NOP@@YAXAAVMPE@@AAVInstructionCacheEntry@@AAVNuance@@@Z
	DD	FLAT:?Execute_RTSAlways@@YAXAAVMPE@@AAVInstructionCacheEntry@@AAVNuance@@@Z
	DD	FLAT:?Execute_RTSAlways_NOP@@YAXAAVMPE@@AAVInstructionCacheEntry@@AAVNuance@@@Z
	DD	FLAT:?Execute_RTSConditional@@YAXAAVMPE@@AAVInstructionCacheEntry@@AAVNuance@@@Z
	DD	FLAT:?Execute_RTSConditional_NOP@@YAXAAVMPE@@AAVInstructionCacheEntry@@AAVNuance@@@Z
	DD	FLAT:?Execute_DECRc1@@YAXAAVMPE@@AAVInstructionCacheEntry@@AAVNuance@@@Z
	DD	FLAT:?Execute_DECRc0@@YAXAAVMPE@@AAVInstructionCacheEntry@@AAVNuance@@@Z
	DD	FLAT:?Execute_DECBoth@@YAXAAVMPE@@AAVInstructionCacheEntry@@AAVNuance@@@Z
	DD	FLAT:?Execute_ADDRImmediateOnly@@YAXAAVMPE@@AAVInstructionCacheEntry@@AAVNuance@@@Z
	DD	FLAT:?Execute_ADDRImmediate@@YAXAAVMPE@@AAVInstructionCacheEntry@@AAVNuance@@@Z
	DD	FLAT:?Execute_ADDRScalarOnly@@YAXAAVMPE@@AAVInstructionCacheEntry@@AAVNuance@@@Z
	DD	FLAT:?Execute_ADDRScalar@@YAXAAVMPE@@AAVInstructionCacheEntry@@AAVNuance@@@Z
	DD	FLAT:?Execute_MVRImmediateOnly@@YAXAAVMPE@@AAVInstructionCacheEntry@@AAVNuance@@@Z
	DD	FLAT:?Execute_MVRImmediate@@YAXAAVMPE@@AAVInstructionCacheEntry@@AAVNuance@@@Z
	DD	FLAT:?Execute_MVRScalarOnly@@YAXAAVMPE@@AAVInstructionCacheEntry@@AAVNuance@@@Z
	DD	FLAT:?Execute_MVRScalar@@YAXAAVMPE@@AAVInstructionCacheEntry@@AAVNuance@@@Z
	DD	FLAT:?Execute_RangeOnly@@YAXAAVMPE@@AAVInstructionCacheEntry@@AAVNuance@@@Z
	DD	FLAT:?Execute_Range@@YAXAAVMPE@@AAVInstructionCacheEntry@@AAVNuance@@@Z
	DD	FLAT:?Execute_ModuloOnly@@YAXAAVMPE@@AAVInstructionCacheEntry@@AAVNuance@@@Z
	DD	FLAT:?Execute_Modulo@@YAXAAVMPE@@AAVInstructionCacheEntry@@AAVNuance@@@Z
	DD	FLAT:?Execute_ABS@@YAXAAVMPE@@AAVInstructionCacheEntry@@AAVNuance@@@Z
	DD	FLAT:?Execute_BITSScalar@@YAXAAVMPE@@AAVInstructionCacheEntry@@AAVNuance@@@Z
	DD	FLAT:?Execute_BITSImmediate@@YAXAAVMPE@@AAVInstructionCacheEntry@@AAVNuance@@@Z
	DD	FLAT:?Execute_BTST@@YAXAAVMPE@@AAVInstructionCacheEntry@@AAVNuance@@@Z
	DD	FLAT:?Execute_BUTT@@YAXAAVMPE@@AAVInstructionCacheEntry@@AAVNuance@@@Z
	DD	FLAT:?Execute_COPY@@YAXAAVMPE@@AAVInstructionCacheEntry@@AAVNuance@@@Z
	DD	FLAT:?Execute_MSB@@YAXAAVMPE@@AAVInstructionCacheEntry@@AAVNuance@@@Z
	DD	FLAT:?Execute_SAT@@YAXAAVMPE@@AAVInstructionCacheEntry@@AAVNuance@@@Z
	DD	FLAT:?Execute_AS@@YAXAAVMPE@@AAVInstructionCacheEntry@@AAVNuance@@@Z
	DD	FLAT:?Execute_ASL@@YAXAAVMPE@@AAVInstructionCacheEntry@@AAVNuance@@@Z
	DD	FLAT:?Execute_ASR@@YAXAAVMPE@@AAVInstructionCacheEntry@@AAVNuance@@@Z
	DD	FLAT:?Execute_LS@@YAXAAVMPE@@AAVInstructionCacheEntry@@AAVNuance@@@Z
	DD	FLAT:?Execute_LSR@@YAXAAVMPE@@AAVInstructionCacheEntry@@AAVNuance@@@Z
	DD	FLAT:?Execute_ROT@@YAXAAVMPE@@AAVInstructionCacheEntry@@AAVNuance@@@Z
	DD	FLAT:?Execute_ROL@@YAXAAVMPE@@AAVInstructionCacheEntry@@AAVNuance@@@Z
	DD	FLAT:?Execute_ROR@@YAXAAVMPE@@AAVInstructionCacheEntry@@AAVNuance@@@Z
	DD	FLAT:?Execute_ADD_P@@YAXAAVMPE@@AAVInstructionCacheEntry@@AAVNuance@@@Z
	DD	FLAT:?Execute_SUB_P@@YAXAAVMPE@@AAVInstructionCacheEntry@@AAVNuance@@@Z
	DD	FLAT:?Execute_ADD_SV@@YAXAAVMPE@@AAVInstructionCacheEntry@@AAVNuance@@@Z
	DD	FLAT:?Execute_SUB_SV@@YAXAAVMPE@@AAVInstructionCacheEntry@@AAVNuance@@@Z
	DD	FLAT:?Execute_ADDImmediate@@YAXAAVMPE@@AAVInstructionCacheEntry@@AAVNuance@@@Z
	DD	FLAT:?Execute_ADDScalar@@YAXAAVMPE@@AAVInstructionCacheEntry@@AAVNuance@@@Z
	DD	FLAT:?Execute_ADDScalarShiftRightImmediate@@YAXAAVMPE@@AAVInstructionCacheEntry@@AAVNuance@@@Z
	DD	FLAT:?Execute_ADDScalarShiftLeftImmediate@@YAXAAVMPE@@AAVInstructionCacheEntry@@AAVNuance@@@Z
	DD	FLAT:?Execute_SUBImmediate@@YAXAAVMPE@@AAVInstructionCacheEntry@@AAVNuance@@@Z
	DD	FLAT:?Execute_SUBImmediateReverse@@YAXAAVMPE@@AAVInstructionCacheEntry@@AAVNuance@@@Z
	DD	FLAT:?Execute_SUBScalar@@YAXAAVMPE@@AAVInstructionCacheEntry@@AAVNuance@@@Z
	DD	FLAT:?Execute_SUBScalarShiftRightImmediate@@YAXAAVMPE@@AAVInstructionCacheEntry@@AAVNuance@@@Z
	DD	FLAT:?Execute_SUBScalarShiftLeftImmediate@@YAXAAVMPE@@AAVInstructionCacheEntry@@AAVNuance@@@Z
	DD	FLAT:?Execute_CMPImmediate@@YAXAAVMPE@@AAVInstructionCacheEntry@@AAVNuance@@@Z
	DD	FLAT:?Execute_CMPImmediateReverse@@YAXAAVMPE@@AAVInstructionCacheEntry@@AAVNuance@@@Z
	DD	FLAT:?Execute_CMPScalar@@YAXAAVMPE@@AAVInstructionCacheEntry@@AAVNuance@@@Z
	DD	FLAT:?Execute_CMPScalarShiftRightImmediate@@YAXAAVMPE@@AAVInstructionCacheEntry@@AAVNuance@@@Z
	DD	FLAT:?Execute_CMPScalarShiftLeftImmediate@@YAXAAVMPE@@AAVInstructionCacheEntry@@AAVNuance@@@Z
	DD	FLAT:?Execute_ANDImmediate@@YAXAAVMPE@@AAVInstructionCacheEntry@@AAVNuance@@@Z
	DD	FLAT:?Execute_ANDScalar@@YAXAAVMPE@@AAVInstructionCacheEntry@@AAVNuance@@@Z
	DD	FLAT:?Execute_ANDImmediateShiftScalar@@YAXAAVMPE@@AAVInstructionCacheEntry@@AAVNuance@@@Z
	DD	FLAT:?Execute_ANDScalarShiftRightImmediate@@YAXAAVMPE@@AAVInstructionCacheEntry@@AAVNuance@@@Z
	DD	FLAT:?Execute_ANDScalarShiftLeftImmediate@@YAXAAVMPE@@AAVInstructionCacheEntry@@AAVNuance@@@Z
	DD	FLAT:?Execute_ANDScalarShiftScalar@@YAXAAVMPE@@AAVInstructionCacheEntry@@AAVNuance@@@Z
	DD	FLAT:?Execute_ANDScalarRotateScalar@@YAXAAVMPE@@AAVInstructionCacheEntry@@AAVNuance@@@Z
	DD	FLAT:?Execute_FTSTImmediate@@YAXAAVMPE@@AAVInstructionCacheEntry@@AAVNuance@@@Z
	DD	FLAT:?Execute_FTSTScalar@@YAXAAVMPE@@AAVInstructionCacheEntry@@AAVNuance@@@Z
	DD	FLAT:?Execute_FTSTImmediateShiftScalar@@YAXAAVMPE@@AAVInstructionCacheEntry@@AAVNuance@@@Z
	DD	FLAT:?Execute_FTSTScalarShiftRightImmediate@@YAXAAVMPE@@AAVInstructionCacheEntry@@AAVNuance@@@Z
	DD	FLAT:?Execute_FTSTScalarShiftLeftImmediate@@YAXAAVMPE@@AAVInstructionCacheEntry@@AAVNuance@@@Z
	DD	FLAT:?Execute_FTSTScalarShiftScalar@@YAXAAVMPE@@AAVInstructionCacheEntry@@AAVNuance@@@Z
	DD	FLAT:?Execute_FTSTScalarRotateScalar@@YAXAAVMPE@@AAVInstructionCacheEntry@@AAVNuance@@@Z
	DD	FLAT:?Execute_ORImmediate@@YAXAAVMPE@@AAVInstructionCacheEntry@@AAVNuance@@@Z
	DD	FLAT:?Execute_ORScalar@@YAXAAVMPE@@AAVInstructionCacheEntry@@AAVNuance@@@Z
	DD	FLAT:?Execute_ORImmediateShiftScalar@@YAXAAVMPE@@AAVInstructionCacheEntry@@AAVNuance@@@Z
	DD	FLAT:?Execute_ORScalarShiftRightImmediate@@YAXAAVMPE@@AAVInstructionCacheEntry@@AAVNuance@@@Z
	DD	FLAT:?Execute_ORScalarShiftLeftImmediate@@YAXAAVMPE@@AAVInstructionCacheEntry@@AAVNuance@@@Z
	DD	FLAT:?Execute_ORScalarShiftScalar@@YAXAAVMPE@@AAVInstructionCacheEntry@@AAVNuance@@@Z
	DD	FLAT:?Execute_ORScalarRotateScalar@@YAXAAVMPE@@AAVInstructionCacheEntry@@AAVNuance@@@Z
	DD	FLAT:?Execute_EORImmediate@@YAXAAVMPE@@AAVInstructionCacheEntry@@AAVNuance@@@Z
	DD	FLAT:?Execute_EORScalar@@YAXAAVMPE@@AAVInstructionCacheEntry@@AAVNuance@@@Z
	DD	FLAT:?Execute_EORImmediateShiftScalar@@YAXAAVMPE@@AAVInstructionCacheEntry@@AAVNuance@@@Z
	DD	FLAT:?Execute_EORScalarShiftRightImmediate@@YAXAAVMPE@@AAVInstructionCacheEntry@@AAVNuance@@@Z
	DD	FLAT:?Execute_EORScalarShiftLeftImmediate@@YAXAAVMPE@@AAVInstructionCacheEntry@@AAVNuance@@@Z
	DD	FLAT:?Execute_EORScalarShiftScalar@@YAXAAVMPE@@AAVInstructionCacheEntry@@AAVNuance@@@Z
	DD	FLAT:?Execute_EORScalarRotateScalar@@YAXAAVMPE@@AAVInstructionCacheEntry@@AAVNuance@@@Z
	DD	FLAT:?Execute_ADDWCScalar@@YAXAAVMPE@@AAVInstructionCacheEntry@@AAVNuance@@@Z
	DD	FLAT:?Execute_ADDWCImmediate@@YAXAAVMPE@@AAVInstructionCacheEntry@@AAVNuance@@@Z
	DD	FLAT:?Execute_ADDWCScalarShiftRightImmediate@@YAXAAVMPE@@AAVInstructionCacheEntry@@AAVNuance@@@Z
	DD	FLAT:?Execute_ADDWCScalarShiftLeftImmediate@@YAXAAVMPE@@AAVInstructionCacheEntry@@AAVNuance@@@Z
	DD	FLAT:?Execute_SUBWCScalar@@YAXAAVMPE@@AAVInstructionCacheEntry@@AAVNuance@@@Z
	DD	FLAT:?Execute_SUBWCImmediate@@YAXAAVMPE@@AAVInstructionCacheEntry@@AAVNuance@@@Z
	DD	FLAT:?Execute_SUBWCImmediateReverse@@YAXAAVMPE@@AAVInstructionCacheEntry@@AAVNuance@@@Z
	DD	FLAT:?Execute_SUBWCScalarShiftRightImmediate@@YAXAAVMPE@@AAVInstructionCacheEntry@@AAVNuance@@@Z
	DD	FLAT:?Execute_SUBWCScalarShiftLeftImmediate@@YAXAAVMPE@@AAVInstructionCacheEntry@@AAVNuance@@@Z
	DD	FLAT:?Execute_CMPWCScalar@@YAXAAVMPE@@AAVInstructionCacheEntry@@AAVNuance@@@Z
	DD	FLAT:?Execute_CMPWCImmediate@@YAXAAVMPE@@AAVInstructionCacheEntry@@AAVNuance@@@Z
	DD	FLAT:?Execute_CMPWCImmediateReverse@@YAXAAVMPE@@AAVInstructionCacheEntry@@AAVNuance@@@Z
	DD	FLAT:?Execute_CMPWCScalarShiftRightImmediate@@YAXAAVMPE@@AAVInstructionCacheEntry@@AAVNuance@@@Z
	DD	FLAT:?Execute_CMPWCScalarShiftLeftImmediate@@YAXAAVMPE@@AAVInstructionCacheEntry@@AAVNuance@@@Z
	DD	FLAT:?Execute_ADDM@@YAXAAVMPE@@AAVInstructionCacheEntry@@AAVNuance@@@Z
	DD	FLAT:?Execute_ADDMImmediate@@YAXAAVMPE@@AAVInstructionCacheEntry@@AAVNuance@@@Z
	DD	FLAT:?Execute_SUBM@@YAXAAVMPE@@AAVInstructionCacheEntry@@AAVNuance@@@Z
	DD	FLAT:?Execute_SUBMImmediateReverse@@YAXAAVMPE@@AAVInstructionCacheEntry@@AAVNuance@@@Z
	DD	FLAT:?Execute_MULScalarShiftAcshift@@YAXAAVMPE@@AAVInstructionCacheEntry@@AAVNuance@@@Z
	DD	FLAT:?Execute_MULScalarShiftRightImmediate@@YAXAAVMPE@@AAVInstructionCacheEntry@@AAVNuance@@@Z
	DD	FLAT:?Execute_MULScalarShiftLeftImmediate@@YAXAAVMPE@@AAVInstructionCacheEntry@@AAVNuance@@@Z
	DD	FLAT:?Execute_MULImmediateShiftAcshift@@YAXAAVMPE@@AAVInstructionCacheEntry@@AAVNuance@@@Z
	DD	FLAT:?Execute_MULScalarShiftScalar@@YAXAAVMPE@@AAVInstructionCacheEntry@@AAVNuance@@@Z
	DD	FLAT:?Execute_MULImmediateShiftScalar@@YAXAAVMPE@@AAVInstructionCacheEntry@@AAVNuance@@@Z
	DD	FLAT:?Execute_MULImmediateShiftRightImmediate@@YAXAAVMPE@@AAVInstructionCacheEntry@@AAVNuance@@@Z
	DD	FLAT:?Execute_MULImmediateShiftLeftImmediate@@YAXAAVMPE@@AAVInstructionCacheEntry@@AAVNuance@@@Z
	DD	FLAT:?Execute_MUL_SVImmediateShiftImmediate@@YAXAAVMPE@@AAVInstructionCacheEntry@@AAVNuance@@@Z
	DD	FLAT:?Execute_MUL_SVScalarShiftImmediate@@YAXAAVMPE@@AAVInstructionCacheEntry@@AAVNuance@@@Z
	DD	FLAT:?Execute_MUL_SVScalarShiftSvshift@@YAXAAVMPE@@AAVInstructionCacheEntry@@AAVNuance@@@Z
	DD	FLAT:?Execute_MUL_SVRuShiftImmediate@@YAXAAVMPE@@AAVInstructionCacheEntry@@AAVNuance@@@Z
	DD	FLAT:?Execute_MUL_SVRuShiftSvshift@@YAXAAVMPE@@AAVInstructionCacheEntry@@AAVNuance@@@Z
	DD	FLAT:?Execute_MUL_SVRvShiftImmediate@@YAXAAVMPE@@AAVInstructionCacheEntry@@AAVNuance@@@Z
	DD	FLAT:?Execute_MUL_SVRvShiftSvshift@@YAXAAVMPE@@AAVInstructionCacheEntry@@AAVNuance@@@Z
	DD	FLAT:?Execute_MUL_SVVectorShiftImmediate@@YAXAAVMPE@@AAVInstructionCacheEntry@@AAVNuance@@@Z
	DD	FLAT:?Execute_MUL_SVVectorShiftSvshift@@YAXAAVMPE@@AAVInstructionCacheEntry@@AAVNuance@@@Z
	DD	FLAT:?Execute_MUL_PImmediateShiftImmediate@@YAXAAVMPE@@AAVInstructionCacheEntry@@AAVNuance@@@Z
	DD	FLAT:?Execute_MUL_PScalarShiftImmediate@@YAXAAVMPE@@AAVInstructionCacheEntry@@AAVNuance@@@Z
	DD	FLAT:?Execute_MUL_PScalarShiftSvshift@@YAXAAVMPE@@AAVInstructionCacheEntry@@AAVNuance@@@Z
	DD	FLAT:?Execute_MUL_PRuShiftImmediate@@YAXAAVMPE@@AAVInstructionCacheEntry@@AAVNuance@@@Z
	DD	FLAT:?Execute_MUL_PRuShiftSvshift@@YAXAAVMPE@@AAVInstructionCacheEntry@@AAVNuance@@@Z
	DD	FLAT:?Execute_MUL_PRvShiftImmediate@@YAXAAVMPE@@AAVInstructionCacheEntry@@AAVNuance@@@Z
	DD	FLAT:?Execute_MUL_PRvShiftSvshift@@YAXAAVMPE@@AAVInstructionCacheEntry@@AAVNuance@@@Z
	DD	FLAT:?Execute_MUL_PVectorShiftImmediate@@YAXAAVMPE@@AAVInstructionCacheEntry@@AAVNuance@@@Z
	DD	FLAT:?Execute_MUL_PVectorShiftSvshift@@YAXAAVMPE@@AAVInstructionCacheEntry@@AAVNuance@@@Z
	DD	FLAT:?Execute_DOTPScalarShiftImmediate@@YAXAAVMPE@@AAVInstructionCacheEntry@@AAVNuance@@@Z
	DD	FLAT:?Execute_DOTPScalarShiftSvshift@@YAXAAVMPE@@AAVInstructionCacheEntry@@AAVNuance@@@Z
	DD	FLAT:?Execute_DOTPVectorShiftImmediate@@YAXAAVMPE@@AAVInstructionCacheEntry@@AAVNuance@@@Z
	DD	FLAT:?Execute_DOTPVectorShiftSvshift@@YAXAAVMPE@@AAVInstructionCacheEntry@@AAVNuance@@@Z
	DD	FLAT:?Execute_Mirror@@YAXAAVMPE@@AAVInstructionCacheEntry@@AAVNuance@@@Z
	DD	FLAT:?Execute_MV_SImmediate@@YAXAAVMPE@@AAVInstructionCacheEntry@@AAVNuance@@@Z
	DD	FLAT:?Execute_MV_SScalar@@YAXAAVMPE@@AAVInstructionCacheEntry@@AAVNuance@@@Z
	DD	FLAT:?Execute_MV_V@@YAXAAVMPE@@AAVInstructionCacheEntry@@AAVNuance@@@Z
	DD	FLAT:?Execute_PopVector@@YAXAAVMPE@@AAVInstructionCacheEntry@@AAVNuance@@@Z
	DD	FLAT:?Execute_PopVectorRz@@YAXAAVMPE@@AAVInstructionCacheEntry@@AAVNuance@@@Z
	DD	FLAT:?Execute_PopScalarRzi1@@YAXAAVMPE@@AAVInstructionCacheEntry@@AAVNuance@@@Z
	DD	FLAT:?Execute_PopScalarRzi2@@YAXAAVMPE@@AAVInstructionCacheEntry@@AAVNuance@@@Z
	DD	FLAT:?Execute_PushVector@@YAXAAVMPE@@AAVInstructionCacheEntry@@AAVNuance@@@Z
	DD	FLAT:?Execute_PushVectorRz@@YAXAAVMPE@@AAVInstructionCacheEntry@@AAVNuance@@@Z
	DD	FLAT:?Execute_PushScalarRzi1@@YAXAAVMPE@@AAVInstructionCacheEntry@@AAVNuance@@@Z
	DD	FLAT:?Execute_PushScalarRzi2@@YAXAAVMPE@@AAVInstructionCacheEntry@@AAVNuance@@@Z
	DD	FLAT:?Execute_LoadScalarLinear@@YAXAAVMPE@@AAVInstructionCacheEntry@@AAVNuance@@@Z
	DD	FLAT:?Execute_LoadScalarControlRegisterAbsolute@@YAXAAVMPE@@AAVInstructionCacheEntry@@AAVNuance@@@Z
	DD	FLAT:?Execute_LoadByteAbsolute@@YAXAAVMPE@@AAVInstructionCacheEntry@@AAVNuance@@@Z
	DD	FLAT:?Execute_LoadWordAbsolute@@YAXAAVMPE@@AAVInstructionCacheEntry@@AAVNuance@@@Z
	DD	FLAT:?Execute_LoadScalarAbsolute@@YAXAAVMPE@@AAVInstructionCacheEntry@@AAVNuance@@@Z
	DD	FLAT:?Execute_LoadShortVectorAbsolute@@YAXAAVMPE@@AAVInstructionCacheEntry@@AAVNuance@@@Z
	DD	FLAT:?Execute_LoadVectorAbsolute@@YAXAAVMPE@@AAVInstructionCacheEntry@@AAVNuance@@@Z
	DD	FLAT:?Execute_LoadVectorControlRegisterAbsolute@@YAXAAVMPE@@AAVInstructionCacheEntry@@AAVNuance@@@Z
	DD	FLAT:?Execute_LoadPixelAbsolute@@YAXAAVMPE@@AAVInstructionCacheEntry@@AAVNuance@@@Z
	DD	FLAT:?Execute_LoadPixelZAbsolute@@YAXAAVMPE@@AAVInstructionCacheEntry@@AAVNuance@@@Z
	DD	FLAT:?Execute_LoadByteLinear@@YAXAAVMPE@@AAVInstructionCacheEntry@@AAVNuance@@@Z
	DD	FLAT:?Execute_LoadByteBilinearUV@@YAXAAVMPE@@AAVInstructionCacheEntry@@AAVNuance@@@Z
	DD	FLAT:?Execute_LoadByteBilinearXY@@YAXAAVMPE@@AAVInstructionCacheEntry@@AAVNuance@@@Z
	DD	FLAT:?Execute_LoadWordLinear@@YAXAAVMPE@@AAVInstructionCacheEntry@@AAVNuance@@@Z
	DD	FLAT:?Execute_LoadWordBilinearUV@@YAXAAVMPE@@AAVInstructionCacheEntry@@AAVNuance@@@Z
	DD	FLAT:?Execute_LoadWordBilinearXY@@YAXAAVMPE@@AAVInstructionCacheEntry@@AAVNuance@@@Z
	DD	FLAT:?Execute_LoadScalarBilinearUV@@YAXAAVMPE@@AAVInstructionCacheEntry@@AAVNuance@@@Z
	DD	FLAT:?Execute_LoadScalarBilinearXY@@YAXAAVMPE@@AAVInstructionCacheEntry@@AAVNuance@@@Z
	DD	FLAT:?Execute_LoadShortVectorLinear@@YAXAAVMPE@@AAVInstructionCacheEntry@@AAVNuance@@@Z
	DD	FLAT:?Execute_LoadShortVectorBilinearUV@@YAXAAVMPE@@AAVInstructionCacheEntry@@AAVNuance@@@Z
	DD	FLAT:?Execute_LoadShortVectorBilinearXY@@YAXAAVMPE@@AAVInstructionCacheEntry@@AAVNuance@@@Z
	DD	FLAT:?Execute_LoadVectorLinear@@YAXAAVMPE@@AAVInstructionCacheEntry@@AAVNuance@@@Z
	DD	FLAT:?Execute_LoadVectorBilinearUV@@YAXAAVMPE@@AAVInstructionCacheEntry@@AAVNuance@@@Z
	DD	FLAT:?Execute_LoadVectorBilinearXY@@YAXAAVMPE@@AAVInstructionCacheEntry@@AAVNuance@@@Z
	DD	FLAT:?Execute_LoadPixelLinear@@YAXAAVMPE@@AAVInstructionCacheEntry@@AAVNuance@@@Z
	DD	FLAT:?Execute_LoadPixelBilinearUV@@YAXAAVMPE@@AAVInstructionCacheEntry@@AAVNuance@@@Z
	DD	FLAT:?Execute_LoadPixelBilinearXY@@YAXAAVMPE@@AAVInstructionCacheEntry@@AAVNuance@@@Z
	DD	FLAT:?Execute_LoadPixelZLinear@@YAXAAVMPE@@AAVInstructionCacheEntry@@AAVNuance@@@Z
	DD	FLAT:?Execute_LoadPixelZBilinearUV@@YAXAAVMPE@@AAVInstructionCacheEntry@@AAVNuance@@@Z
	DD	FLAT:?Execute_LoadPixelZBilinearXY@@YAXAAVMPE@@AAVInstructionCacheEntry@@AAVNuance@@@Z
	DD	FLAT:?Execute_StoreScalarAbsolute@@YAXAAVMPE@@AAVInstructionCacheEntry@@AAVNuance@@@Z
	DD	FLAT:?Execute_StoreScalarControlRegisterAbsolute@@YAXAAVMPE@@AAVInstructionCacheEntry@@AAVNuance@@@Z
	DD	FLAT:?Execute_StoreShortVectorAbsolute@@YAXAAVMPE@@AAVInstructionCacheEntry@@AAVNuance@@@Z
	DD	FLAT:?Execute_StoreVectorAbsolute@@YAXAAVMPE@@AAVInstructionCacheEntry@@AAVNuance@@@Z
	DD	FLAT:?Execute_StoreVectorControlRegisterAbsolute@@YAXAAVMPE@@AAVInstructionCacheEntry@@AAVNuance@@@Z
	DD	FLAT:?Execute_StorePixelAbsolute@@YAXAAVMPE@@AAVInstructionCacheEntry@@AAVNuance@@@Z
	DD	FLAT:?Execute_StorePixelZAbsolute@@YAXAAVMPE@@AAVInstructionCacheEntry@@AAVNuance@@@Z
	DD	FLAT:?Execute_StoreScalarLinear@@YAXAAVMPE@@AAVInstructionCacheEntry@@AAVNuance@@@Z
	DD	FLAT:?Execute_StoreScalarBilinearUV@@YAXAAVMPE@@AAVInstructionCacheEntry@@AAVNuance@@@Z
	DD	FLAT:?Execute_StoreScalarBilinearXY@@YAXAAVMPE@@AAVInstructionCacheEntry@@AAVNuance@@@Z
	DD	FLAT:?Execute_StoreShortVectorLinear@@YAXAAVMPE@@AAVInstructionCacheEntry@@AAVNuance@@@Z
	DD	FLAT:?Execute_StoreShortVectorBilinearUV@@YAXAAVMPE@@AAVInstructionCacheEntry@@AAVNuance@@@Z
	DD	FLAT:?Execute_StoreShortVectorBilinearXY@@YAXAAVMPE@@AAVInstructionCacheEntry@@AAVNuance@@@Z
	DD	FLAT:?Execute_StoreVectorLinear@@YAXAAVMPE@@AAVInstructionCacheEntry@@AAVNuance@@@Z
	DD	FLAT:?Execute_StoreVectorBilinearUV@@YAXAAVMPE@@AAVInstructionCacheEntry@@AAVNuance@@@Z
	DD	FLAT:?Execute_StoreVectorBilinearXY@@YAXAAVMPE@@AAVInstructionCacheEntry@@AAVNuance@@@Z
	DD	FLAT:?Execute_StorePixelLinear@@YAXAAVMPE@@AAVInstructionCacheEntry@@AAVNuance@@@Z
	DD	FLAT:?Execute_StorePixelBilinearUV@@YAXAAVMPE@@AAVInstructionCacheEntry@@AAVNuance@@@Z
	DD	FLAT:?Execute_StorePixelBilinearXY@@YAXAAVMPE@@AAVInstructionCacheEntry@@AAVNuance@@@Z
	DD	FLAT:?Execute_StorePixelZLinear@@YAXAAVMPE@@AAVInstructionCacheEntry@@AAVNuance@@@Z
	DD	FLAT:?Execute_StorePixelZBilinearUV@@YAXAAVMPE@@AAVInstructionCacheEntry@@AAVNuance@@@Z
	DD	FLAT:?Execute_StorePixelZBilinearXY@@YAXAAVMPE@@AAVInstructionCacheEntry@@AAVNuance@@@Z
	DD	FLAT:?Execute_StoreScalarControlRegisterImmediate@@YAXAAVMPE@@AAVInstructionCacheEntry@@AAVNuance@@@Z
	DD	FLAT:?Execute_StoreScalarImmediate@@YAXAAVMPE@@AAVInstructionCacheEntry@@AAVNuance@@@Z
	DD	FLAT:?Execute_StoreScalarRegisterConstant@@YAXAAVMPE@@AAVInstructionCacheEntry@@AAVNuance@@@Z
	DD	FLAT:?Execute_StoreMiscRegisterConstant@@YAXAAVMPE@@AAVInstructionCacheEntry@@AAVNuance@@@Z
	DD	FLAT:?Execute_ECU_NOP@@YAXAAVMPE@@AAVInstructionCacheEntry@@AAVNuance@@@Z
	DD	FLAT:?Execute_ECU_NOP@@YAXAAVMPE@@AAVInstructionCacheEntry@@AAVNuance@@@Z
	DD	FLAT:?Execute_CheckECUSkipCounter@@YAXAAVMPE@@AAVInstructionCacheEntry@@AAVNuance@@@Z
	DD	FLAT:?Execute_SaveFlags@@YAXAAVMPE@@AAVInstructionCacheEntry@@AAVNuance@@@Z
	DD	FLAT:?Execute_SaveRegs@@YAXAAVMPE@@AAVInstructionCacheEntry@@AAVNuance@@@Z
?printHandlers@@3PAP6AIPADAAVNuance@@_N@ZA DD FLAT:?Print_ECU_NOP@@YAIPADAAVNuance@@_N@Z ; printHandlers
	DD	FLAT:?Print_Halt@@YAIPADAAVNuance@@_N@Z
	DD	FLAT:?Print_BRAAlways@@YAIPADAAVNuance@@_N@Z
	DD	FLAT:?Print_BRAAlways_NOP@@YAIPADAAVNuance@@_N@Z
	DD	FLAT:?Print_BRAConditional@@YAIPADAAVNuance@@_N@Z
	DD	FLAT:?Print_BRAConditional_NOP@@YAIPADAAVNuance@@_N@Z
	DD	FLAT:?Print_JMPAlwaysIndirect@@YAIPADAAVNuance@@_N@Z
	DD	FLAT:?Print_JMPAlwaysIndirect_NOP@@YAIPADAAVNuance@@_N@Z
	DD	FLAT:?Print_JMPConditionalIndirect@@YAIPADAAVNuance@@_N@Z
	DD	FLAT:?Print_JMPConditionalIndirect_NOP@@YAIPADAAVNuance@@_N@Z
	DD	FLAT:?Print_JSRAlways@@YAIPADAAVNuance@@_N@Z
	DD	FLAT:?Print_JSRAlways_NOP@@YAIPADAAVNuance@@_N@Z
	DD	FLAT:?Print_JSRConditional@@YAIPADAAVNuance@@_N@Z
	DD	FLAT:?Print_JSRConditional_NOP@@YAIPADAAVNuance@@_N@Z
	DD	FLAT:?Print_JSRAlwaysIndirect@@YAIPADAAVNuance@@_N@Z
	DD	FLAT:?Print_JSRAlwaysIndirect_NOP@@YAIPADAAVNuance@@_N@Z
	DD	FLAT:?Print_JSRConditionalIndirect@@YAIPADAAVNuance@@_N@Z
	DD	FLAT:?Print_JSRConditionalIndirect_NOP@@YAIPADAAVNuance@@_N@Z
	DD	FLAT:?Print_RTI1Conditional@@YAIPADAAVNuance@@_N@Z
	DD	FLAT:?Print_RTI1Conditional_NOP@@YAIPADAAVNuance@@_N@Z
	DD	FLAT:?Print_RTI2Conditional@@YAIPADAAVNuance@@_N@Z
	DD	FLAT:?Print_RTI2Conditional_NOP@@YAIPADAAVNuance@@_N@Z
	DD	FLAT:?Print_RTSAlways@@YAIPADAAVNuance@@_N@Z
	DD	FLAT:?Print_RTSAlways_NOP@@YAIPADAAVNuance@@_N@Z
	DD	FLAT:?Print_RTSConditional@@YAIPADAAVNuance@@_N@Z
	DD	FLAT:?Print_RTSConditional_NOP@@YAIPADAAVNuance@@_N@Z
	DD	FLAT:?Print_DEC@@YAIPADAAVNuance@@_N@Z
	DD	FLAT:?Print_DEC@@YAIPADAAVNuance@@_N@Z
	DD	FLAT:?Print_DEC@@YAIPADAAVNuance@@_N@Z
	DD	FLAT:?Print_ADDRImmediate@@YAIPADAAVNuance@@_N@Z
	DD	FLAT:?Print_ADDRImmediate@@YAIPADAAVNuance@@_N@Z
	DD	FLAT:?Print_ADDRScalar@@YAIPADAAVNuance@@_N@Z
	DD	FLAT:?Print_ADDRScalar@@YAIPADAAVNuance@@_N@Z
	DD	FLAT:?Print_MVRImmediate@@YAIPADAAVNuance@@_N@Z
	DD	FLAT:?Print_MVRImmediate@@YAIPADAAVNuance@@_N@Z
	DD	FLAT:?Print_MVRScalar@@YAIPADAAVNuance@@_N@Z
	DD	FLAT:?Print_MVRScalar@@YAIPADAAVNuance@@_N@Z
	DD	FLAT:?Print_Range@@YAIPADAAVNuance@@_N@Z
	DD	FLAT:?Print_Range@@YAIPADAAVNuance@@_N@Z
	DD	FLAT:?Print_Modulo@@YAIPADAAVNuance@@_N@Z
	DD	FLAT:?Print_Modulo@@YAIPADAAVNuance@@_N@Z
	DD	FLAT:?Print_ABS@@YAIPADAAVNuance@@_N@Z
	DD	FLAT:?Print_BITSScalar@@YAIPADAAVNuance@@_N@Z
	DD	FLAT:?Print_BITSImmediate@@YAIPADAAVNuance@@_N@Z
	DD	FLAT:?Print_BTST@@YAIPADAAVNuance@@_N@Z
	DD	FLAT:?Print_BUTT@@YAIPADAAVNuance@@_N@Z
	DD	FLAT:?Print_COPY@@YAIPADAAVNuance@@_N@Z
	DD	FLAT:?Print_MSB@@YAIPADAAVNuance@@_N@Z
	DD	FLAT:?Print_SAT@@YAIPADAAVNuance@@_N@Z
	DD	FLAT:?Print_AS@@YAIPADAAVNuance@@_N@Z
	DD	FLAT:?Print_ASL@@YAIPADAAVNuance@@_N@Z
	DD	FLAT:?Print_ASR@@YAIPADAAVNuance@@_N@Z
	DD	FLAT:?Print_LS@@YAIPADAAVNuance@@_N@Z
	DD	FLAT:?Print_LSR@@YAIPADAAVNuance@@_N@Z
	DD	FLAT:?Print_ROT@@YAIPADAAVNuance@@_N@Z
	DD	FLAT:?Print_ROL@@YAIPADAAVNuance@@_N@Z
	DD	FLAT:?Print_ROR@@YAIPADAAVNuance@@_N@Z
	DD	FLAT:?Print_ADD_P@@YAIPADAAVNuance@@_N@Z
	DD	FLAT:?Print_SUB_P@@YAIPADAAVNuance@@_N@Z
	DD	FLAT:?Print_ADD_SV@@YAIPADAAVNuance@@_N@Z
	DD	FLAT:?Print_SUB_SV@@YAIPADAAVNuance@@_N@Z
	DD	FLAT:?Print_ADDImmediate@@YAIPADAAVNuance@@_N@Z
	DD	FLAT:?Print_ADDScalar@@YAIPADAAVNuance@@_N@Z
	DD	FLAT:?Print_ADDScalarShiftRightImmediate@@YAIPADAAVNuance@@_N@Z
	DD	FLAT:?Print_ADDScalarShiftLeftImmediate@@YAIPADAAVNuance@@_N@Z
	DD	FLAT:?Print_SUBImmediate@@YAIPADAAVNuance@@_N@Z
	DD	FLAT:?Print_SUBImmediateReverse@@YAIPADAAVNuance@@_N@Z
	DD	FLAT:?Print_SUBScalar@@YAIPADAAVNuance@@_N@Z
	DD	FLAT:?Print_SUBScalarShiftRightImmediate@@YAIPADAAVNuance@@_N@Z
	DD	FLAT:?Print_SUBScalarShiftLeftImmediate@@YAIPADAAVNuance@@_N@Z
	DD	FLAT:?Print_CMPImmediate@@YAIPADAAVNuance@@_N@Z
	DD	FLAT:?Print_CMPImmediateReverse@@YAIPADAAVNuance@@_N@Z
	DD	FLAT:?Print_CMPScalar@@YAIPADAAVNuance@@_N@Z
	DD	FLAT:?Print_CMPScalarShiftRightImmediate@@YAIPADAAVNuance@@_N@Z
	DD	FLAT:?Print_CMPScalarShiftLeftImmediate@@YAIPADAAVNuance@@_N@Z
	DD	FLAT:?Print_ANDImmediate@@YAIPADAAVNuance@@_N@Z
	DD	FLAT:?Print_ANDScalar@@YAIPADAAVNuance@@_N@Z
	DD	FLAT:?Print_ANDImmediateShiftScalar@@YAIPADAAVNuance@@_N@Z
	DD	FLAT:?Print_ANDScalarShiftRightImmediate@@YAIPADAAVNuance@@_N@Z
	DD	FLAT:?Print_ANDScalarShiftLeftImmediate@@YAIPADAAVNuance@@_N@Z
	DD	FLAT:?Print_ANDScalarShiftScalar@@YAIPADAAVNuance@@_N@Z
	DD	FLAT:?Print_ANDScalarRotateScalar@@YAIPADAAVNuance@@_N@Z
	DD	FLAT:?Print_FTSTImmediate@@YAIPADAAVNuance@@_N@Z
	DD	FLAT:?Print_FTSTScalar@@YAIPADAAVNuance@@_N@Z
	DD	FLAT:?Print_FTSTImmediateShiftScalar@@YAIPADAAVNuance@@_N@Z
	DD	FLAT:?Print_FTSTScalarShiftRightImmediate@@YAIPADAAVNuance@@_N@Z
	DD	FLAT:?Print_FTSTScalarShiftLeftImmediate@@YAIPADAAVNuance@@_N@Z
	DD	FLAT:?Print_FTSTScalarShiftScalar@@YAIPADAAVNuance@@_N@Z
	DD	FLAT:?Print_FTSTScalarRotateScalar@@YAIPADAAVNuance@@_N@Z
	DD	FLAT:?Print_ORImmediate@@YAIPADAAVNuance@@_N@Z
	DD	FLAT:?Print_ORScalar@@YAIPADAAVNuance@@_N@Z
	DD	FLAT:?Print_ORImmediateShiftScalar@@YAIPADAAVNuance@@_N@Z
	DD	FLAT:?Print_ORScalarShiftRightImmediate@@YAIPADAAVNuance@@_N@Z
	DD	FLAT:?Print_ORScalarShiftLeftImmediate@@YAIPADAAVNuance@@_N@Z
	DD	FLAT:?Print_ORScalarShiftScalar@@YAIPADAAVNuance@@_N@Z
	DD	FLAT:?Print_ORScalarRotateScalar@@YAIPADAAVNuance@@_N@Z
	DD	FLAT:?Print_EORImmediate@@YAIPADAAVNuance@@_N@Z
	DD	FLAT:?Print_EORScalar@@YAIPADAAVNuance@@_N@Z
	DD	FLAT:?Print_EORImmediateShiftScalar@@YAIPADAAVNuance@@_N@Z
	DD	FLAT:?Print_EORScalarShiftRightImmediate@@YAIPADAAVNuance@@_N@Z
	DD	FLAT:?Print_EORScalarShiftLeftImmediate@@YAIPADAAVNuance@@_N@Z
	DD	FLAT:?Print_EORScalarShiftScalar@@YAIPADAAVNuance@@_N@Z
	DD	FLAT:?Print_EORScalarRotateScalar@@YAIPADAAVNuance@@_N@Z
	DD	FLAT:?Print_ADDWCScalar@@YAIPADAAVNuance@@_N@Z
	DD	FLAT:?Print_ADDWCImmediate@@YAIPADAAVNuance@@_N@Z
	DD	FLAT:?Print_ADDWCScalarShiftRightImmediate@@YAIPADAAVNuance@@_N@Z
	DD	FLAT:?Print_ADDWCScalarShiftLeftImmediate@@YAIPADAAVNuance@@_N@Z
	DD	FLAT:?Print_SUBWCScalar@@YAIPADAAVNuance@@_N@Z
	DD	FLAT:?Print_SUBWCImmediate@@YAIPADAAVNuance@@_N@Z
	DD	FLAT:?Print_SUBWCImmediateReverse@@YAIPADAAVNuance@@_N@Z
	DD	FLAT:?Print_SUBWCScalarShiftRightImmediate@@YAIPADAAVNuance@@_N@Z
	DD	FLAT:?Print_SUBWCScalarShiftLeftImmediate@@YAIPADAAVNuance@@_N@Z
	DD	FLAT:?Print_CMPWCScalar@@YAIPADAAVNuance@@_N@Z
	DD	FLAT:?Print_CMPWCImmediate@@YAIPADAAVNuance@@_N@Z
	DD	FLAT:?Print_CMPWCImmediateReverse@@YAIPADAAVNuance@@_N@Z
	DD	FLAT:?Print_CMPWCScalarShiftRightImmediate@@YAIPADAAVNuance@@_N@Z
	DD	FLAT:?Print_CMPWCScalarShiftLeftImmediate@@YAIPADAAVNuance@@_N@Z
	DD	FLAT:?Print_ADDM@@YAIPADAAVNuance@@_N@Z
	DD	FLAT:?Print_ADDMImmediate@@YAIPADAAVNuance@@_N@Z
	DD	FLAT:?Print_SUBM@@YAIPADAAVNuance@@_N@Z
	DD	FLAT:?Print_SUBMImmediateReverse@@YAIPADAAVNuance@@_N@Z
	DD	FLAT:?Print_MULScalarShiftAcshift@@YAIPADAAVNuance@@_N@Z
	DD	FLAT:?Print_MULScalarShiftRightImmediate@@YAIPADAAVNuance@@_N@Z
	DD	FLAT:?Print_MULScalarShiftLeftImmediate@@YAIPADAAVNuance@@_N@Z
	DD	FLAT:?Print_MULImmediateShiftAcshift@@YAIPADAAVNuance@@_N@Z
	DD	FLAT:?Print_MULScalarShiftScalar@@YAIPADAAVNuance@@_N@Z
	DD	FLAT:?Print_MULImmediateShiftScalar@@YAIPADAAVNuance@@_N@Z
	DD	FLAT:?Print_MULImmediateShiftRightImmediate@@YAIPADAAVNuance@@_N@Z
	DD	FLAT:?Print_MULImmediateShiftLeftImmediate@@YAIPADAAVNuance@@_N@Z
	DD	FLAT:?Print_MUL_SVImmediateShiftImmediate@@YAIPADAAVNuance@@_N@Z
	DD	FLAT:?Print_MUL_SVScalarShiftImmediate@@YAIPADAAVNuance@@_N@Z
	DD	FLAT:?Print_MUL_SVScalarShiftSvshift@@YAIPADAAVNuance@@_N@Z
	DD	FLAT:?Print_MUL_SVRuShiftImmediate@@YAIPADAAVNuance@@_N@Z
	DD	FLAT:?Print_MUL_SVRuShiftSvshift@@YAIPADAAVNuance@@_N@Z
	DD	FLAT:?Print_MUL_SVRvShiftImmediate@@YAIPADAAVNuance@@_N@Z
	DD	FLAT:?Print_MUL_SVRvShiftSvshift@@YAIPADAAVNuance@@_N@Z
	DD	FLAT:?Print_MUL_SVVectorShiftImmediate@@YAIPADAAVNuance@@_N@Z
	DD	FLAT:?Print_MUL_SVVectorShiftSvshift@@YAIPADAAVNuance@@_N@Z
	DD	FLAT:?Print_MUL_PImmediateShiftImmediate@@YAIPADAAVNuance@@_N@Z
	DD	FLAT:?Print_MUL_PScalarShiftImmediate@@YAIPADAAVNuance@@_N@Z
	DD	FLAT:?Print_MUL_PScalarShiftSvshift@@YAIPADAAVNuance@@_N@Z
	DD	FLAT:?Print_MUL_PRuShiftImmediate@@YAIPADAAVNuance@@_N@Z
	DD	FLAT:?Print_MUL_PRuShiftSvshift@@YAIPADAAVNuance@@_N@Z
	DD	FLAT:?Print_MUL_PRvShiftImmediate@@YAIPADAAVNuance@@_N@Z
	DD	FLAT:?Print_MUL_PRvShiftSvshift@@YAIPADAAVNuance@@_N@Z
	DD	FLAT:?Print_MUL_PVectorShiftImmediate@@YAIPADAAVNuance@@_N@Z
	DD	FLAT:?Print_MUL_PVectorShiftSvshift@@YAIPADAAVNuance@@_N@Z
	DD	FLAT:?Print_DOTPScalarShiftImmediate@@YAIPADAAVNuance@@_N@Z
	DD	FLAT:?Print_DOTPScalarShiftSvshift@@YAIPADAAVNuance@@_N@Z
	DD	FLAT:?Print_DOTPVectorShiftImmediate@@YAIPADAAVNuance@@_N@Z
	DD	FLAT:?Print_DOTPVectorShiftSvshift@@YAIPADAAVNuance@@_N@Z
	DD	FLAT:?Print_Mirror@@YAIPADAAVNuance@@_N@Z
	DD	FLAT:?Print_MV_SImmediate@@YAIPADAAVNuance@@_N@Z
	DD	FLAT:?Print_MV_SScalar@@YAIPADAAVNuance@@_N@Z
	DD	FLAT:?Print_MV_V@@YAIPADAAVNuance@@_N@Z
	DD	FLAT:?Print_PopVector@@YAIPADAAVNuance@@_N@Z
	DD	FLAT:?Print_PopVectorRz@@YAIPADAAVNuance@@_N@Z
	DD	FLAT:?Print_PopScalarRzi1@@YAIPADAAVNuance@@_N@Z
	DD	FLAT:?Print_PopScalarRzi2@@YAIPADAAVNuance@@_N@Z
	DD	FLAT:?Print_PushVector@@YAIPADAAVNuance@@_N@Z
	DD	FLAT:?Print_PushVectorRz@@YAIPADAAVNuance@@_N@Z
	DD	FLAT:?Print_PushScalarRzi1@@YAIPADAAVNuance@@_N@Z
	DD	FLAT:?Print_PushScalarRzi2@@YAIPADAAVNuance@@_N@Z
	DD	FLAT:?Print_LoadScalarLinear@@YAIPADAAVNuance@@_N@Z
	DD	FLAT:?Print_LoadScalarControlRegisterAbsolute@@YAIPADAAVNuance@@_N@Z
	DD	FLAT:?Print_LoadByteAbsolute@@YAIPADAAVNuance@@_N@Z
	DD	FLAT:?Print_LoadWordAbsolute@@YAIPADAAVNuance@@_N@Z
	DD	FLAT:?Print_LoadScalarAbsolute@@YAIPADAAVNuance@@_N@Z
	DD	FLAT:?Print_LoadShortVectorAbsolute@@YAIPADAAVNuance@@_N@Z
	DD	FLAT:?Print_LoadVectorAbsolute@@YAIPADAAVNuance@@_N@Z
	DD	FLAT:?Print_LoadVectorControlRegisterAbsolute@@YAIPADAAVNuance@@_N@Z
	DD	FLAT:?Print_LoadPixelAbsolute@@YAIPADAAVNuance@@_N@Z
	DD	FLAT:?Print_LoadPixelZAbsolute@@YAIPADAAVNuance@@_N@Z
	DD	FLAT:?Print_LoadByteLinear@@YAIPADAAVNuance@@_N@Z
	DD	FLAT:?Print_LoadByteBilinearUV@@YAIPADAAVNuance@@_N@Z
	DD	FLAT:?Print_LoadByteBilinearXY@@YAIPADAAVNuance@@_N@Z
	DD	FLAT:?Print_LoadWordLinear@@YAIPADAAVNuance@@_N@Z
	DD	FLAT:?Print_LoadWordBilinearUV@@YAIPADAAVNuance@@_N@Z
	DD	FLAT:?Print_LoadWordBilinearXY@@YAIPADAAVNuance@@_N@Z
	DD	FLAT:?Print_LoadScalarBilinearUV@@YAIPADAAVNuance@@_N@Z
	DD	FLAT:?Print_LoadScalarBilinearXY@@YAIPADAAVNuance@@_N@Z
	DD	FLAT:?Print_LoadShortVectorLinear@@YAIPADAAVNuance@@_N@Z
	DD	FLAT:?Print_LoadShortVectorBilinearUV@@YAIPADAAVNuance@@_N@Z
	DD	FLAT:?Print_LoadShortVectorBilinearXY@@YAIPADAAVNuance@@_N@Z
	DD	FLAT:?Print_LoadVectorLinear@@YAIPADAAVNuance@@_N@Z
	DD	FLAT:?Print_LoadVectorBilinearUV@@YAIPADAAVNuance@@_N@Z
	DD	FLAT:?Print_LoadVectorBilinearXY@@YAIPADAAVNuance@@_N@Z
	DD	FLAT:?Print_LoadPixelLinear@@YAIPADAAVNuance@@_N@Z
	DD	FLAT:?Print_LoadPixelBilinearUV@@YAIPADAAVNuance@@_N@Z
	DD	FLAT:?Print_LoadPixelBilinearXY@@YAIPADAAVNuance@@_N@Z
	DD	FLAT:?Print_LoadPixelZLinear@@YAIPADAAVNuance@@_N@Z
	DD	FLAT:?Print_LoadPixelZBilinearUV@@YAIPADAAVNuance@@_N@Z
	DD	FLAT:?Print_LoadPixelZBilinearXY@@YAIPADAAVNuance@@_N@Z
	DD	FLAT:?Print_StoreScalarAbsolute@@YAIPADAAVNuance@@_N@Z
	DD	FLAT:?Print_StoreScalarControlRegisterAbsolute@@YAIPADAAVNuance@@_N@Z
	DD	FLAT:?Print_StoreShortVectorAbsolute@@YAIPADAAVNuance@@_N@Z
	DD	FLAT:?Print_StoreVectorAbsolute@@YAIPADAAVNuance@@_N@Z
	DD	FLAT:?Print_StoreVectorControlRegisterAbsolute@@YAIPADAAVNuance@@_N@Z
	DD	FLAT:?Print_StorePixelAbsolute@@YAIPADAAVNuance@@_N@Z
	DD	FLAT:?Print_StorePixelZAbsolute@@YAIPADAAVNuance@@_N@Z
	DD	FLAT:?Print_StoreScalarLinear@@YAIPADAAVNuance@@_N@Z
	DD	FLAT:?Print_StoreScalarBilinearUV@@YAIPADAAVNuance@@_N@Z
	DD	FLAT:?Print_StoreScalarBilinearXY@@YAIPADAAVNuance@@_N@Z
	DD	FLAT:?Print_StoreShortVectorLinear@@YAIPADAAVNuance@@_N@Z
	DD	FLAT:?Print_StoreShortVectorBilinearUV@@YAIPADAAVNuance@@_N@Z
	DD	FLAT:?Print_StoreShortVectorBilinearXY@@YAIPADAAVNuance@@_N@Z
	DD	FLAT:?Print_StoreVectorLinear@@YAIPADAAVNuance@@_N@Z
	DD	FLAT:?Print_StoreVectorBilinearUV@@YAIPADAAVNuance@@_N@Z
	DD	FLAT:?Print_StoreVectorBilinearXY@@YAIPADAAVNuance@@_N@Z
	DD	FLAT:?Print_StorePixelLinear@@YAIPADAAVNuance@@_N@Z
	DD	FLAT:?Print_StorePixelBilinearUV@@YAIPADAAVNuance@@_N@Z
	DD	FLAT:?Print_StorePixelBilinearXY@@YAIPADAAVNuance@@_N@Z
	DD	FLAT:?Print_StorePixelZLinear@@YAIPADAAVNuance@@_N@Z
	DD	FLAT:?Print_StorePixelZBilinearUV@@YAIPADAAVNuance@@_N@Z
	DD	FLAT:?Print_StorePixelZBilinearXY@@YAIPADAAVNuance@@_N@Z
	DD	FLAT:?Print_StoreScalarControlRegisterImmediate@@YAIPADAAVNuance@@_N@Z
	DD	FLAT:?Print_StoreScalarImmediate@@YAIPADAAVNuance@@_N@Z
	DD	FLAT:?Print_StoreScalarRegisterConstant@@YAIPADAAVNuance@@_N@Z
	DD	FLAT:?Print_StoreMiscRegisterConstant@@YAIPADAAVNuance@@_N@Z
	DD	FLAT:?Print_PacketStart@@YAIPADAAVNuance@@_N@Z
	DD	FLAT:?Print_PacketEnd@@YAIPADAAVNuance@@_N@Z
	DD	FLAT:?Print_CheckECUSkipCounter@@YAIPADAAVNuance@@_N@Z
	DD	FLAT:?Print_SaveFlags@@YAIPADAAVNuance@@_N@Z
	DD	FLAT:?Print_SaveRegs@@YAIPADAAVNuance@@_N@Z
?emitHandlers@@3PAP6AXPAVEmitterVariables@@AAVNuance@@@ZA DD FLAT:?Emit_NOP@@YAXPAVEmitterVariables@@AAVNuance@@@Z ; emitHandlers
	DD	00H
	DD	FLAT:?Emit_BRAAlways@@YAXPAVEmitterVariables@@AAVNuance@@@Z
	DD	FLAT:?Emit_BRAAlways_NOP@@YAXPAVEmitterVariables@@AAVNuance@@@Z
	DD	FLAT:?Emit_BRAConditional@@YAXPAVEmitterVariables@@AAVNuance@@@Z
	DD	FLAT:?Emit_BRAConditional_NOP@@YAXPAVEmitterVariables@@AAVNuance@@@Z
	DD	FLAT:?Emit_JMPAlwaysIndirect@@YAXPAVEmitterVariables@@AAVNuance@@@Z
	DD	FLAT:?Emit_JMPAlwaysIndirect_NOP@@YAXPAVEmitterVariables@@AAVNuance@@@Z
	DD	FLAT:?Emit_JMPConditionalIndirect@@YAXPAVEmitterVariables@@AAVNuance@@@Z
	DD	FLAT:?Emit_JMPConditionalIndirect_NOP@@YAXPAVEmitterVariables@@AAVNuance@@@Z
	DD	FLAT:?Emit_JSRAlways@@YAXPAVEmitterVariables@@AAVNuance@@@Z
	DD	FLAT:?Emit_JSRAlways_NOP@@YAXPAVEmitterVariables@@AAVNuance@@@Z
	DD	FLAT:?Emit_JSRConditional@@YAXPAVEmitterVariables@@AAVNuance@@@Z
	DD	FLAT:?Emit_JSRConditional_NOP@@YAXPAVEmitterVariables@@AAVNuance@@@Z
	DD	FLAT:?Emit_JSRAlwaysIndirect@@YAXPAVEmitterVariables@@AAVNuance@@@Z
	DD	FLAT:?Emit_JSRAlwaysIndirect_NOP@@YAXPAVEmitterVariables@@AAVNuance@@@Z
	DD	FLAT:?Emit_JSRConditionalIndirect@@YAXPAVEmitterVariables@@AAVNuance@@@Z
	DD	FLAT:?Emit_JSRConditionalIndirect_NOP@@YAXPAVEmitterVariables@@AAVNuance@@@Z
	DD	FLAT:?Emit_RTI1Conditional@@YAXPAVEmitterVariables@@AAVNuance@@@Z
	DD	FLAT:?Emit_RTI1Conditional_NOP@@YAXPAVEmitterVariables@@AAVNuance@@@Z
	DD	FLAT:?Emit_RTI2Conditional@@YAXPAVEmitterVariables@@AAVNuance@@@Z
	DD	FLAT:?Emit_RTI2Conditional_NOP@@YAXPAVEmitterVariables@@AAVNuance@@@Z
	DD	FLAT:?Emit_RTSAlways@@YAXPAVEmitterVariables@@AAVNuance@@@Z
	DD	FLAT:?Emit_RTSAlways_NOP@@YAXPAVEmitterVariables@@AAVNuance@@@Z
	DD	FLAT:?Emit_RTSConditional@@YAXPAVEmitterVariables@@AAVNuance@@@Z
	DD	FLAT:?Emit_RTSConditional_NOP@@YAXPAVEmitterVariables@@AAVNuance@@@Z
	DD	FLAT:?Emit_DECRc1@@YAXPAVEmitterVariables@@AAVNuance@@@Z
	DD	FLAT:?Emit_DECRc0@@YAXPAVEmitterVariables@@AAVNuance@@@Z
	DD	FLAT:?Emit_DECBoth@@YAXPAVEmitterVariables@@AAVNuance@@@Z
	DD	FLAT:?Emit_ADDRImmediateOnly@@YAXPAVEmitterVariables@@AAVNuance@@@Z
	DD	FLAT:?Emit_ADDRImmediate@@YAXPAVEmitterVariables@@AAVNuance@@@Z
	DD	FLAT:?Emit_ADDRScalarOnly@@YAXPAVEmitterVariables@@AAVNuance@@@Z
	DD	FLAT:?Emit_ADDRScalar@@YAXPAVEmitterVariables@@AAVNuance@@@Z
	DD	FLAT:?Emit_MVRImmediateOnly@@YAXPAVEmitterVariables@@AAVNuance@@@Z
	DD	FLAT:?Emit_MVRImmediate@@YAXPAVEmitterVariables@@AAVNuance@@@Z
	DD	FLAT:?Emit_MVRScalarOnly@@YAXPAVEmitterVariables@@AAVNuance@@@Z
	DD	FLAT:?Emit_MVRScalar@@YAXPAVEmitterVariables@@AAVNuance@@@Z
	DD	FLAT:?Emit_RangeOnly@@YAXPAVEmitterVariables@@AAVNuance@@@Z
	DD	FLAT:?Emit_Range@@YAXPAVEmitterVariables@@AAVNuance@@@Z
	DD	FLAT:?Emit_ModuloOnly@@YAXPAVEmitterVariables@@AAVNuance@@@Z
	DD	FLAT:?Emit_Modulo@@YAXPAVEmitterVariables@@AAVNuance@@@Z
	DD	FLAT:?Emit_ABS@@YAXPAVEmitterVariables@@AAVNuance@@@Z
	DD	FLAT:?Emit_BITSScalar@@YAXPAVEmitterVariables@@AAVNuance@@@Z
	DD	FLAT:?Emit_BITSImmediate@@YAXPAVEmitterVariables@@AAVNuance@@@Z
	DD	FLAT:?Emit_BTST@@YAXPAVEmitterVariables@@AAVNuance@@@Z
	DD	FLAT:?Emit_BUTT@@YAXPAVEmitterVariables@@AAVNuance@@@Z
	DD	FLAT:?Emit_COPY@@YAXPAVEmitterVariables@@AAVNuance@@@Z
	DD	FLAT:?Emit_MSB@@YAXPAVEmitterVariables@@AAVNuance@@@Z
	DD	FLAT:?Emit_SAT@@YAXPAVEmitterVariables@@AAVNuance@@@Z
	DD	FLAT:?Emit_AS@@YAXPAVEmitterVariables@@AAVNuance@@@Z
	DD	FLAT:?Emit_ASL@@YAXPAVEmitterVariables@@AAVNuance@@@Z
	DD	FLAT:?Emit_ASR@@YAXPAVEmitterVariables@@AAVNuance@@@Z
	DD	FLAT:?Emit_LS@@YAXPAVEmitterVariables@@AAVNuance@@@Z
	DD	FLAT:?Emit_LSR@@YAXPAVEmitterVariables@@AAVNuance@@@Z
	DD	FLAT:?Emit_ROT@@YAXPAVEmitterVariables@@AAVNuance@@@Z
	DD	FLAT:?Emit_ROL@@YAXPAVEmitterVariables@@AAVNuance@@@Z
	DD	FLAT:?Emit_ROR@@YAXPAVEmitterVariables@@AAVNuance@@@Z
	DD	FLAT:?Emit_ADD_P@@YAXPAVEmitterVariables@@AAVNuance@@@Z
	DD	FLAT:?Emit_SUB_P@@YAXPAVEmitterVariables@@AAVNuance@@@Z
	DD	FLAT:?Emit_ADD_SV@@YAXPAVEmitterVariables@@AAVNuance@@@Z
	DD	FLAT:?Emit_SUB_SV@@YAXPAVEmitterVariables@@AAVNuance@@@Z
	DD	FLAT:?Emit_ADDImmediate@@YAXPAVEmitterVariables@@AAVNuance@@@Z
	DD	FLAT:?Emit_ADDScalar@@YAXPAVEmitterVariables@@AAVNuance@@@Z
	DD	FLAT:?Emit_ADDScalarShiftRightImmediate@@YAXPAVEmitterVariables@@AAVNuance@@@Z
	DD	FLAT:?Emit_ADDScalarShiftLeftImmediate@@YAXPAVEmitterVariables@@AAVNuance@@@Z
	DD	FLAT:?Emit_SUBImmediate@@YAXPAVEmitterVariables@@AAVNuance@@@Z
	DD	FLAT:?Emit_SUBImmediateReverse@@YAXPAVEmitterVariables@@AAVNuance@@@Z
	DD	FLAT:?Emit_SUBScalar@@YAXPAVEmitterVariables@@AAVNuance@@@Z
	DD	FLAT:?Emit_SUBScalarShiftRightImmediate@@YAXPAVEmitterVariables@@AAVNuance@@@Z
	DD	FLAT:?Emit_SUBScalarShiftLeftImmediate@@YAXPAVEmitterVariables@@AAVNuance@@@Z
	DD	FLAT:?Emit_CMPImmediate@@YAXPAVEmitterVariables@@AAVNuance@@@Z
	DD	FLAT:?Emit_CMPImmediateReverse@@YAXPAVEmitterVariables@@AAVNuance@@@Z
	DD	FLAT:?Emit_CMPScalar@@YAXPAVEmitterVariables@@AAVNuance@@@Z
	DD	FLAT:?Emit_CMPScalarShiftRightImmediate@@YAXPAVEmitterVariables@@AAVNuance@@@Z
	DD	FLAT:?Emit_CMPScalarShiftLeftImmediate@@YAXPAVEmitterVariables@@AAVNuance@@@Z
	DD	FLAT:?Emit_ANDImmediate@@YAXPAVEmitterVariables@@AAVNuance@@@Z
	DD	FLAT:?Emit_ANDScalar@@YAXPAVEmitterVariables@@AAVNuance@@@Z
	DD	FLAT:?Emit_ANDImmediateShiftScalar@@YAXPAVEmitterVariables@@AAVNuance@@@Z
	DD	FLAT:?Emit_ANDScalarShiftRightImmediate@@YAXPAVEmitterVariables@@AAVNuance@@@Z
	DD	FLAT:?Emit_ANDScalarShiftLeftImmediate@@YAXPAVEmitterVariables@@AAVNuance@@@Z
	DD	FLAT:?Emit_ANDScalarShiftScalar@@YAXPAVEmitterVariables@@AAVNuance@@@Z
	DD	FLAT:?Emit_ANDScalarRotateScalar@@YAXPAVEmitterVariables@@AAVNuance@@@Z
	DD	FLAT:?Emit_FTSTImmediate@@YAXPAVEmitterVariables@@AAVNuance@@@Z
	DD	FLAT:?Emit_FTSTScalar@@YAXPAVEmitterVariables@@AAVNuance@@@Z
	DD	FLAT:?Emit_FTSTImmediateShiftScalar@@YAXPAVEmitterVariables@@AAVNuance@@@Z
	DD	FLAT:?Emit_FTSTScalarShiftRightImmediate@@YAXPAVEmitterVariables@@AAVNuance@@@Z
	DD	FLAT:?Emit_FTSTScalarShiftLeftImmediate@@YAXPAVEmitterVariables@@AAVNuance@@@Z
	DD	FLAT:?Emit_FTSTScalarShiftScalar@@YAXPAVEmitterVariables@@AAVNuance@@@Z
	DD	FLAT:?Emit_FTSTScalarRotateScalar@@YAXPAVEmitterVariables@@AAVNuance@@@Z
	DD	FLAT:?Emit_ORImmediate@@YAXPAVEmitterVariables@@AAVNuance@@@Z
	DD	FLAT:?Emit_ORScalar@@YAXPAVEmitterVariables@@AAVNuance@@@Z
	DD	FLAT:?Emit_ORImmediateShiftScalar@@YAXPAVEmitterVariables@@AAVNuance@@@Z
	DD	FLAT:?Emit_ORScalarShiftRightImmediate@@YAXPAVEmitterVariables@@AAVNuance@@@Z
	DD	FLAT:?Emit_ORScalarShiftLeftImmediate@@YAXPAVEmitterVariables@@AAVNuance@@@Z
	DD	FLAT:?Emit_ORScalarShiftScalar@@YAXPAVEmitterVariables@@AAVNuance@@@Z
	DD	FLAT:?Emit_ORScalarRotateScalar@@YAXPAVEmitterVariables@@AAVNuance@@@Z
	DD	FLAT:?Emit_EORImmediate@@YAXPAVEmitterVariables@@AAVNuance@@@Z
	DD	FLAT:?Emit_EORScalar@@YAXPAVEmitterVariables@@AAVNuance@@@Z
	DD	FLAT:?Emit_EORImmediateShiftScalar@@YAXPAVEmitterVariables@@AAVNuance@@@Z
	DD	FLAT:?Emit_EORScalarShiftRightImmediate@@YAXPAVEmitterVariables@@AAVNuance@@@Z
	DD	FLAT:?Emit_EORScalarShiftLeftImmediate@@YAXPAVEmitterVariables@@AAVNuance@@@Z
	DD	FLAT:?Emit_EORScalarShiftScalar@@YAXPAVEmitterVariables@@AAVNuance@@@Z
	DD	FLAT:?Emit_EORScalarRotateScalar@@YAXPAVEmitterVariables@@AAVNuance@@@Z
	DD	FLAT:?Emit_ADDWCScalar@@YAXPAVEmitterVariables@@AAVNuance@@@Z
	DD	FLAT:?Emit_ADDWCImmediate@@YAXPAVEmitterVariables@@AAVNuance@@@Z
	DD	FLAT:?Emit_ADDWCScalarShiftRightImmediate@@YAXPAVEmitterVariables@@AAVNuance@@@Z
	DD	FLAT:?Emit_ADDWCScalarShiftLeftImmediate@@YAXPAVEmitterVariables@@AAVNuance@@@Z
	DD	FLAT:?Emit_SUBWCScalar@@YAXPAVEmitterVariables@@AAVNuance@@@Z
	DD	FLAT:?Emit_SUBWCImmediate@@YAXPAVEmitterVariables@@AAVNuance@@@Z
	DD	FLAT:?Emit_SUBWCImmediateReverse@@YAXPAVEmitterVariables@@AAVNuance@@@Z
	DD	FLAT:?Emit_SUBWCScalarShiftRightImmediate@@YAXPAVEmitterVariables@@AAVNuance@@@Z
	DD	FLAT:?Emit_SUBWCScalarShiftLeftImmediate@@YAXPAVEmitterVariables@@AAVNuance@@@Z
	DD	FLAT:?Emit_CMPWCScalar@@YAXPAVEmitterVariables@@AAVNuance@@@Z
	DD	FLAT:?Emit_CMPWCImmediate@@YAXPAVEmitterVariables@@AAVNuance@@@Z
	DD	FLAT:?Emit_CMPWCImmediateReverse@@YAXPAVEmitterVariables@@AAVNuance@@@Z
	DD	FLAT:?Emit_CMPWCScalarShiftRightImmediate@@YAXPAVEmitterVariables@@AAVNuance@@@Z
	DD	FLAT:?Emit_CMPWCScalarShiftLeftImmediate@@YAXPAVEmitterVariables@@AAVNuance@@@Z
	DD	FLAT:?Emit_ADDM@@YAXPAVEmitterVariables@@AAVNuance@@@Z
	DD	FLAT:?Emit_ADDMImmediate@@YAXPAVEmitterVariables@@AAVNuance@@@Z
	DD	FLAT:?Emit_SUBM@@YAXPAVEmitterVariables@@AAVNuance@@@Z
	DD	FLAT:?Emit_SUBMImmediateReverse@@YAXPAVEmitterVariables@@AAVNuance@@@Z
	DD	FLAT:?Emit_MULScalarShiftAcshift@@YAXPAVEmitterVariables@@AAVNuance@@@Z
	DD	FLAT:?Emit_MULScalarShiftRightImmediate@@YAXPAVEmitterVariables@@AAVNuance@@@Z
	DD	FLAT:?Emit_MULScalarShiftLeftImmediate@@YAXPAVEmitterVariables@@AAVNuance@@@Z
	DD	FLAT:?Emit_MULImmediateShiftAcshift@@YAXPAVEmitterVariables@@AAVNuance@@@Z
	DD	FLAT:?Emit_MULScalarShiftScalar@@YAXPAVEmitterVariables@@AAVNuance@@@Z
	DD	FLAT:?Emit_MULImmediateShiftScalar@@YAXPAVEmitterVariables@@AAVNuance@@@Z
	DD	FLAT:?Emit_MULImmediateShiftRightImmediate@@YAXPAVEmitterVariables@@AAVNuance@@@Z
	DD	FLAT:?Emit_MULImmediateShiftLeftImmediate@@YAXPAVEmitterVariables@@AAVNuance@@@Z
	DD	FLAT:?Emit_MUL_SVImmediateShiftImmediate@@YAXPAVEmitterVariables@@AAVNuance@@@Z
	DD	FLAT:?Emit_MUL_SVScalarShiftImmediate@@YAXPAVEmitterVariables@@AAVNuance@@@Z
	DD	FLAT:?Emit_MUL_SVScalarShiftSvshift@@YAXPAVEmitterVariables@@AAVNuance@@@Z
	DD	FLAT:?Emit_MUL_SVRuShiftImmediate@@YAXPAVEmitterVariables@@AAVNuance@@@Z
	DD	FLAT:?Emit_MUL_SVRuShiftSvshift@@YAXPAVEmitterVariables@@AAVNuance@@@Z
	DD	FLAT:?Emit_MUL_SVRvShiftImmediate@@YAXPAVEmitterVariables@@AAVNuance@@@Z
	DD	FLAT:?Emit_MUL_SVRvShiftSvshift@@YAXPAVEmitterVariables@@AAVNuance@@@Z
	DD	FLAT:?Emit_MUL_SVVectorShiftImmediate@@YAXPAVEmitterVariables@@AAVNuance@@@Z
	DD	FLAT:?Emit_MUL_SVVectorShiftSvshift@@YAXPAVEmitterVariables@@AAVNuance@@@Z
	DD	FLAT:?Emit_MUL_PImmediateShiftImmediate@@YAXPAVEmitterVariables@@AAVNuance@@@Z
	DD	FLAT:?Emit_MUL_PScalarShiftImmediate@@YAXPAVEmitterVariables@@AAVNuance@@@Z
	DD	FLAT:?Emit_MUL_PScalarShiftSvshift@@YAXPAVEmitterVariables@@AAVNuance@@@Z
	DD	FLAT:?Emit_MUL_PRuShiftImmediate@@YAXPAVEmitterVariables@@AAVNuance@@@Z
	DD	FLAT:?Emit_MUL_PRuShiftSvshift@@YAXPAVEmitterVariables@@AAVNuance@@@Z
	DD	FLAT:?Emit_MUL_PRvShiftImmediate@@YAXPAVEmitterVariables@@AAVNuance@@@Z
	DD	FLAT:?Emit_MUL_PRvShiftSvshift@@YAXPAVEmitterVariables@@AAVNuance@@@Z
	DD	FLAT:?Emit_MUL_PVectorShiftImmediate@@YAXPAVEmitterVariables@@AAVNuance@@@Z
	DD	FLAT:?Emit_MUL_PVectorShiftSvshift@@YAXPAVEmitterVariables@@AAVNuance@@@Z
	DD	FLAT:?Emit_DOTPScalarShiftImmediate@@YAXPAVEmitterVariables@@AAVNuance@@@Z
	DD	FLAT:?Emit_DOTPScalarShiftSvshift@@YAXPAVEmitterVariables@@AAVNuance@@@Z
	DD	FLAT:?Emit_DOTPVectorShiftImmediate@@YAXPAVEmitterVariables@@AAVNuance@@@Z
	DD	FLAT:?Emit_DOTPVectorShiftSvshift@@YAXPAVEmitterVariables@@AAVNuance@@@Z
	DD	FLAT:?Emit_Mirror@@YAXPAVEmitterVariables@@AAVNuance@@@Z
	DD	FLAT:?Emit_MV_SImmediate@@YAXPAVEmitterVariables@@AAVNuance@@@Z
	DD	FLAT:?Emit_MV_SScalar@@YAXPAVEmitterVariables@@AAVNuance@@@Z
	DD	FLAT:?Emit_MV_V@@YAXPAVEmitterVariables@@AAVNuance@@@Z
	DD	FLAT:?Emit_PopVector@@YAXPAVEmitterVariables@@AAVNuance@@@Z
	DD	FLAT:?Emit_PopVectorRz@@YAXPAVEmitterVariables@@AAVNuance@@@Z
	DD	FLAT:?Emit_PopScalarRzi1@@YAXPAVEmitterVariables@@AAVNuance@@@Z
	DD	FLAT:?Emit_PopScalarRzi2@@YAXPAVEmitterVariables@@AAVNuance@@@Z
	DD	FLAT:?Emit_PushVector@@YAXPAVEmitterVariables@@AAVNuance@@@Z
	DD	FLAT:?Emit_PushVectorRz@@YAXPAVEmitterVariables@@AAVNuance@@@Z
	DD	FLAT:?Emit_PushScalarRzi1@@YAXPAVEmitterVariables@@AAVNuance@@@Z
	DD	FLAT:?Emit_PushScalarRzi2@@YAXPAVEmitterVariables@@AAVNuance@@@Z
	DD	FLAT:?Emit_LoadScalarLinear@@YAXPAVEmitterVariables@@AAVNuance@@@Z
	DD	FLAT:?Emit_LoadScalarControlRegisterAbsolute@@YAXPAVEmitterVariables@@AAVNuance@@@Z
	DD	FLAT:?Emit_LoadByteAbsolute@@YAXPAVEmitterVariables@@AAVNuance@@@Z
	DD	FLAT:?Emit_LoadWordAbsolute@@YAXPAVEmitterVariables@@AAVNuance@@@Z
	DD	FLAT:?Emit_LoadScalarAbsolute@@YAXPAVEmitterVariables@@AAVNuance@@@Z
	DD	FLAT:?Emit_LoadShortVectorAbsolute@@YAXPAVEmitterVariables@@AAVNuance@@@Z
	DD	FLAT:?Emit_LoadVectorAbsolute@@YAXPAVEmitterVariables@@AAVNuance@@@Z
	DD	00H
	DD	FLAT:?Emit_LoadPixelAbsolute@@YAXPAVEmitterVariables@@AAVNuance@@@Z
	DD	FLAT:?Emit_LoadPixelZAbsolute@@YAXPAVEmitterVariables@@AAVNuance@@@Z
	DD	FLAT:?Emit_LoadByteLinear@@YAXPAVEmitterVariables@@AAVNuance@@@Z
	DD	FLAT:?Emit_LoadByteBilinearUV@@YAXPAVEmitterVariables@@AAVNuance@@@Z
	DD	FLAT:?Emit_LoadByteBilinearXY@@YAXPAVEmitterVariables@@AAVNuance@@@Z
	DD	FLAT:?Emit_LoadWordLinear@@YAXPAVEmitterVariables@@AAVNuance@@@Z
	DD	FLAT:?Emit_LoadWordBilinearUV@@YAXPAVEmitterVariables@@AAVNuance@@@Z
	DD	FLAT:?Emit_LoadWordBilinearXY@@YAXPAVEmitterVariables@@AAVNuance@@@Z
	DD	FLAT:?Emit_LoadScalarBilinearUV@@YAXPAVEmitterVariables@@AAVNuance@@@Z
	DD	FLAT:?Emit_LoadScalarBilinearXY@@YAXPAVEmitterVariables@@AAVNuance@@@Z
	DD	FLAT:?Emit_LoadShortVectorLinear@@YAXPAVEmitterVariables@@AAVNuance@@@Z
	DD	FLAT:?Emit_LoadShortVectorBilinearUV@@YAXPAVEmitterVariables@@AAVNuance@@@Z
	DD	FLAT:?Emit_LoadShortVectorBilinearXY@@YAXPAVEmitterVariables@@AAVNuance@@@Z
	DD	FLAT:?Emit_LoadVectorLinear@@YAXPAVEmitterVariables@@AAVNuance@@@Z
	DD	FLAT:?Emit_LoadVectorBilinearUV@@YAXPAVEmitterVariables@@AAVNuance@@@Z
	DD	FLAT:?Emit_LoadVectorBilinearXY@@YAXPAVEmitterVariables@@AAVNuance@@@Z
	DD	FLAT:?Emit_LoadPixelLinear@@YAXPAVEmitterVariables@@AAVNuance@@@Z
	DD	FLAT:?Emit_LoadPixelBilinearUV@@YAXPAVEmitterVariables@@AAVNuance@@@Z
	DD	FLAT:?Emit_LoadPixelBilinearXY@@YAXPAVEmitterVariables@@AAVNuance@@@Z
	DD	FLAT:?Emit_LoadPixelZLinear@@YAXPAVEmitterVariables@@AAVNuance@@@Z
	DD	FLAT:?Emit_LoadPixelZBilinearUV@@YAXPAVEmitterVariables@@AAVNuance@@@Z
	DD	FLAT:?Emit_LoadPixelZBilinearXY@@YAXPAVEmitterVariables@@AAVNuance@@@Z
	DD	FLAT:?Emit_StoreScalarAbsolute@@YAXPAVEmitterVariables@@AAVNuance@@@Z
	DD	FLAT:?Emit_StoreScalarControlRegisterAbsolute@@YAXPAVEmitterVariables@@AAVNuance@@@Z
	DD	FLAT:?Emit_StoreShortVectorAbsolute@@YAXPAVEmitterVariables@@AAVNuance@@@Z
	DD	FLAT:?Emit_StoreVectorAbsolute@@YAXPAVEmitterVariables@@AAVNuance@@@Z
	DD	00H
	DD	FLAT:?Emit_StorePixelAbsolute@@YAXPAVEmitterVariables@@AAVNuance@@@Z
	DD	FLAT:?Emit_StorePixelZAbsolute@@YAXPAVEmitterVariables@@AAVNuance@@@Z
	DD	FLAT:?Emit_StoreScalarLinear@@YAXPAVEmitterVariables@@AAVNuance@@@Z
	DD	FLAT:?Emit_StoreScalarBilinearUV@@YAXPAVEmitterVariables@@AAVNuance@@@Z
	DD	FLAT:?Emit_StoreScalarBilinearXY@@YAXPAVEmitterVariables@@AAVNuance@@@Z
	DD	FLAT:?Emit_StoreShortVectorLinear@@YAXPAVEmitterVariables@@AAVNuance@@@Z
	DD	FLAT:?Emit_StoreShortVectorBilinearUV@@YAXPAVEmitterVariables@@AAVNuance@@@Z
	DD	FLAT:?Emit_StoreShortVectorBilinearXY@@YAXPAVEmitterVariables@@AAVNuance@@@Z
	DD	FLAT:?Emit_StoreVectorLinear@@YAXPAVEmitterVariables@@AAVNuance@@@Z
	DD	FLAT:?Emit_StoreVectorBilinearUV@@YAXPAVEmitterVariables@@AAVNuance@@@Z
	DD	FLAT:?Emit_StoreVectorBilinearXY@@YAXPAVEmitterVariables@@AAVNuance@@@Z
	DD	FLAT:?Emit_StorePixelLinear@@YAXPAVEmitterVariables@@AAVNuance@@@Z
	DD	FLAT:?Emit_StorePixelBilinearUV@@YAXPAVEmitterVariables@@AAVNuance@@@Z
	DD	FLAT:?Emit_StorePixelBilinearXY@@YAXPAVEmitterVariables@@AAVNuance@@@Z
	DD	FLAT:?Emit_StorePixelZLinear@@YAXPAVEmitterVariables@@AAVNuance@@@Z
	DD	FLAT:?Emit_StorePixelZBilinearUV@@YAXPAVEmitterVariables@@AAVNuance@@@Z
	DD	FLAT:?Emit_StorePixelZBilinearXY@@YAXPAVEmitterVariables@@AAVNuance@@@Z
	DD	FLAT:?Emit_StoreScalarControlRegisterImmediate@@YAXPAVEmitterVariables@@AAVNuance@@@Z
	DD	FLAT:?Emit_StoreScalarImmediate@@YAXPAVEmitterVariables@@AAVNuance@@@Z
	DD	FLAT:?Emit_StoreScalarRegisterConstant@@YAXPAVEmitterVariables@@AAVNuance@@@Z
	DD	FLAT:?Emit_StoreMiscRegisterConstant@@YAXPAVEmitterVariables@@AAVNuance@@@Z
	DD	FLAT:?Emit_NOP@@YAXPAVEmitterVariables@@AAVNuance@@@Z
	DD	FLAT:?Emit_NOP@@YAXPAVEmitterVariables@@AAVNuance@@@Z
	DD	FLAT:?Emit_NOP@@YAXPAVEmitterVariables@@AAVNuance@@@Z
	DD	FLAT:?Emit_SaveRegs@@YAXPAVEmitterVariables@@AAVNuance@@@Z
	DD	FLAT:?Emit_SaveRegs@@YAXPAVEmitterVariables@@AAVNuance@@@Z
_DATA	ENDS
CONST	SEGMENT
$SG23340 DB	'bad allocation', 00H
	ORG $+1
$SG52673 DB	'w', 00H
	ORG $+2
$SG52674 DB	'logfile', 00H
$SG52676 DB	'w', 00H
	ORG $+2
$SG52677 DB	'commlog', 00H
$SG53035 DB	'%s = $%8.8lx', 0aH, 00H
	ORG $+2
$SG53209 DB	'breakpoint', 0aH, 00H
$SG53212 DB	'nop', 0aH, 00H
CONST	ENDS
PUBLIC	?FindInstructionCacheEntry@InstructionCache@@QAEPAVInstructionCacheEntry@@IAAI@Z ; InstructionCache::FindInstructionCacheEntry
; Function compile flags: /Ogtpy
; File c:\nuanceexperimental\instructioncache.h
;	COMDAT ?FindInstructionCacheEntry@InstructionCache@@QAEPAVInstructionCacheEntry@@IAAI@Z
_TEXT	SEGMENT
_addressKey$ = 8					; size = 4
_bValid$ = 12						; size = 4
?FindInstructionCacheEntry@InstructionCache@@QAEPAVInstructionCacheEntry@@IAAI@Z PROC ; InstructionCache::FindInstructionCacheEntry, COMDAT
; _this$ = ecx

; 158  :   {

  00000	8b d1		 mov	 edx, ecx

; 159  :     uint32 cacheEntryIndex = (addressKey >> 1) & (numEntries - 1);

  00002	8b 42 08	 mov	 eax, DWORD PTR [edx+8]
  00005	8b 4c 24 04	 mov	 ecx, DWORD PTR _addressKey$[esp-4]
  00009	83 e8 01	 sub	 eax, 1
  0000c	d1 e9		 shr	 ecx, 1
  0000e	56		 push	 esi

; 160  : 
; 161  :     if(bValid)

  0000f	8b 74 24 0c	 mov	 esi, DWORD PTR _bValid$[esp]
  00013	23 c1		 and	 eax, ecx
  00015	83 3e 00	 cmp	 DWORD PTR [esi], 0
  00018	74 1c		 je	 SHORT $LN1@FindInstru
  0001a	53		 push	 ebx

; 162  :     {
; 163  :       bValid = validBitmap[cacheEntryIndex >> 5];
; 164  :       bValid &= (0x80000000UL >> (cacheEntryIndex & 0x1FUL));

  0001b	8b 1a		 mov	 ebx, DWORD PTR [edx]
  0001d	57		 push	 edi
  0001e	8b c8		 mov	 ecx, eax
  00020	83 e1 1f	 and	 ecx, 31			; 0000001fH
  00023	bf 00 00 00 80	 mov	 edi, -2147483648	; 80000000H
  00028	d3 ef		 shr	 edi, cl
  0002a	8b c8		 mov	 ecx, eax
  0002c	c1 e9 05	 shr	 ecx, 5
  0002f	23 3c 8b	 and	 edi, DWORD PTR [ebx+ecx*4]
  00032	89 3e		 mov	 DWORD PTR [esi], edi
  00034	5f		 pop	 edi
  00035	5b		 pop	 ebx
$LN1@FindInstru:

; 165  :     }
; 166  :     return &cacheEntries[cacheEntryIndex];

  00036	69 c0 0c 01 00
	00		 imul	 eax, 268		; 0000010cH
  0003c	03 42 04	 add	 eax, DWORD PTR [edx+4]
  0003f	5e		 pop	 esi

; 167  :   }

  00040	c2 08 00	 ret	 8
?FindInstructionCacheEntry@InstructionCache@@QAEPAVInstructionCacheEntry@@IAAI@Z ENDP ; InstructionCache::FindInstructionCacheEntry
_TEXT	ENDS
PUBLIC	?SetEntryValid@InstructionCache@@QAEXI@Z	; InstructionCache::SetEntryValid
; Function compile flags: /Ogtpy
;	COMDAT ?SetEntryValid@InstructionCache@@QAEXI@Z
_TEXT	SEGMENT
_addressKey$ = 8					; size = 4
?SetEntryValid@InstructionCache@@QAEXI@Z PROC		; InstructionCache::SetEntryValid, COMDAT
; _this$ = ecx

; 171  :     uint32 cacheEntryIndex = (addressKey >> 1) & (numEntries - 1);

  00000	8b 41 08	 mov	 eax, DWORD PTR [ecx+8]
  00003	8b 54 24 04	 mov	 edx, DWORD PTR _addressKey$[esp-4]

; 172  :     validBitmap[cacheEntryIndex >> 5] |= (0x80000000UL >> (cacheEntryIndex & 0x1FUL));

  00007	8b 09		 mov	 ecx, DWORD PTR [ecx]
  00009	d1 ea		 shr	 edx, 1
  0000b	83 e8 01	 sub	 eax, 1
  0000e	23 c2		 and	 eax, edx
  00010	8b d0		 mov	 edx, eax
  00012	c1 ea 05	 shr	 edx, 5
  00015	8d 14 91	 lea	 edx, DWORD PTR [ecx+edx*4]
  00018	8b c8		 mov	 ecx, eax
  0001a	83 e1 1f	 and	 ecx, 31			; 0000001fH
  0001d	b8 00 00 00 80	 mov	 eax, -2147483648	; 80000000H
  00022	d3 e8		 shr	 eax, cl
  00024	09 02		 or	 DWORD PTR [edx], eax

; 173  :   }

  00026	c2 04 00	 ret	 4
?SetEntryValid@InstructionCache@@QAEXI@Z ENDP		; InstructionCache::SetEntryValid
_TEXT	ENDS
PUBLIC	?ClearCompiledStates@InstructionCache@@QAEXXZ	; InstructionCache::ClearCompiledStates
; Function compile flags: /Ogtpy
;	COMDAT ?ClearCompiledStates@InstructionCache@@QAEXXZ
_TEXT	SEGMENT
?ClearCompiledStates@InstructionCache@@QAEXXZ PROC	; InstructionCache::ClearCompiledStates, COMDAT
; _this$ = ecx

; 177  :     for(uint32 i = 0; i < numEntries; i++)

  00000	33 d2		 xor	 edx, edx
  00002	39 51 08	 cmp	 DWORD PTR [ecx+8], edx
  00005	76 27		 jbe	 SHORT $LN1@ClearCompi
  00007	56		 push	 esi
  00008	33 f6		 xor	 esi, esi
  0000a	8d 9b 00 00 00
	00		 npad	 6
$LL3@ClearCompi:

; 178  :     {
; 179  :       cacheEntries[i].packetInfo &= ~PACKETINFO_COMPILED;

  00010	8b 41 04	 mov	 eax, DWORD PTR [ecx+4]
  00013	81 64 30 18 ff
	ff ff 7f	 and	 DWORD PTR [eax+esi+24], 2147483647 ; 7fffffffH
  0001b	8d 44 30 18	 lea	 eax, DWORD PTR [eax+esi+24]
  0001f	83 c2 01	 add	 edx, 1
  00022	81 c6 0c 01 00
	00		 add	 esi, 268		; 0000010cH
  00028	3b 51 08	 cmp	 edx, DWORD PTR [ecx+8]
  0002b	72 e3		 jb	 SHORT $LL3@ClearCompi
  0002d	5e		 pop	 esi
$LN1@ClearCompi:

; 180  :     }
; 181  :   }

  0002e	c3		 ret	 0
?ClearCompiledStates@InstructionCache@@QAEXXZ ENDP	; InstructionCache::ClearCompiledStates
_TEXT	ENDS
PUBLIC	?GetEmitPointerAddress@NativeCodeCache@@QAEPAPAEXZ ; NativeCodeCache::GetEmitPointerAddress
; Function compile flags: /Ogtpy
; File c:\nuanceexperimental\nativecodecache.h
;	COMDAT ?GetEmitPointerAddress@NativeCodeCache@@QAEPAPAEXZ
_TEXT	SEGMENT
?GetEmitPointerAddress@NativeCodeCache@@QAEPAPAEXZ PROC	; NativeCodeCache::GetEmitPointerAddress, COMDAT
; _this$ = ecx

; 57   :     return &pEmitLoc;

  00000	8d 41 04	 lea	 eax, DWORD PTR [ecx+4]

; 58   :   }

  00003	c3		 ret	 0
?GetEmitPointerAddress@NativeCodeCache@@QAEPAPAEXZ ENDP	; NativeCodeCache::GetEmitPointerAddress
_TEXT	ENDS
PUBLIC	?GetUsedCodeBufferSize@NativeCodeCache@@QAEIXZ	; NativeCodeCache::GetUsedCodeBufferSize
; Function compile flags: /Ogtpy
;	COMDAT ?GetUsedCodeBufferSize@NativeCodeCache@@QAEIXZ
_TEXT	SEGMENT
?GetUsedCodeBufferSize@NativeCodeCache@@QAEIXZ PROC	; NativeCodeCache::GetUsedCodeBufferSize, COMDAT
; _this$ = ecx

; 78   :     return (uint32)(pEmitLoc - ptrNativeCodeBuffer);

  00000	8b 41 04	 mov	 eax, DWORD PTR [ecx+4]
  00003	2b 41 08	 sub	 eax, DWORD PTR [ecx+8]

; 79   :   }

  00006	c3		 ret	 0
?GetUsedCodeBufferSize@NativeCodeCache@@QAEIXZ ENDP	; NativeCodeCache::GetUsedCodeBufferSize
_TEXT	ENDS
PUBLIC	?IsBeyondThreshold@NativeCodeCache@@QAE_NXZ	; NativeCodeCache::IsBeyondThreshold
; Function compile flags: /Ogtpy
;	COMDAT ?IsBeyondThreshold@NativeCodeCache@@QAE_NXZ
_TEXT	SEGMENT
?IsBeyondThreshold@NativeCodeCache@@QAE_NXZ PROC	; NativeCodeCache::IsBeyondThreshold, COMDAT
; _this$ = ecx

; 103  :     return GetUsedCodeBufferSize() > warningThreshold;

  00000	8b 41 04	 mov	 eax, DWORD PTR [ecx+4]
  00003	2b 41 08	 sub	 eax, DWORD PTR [ecx+8]
  00006	39 41 10	 cmp	 DWORD PTR [ecx+16], eax
  00009	1b c0		 sbb	 eax, eax
  0000b	f7 d8		 neg	 eax

; 104  :   }

  0000d	c3		 ret	 0
?IsBeyondThreshold@NativeCodeCache@@QAE_NXZ ENDP	; NativeCodeCache::IsBeyondThreshold
_TEXT	ENDS
PUBLIC	?SetEmitVars@NativeCodeCache@@QAEXAAVEmitterVariables@@@Z ; NativeCodeCache::SetEmitVars
; Function compile flags: /Ogtpy
;	COMDAT ?SetEmitVars@NativeCodeCache@@QAEXAAVEmitterVariables@@@Z
_TEXT	SEGMENT
_vars$ = 8						; size = 4
?SetEmitVars@NativeCodeCache@@QAEXAAVEmitterVariables@@@Z PROC ; NativeCodeCache::SetEmitVars, COMDAT
; _this$ = ecx

; 112  :   {

  00000	56		 push	 esi

; 113  :     emitVars = vars;

  00001	8b 74 24 08	 mov	 esi, DWORD PTR _vars$[esp]
  00005	57		 push	 edi
  00006	8d 79 1c	 lea	 edi, DWORD PTR [ecx+28]
  00009	b9 0c 00 00 00	 mov	 ecx, 12			; 0000000cH
  0000e	f3 a5		 rep movsd
  00010	5f		 pop	 edi
  00011	5e		 pop	 esi

; 114  :   }

  00012	c2 04 00	 ret	 4
?SetEmitVars@NativeCodeCache@@QAEXAAVEmitterVariables@@@Z ENDP ; NativeCodeCache::SetEmitVars
_TEXT	ENDS
PUBLIC	?GetOverlayMask@OverlayManager@@QAEIXZ		; OverlayManager::GetOverlayMask
; Function compile flags: /Ogtpy
; File c:\nuanceexperimental\overlaymanager.h
;	COMDAT ?GetOverlayMask@OverlayManager@@QAEIXZ
_TEXT	SEGMENT
?GetOverlayMask@OverlayManager@@QAEIXZ PROC		; OverlayManager::GetOverlayMask, COMDAT
; _this$ = ecx

; 19   :     return (currentOverlayIndex << 13);

  00000	8b 41 04	 mov	 eax, DWORD PTR [ecx+4]
  00003	c1 e0 0d	 shl	 eax, 13			; 0000000dH

; 20   :   }

  00006	c3		 ret	 0
?GetOverlayMask@OverlayManager@@QAEIXZ ENDP		; OverlayManager::GetOverlayMask
_TEXT	ENDS
PUBLIC	?SetOverlayLength@OverlayManager@@QAEXI@Z	; OverlayManager::SetOverlayLength
; Function compile flags: /Ogtpy
;	COMDAT ?SetOverlayLength@OverlayManager@@QAEXI@Z
_TEXT	SEGMENT
_len$ = 8						; size = 4
?SetOverlayLength@OverlayManager@@QAEXI@Z PROC		; OverlayManager::SetOverlayLength, COMDAT
; _this$ = ecx

; 34   :     overlayLength = len;

  00000	8b 44 24 04	 mov	 eax, DWORD PTR _len$[esp-4]
  00004	89 81 08 06 00
	00		 mov	 DWORD PTR [ecx+1544], eax

; 35   :   }

  0000a	c2 04 00	 ret	 4
?SetOverlayLength@OverlayManager@@QAEXI@Z ENDP		; OverlayManager::SetOverlayLength
_TEXT	ENDS
PUBLIC	?InvalidateICacheRegion@MPE@@QAEXII@Z		; MPE::InvalidateICacheRegion
EXTRN	?InvalidateRegion@InstructionCache@@QAEXII@Z:PROC ; InstructionCache::InvalidateRegion
; Function compile flags: /Ogtpy
; File c:\nuanceexperimental\mpe.h
;	COMDAT ?InvalidateICacheRegion@MPE@@QAEXII@Z
_TEXT	SEGMENT
_start$ = 8						; size = 4
_end$ = 12						; size = 4
?InvalidateICacheRegion@MPE@@QAEXII@Z PROC		; MPE::InvalidateICacheRegion, COMDAT
; _this$ = ecx

; 461  :     numInterpreterCacheFlushes++;

  00000	83 81 84 02 00
	00 01		 add	 DWORD PTR [ecx+644], 1

; 462  :     instructionCache->InvalidateRegion(start, end);

  00007	8b 89 a0 02 00
	00		 mov	 ecx, DWORD PTR [ecx+672]
  0000d	e9 00 00 00 00	 jmp	 ?InvalidateRegion@InstructionCache@@QAEXII@Z ; InstructionCache::InvalidateRegion
?InvalidateICacheRegion@MPE@@QAEXII@Z ENDP		; MPE::InvalidateICacheRegion
_TEXT	ENDS
PUBLIC	?Halt@MPE@@QAEXXZ				; MPE::Halt
; Function compile flags: /Ogtpy
;	COMDAT ?Halt@MPE@@QAEXXZ
_TEXT	SEGMENT
?Halt@MPE@@QAEXXZ PROC					; MPE::Halt, COMDAT
; _this$ = ecx

; 472  :     mpectl &= ~MPECTRL_MPEGO;

  00000	83 a1 80 01 00
	00 fd		 and	 DWORD PTR [ecx+384], -3	; fffffffdH

; 473  :   }

  00007	c3		 ret	 0
?Halt@MPE@@QAEXXZ ENDP					; MPE::Halt
_TEXT	ENDS
PUBLIC	?GetPointerToMemoryBank@MPE@@QAEPAEI@Z		; MPE::GetPointerToMemoryBank
; Function compile flags: /Ogtpy
;	COMDAT ?GetPointerToMemoryBank@MPE@@QAEPAEI@Z
_TEXT	SEGMENT
_address$ = 8						; size = 4
?GetPointerToMemoryBank@MPE@@QAEPAEI@Z PROC		; MPE::GetPointerToMemoryBank, COMDAT
; _this$ = ecx

; 493  :     return bankPtrTable[address >> 28] + (address & MPE_VALID_MEMORY_MASK);

  00000	8b 44 24 04	 mov	 eax, DWORD PTR _address$[esp-4]
  00004	8b d0		 mov	 edx, eax
  00006	c1 ea 1c	 shr	 edx, 28			; 0000001cH
  00009	25 ff ff 7f 00	 and	 eax, 8388607		; 007fffffH
  0000e	03 84 91 b0 02
	00 00		 add	 eax, DWORD PTR [ecx+edx*4+688]

; 494  :   }

  00015	c2 04 00	 ret	 4
?GetPointerToMemoryBank@MPE@@QAEPAEI@Z ENDP		; MPE::GetPointerToMemoryBank
_TEXT	ENDS
PUBLIC	??_GNativeCodeCache@@QAEPAXI@Z			; NativeCodeCache::`scalar deleting destructor'
EXTRN	??3@YAXPAX@Z:PROC				; operator delete
EXTRN	??1NativeCodeCache@@QAE@XZ:PROC			; NativeCodeCache::~NativeCodeCache
; Function compile flags: /Ogtpy
;	COMDAT ??_GNativeCodeCache@@QAEPAXI@Z
_TEXT	SEGMENT
___flags$ = 8						; size = 4
??_GNativeCodeCache@@QAEPAXI@Z PROC			; NativeCodeCache::`scalar deleting destructor', COMDAT
; _this$ = ecx
  00000	56		 push	 esi
  00001	8b f1		 mov	 esi, ecx
  00003	e8 00 00 00 00	 call	 ??1NativeCodeCache@@QAE@XZ ; NativeCodeCache::~NativeCodeCache
  00008	f6 44 24 08 01	 test	 BYTE PTR ___flags$[esp], 1
  0000d	74 09		 je	 SHORT $LN4@scalar
  0000f	56		 push	 esi
  00010	e8 00 00 00 00	 call	 ??3@YAXPAX@Z		; operator delete
  00015	83 c4 04	 add	 esp, 4
$LN4@scalar:
  00018	8b c6		 mov	 eax, esi
  0001a	5e		 pop	 esi
  0001b	c2 04 00	 ret	 4
??_GNativeCodeCache@@QAEPAXI@Z ENDP			; NativeCodeCache::`scalar deleting destructor'
_TEXT	ENDS
PUBLIC	??_GInstructionCache@@QAEPAXI@Z			; InstructionCache::`scalar deleting destructor'
EXTRN	??1InstructionCache@@QAE@XZ:PROC		; InstructionCache::~InstructionCache
; Function compile flags: /Ogtpy
;	COMDAT ??_GInstructionCache@@QAEPAXI@Z
_TEXT	SEGMENT
___flags$ = 8						; size = 4
??_GInstructionCache@@QAEPAXI@Z PROC			; InstructionCache::`scalar deleting destructor', COMDAT
; _this$ = ecx
  00000	56		 push	 esi
  00001	8b f1		 mov	 esi, ecx
  00003	e8 00 00 00 00	 call	 ??1InstructionCache@@QAE@XZ ; InstructionCache::~InstructionCache
  00008	f6 44 24 08 01	 test	 BYTE PTR ___flags$[esp], 1
  0000d	74 09		 je	 SHORT $LN4@scalar@2
  0000f	56		 push	 esi
  00010	e8 00 00 00 00	 call	 ??3@YAXPAX@Z		; operator delete
  00015	83 c4 04	 add	 esp, 4
$LN4@scalar@2:
  00018	8b c6		 mov	 eax, esi
  0001a	5e		 pop	 esi
  0001b	c2 04 00	 ret	 4
??_GInstructionCache@@QAEPAXI@Z ENDP			; InstructionCache::`scalar deleting destructor'
_TEXT	ENDS
PUBLIC	??_GSuperBlock@@QAEPAXI@Z			; SuperBlock::`scalar deleting destructor'
EXTRN	??1SuperBlock@@QAE@XZ:PROC			; SuperBlock::~SuperBlock
; Function compile flags: /Ogtpy
;	COMDAT ??_GSuperBlock@@QAEPAXI@Z
_TEXT	SEGMENT
___flags$ = 8						; size = 4
??_GSuperBlock@@QAEPAXI@Z PROC				; SuperBlock::`scalar deleting destructor', COMDAT
; _this$ = ecx
  00000	56		 push	 esi
  00001	8b f1		 mov	 esi, ecx
  00003	e8 00 00 00 00	 call	 ??1SuperBlock@@QAE@XZ	; SuperBlock::~SuperBlock
  00008	f6 44 24 08 01	 test	 BYTE PTR ___flags$[esp], 1
  0000d	74 09		 je	 SHORT $LN4@scalar@3
  0000f	56		 push	 esi
  00010	e8 00 00 00 00	 call	 ??3@YAXPAX@Z		; operator delete
  00015	83 c4 04	 add	 esp, 4
$LN4@scalar@3:
  00018	8b c6		 mov	 eax, esi
  0001a	5e		 pop	 esi
  0001b	c2 04 00	 ret	 4
??_GSuperBlock@@QAEPAXI@Z ENDP				; SuperBlock::`scalar deleting destructor'
_TEXT	ENDS
PUBLIC	?AllocateMPELocalMemory@MPE@@QAEXXZ		; MPE::AllocateMPELocalMemory
EXTRN	??_U@YAPAXI@Z:PROC				; operator new[]
; Function compile flags: /Ogtpy
; File c:\nuanceexperimental\mpe.cpp
;	COMDAT ?AllocateMPELocalMemory@MPE@@QAEXXZ
_TEXT	SEGMENT
?AllocateMPELocalMemory@MPE@@QAEXXZ PROC		; MPE::AllocateMPELocalMemory, COMDAT
; _this$ = ecx

; 845  : {

  00000	56		 push	 esi

; 846  :   dtrom = new uint8[MPE_LOCAL_MEMORY_SIZE];

  00001	68 00 00 80 00	 push	 8388608			; 00800000H
  00006	8b f1		 mov	 esi, ecx
  00008	e8 00 00 00 00	 call	 ??_U@YAPAXI@Z		; operator new[]
  0000d	83 c4 04	 add	 esp, 4
  00010	89 86 30 02 00
	00		 mov	 DWORD PTR [esi+560], eax
  00016	5e		 pop	 esi

; 847  : }

  00017	c3		 ret	 0
?AllocateMPELocalMemory@MPE@@QAEXXZ ENDP		; MPE::AllocateMPELocalMemory
_TEXT	ENDS
PUBLIC	?FreeMPELocalMemory@MPE@@QAEXXZ			; MPE::FreeMPELocalMemory
EXTRN	??_V@YAXPAX@Z:PROC				; operator delete[]
; Function compile flags: /Ogtpy
;	COMDAT ?FreeMPELocalMemory@MPE@@QAEXXZ
_TEXT	SEGMENT
?FreeMPELocalMemory@MPE@@QAEXXZ PROC			; MPE::FreeMPELocalMemory, COMDAT
; _this$ = ecx

; 851  :   delete [] dtrom;

  00000	8b 81 30 02 00
	00		 mov	 eax, DWORD PTR [ecx+560]
  00006	50		 push	 eax
  00007	e8 00 00 00 00	 call	 ??_V@YAXPAX@Z		; operator delete[]
  0000c	59		 pop	 ecx

; 852  : }

  0000d	c3		 ret	 0
?FreeMPELocalMemory@MPE@@QAEXXZ ENDP			; MPE::FreeMPELocalMemory
_TEXT	ENDS
PUBLIC	?GenerateMirrorLookupTable@MPE@@QAEXXZ		; MPE::GenerateMirrorLookupTable
; Function compile flags: /Ogtpy
;	COMDAT ?GenerateMirrorLookupTable@MPE@@QAEXXZ
_TEXT	SEGMENT
?GenerateMirrorLookupTable@MPE@@QAEXXZ PROC		; MPE::GenerateMirrorLookupTable, COMDAT
; _this$ = ecx

; 856  :   uint8 mirror;
; 857  : 
; 858  :   for(uint32 i = 0; i <= 0xFF; i++)

  00000	33 c0		 xor	 eax, eax
$LL3@GenerateMi:

; 859  :   {
; 860  :     mirror = 0;
; 861  :     mirror |= ((i & 0x01) << 7) & 0x80;
; 862  :     mirror |= ((i & 0x02) << 5) & 0x40;
; 863  :     mirror |= ((i & 0x04) << 3) & 0x20;
; 864  :     mirror |= ((i & 0x08) << 1) & 0x10;
; 865  :     mirror |= ((i & 0x10) >> 1) & 0x08;
; 866  :     mirror |= ((i & 0x20) >> 3) & 0x04;
; 867  :     mirror |= ((i & 0x40) >> 5) & 0x02;
; 868  :     mirror |= ((i & 0x80) >> 7) & 0x01;
; 869  : 
; 870  :     mirrorLookup[i] = mirror;

  00002	8a d0		 mov	 dl, al
  00004	02 d2		 add	 dl, dl
  00006	02 d2		 add	 dl, dl
  00008	8a c8		 mov	 cl, al
  0000a	80 e1 02	 and	 cl, 2
  0000d	0a ca		 or	 cl, dl
  0000f	02 c9		 add	 cl, cl
  00011	02 c9		 add	 cl, cl
  00013	8a d0		 mov	 dl, al
  00015	80 e2 04	 and	 dl, 4
  00018	0a ca		 or	 cl, dl
  0001a	02 c9		 add	 cl, cl
  0001c	02 c9		 add	 cl, cl
  0001e	8a d0		 mov	 dl, al
  00020	80 e2 08	 and	 dl, 8
  00023	0a ca		 or	 cl, dl
  00025	8b d0		 mov	 edx, eax
  00027	d1 ea		 shr	 edx, 1
  00029	80 e2 08	 and	 dl, 8
  0002c	02 c9		 add	 cl, cl
  0002e	0a ca		 or	 cl, dl
  00030	8b d0		 mov	 edx, eax
  00032	c1 ea 07	 shr	 edx, 7
  00035	80 e2 01	 and	 dl, 1
  00038	0a ca		 or	 cl, dl
  0003a	8b d0		 mov	 edx, eax
  0003c	c1 ea 03	 shr	 edx, 3
  0003f	80 e2 04	 and	 dl, 4
  00042	0a ca		 or	 cl, dl
  00044	8b d0		 mov	 edx, eax
  00046	c1 ea 05	 shr	 edx, 5
  00049	80 e2 02	 and	 dl, 2
  0004c	0a ca		 or	 cl, dl
  0004e	88 88 00 00 00
	00		 mov	 BYTE PTR ?mirrorLookup@MPE@@2PAEA[eax], cl
  00054	83 c0 01	 add	 eax, 1
  00057	3d ff 00 00 00	 cmp	 eax, 255		; 000000ffH
  0005c	76 a4		 jbe	 SHORT $LL3@GenerateMi

; 871  :   }
; 872  : }

  0005e	c3		 ret	 0
?GenerateMirrorLookupTable@MPE@@QAEXXZ ENDP		; MPE::GenerateMirrorLookupTable
_TEXT	ENDS
PUBLIC	?InitializeBankTable@MPE@@QAEXPAE00@Z		; MPE::InitializeBankTable
; Function compile flags: /Ogtpy
;	COMDAT ?InitializeBankTable@MPE@@QAEXPAE00@Z
_TEXT	SEGMENT
_mainBusPtr$ = 8					; size = 4
_systemBusPtr$ = 12					; size = 4
_flashEEPROMPtr$ = 16					; size = 4
?InitializeBankTable@MPE@@QAEXPAE00@Z PROC		; MPE::InitializeBankTable, COMDAT
; _this$ = ecx

; 876  :   //Initialize the bank pointer lookup table for use with indirect
; 877  :   //loads and stores.  This table assumes that the only banks present
; 878  :   //are local MPE memory, system bus memory and main bus memory.  All
; 879  :   //other banks map to main bus memory in the hope that a bad memory address
; 880  :   //write will simply cause main bus graphics corruption
; 881  : 
; 882  :   //This table cannot distinguish between the ROM, reserved and other bus IO
; 883  :   //banks in the $F0000000/$F1000000/$FE000000 range but programs should
; 884  :   //never read or write in this range anyways.  If these banks are emulated
; 885  :   //at some future point, this table will need to expand to 256 entries in
; 886  :   //order to factor in the entire upper byte of the 32 bit address range
; 887  : 
; 888  :   bankPtrTable[0x0] = dtrom;

  00000	8b 81 30 02 00
	00		 mov	 eax, DWORD PTR [ecx+560]
  00006	89 81 b0 02 00
	00		 mov	 DWORD PTR [ecx+688], eax

; 889  :   bankPtrTable[0x1] = dtrom;

  0000c	89 81 b4 02 00
	00		 mov	 DWORD PTR [ecx+692], eax

; 890  :   bankPtrTable[0x2] = dtrom;

  00012	89 81 b8 02 00
	00		 mov	 DWORD PTR [ecx+696], eax

; 891  :   bankPtrTable[0x3] = mainBusPtr;

  00018	8b 44 24 04	 mov	 eax, DWORD PTR _mainBusPtr$[esp-4]
  0001c	89 81 bc 02 00
	00		 mov	 DWORD PTR [ecx+700], eax

; 892  :   bankPtrTable[0x4] = mainBusPtr;

  00022	89 81 c0 02 00
	00		 mov	 DWORD PTR [ecx+704], eax

; 893  :   bankPtrTable[0x5] = mainBusPtr;

  00028	89 81 c4 02 00
	00		 mov	 DWORD PTR [ecx+708], eax

; 894  :   bankPtrTable[0x6] = mainBusPtr;

  0002e	89 81 c8 02 00
	00		 mov	 DWORD PTR [ecx+712], eax

; 895  :   bankPtrTable[0x7] = mainBusPtr;

  00034	89 81 cc 02 00
	00		 mov	 DWORD PTR [ecx+716], eax

; 896  :   bankPtrTable[0x8] = systemBusPtr;

  0003a	8b 44 24 08	 mov	 eax, DWORD PTR _systemBusPtr$[esp-4]
  0003e	89 81 d0 02 00
	00		 mov	 DWORD PTR [ecx+720], eax

; 897  :   bankPtrTable[0x9] = systemBusPtr;

  00044	89 81 d4 02 00
	00		 mov	 DWORD PTR [ecx+724], eax

; 898  :   bankPtrTable[0xA] = systemBusPtr;

  0004a	89 81 d8 02 00
	00		 mov	 DWORD PTR [ecx+728], eax

; 899  :   bankPtrTable[0xB] = systemBusPtr;

  00050	89 81 dc 02 00
	00		 mov	 DWORD PTR [ecx+732], eax

; 900  :   bankPtrTable[0xC] = systemBusPtr;

  00056	89 81 e0 02 00
	00		 mov	 DWORD PTR [ecx+736], eax

; 901  :   bankPtrTable[0xD] = systemBusPtr;

  0005c	89 81 e4 02 00
	00		 mov	 DWORD PTR [ecx+740], eax

; 902  :   bankPtrTable[0xE] = systemBusPtr;

  00062	89 81 e8 02 00
	00		 mov	 DWORD PTR [ecx+744], eax

; 903  :   bankPtrTable[0xF] = flashEEPROMPtr;

  00068	8b 44 24 0c	 mov	 eax, DWORD PTR _flashEEPROMPtr$[esp-4]
  0006c	89 81 ec 02 00
	00		 mov	 DWORD PTR [ecx+748], eax

; 904  : }

  00072	c2 0c 00	 ret	 12			; 0000000cH
?InitializeBankTable@MPE@@QAEXPAE00@Z ENDP		; MPE::InitializeBankTable
_TEXT	ENDS
PUBLIC	?Reset@MPE@@QAEXXZ				; MPE::Reset
EXTRN	?Flush@NativeCodeCache@@QAEXXZ:PROC		; NativeCodeCache::Flush
EXTRN	?Invalidate@InstructionCache@@QAEXXZ:PROC	; InstructionCache::Invalidate
; Function compile flags: /Ogtpy
;	COMDAT ?Reset@MPE@@QAEXXZ
_TEXT	SEGMENT
?Reset@MPE@@QAEXXZ PROC					; MPE::Reset, COMDAT
; _this$ = ecx

; 909  : {

  00000	56		 push	 esi
  00001	8b f1		 mov	 esi, ecx

; 910  :   //Explicitly clear CSTATE bits to zero so that code works in debug mode
; 911  :   dcachectl &= ~0xF0000000;
; 912  :   icachectl &= ~0xF0000000;
; 913  : 
; 914  :   instructionCache->Invalidate();

  00003	8b 8e a0 02 00
	00		 mov	 ecx, DWORD PTR [esi+672]
  00009	b8 ff ff ff 0f	 mov	 eax, 268435455		; 0fffffffH
  0000e	21 86 18 02 00
	00		 and	 DWORD PTR [esi+536], eax
  00014	21 86 1c 02 00
	00		 and	 DWORD PTR [esi+540], eax
  0001a	e8 00 00 00 00	 call	 ?Invalidate@InstructionCache@@QAEXXZ ; InstructionCache::Invalidate

; 915  :   nativeCodeCache->Flush();

  0001f	8b 8e a8 02 00
	00		 mov	 ecx, DWORD PTR [esi+680]
  00025	e8 00 00 00 00	 call	 ?Flush@NativeCodeCache@@QAEXXZ ; NativeCodeCache::Flush

; 916  : 
; 917  :   invalidateRegionStart = MPE_IRAM_BASE;
; 918  :   invalidateRegionEnd = (MPE_IRAM_BASE + OVERLAY_SIZE - 1);
; 919  :   interpreterInvalidateRegionStart = 0;

  0002a	33 c0		 xor	 eax, eax
  0002c	b9 00 00 30 20	 mov	 ecx, 540016640		; 20300000H
  00031	89 8e 70 02 00
	00		 mov	 DWORD PTR [esi+624], ecx

; 920  :   interpreterInvalidateRegionEnd = 0;
; 921  : 
; 922  :   overlayIndex = 0;
; 923  : 
; 924  :   //Interpretation of Nuances require the use of the cc composite flags register 
; 925  :   bUsingCompositeFlags = true;
; 926  :   ecuSkipCounter = 0;
; 927  :   pcfetchnext = 0x20300000;

  00037	89 8e 34 02 00
	00		 mov	 DWORD PTR [esi+564], ecx

; 928  :   pcfetch = 0x20300000;

  0003d	89 8e 90 01 00
	00		 mov	 DWORD PTR [esi+400], ecx

; 929  :   pcroute = 0x20300000;

  00043	89 8e 94 01 00
	00		 mov	 DWORD PTR [esi+404], ecx

; 930  :   pcexec = 0x20300000;

  00049	89 8e 98 01 00
	00		 mov	 DWORD PTR [esi+408], ecx

; 931  :   sp = 0x20001000;
; 932  :   //mpectl is halted on reset and has the was-reset bit set
; 933  :   mpectl = MPECTRL_MPEWASRESET;
; 934  :   //all exceptions halt the processor
; 935  :   excephalten = 0x1FFF;
; 936  :   //reset all exceptions
; 937  :   excepsrc = 0;
; 938  :   //intctl is set to 0 on reset according to SDK docs
; 939  :   intctl = 0;
; 940  :   //reset all interrupt sources
; 941  :   intsrc = 0;
; 942  :   //reset interupt enable registers
; 943  :   inten1 = 0;
; 944  :   //set level 2 selector to software
; 945  :   inten2sel = 1;
; 946  :   //enable other bus dma, no commands pending, no other bus activity
; 947  :   odmactl = 1UL << 5;
; 948  :   //set bus priority for MDMA transfers to 3 and clear all other bits
; 949  :   mdmactl = 3UL << 5;

  0004f	b9 60 00 00 00	 mov	 ecx, 96			; 00000060H
  00054	89 8e e0 01 00
	00		 mov	 DWORD PTR [esi+480], ecx

; 950  :   commxmit0 = 0;
; 951  :   commxmit1 = 0;
; 952  :   commxmit2 = 0;
; 953  :   commxmit3 = 0;
; 954  :   commrecv0 = 0;
; 955  :   commrecv1 = 0;
; 956  :   commrecv2 = 0;
; 957  :   commrecv3 = 0;
; 958  :   acshift = 0;
; 959  :   svshift = 0;
; 960  :   commctl = 0;
; 961  :   rc0 = 0;
; 962  :   rc1 = 0;
; 963  :   cc = (CC_COUNTER0_ZERO | CC_COUNTER1_ZERO);

  0005a	89 8e 80 00 00
	00		 mov	 DWORD PTR [esi+128], ecx

; 964  :   cycleCounter = 0;
; 965  :   //Nuon = aries 2, MPE release = aries 2, mpe identifier, halted on reset
; 966  :   configa = (3UL << 24) | (3UL << 16) | (mpeIndex << 8) | 0;

  00060	8b 8e 98 02 00
	00		 mov	 ecx, DWORD PTR [esi+664]
  00066	81 c9 00 03 03
	00		 or	 ecx, 197376		; 00030300H
  0006c	ba 01 00 00 00	 mov	 edx, 1
  00071	c1 e1 08	 shl	 ecx, 8
  00074	c7 86 74 02 00
	00 ff 1f 30 20	 mov	 DWORD PTR [esi+628], 540024831 ; 20301fffH
  0007e	89 86 78 02 00
	00		 mov	 DWORD PTR [esi+632], eax
  00084	89 86 7c 02 00
	00		 mov	 DWORD PTR [esi+636], eax
  0008a	89 86 64 02 00
	00		 mov	 DWORD PTR [esi+612], eax
  00090	88 96 58 02 00
	00		 mov	 BYTE PTR [esi+600], dl
  00096	89 86 40 02 00
	00		 mov	 DWORD PTR [esi+576], eax
  0009c	c7 86 d0 01 00
	00 00 10 00 20	 mov	 DWORD PTR [esi+464], 536875008 ; 20001000H
  000a6	c7 86 80 01 00
	00 00 80 00 00	 mov	 DWORD PTR [esi+384], 32768 ; 00008000H
  000b0	c7 86 8c 01 00
	00 ff 1f 00 00	 mov	 DWORD PTR [esi+396], 8191 ; 00001fffH
  000ba	89 86 84 01 00
	00		 mov	 DWORD PTR [esi+388], eax
  000c0	89 86 ac 01 00
	00		 mov	 DWORD PTR [esi+428], eax
  000c6	89 86 a4 01 00
	00		 mov	 DWORD PTR [esi+420], eax
  000cc	89 86 b0 01 00
	00		 mov	 DWORD PTR [esi+432], eax
  000d2	89 96 bc 01 00
	00		 mov	 DWORD PTR [esi+444], edx
  000d8	c7 86 d8 01 00
	00 20 00 00 00	 mov	 DWORD PTR [esi+472], 32	; 00000020H
  000e2	89 86 f0 01 00
	00		 mov	 DWORD PTR [esi+496], eax
  000e8	89 86 f4 01 00
	00		 mov	 DWORD PTR [esi+500], eax
  000ee	89 86 f8 01 00
	00		 mov	 DWORD PTR [esi+504], eax
  000f4	89 86 fc 01 00
	00		 mov	 DWORD PTR [esi+508], eax
  000fa	89 86 00 02 00
	00		 mov	 DWORD PTR [esi+512], eax
  00100	89 86 04 02 00
	00		 mov	 DWORD PTR [esi+516], eax
  00106	89 86 08 02 00
	00		 mov	 DWORD PTR [esi+520], eax
  0010c	89 86 0c 02 00
	00		 mov	 DWORD PTR [esi+524], eax
  00112	89 86 b8 00 00
	00		 mov	 DWORD PTR [esi+184], eax
  00118	89 86 bc 00 00
	00		 mov	 DWORD PTR [esi+188], eax
  0011e	89 86 ec 01 00
	00		 mov	 DWORD PTR [esi+492], eax
  00124	89 86 84 00 00
	00		 mov	 DWORD PTR [esi+132], eax
  0012a	89 86 88 00 00
	00		 mov	 DWORD PTR [esi+136], eax
  00130	89 86 48 02 00
	00		 mov	 DWORD PTR [esi+584], eax
  00136	89 86 4c 02 00
	00		 mov	 DWORD PTR [esi+588], eax
  0013c	89 8e 10 02 00
	00		 mov	 DWORD PTR [esi+528], ecx

; 967  :   configb = 0;

  00142	89 86 14 02 00
	00		 mov	 DWORD PTR [esi+532], eax
  00148	5e		 pop	 esi

; 968  : }

  00149	c3		 ret	 0
?Reset@MPE@@QAEXXZ ENDP					; MPE::Reset
_TEXT	ENDS
PUBLIC	?LoadBinaryFile@MPE@@QAE_NPAE_N@Z		; MPE::LoadBinaryFile
EXTRN	_close:PROC
EXTRN	_read:PROC
EXTRN	_filelength:PROC
EXTRN	_open:PROC
; Function compile flags: /Ogtpy
;	COMDAT ?LoadBinaryFile@MPE@@QAE_NPAE_N@Z
_TEXT	SEGMENT
_filename$ = 8						; size = 4
_bIRAM$ = 12						; size = 1
?LoadBinaryFile@MPE@@QAE_NPAE_N@Z PROC			; MPE::LoadBinaryFile, COMDAT
; _this$ = ecx

; 972  :   int handle;
; 973  :   int byteLength;
; 974  :   uint8 *buffer = &dtrom[MPE_IROM_OFFSET];
; 975  : 
; 976  :   handle = open((char *)filename,_O_RDONLY|_O_BINARY,0);

  00000	8b 44 24 04	 mov	 eax, DWORD PTR _filename$[esp-4]
  00004	53		 push	 ebx
  00005	56		 push	 esi
  00006	57		 push	 edi
  00007	6a 00		 push	 0
  00009	8b d9		 mov	 ebx, ecx
  0000b	8b b3 30 02 00
	00		 mov	 esi, DWORD PTR [ebx+560]
  00011	68 00 80 00 00	 push	 32768			; 00008000H
  00016	50		 push	 eax
  00017	81 c6 00 00 20
	00		 add	 esi, 2097152		; 00200000H
  0001d	e8 00 00 00 00	 call	 _open
  00022	8b f8		 mov	 edi, eax
  00024	83 c4 0c	 add	 esp, 12			; 0000000cH

; 977  :   if(handle >= 0)

  00027	85 ff		 test	 edi, edi
  00029	7c 35		 jl	 SHORT $LN3@LoadBinary

; 978  :   {
; 979  :     byteLength = filelength(handle);

  0002b	57		 push	 edi
  0002c	e8 00 00 00 00	 call	 _filelength
  00031	83 c4 04	 add	 esp, 4

; 980  : 
; 981  :     if(bIRAM)

  00034	80 7c 24 14 00	 cmp	 BYTE PTR _bIRAM$[esp+8], 0
  00039	74 0c		 je	 SHORT $LN2@LoadBinary

; 982  :     {
; 983  :       buffer = &dtrom[MPE_IRAM_OFFSET];

  0003b	8b b3 30 02 00
	00		 mov	 esi, DWORD PTR [ebx+560]
  00041	81 c6 00 00 30
	00		 add	 esi, 3145728		; 00300000H
$LN2@LoadBinary:

; 984  :     }
; 985  : 
; 986  :     read(handle, buffer, byteLength);

  00047	50		 push	 eax
  00048	56		 push	 esi
  00049	57		 push	 edi
  0004a	e8 00 00 00 00	 call	 _read

; 987  :     close(handle);

  0004f	57		 push	 edi
  00050	e8 00 00 00 00	 call	 _close
  00055	83 c4 10	 add	 esp, 16			; 00000010H
  00058	5f		 pop	 edi
  00059	5e		 pop	 esi

; 988  :     return true;

  0005a	b0 01		 mov	 al, 1
  0005c	5b		 pop	 ebx

; 993  :   }
; 994  : }

  0005d	c2 08 00	 ret	 8
$LN3@LoadBinary:
  00060	5f		 pop	 edi
  00061	5e		 pop	 esi

; 989  :   }
; 990  :   else
; 991  :   {
; 992  :     return false;

  00062	32 c0		 xor	 al, al
  00064	5b		 pop	 ebx

; 993  :   }
; 994  : }

  00065	c2 08 00	 ret	 8
?LoadBinaryFile@MPE@@QAE_NPAE_N@Z ENDP			; MPE::LoadBinaryFile
_TEXT	ENDS
PUBLIC	?GetPacketDelta@MPE@@QAEIPAEI@Z			; MPE::GetPacketDelta
; Function compile flags: /Ogtpy
;	COMDAT ?GetPacketDelta@MPE@@QAEIPAEI@Z
_TEXT	SEGMENT
_deltaBytes$ = -1					; size = 1
_iPtr$ = 8						; size = 4
_numLevels$ = 12					; size = 4
?GetPacketDelta@MPE@@QAEIPAEI@Z PROC			; MPE::GetPacketDelta, COMDAT
; _this$ = ecx

; 1008 : {

  00000	51		 push	 ecx
  00001	56		 push	 esi

; 1009 :   uint8 opcode;
; 1010 :   uint8 deltaBytes, packetBytes;
; 1011 :   bool bTerminating;
; 1012 : 
; 1013 :   packetBytes = 0;
; 1014 :   deltaBytes = 0;
; 1015 : 
; 1016 :   while(numLevels != 0)

  00002	8b 74 24 10	 mov	 esi, DWORD PTR _numLevels$[esp+4]
  00006	33 d2		 xor	 edx, edx
  00008	3b f2		 cmp	 esi, edx
  0000a	88 54 24 07	 mov	 BYTE PTR _deltaBytes$[esp+8], dl
  0000e	74 76		 je	 SHORT $LN18@GetPacketD
  00010	8b 4c 24 0c	 mov	 ecx, DWORD PTR _iPtr$[esp+4]
  00014	53		 push	 ebx
$LL13@GetPacketD:

; 1017 :   {
; 1018 :     opcode = *iPtr;

  00015	8a 01		 mov	 al, BYTE PTR [ecx]

; 1019 :     if(opcode <= 0x3F)

  00017	3c 3f		 cmp	 al, 63			; 0000003fH
  00019	77 0a		 ja	 SHORT $LN11@GetPacketD

; 1020 :     {
; 1021 :       bTerminating = true;
; 1022 :       deltaBytes += 2;

  0001b	80 44 24 0b 02	 add	 BYTE PTR _deltaBytes$[esp+12], 2

; 1023 :       packetBytes += 2;
; 1024 :       iPtr += 2;

  00020	83 c1 02	 add	 ecx, 2

; 1025 :     }
; 1026 :     else

  00023	eb 4d		 jmp	 SHORT $LN21@GetPacketD
$LN11@GetPacketD:

; 1027 :     {
; 1028 :       //Instruction is not a 16 bit ALU instruction
; 1029 : 
; 1030 :       //If 16 bit non-terminating non-ALU instruction, control instruction
; 1031 :       //or 32 bit immediate extension
; 1032 :       if(opcode < 0x88 || opcode > 0x9F)

  00025	8a d8		 mov	 bl, al
  00027	80 c3 78	 add	 bl, 120			; 00000078H
  0002a	80 fb 17	 cmp	 bl, 23			; 00000017H
  0002d	77 1e		 ja	 SHORT $LN8@GetPacketD

; 1049 :       }
; 1050 :       else if(opcode >= 0x90)
; 1051 :       {
; 1052 :         //32 bit instruction: if bit 12 is set, instruction is a packet terminator
; 1053 :         bTerminating = *(iPtr + 2) & 0x10;
; 1054 :         deltaBytes += 4;

  0002f	80 44 24 0b 04	 add	 BYTE PTR _deltaBytes$[esp+12], 4

; 1055 :         packetBytes += 4;

  00034	80 c2 04	 add	 dl, 4
  00037	3c 90		 cmp	 al, 144			; 00000090H
  00039	72 0d		 jb	 SHORT $LN4@GetPacketD
  0003b	8a 41 02	 mov	 al, BYTE PTR [ecx+2]
  0003e	c0 e8 04	 shr	 al, 4
  00041	24 01		 and	 al, 1

; 1056 :         iPtr += 4;

  00043	83 c1 04	 add	 ecx, 4

; 1057 :       }
; 1058 :       else

  00046	eb 21		 jmp	 SHORT $LN3@GetPacketD
$LN4@GetPacketD:

; 1059 :       {
; 1060 :         //32 bit extension (preceeding 48/64 bit instruction)
; 1061 :         bTerminating = false;
; 1062 :         deltaBytes += 4;
; 1063 :         packetBytes += 4;
; 1064 :         iPtr += 4;

  00048	83 c1 04	 add	 ecx, 4
  0004b	eb 20		 jmp	 SHORT $LN17@GetPacketD
$LN8@GetPacketD:

; 1033 :       {
; 1034 :         //If not a control instruction (PAD, NOP or BREAKPOINT)
; 1035 :         if((opcode & 0xFC) != 0x80)

  0004d	8a d8		 mov	 bl, al
  0004f	80 e3 fc	 and	 bl, 252			; 000000fcH
  00052	80 fb 80	 cmp	 bl, 128			; 00000080H
  00055	74 05		 je	 SHORT $LN7@GetPacketD

; 1036 :         {
; 1037 :           //if bit 15 is set, the instruction is a packet terminator
; 1038 :           bTerminating = (opcode & 0x80);

  00057	c0 e8 07	 shr	 al, 7

; 1039 :         }
; 1040 :         else

  0005a	eb 02		 jmp	 SHORT $LN6@GetPacketD
$LN7@GetPacketD:

; 1041 :         {
; 1042 :           //if bit 8 is set, the instruction is a terminating breakpoint or NOP
; 1043 :           bTerminating = (opcode & 0x01);

  0005c	24 01		 and	 al, 1
$LN6@GetPacketD:

; 1044 :         }
; 1045 : 
; 1046 :         deltaBytes += 2;

  0005e	80 44 24 0b 02	 add	 BYTE PTR _deltaBytes$[esp+12], 2

; 1047 :         packetBytes += 2;

  00063	80 c2 02	 add	 dl, 2

; 1048 :         iPtr += 2;

  00066	83 c1 02	 add	 ecx, 2
$LN3@GetPacketD:

; 1065 :       }
; 1066 :     }
; 1067 : 
; 1068 :     if(bTerminating || (packetBytes >= 128))

  00069	84 c0		 test	 al, al
  0006b	75 05		 jne	 SHORT $LN21@GetPacketD
$LN17@GetPacketD:
  0006d	80 fa 80	 cmp	 dl, 128			; 00000080H
  00070	72 05		 jb	 SHORT $LN20@GetPacketD
$LN21@GetPacketD:

; 1069 :     {
; 1070 :       numLevels--;

  00072	83 ee 01	 sub	 esi, 1

; 1071 :       packetBytes = 0;

  00075	32 d2		 xor	 dl, dl
$LN20@GetPacketD:

; 1009 :   uint8 opcode;
; 1010 :   uint8 deltaBytes, packetBytes;
; 1011 :   bool bTerminating;
; 1012 : 
; 1013 :   packetBytes = 0;
; 1014 :   deltaBytes = 0;
; 1015 : 
; 1016 :   while(numLevels != 0)

  00077	85 f6		 test	 esi, esi
  00079	75 9a		 jne	 SHORT $LL13@GetPacketD

; 1072 :     }
; 1073 :   }
; 1074 : 
; 1075 :   return deltaBytes;

  0007b	0f b6 44 24 0b	 movzx	 eax, BYTE PTR _deltaBytes$[esp+12]
  00080	5b		 pop	 ebx
  00081	5e		 pop	 esi

; 1076 : }

  00082	59		 pop	 ecx
  00083	c2 08 00	 ret	 8
$LN18@GetPacketD:

; 1072 :     }
; 1073 :   }
; 1074 : 
; 1075 :   return deltaBytes;

  00086	0f b6 c2	 movzx	 eax, dl
  00089	5e		 pop	 esi

; 1076 : }

  0008a	59		 pop	 ecx
  0008b	c2 08 00	 ret	 8
?GetPacketDelta@MPE@@QAEIPAEI@Z ENDP			; MPE::GetPacketDelta
_TEXT	ENDS
PUBLIC	?ChooseInstructionPairOrdering@MPE@@QAE_NPAVInstructionCacheEntry@@II@Z ; MPE::ChooseInstructionPairOrdering
EXTRN	?OnesCount@@YAII@Z:PROC				; OnesCount
; Function compile flags: /Ogtpy
;	COMDAT ?ChooseInstructionPairOrdering@MPE@@QAE_NPAVInstructionCacheEntry@@II@Z
_TEXT	SEGMENT
tv219 = 8						; size = 4
_yMiscInDep$ = 8					; size = 4
_entry$ = 8						; size = 4
_yScalarInDep$ = 12					; size = 4
_slot1$ = 12						; size = 4
_xMiscInDep$ = 16					; size = 4
_slot2$ = 16						; size = 4
?ChooseInstructionPairOrdering@MPE@@QAE_NPAVInstructionCacheEntry@@II@Z PROC ; MPE::ChooseInstructionPairOrdering, COMDAT
; _this$ = ecx

; 1728 :   uint32 xScalarInDep, yScalarInDep, xMiscInDep, yMiscInDep;
; 1729 :   uint32 xScalarOutDep, yScalarOutDep, xMiscOutDep, yMiscOutDep;
; 1730 : 
; 1731 :   xScalarInDep = entry->scalarInputDependencies[slot1];

  00000	8b 44 24 04	 mov	 eax, DWORD PTR _entry$[esp-4]

; 1732 :   yScalarInDep = entry->scalarInputDependencies[slot2];

  00004	8b 54 24 0c	 mov	 edx, DWORD PTR _slot2$[esp-4]
  00008	8b 4c 24 08	 mov	 ecx, DWORD PTR _slot1$[esp-4]
  0000c	53		 push	 ebx

; 1733 :   xMiscInDep = entry->miscInputDependencies[slot1];
; 1734 :   yMiscInDep = entry->miscInputDependencies[slot2];
; 1735 :   xScalarOutDep = entry->scalarOutputDependencies[slot1];
; 1736 :   yScalarOutDep = entry->scalarOutputDependencies[slot2];
; 1737 :   xMiscOutDep = entry->miscOutputDependencies[slot1];
; 1738 :   yMiscOutDep = entry->miscOutputDependencies[slot2];

  0000d	8b 9c 90 f8 00
	00 00		 mov	 ebx, DWORD PTR [eax+edx*4+248]
  00014	55		 push	 ebp
  00015	8b ac 88 bc 00
	00 00		 mov	 ebp, DWORD PTR [eax+ecx*4+188]
  0001c	56		 push	 esi
  0001d	8b b4 90 bc 00
	00 00		 mov	 esi, DWORD PTR [eax+edx*4+188]
  00024	89 74 24 14	 mov	 DWORD PTR _yScalarInDep$[esp+8], esi
  00028	8b b4 88 d0 00
	00 00		 mov	 esi, DWORD PTR [eax+ecx*4+208]
  0002f	89 74 24 18	 mov	 DWORD PTR _xMiscInDep$[esp+8], esi
  00033	8b b4 90 d0 00
	00 00		 mov	 esi, DWORD PTR [eax+edx*4+208]
  0003a	89 74 24 10	 mov	 DWORD PTR _yMiscInDep$[esp+8], esi
  0003e	8b b4 88 e4 00
	00 00		 mov	 esi, DWORD PTR [eax+ecx*4+228]
  00045	8b 8c 88 f8 00
	00 00		 mov	 ecx, DWORD PTR [eax+ecx*4+248]

; 1739 :   return (OnesCount(yScalarInDep & xScalarOutDep) + OnesCount(yMiscInDep & xMiscOutDep)) 
; 1740 :     > (OnesCount(xScalarInDep & yScalarOutDep) + OnesCount(xMiscInDep & yMiscOutDep));

  0004c	23 4c 24 10	 and	 ecx, DWORD PTR _yMiscInDep$[esp+8]
  00050	57		 push	 edi
  00051	8b bc 90 e4 00
	00 00		 mov	 edi, DWORD PTR [eax+edx*4+228]
  00058	51		 push	 ecx
  00059	e8 00 00 00 00	 call	 ?OnesCount@@YAII@Z	; OnesCount
  0005e	23 74 24 1c	 and	 esi, DWORD PTR _yScalarInDep$[esp+16]
  00062	89 44 24 18	 mov	 DWORD PTR tv219[esp+16], eax
  00066	56		 push	 esi
  00067	e8 00 00 00 00	 call	 ?OnesCount@@YAII@Z	; OnesCount
  0006c	23 5c 24 24	 and	 ebx, DWORD PTR _xMiscInDep$[esp+20]
  00070	8b 4c 24 1c	 mov	 ecx, DWORD PTR tv219[esp+20]
  00074	53		 push	 ebx
  00075	8d 34 01	 lea	 esi, DWORD PTR [ecx+eax]
  00078	e8 00 00 00 00	 call	 ?OnesCount@@YAII@Z	; OnesCount
  0007d	23 fd		 and	 edi, ebp
  0007f	57		 push	 edi
  00080	8b d8		 mov	 ebx, eax
  00082	e8 00 00 00 00	 call	 ?OnesCount@@YAII@Z	; OnesCount
  00087	83 c4 10	 add	 esp, 16			; 00000010H
  0008a	03 d8		 add	 ebx, eax
  0008c	5f		 pop	 edi
  0008d	3b de		 cmp	 ebx, esi
  0008f	5e		 pop	 esi
  00090	1b c0		 sbb	 eax, eax
  00092	5d		 pop	 ebp
  00093	f7 d8		 neg	 eax
  00095	5b		 pop	 ebx

; 1741 : }

  00096	c2 0c 00	 ret	 12			; 0000000cH
?ChooseInstructionPairOrdering@MPE@@QAE_NPAVInstructionCacheEntry@@II@Z ENDP ; MPE::ChooseInstructionPairOrdering
_TEXT	ENDS
PUBLIC	?ScheduleInstructionTriplet@MPE@@QAEXPAVInstructionCacheEntry@@I0III@Z ; MPE::ScheduleInstructionTriplet
EXTRN	?CopyInstructionData@InstructionCacheEntry@@QAEXIPAV1@I@Z:PROC ; InstructionCacheEntry::CopyInstructionData
;	COMDAT ?destSlot3@?1??ScheduleInstructionTriplet@MPE@@QAEXPAVInstructionCacheEntry@@I0III@Z@4PAIA
_DATA	SEGMENT
?destSlot3@?1??ScheduleInstructionTriplet@MPE@@QAEXPAVInstructionCacheEntry@@I0III@Z@4PAIA DD 02H ; `MPE::ScheduleInstructionTriplet'::`2'::destSlot3
	DD	01H
	DD	00H
	DD	02H
	DD	01H
	DD	00H
_DATA	ENDS
;	COMDAT ?destSlot2@?1??ScheduleInstructionTriplet@MPE@@QAEXPAVInstructionCacheEntry@@I0III@Z@4PAIA
_DATA	SEGMENT
?destSlot2@?1??ScheduleInstructionTriplet@MPE@@QAEXPAVInstructionCacheEntry@@I0III@Z@4PAIA DD 01H ; `MPE::ScheduleInstructionTriplet'::`2'::destSlot2
	DD	02H
	DD	02H
	DD	00H
	DD	00H
	DD	01H
_DATA	ENDS
;	COMDAT ?destSlot1@?1??ScheduleInstructionTriplet@MPE@@QAEXPAVInstructionCacheEntry@@I0III@Z@4PAIA
_DATA	SEGMENT
?destSlot1@?1??ScheduleInstructionTriplet@MPE@@QAEXPAVInstructionCacheEntry@@I0III@Z@4PAIA DD 00H ; `MPE::ScheduleInstructionTriplet'::`2'::destSlot1
	DD	00H
	DD	01H
	DD	01H
	DD	02H
	DD	02H
; Function compile flags: /Ogtpy
_DATA	ENDS
;	COMDAT ?ScheduleInstructionTriplet@MPE@@QAEXPAVInstructionCacheEntry@@I0III@Z
_TEXT	SEGMENT
_scores$ = -24						; size = 24
_destEntry$ = 8						; size = 4
_baseSlot$ = 12						; size = 4
tv467 = 16						; size = 4
tv389 = 16						; size = 4
tv292 = 16						; size = 4
_minIndex$ = 16						; size = 4
_tempMiscInDep$ = 16					; size = 4
_srcEntry$ = 16						; size = 4
_tempScalarInDep$ = 20					; size = 4
_slot1$ = 20						; size = 4
tv538 = 24						; size = 4
tv533 = 24						; size = 4
tv479 = 24						; size = 4
_slot2$ = 24						; size = 4
tv465 = 28						; size = 4
tv398 = 28						; size = 4
_slot3$ = 28						; size = 4
?ScheduleInstructionTriplet@MPE@@QAEXPAVInstructionCacheEntry@@I0III@Z PROC ; MPE::ScheduleInstructionTriplet, COMDAT
; _this$ = ecx

; 1744 : {

  00000	83 ec 18	 sub	 esp, 24			; 00000018H
  00003	53		 push	 ebx

; 1745 :   static uint32 destSlot1[6] = {0,0,1,1,2,2};
; 1746 :   static uint32 destSlot2[6] = {1,2,2,0,0,1};
; 1747 :   static uint32 destSlot3[6] = {2,1,0,2,1,0};
; 1748 : 
; 1749 :   uint32 comboScalarOutDep12, comboScalarOutDep23, comboScalarOutDep13;
; 1750 :   uint32 comboMiscOutDep12, comboMiscOutDep23, comboMiscOutDep13;
; 1751 :   uint32 tempScalarInDep, tempMiscInDep, i, minVal, minIndex;
; 1752 :   uint32 scores[6];
; 1753 :   
; 1754 : /*
; 1755 :   After completion, scores will contain the dependency count for the following permuations:
; 1756 :   {[1,2,3],[1,3,2],[2,3,1],[2,1,3],[3,1,2],[3,2,1]}.  Choose the permutation with the lowest
; 1757 :   score.
; 1758 : */
; 1759 : 
; 1760 :   comboScalarOutDep12 = srcEntry->scalarOutputDependencies[slot1] | srcEntry->scalarOutputDependencies[slot2];

  00004	8b 5c 24 30	 mov	 ebx, DWORD PTR _slot2$[esp+24]
  00008	55		 push	 ebp
  00009	8b 6c 24 30	 mov	 ebp, DWORD PTR _slot1$[esp+28]
  0000d	56		 push	 esi
  0000e	8b 74 24 30	 mov	 esi, DWORD PTR _srcEntry$[esp+32]

; 1761 :   comboMiscOutDep12 = srcEntry->miscOutputDependencies[slot1] | srcEntry->miscOutputDependencies[slot2];

  00012	8b 94 ae f8 00
	00 00		 mov	 edx, DWORD PTR [esi+ebp*4+248]
  00019	8b 8c 9e f8 00
	00 00		 mov	 ecx, DWORD PTR [esi+ebx*4+248]
  00020	8b 84 9e e4 00
	00 00		 mov	 eax, DWORD PTR [esi+ebx*4+228]
  00027	0b 84 ae e4 00
	00 00		 or	 eax, DWORD PTR [esi+ebp*4+228]
  0002e	0b ca		 or	 ecx, edx
  00030	57		 push	 edi

; 1762 : 
; 1763 :   tempScalarInDep = srcEntry->scalarInputDependencies[slot3] & comboScalarOutDep12;

  00031	8b 7c 24 40	 mov	 edi, DWORD PTR _slot3$[esp+36]

; 1764 :   tempMiscInDep = srcEntry->miscInputDependencies[slot3] & comboMiscOutDep12;

  00035	23 8c be d0 00
	00 00		 and	 ecx, DWORD PTR [esi+edi*4+208]
  0003c	23 84 be bc 00
	00 00		 and	 eax, DWORD PTR [esi+edi*4+188]
  00043	89 4c 24 34	 mov	 DWORD PTR _tempMiscInDep$[esp+36], ecx

; 1765 : 
; 1766 :   scores[0] = 
; 1767 :     OnesCount((srcEntry->scalarInputDependencies[slot2] & srcEntry->scalarOutputDependencies[slot1]) |
; 1768 :               (tempScalarInDep)) +
; 1769 :     OnesCount((srcEntry->miscInputDependencies[slot2] & srcEntry->miscOutputDependencies[slot1]) |
; 1770 :               (tempMiscInDep));

  00047	8b 8c 9e bc 00
	00 00		 mov	 ecx, DWORD PTR [esi+ebx*4+188]
  0004e	23 8c ae e4 00
	00 00		 and	 ecx, DWORD PTR [esi+ebp*4+228]
  00055	89 44 24 38	 mov	 DWORD PTR _tempScalarInDep$[esp+36], eax
  00059	0b c8		 or	 ecx, eax
  0005b	51		 push	 ecx
  0005c	89 54 24 40	 mov	 DWORD PTR tv533[esp+40], edx
  00060	e8 00 00 00 00	 call	 ?OnesCount@@YAII@Z	; OnesCount
  00065	89 44 24 44	 mov	 DWORD PTR tv465[esp+40], eax
  00069	8b 44 24 40	 mov	 eax, DWORD PTR tv533[esp+40]
  0006d	23 84 9e d0 00
	00 00		 and	 eax, DWORD PTR [esi+ebx*4+208]
  00074	0b 44 24 38	 or	 eax, DWORD PTR _tempMiscInDep$[esp+40]
  00078	50		 push	 eax
  00079	e8 00 00 00 00	 call	 ?OnesCount@@YAII@Z	; OnesCount
  0007e	8b 54 24 48	 mov	 edx, DWORD PTR tv465[esp+44]
  00082	03 d0		 add	 edx, eax

; 1771 : 
; 1772 :   scores[3] = 
; 1773 :     OnesCount((srcEntry->scalarInputDependencies[slot1] & srcEntry->scalarOutputDependencies[slot2]) |
; 1774 :               (tempScalarInDep)) +
; 1775 :     OnesCount((srcEntry->miscInputDependencies[slot1] & srcEntry->miscOutputDependencies[slot2]) |
; 1776 :               (tempMiscInDep));

  00084	8b 84 ae d0 00
	00 00		 mov	 eax, DWORD PTR [esi+ebp*4+208]
  0008b	23 84 9e f8 00
	00 00		 and	 eax, DWORD PTR [esi+ebx*4+248]
  00092	89 54 24 18	 mov	 DWORD PTR _scores$[esp+48], edx
  00096	0b 44 24 3c	 or	 eax, DWORD PTR _tempMiscInDep$[esp+44]
  0009a	50		 push	 eax
  0009b	e8 00 00 00 00	 call	 ?OnesCount@@YAII@Z	; OnesCount
  000a0	8b 8c 9e e4 00
	00 00		 mov	 ecx, DWORD PTR [esi+ebx*4+228]
  000a7	23 8c ae bc 00
	00 00		 and	 ecx, DWORD PTR [esi+ebp*4+188]
  000ae	89 44 24 40	 mov	 DWORD PTR tv467[esp+48], eax
  000b2	0b 4c 24 44	 or	 ecx, DWORD PTR _tempScalarInDep$[esp+48]
  000b6	51		 push	 ecx
  000b7	e8 00 00 00 00	 call	 ?OnesCount@@YAII@Z	; OnesCount
  000bc	8b 54 24 44	 mov	 edx, DWORD PTR tv467[esp+52]

; 1777 : 
; 1778 :   comboScalarOutDep13 = srcEntry->scalarOutputDependencies[slot1] | srcEntry->scalarOutputDependencies[slot3];
; 1779 :   comboMiscOutDep13 = srcEntry->miscOutputDependencies[slot1] | srcEntry->miscOutputDependencies[slot3];

  000c0	8b 8c be f8 00
	00 00		 mov	 ecx, DWORD PTR [esi+edi*4+248]
  000c7	03 d0		 add	 edx, eax
  000c9	8b 84 ae e4 00
	00 00		 mov	 eax, DWORD PTR [esi+ebp*4+228]
  000d0	0b 84 be e4 00
	00 00		 or	 eax, DWORD PTR [esi+edi*4+228]
  000d7	89 54 24 2c	 mov	 DWORD PTR _scores$[esp+68], edx

; 1780 : 
; 1781 :   tempScalarInDep = srcEntry->scalarInputDependencies[slot2] & comboScalarOutDep13;

  000db	23 84 9e bc 00
	00 00		 and	 eax, DWORD PTR [esi+ebx*4+188]
  000e2	89 44 24 48	 mov	 DWORD PTR _tempScalarInDep$[esp+52], eax
  000e6	8b 84 ae f8 00
	00 00		 mov	 eax, DWORD PTR [esi+ebp*4+248]
  000ed	0b c8		 or	 ecx, eax

; 1782 :   tempMiscInDep = srcEntry->miscInputDependencies[slot2] & comboMiscOutDep13;

  000ef	23 8c 9e d0 00
	00 00		 and	 ecx, DWORD PTR [esi+ebx*4+208]

; 1783 : 
; 1784 :   scores[1] = 
; 1785 :     OnesCount((srcEntry->scalarInputDependencies[slot3] & srcEntry->scalarOutputDependencies[slot1]) |
; 1786 :               (tempScalarInDep)) +
; 1787 :     OnesCount((srcEntry->miscInputDependencies[slot3] & srcEntry->miscOutputDependencies[slot1]) |
; 1788 :               (tempMiscInDep));

  000f6	23 84 be d0 00
	00 00		 and	 eax, DWORD PTR [esi+edi*4+208]
  000fd	89 4c 24 44	 mov	 DWORD PTR _tempMiscInDep$[esp+52], ecx
  00101	0b c1		 or	 eax, ecx
  00103	50		 push	 eax
  00104	e8 00 00 00 00	 call	 ?OnesCount@@YAII@Z	; OnesCount
  00109	89 44 24 50	 mov	 DWORD PTR tv479[esp+56], eax
  0010d	8b 84 ae e4 00
	00 00		 mov	 eax, DWORD PTR [esi+ebp*4+228]
  00114	23 84 be bc 00
	00 00		 and	 eax, DWORD PTR [esi+edi*4+188]
  0011b	0b 44 24 4c	 or	 eax, DWORD PTR _tempScalarInDep$[esp+56]
  0011f	50		 push	 eax
  00120	e8 00 00 00 00	 call	 ?OnesCount@@YAII@Z	; OnesCount

; 1789 : 
; 1790 :   scores[4] = 
; 1791 :     OnesCount((srcEntry->scalarInputDependencies[slot1] & srcEntry->scalarOutputDependencies[slot3]) |
; 1792 :               (tempScalarInDep)) +
; 1793 :     OnesCount((srcEntry->miscInputDependencies[slot1] & srcEntry->miscOutputDependencies[slot3]) |
; 1794 :               (tempMiscInDep));

  00125	8b 94 ae d0 00
	00 00		 mov	 edx, DWORD PTR [esi+ebp*4+208]
  0012c	23 94 be f8 00
	00 00		 and	 edx, DWORD PTR [esi+edi*4+248]
  00133	8b 4c 24 54	 mov	 ecx, DWORD PTR tv479[esp+60]
  00137	0b 54 24 4c	 or	 edx, DWORD PTR _tempMiscInDep$[esp+60]
  0013b	03 c8		 add	 ecx, eax
  0013d	52		 push	 edx
  0013e	89 4c 24 30	 mov	 DWORD PTR _scores$[esp+72], ecx
  00142	e8 00 00 00 00	 call	 ?OnesCount@@YAII@Z	; OnesCount
  00147	89 44 24 50	 mov	 DWORD PTR tv292[esp+64], eax
  0014b	8b 84 ae bc 00
	00 00		 mov	 eax, DWORD PTR [esi+ebp*4+188]
  00152	23 84 be e4 00
	00 00		 and	 eax, DWORD PTR [esi+edi*4+228]
  00159	0b 44 24 54	 or	 eax, DWORD PTR _tempScalarInDep$[esp+64]
  0015d	50		 push	 eax
  0015e	e8 00 00 00 00	 call	 ?OnesCount@@YAII@Z	; OnesCount
  00163	8b 4c 24 54	 mov	 ecx, DWORD PTR tv292[esp+68]
  00167	03 c8		 add	 ecx, eax

; 1795 : 
; 1796 :   comboScalarOutDep23 = srcEntry->scalarOutputDependencies[slot2] | srcEntry->scalarOutputDependencies[slot3];
; 1797 :   comboMiscOutDep23 = srcEntry->miscOutputDependencies[slot2] | srcEntry->miscOutputDependencies[slot3];

  00169	8b 94 9e f8 00
	00 00		 mov	 edx, DWORD PTR [esi+ebx*4+248]
  00170	8b 84 9e e4 00
	00 00		 mov	 eax, DWORD PTR [esi+ebx*4+228]
  00177	0b 84 be e4 00
	00 00		 or	 eax, DWORD PTR [esi+edi*4+228]
  0017e	89 4c 24 40	 mov	 DWORD PTR _scores$[esp+88], ecx
  00182	8b 8c be f8 00
	00 00		 mov	 ecx, DWORD PTR [esi+edi*4+248]

; 1798 : 
; 1799 :   tempScalarInDep = srcEntry->scalarInputDependencies[slot1] & comboScalarOutDep23;

  00189	23 84 ae bc 00
	00 00		 and	 eax, DWORD PTR [esi+ebp*4+188]
  00190	0b ca		 or	 ecx, edx

; 1800 :   tempMiscInDep = srcEntry->miscInputDependencies[slot1] & comboMiscOutDep23;

  00192	23 8c ae d0 00
	00 00		 and	 ecx, DWORD PTR [esi+ebp*4+208]
  00199	89 54 24 5c	 mov	 DWORD PTR tv538[esp+68], edx

; 1801 : 
; 1802 :   scores[2] = 
; 1803 :     OnesCount((srcEntry->scalarInputDependencies[slot3] & srcEntry->scalarOutputDependencies[slot2]) |
; 1804 :               (tempScalarInDep)) +
; 1805 :     OnesCount((srcEntry->miscInputDependencies[slot3] & srcEntry->miscOutputDependencies[slot2]) |
; 1806 :               (tempMiscInDep));

  0019d	8b 94 9e e4 00
	00 00		 mov	 edx, DWORD PTR [esi+ebx*4+228]
  001a4	23 94 be bc 00
	00 00		 and	 edx, DWORD PTR [esi+edi*4+188]
  001ab	89 44 24 58	 mov	 DWORD PTR _tempScalarInDep$[esp+68], eax
  001af	0b d0		 or	 edx, eax
  001b1	52		 push	 edx
  001b2	89 4c 24 58	 mov	 DWORD PTR _tempMiscInDep$[esp+72], ecx
  001b6	e8 00 00 00 00	 call	 ?OnesCount@@YAII@Z	; OnesCount
  001bb	89 44 24 64	 mov	 DWORD PTR tv398[esp+72], eax
  001bf	8b 44 24 60	 mov	 eax, DWORD PTR tv538[esp+72]
  001c3	23 84 be d0 00
	00 00		 and	 eax, DWORD PTR [esi+edi*4+208]
  001ca	0b 44 24 58	 or	 eax, DWORD PTR _tempMiscInDep$[esp+72]
  001ce	50		 push	 eax
  001cf	e8 00 00 00 00	 call	 ?OnesCount@@YAII@Z	; OnesCount

; 1807 : 
; 1808 :   scores[5] = 
; 1809 :     OnesCount((srcEntry->scalarInputDependencies[slot2] & srcEntry->scalarOutputDependencies[slot3]) |
; 1810 :               (tempScalarInDep)) +
; 1811 :     OnesCount((srcEntry->miscInputDependencies[slot2] & srcEntry->miscOutputDependencies[slot3]) |
; 1812 :               (tempMiscInDep));

  001d4	8b 94 be f8 00
	00 00		 mov	 edx, DWORD PTR [esi+edi*4+248]
  001db	23 94 9e d0 00
	00 00		 and	 edx, DWORD PTR [esi+ebx*4+208]
  001e2	8b 4c 24 68	 mov	 ecx, DWORD PTR tv398[esp+76]
  001e6	0b 54 24 5c	 or	 edx, DWORD PTR _tempMiscInDep$[esp+76]
  001ea	03 c8		 add	 ecx, eax
  001ec	52		 push	 edx
  001ed	89 4c 24 44	 mov	 DWORD PTR _scores$[esp+92], ecx
  001f1	e8 00 00 00 00	 call	 ?OnesCount@@YAII@Z	; OnesCount
  001f6	89 44 24 60	 mov	 DWORD PTR tv389[esp+80], eax
  001fa	8b 84 9e bc 00
	00 00		 mov	 eax, DWORD PTR [esi+ebx*4+188]
  00201	23 84 be e4 00
	00 00		 and	 eax, DWORD PTR [esi+edi*4+228]
  00208	0b 44 24 64	 or	 eax, DWORD PTR _tempScalarInDep$[esp+80]
  0020c	50		 push	 eax
  0020d	e8 00 00 00 00	 call	 ?OnesCount@@YAII@Z	; OnesCount
  00212	8b 4c 24 64	 mov	 ecx, DWORD PTR tv389[esp+84]

; 1813 : 
; 1814 :   minVal = scores[0];
; 1815 :   minIndex = 0;
; 1816 : 
; 1817 :   for(i = 1; i < 6; i++)
; 1818 :   {
; 1819 :     if(scores[i] <= minVal)

  00216	8b 54 24 44	 mov	 edx, DWORD PTR _scores$[esp+92]
  0021a	03 c8		 add	 ecx, eax
  0021c	8b 44 24 40	 mov	 eax, DWORD PTR _scores$[esp+88]
  00220	83 c4 30	 add	 esp, 48			; 00000030H
  00223	3b d0		 cmp	 edx, eax
  00225	c7 44 24 34 00
	00 00 00	 mov	 DWORD PTR _minIndex$[esp+36], 0
  0022d	77 0a		 ja	 SHORT $LN18@ScheduleIn

; 1820 :     {
; 1821 :       minIndex = i;

  0022f	c7 44 24 34 01
	00 00 00	 mov	 DWORD PTR _minIndex$[esp+36], 1

; 1822 :       minVal = scores[i];

  00237	eb 02		 jmp	 SHORT $LN3@ScheduleIn
$LN18@ScheduleIn:
  00239	8b d0		 mov	 edx, eax
$LN3@ScheduleIn:

; 1813 : 
; 1814 :   minVal = scores[0];
; 1815 :   minIndex = 0;
; 1816 : 
; 1817 :   for(i = 1; i < 6; i++)
; 1818 :   {
; 1819 :     if(scores[i] <= minVal)

  0023b	8b 44 24 18	 mov	 eax, DWORD PTR _scores$[esp+48]
  0023f	3b c2		 cmp	 eax, edx
  00241	77 0a		 ja	 SHORT $LN11@ScheduleIn

; 1820 :     {
; 1821 :       minIndex = i;

  00243	c7 44 24 34 02
	00 00 00	 mov	 DWORD PTR _minIndex$[esp+36], 2

; 1822 :       minVal = scores[i];

  0024b	8b d0		 mov	 edx, eax
$LN11@ScheduleIn:
  0024d	8b 44 24 1c	 mov	 eax, DWORD PTR _scores$[esp+52]
  00251	3b c2		 cmp	 eax, edx
  00253	77 0a		 ja	 SHORT $LN13@ScheduleIn
  00255	c7 44 24 34 03
	00 00 00	 mov	 DWORD PTR _minIndex$[esp+36], 3
  0025d	8b d0		 mov	 edx, eax
$LN13@ScheduleIn:
  0025f	8b 44 24 20	 mov	 eax, DWORD PTR _scores$[esp+56]
  00263	3b c2		 cmp	 eax, edx
  00265	77 0a		 ja	 SHORT $LN19@ScheduleIn
  00267	c7 44 24 34 04
	00 00 00	 mov	 DWORD PTR _minIndex$[esp+36], 4
  0026f	8b d0		 mov	 edx, eax
$LN19@ScheduleIn:

; 1813 : 
; 1814 :   minVal = scores[0];
; 1815 :   minIndex = 0;
; 1816 : 
; 1817 :   for(i = 1; i < 6; i++)
; 1818 :   {
; 1819 :     if(scores[i] <= minVal)

  00271	3b ca		 cmp	 ecx, edx
  00273	77 08		 ja	 SHORT $LN17@ScheduleIn

; 1820 :     {
; 1821 :       minIndex = i;

  00275	c7 44 24 34 05
	00 00 00	 mov	 DWORD PTR _minIndex$[esp+36], 5
$LN17@ScheduleIn:

; 1823 :     }
; 1824 :   }
; 1825 : 
; 1826 :   destEntry->CopyInstructionData(baseSlot + destSlot1[minIndex], srcEntry, slot1);

  0027d	8b 4c 24 34	 mov	 ecx, DWORD PTR _minIndex$[esp+36]
  00281	8b 14 8d 00 00
	00 00		 mov	 edx, DWORD PTR ?destSlot1@?1??ScheduleInstructionTriplet@MPE@@QAEXPAVInstructionCacheEntry@@I0III@Z@4PAIA[ecx*4]
  00288	8b 4c 24 2c	 mov	 ecx, DWORD PTR _destEntry$[esp+36]
  0028c	55		 push	 ebp
  0028d	8b 6c 24 34	 mov	 ebp, DWORD PTR _baseSlot$[esp+40]
  00291	56		 push	 esi
  00292	03 d5		 add	 edx, ebp
  00294	52		 push	 edx
  00295	e8 00 00 00 00	 call	 ?CopyInstructionData@InstructionCacheEntry@@QAEXIPAV1@I@Z ; InstructionCacheEntry::CopyInstructionData

; 1827 :   destEntry->CopyInstructionData(baseSlot + destSlot2[minIndex], srcEntry, slot2);

  0029a	8b 4c 24 2c	 mov	 ecx, DWORD PTR _destEntry$[esp+36]
  0029e	53		 push	 ebx
  0029f	8b 5c 24 38	 mov	 ebx, DWORD PTR _minIndex$[esp+40]
  002a3	8b 04 9d 00 00
	00 00		 mov	 eax, DWORD PTR ?destSlot2@?1??ScheduleInstructionTriplet@MPE@@QAEXPAVInstructionCacheEntry@@I0III@Z@4PAIA[ebx*4]
  002aa	56		 push	 esi
  002ab	03 c5		 add	 eax, ebp
  002ad	50		 push	 eax
  002ae	e8 00 00 00 00	 call	 ?CopyInstructionData@InstructionCacheEntry@@QAEXIPAV1@I@Z ; InstructionCacheEntry::CopyInstructionData

; 1828 :   destEntry->CopyInstructionData(baseSlot + destSlot3[minIndex], srcEntry, slot3);

  002b3	8b 0c 9d 00 00
	00 00		 mov	 ecx, DWORD PTR ?destSlot3@?1??ScheduleInstructionTriplet@MPE@@QAEXPAVInstructionCacheEntry@@I0III@Z@4PAIA[ebx*4]
  002ba	57		 push	 edi
  002bb	03 cd		 add	 ecx, ebp
  002bd	56		 push	 esi
  002be	51		 push	 ecx
  002bf	8b 4c 24 38	 mov	 ecx, DWORD PTR _destEntry$[esp+48]
  002c3	e8 00 00 00 00	 call	 ?CopyInstructionData@InstructionCacheEntry@@QAEXIPAV1@I@Z ; InstructionCacheEntry::CopyInstructionData
  002c8	5f		 pop	 edi
  002c9	5e		 pop	 esi
  002ca	5d		 pop	 ebp
  002cb	5b		 pop	 ebx

; 1829 : }

  002cc	83 c4 18	 add	 esp, 24			; 00000018H
  002cf	c2 18 00	 ret	 24			; 00000018H
?ScheduleInstructionTriplet@MPE@@QAEXPAVInstructionCacheEntry@@I0III@Z ENDP ; MPE::ScheduleInstructionTriplet
_TEXT	ENDS
PUBLIC	?ScoreInstructionTriplet@MPE@@QAEIPAVInstructionCacheEntry@@III@Z ; MPE::ScoreInstructionTriplet
; Function compile flags: /Ogtpy
;	COMDAT ?ScoreInstructionTriplet@MPE@@QAEIPAVInstructionCacheEntry@@III@Z
_TEXT	SEGMENT
_srcEntry$ = 8						; size = 4
_slot1$ = 12						; size = 4
_slot2$ = 16						; size = 4
tv217 = 20						; size = 4
_slot3$ = 20						; size = 4
?ScoreInstructionTriplet@MPE@@QAEIPAVInstructionCacheEntry@@III@Z PROC ; MPE::ScoreInstructionTriplet, COMDAT
; _this$ = ecx

; 1832 : {

  00000	53		 push	 ebx
  00001	55		 push	 ebp

; 1833 :   uint32 comboScalarOutDep, comboMiscOutDep;
; 1834 : 
; 1835 :   comboMiscOutDep = srcEntry->miscOutputDependencies[slot1] | srcEntry->miscOutputDependencies[slot2];

  00002	8b 6c 24 10	 mov	 ebp, DWORD PTR _slot1$[esp+4]
  00006	56		 push	 esi
  00007	8b 74 24 10	 mov	 esi, DWORD PTR _srcEntry$[esp+8]

; 1836 :   comboScalarOutDep = srcEntry->scalarOutputDependencies[slot1] | srcEntry->scalarOutputDependencies[slot2];

  0000b	8b 8c ae e4 00
	00 00		 mov	 ecx, DWORD PTR [esi+ebp*4+228]
  00012	57		 push	 edi
  00013	8b 7c 24 1c	 mov	 edi, DWORD PTR _slot2$[esp+12]
  00017	8b 84 be e4 00
	00 00		 mov	 eax, DWORD PTR [esi+edi*4+228]

; 1837 : 
; 1838 :   return OnesCount((srcEntry->scalarInputDependencies[slot2] & srcEntry->scalarOutputDependencies[slot1]) |
; 1839 :     (srcEntry->scalarInputDependencies[slot3] & comboScalarOutDep)) +
; 1840 :     OnesCount((srcEntry->miscInputDependencies[slot2] & srcEntry->miscOutputDependencies[slot1]) |
; 1841 :     (srcEntry->miscInputDependencies[slot3] & comboMiscOutDep));

  0001e	8b 94 be bc 00
	00 00		 mov	 edx, DWORD PTR [esi+edi*4+188]
  00025	8b 9c be f8 00
	00 00		 mov	 ebx, DWORD PTR [esi+edi*4+248]
  0002c	0b 9c ae f8 00
	00 00		 or	 ebx, DWORD PTR [esi+ebp*4+248]
  00033	23 d1		 and	 edx, ecx
  00035	0b c1		 or	 eax, ecx
  00037	8b 4c 24 20	 mov	 ecx, DWORD PTR _slot3$[esp+12]
  0003b	8b 8c 8e bc 00
	00 00		 mov	 ecx, DWORD PTR [esi+ecx*4+188]
  00042	23 c8		 and	 ecx, eax
  00044	0b d1		 or	 edx, ecx
  00046	52		 push	 edx
  00047	e8 00 00 00 00	 call	 ?OnesCount@@YAII@Z	; OnesCount
  0004c	8b 54 24 24	 mov	 edx, DWORD PTR _slot3$[esp+16]
  00050	8b 8c 96 d0 00
	00 00		 mov	 ecx, DWORD PTR [esi+edx*4+208]
  00057	8b 94 be d0 00
	00 00		 mov	 edx, DWORD PTR [esi+edi*4+208]
  0005e	23 94 ae f8 00
	00 00		 and	 edx, DWORD PTR [esi+ebp*4+248]
  00065	23 cb		 and	 ecx, ebx
  00067	0b ca		 or	 ecx, edx
  00069	51		 push	 ecx
  0006a	89 44 24 28	 mov	 DWORD PTR tv217[esp+20], eax
  0006e	e8 00 00 00 00	 call	 ?OnesCount@@YAII@Z	; OnesCount
  00073	8b 4c 24 28	 mov	 ecx, DWORD PTR tv217[esp+20]
  00077	83 c4 08	 add	 esp, 8
  0007a	5f		 pop	 edi
  0007b	5e		 pop	 esi
  0007c	5d		 pop	 ebp
  0007d	03 c1		 add	 eax, ecx
  0007f	5b		 pop	 ebx

; 1842 : }

  00080	c2 10 00	 ret	 16			; 00000010H
?ScoreInstructionTriplet@MPE@@QAEIPAVInstructionCacheEntry@@III@Z ENDP ; MPE::ScoreInstructionTriplet
_TEXT	ENDS
PUBLIC	?GetInstructionTripletDependencies@MPE@@QAEXPAI0PAVInstructionCacheEntry@@III@Z ; MPE::GetInstructionTripletDependencies
; Function compile flags: /Ogtpy
;	COMDAT ?GetInstructionTripletDependencies@MPE@@QAEXPAI0PAVInstructionCacheEntry@@III@Z
_TEXT	SEGMENT
_comboScalarDep$ = 8					; size = 4
_comboMiscDep$ = 12					; size = 4
_srcEntry$ = 16						; size = 4
_slot1$ = 20						; size = 4
_slot2$ = 24						; size = 4
_slot3$ = 28						; size = 4
?GetInstructionTripletDependencies@MPE@@QAEXPAI0PAVInstructionCacheEntry@@III@Z PROC ; MPE::GetInstructionTripletDependencies, COMDAT
; _this$ = ecx

; 1846 :   uint32 comboScalarOutDep, comboMiscOutDep;
; 1847 : 
; 1848 :   comboMiscOutDep = srcEntry->miscOutputDependencies[slot1] | srcEntry->miscOutputDependencies[slot2];
; 1849 :   comboScalarOutDep = srcEntry->scalarOutputDependencies[slot1] | srcEntry->scalarOutputDependencies[slot2];

  00000	8b 44 24 0c	 mov	 eax, DWORD PTR _srcEntry$[esp-4]
  00004	8b 4c 24 14	 mov	 ecx, DWORD PTR _slot2$[esp-4]
  00008	8b 94 88 e4 00
	00 00		 mov	 edx, DWORD PTR [eax+ecx*4+228]
  0000f	53		 push	 ebx
  00010	8b 9c 88 f8 00
	00 00		 mov	 ebx, DWORD PTR [eax+ecx*4+248]
  00017	55		 push	 ebp

; 1850 : 
; 1851 :   *comboMiscDep = (srcEntry->miscInputDependencies[slot2] & srcEntry->miscOutputDependencies[slot1]) |
; 1852 :     (srcEntry->miscInputDependencies[slot3] & comboMiscOutDep);

  00018	8b 6c 24 20	 mov	 ebp, DWORD PTR _slot3$[esp+4]
  0001c	56		 push	 esi
  0001d	8b 74 24 1c	 mov	 esi, DWORD PTR _slot1$[esp+8]
  00021	0b 94 b0 e4 00
	00 00		 or	 edx, DWORD PTR [eax+esi*4+228]
  00028	57		 push	 edi
  00029	8b bc b0 f8 00
	00 00		 mov	 edi, DWORD PTR [eax+esi*4+248]
  00030	0b df		 or	 ebx, edi
  00032	23 9c a8 d0 00
	00 00		 and	 ebx, DWORD PTR [eax+ebp*4+208]
  00039	8b ac 88 d0 00
	00 00		 mov	 ebp, DWORD PTR [eax+ecx*4+208]
  00040	23 ef		 and	 ebp, edi
  00042	8b 7c 24 18	 mov	 edi, DWORD PTR _comboMiscDep$[esp+12]
  00046	0b dd		 or	 ebx, ebp
  00048	89 1f		 mov	 DWORD PTR [edi], ebx

; 1853 :   *comboScalarDep = (srcEntry->scalarInputDependencies[slot2] & srcEntry->scalarOutputDependencies[slot1]) |
; 1854 :     (srcEntry->scalarInputDependencies[slot3] & comboScalarOutDep);

  0004a	8b 7c 24 28	 mov	 edi, DWORD PTR _slot3$[esp+12]
  0004e	8b bc b8 bc 00
	00 00		 mov	 edi, DWORD PTR [eax+edi*4+188]
  00055	8b 8c 88 bc 00
	00 00		 mov	 ecx, DWORD PTR [eax+ecx*4+188]
  0005c	23 8c b0 e4 00
	00 00		 and	 ecx, DWORD PTR [eax+esi*4+228]
  00063	23 fa		 and	 edi, edx
  00065	8b 54 24 14	 mov	 edx, DWORD PTR _comboScalarDep$[esp+12]
  00069	0b f9		 or	 edi, ecx
  0006b	89 3a		 mov	 DWORD PTR [edx], edi
  0006d	5f		 pop	 edi
  0006e	5e		 pop	 esi
  0006f	5d		 pop	 ebp
  00070	5b		 pop	 ebx

; 1855 : }

  00071	c2 18 00	 ret	 24			; 00000018H
?GetInstructionTripletDependencies@MPE@@QAEXPAI0PAVInstructionCacheEntry@@III@Z ENDP ; MPE::GetInstructionTripletDependencies
_TEXT	ENDS
PUBLIC	?ScheduleInstructionQuartet@MPE@@QAEXPAVInstructionCacheEntry@@I0@Z ; MPE::ScheduleInstructionQuartet
;	COMDAT ?destSlotMEM@?1??ScheduleInstructionQuartet@MPE@@QAEXPAVInstructionCacheEntry@@I0@Z@4PAIA
_DATA	SEGMENT
?destSlotMEM@?1??ScheduleInstructionQuartet@MPE@@QAEXPAVInstructionCacheEntry@@I0@Z@4PAIA DD 03H ; `MPE::ScheduleInstructionQuartet'::`2'::destSlotMEM
	DD	03H
	DD	03H
	DD	00H
	DD	00H
	DD	01H
_DATA	ENDS
;	COMDAT ?destSlotMUL@?1??ScheduleInstructionQuartet@MPE@@QAEXPAVInstructionCacheEntry@@I0@Z@4PAIA
_DATA	SEGMENT
?destSlotMUL@?1??ScheduleInstructionQuartet@MPE@@QAEXPAVInstructionCacheEntry@@I0@Z@4PAIA DD 02H ; `MPE::ScheduleInstructionQuartet'::`2'::destSlotMUL
	DD	01H
	DD	00H
	DD	02H
	DD	01H
	DD	02H
_DATA	ENDS
;	COMDAT ?destSlotALU@?1??ScheduleInstructionQuartet@MPE@@QAEXPAVInstructionCacheEntry@@I0@Z@4PAIA
_DATA	SEGMENT
?destSlotALU@?1??ScheduleInstructionQuartet@MPE@@QAEXPAVInstructionCacheEntry@@I0@Z@4PAIA DD 01H ; `MPE::ScheduleInstructionQuartet'::`2'::destSlotALU
	DD	02H
	DD	02H
	DD	03H
	DD	03H
	DD	03H
_DATA	ENDS
;	COMDAT ?destSlotRCU@?1??ScheduleInstructionQuartet@MPE@@QAEXPAVInstructionCacheEntry@@I0@Z@4PAIA
_DATA	SEGMENT
?destSlotRCU@?1??ScheduleInstructionQuartet@MPE@@QAEXPAVInstructionCacheEntry@@I0@Z@4PAIA DD 00H ; `MPE::ScheduleInstructionQuartet'::`2'::destSlotRCU
	DD	00H
	DD	01H
	DD	01H
	DD	02H
	DD	00H
; Function compile flags: /Ogtpy
_DATA	ENDS
;	COMDAT ?ScheduleInstructionQuartet@MPE@@QAEXPAVInstructionCacheEntry@@I0@Z
_TEXT	SEGMENT
_tempScalarDep1$ = -40					; size = 4
tv260 = -36						; size = 4
tv181 = -36						; size = 4
_comboScalarOutDep2$ = -32				; size = 4
tv284 = -28						; size = 4
tv69 = -28						; size = 4
_comboMiscOutDep2$ = -28				; size = 4
_scores$ = -24						; size = 24
_destEntry$ = 8						; size = 4
_baseSlot$ = 12						; size = 4
_tempMiscDep1$ = 16					; size = 4
_srcEntry$ = 16						; size = 4
?ScheduleInstructionQuartet@MPE@@QAEXPAVInstructionCacheEntry@@I0@Z PROC ; MPE::ScheduleInstructionQuartet, COMDAT
; _this$ = ecx

; 1858 : {

  00000	83 ec 28	 sub	 esp, 40			; 00000028H
  00003	53		 push	 ebx
  00004	55		 push	 ebp
  00005	56		 push	 esi

; 1859 :   static uint32 destSlotRCU[6] = {0,0,1,1,2,0};
; 1860 :   static uint32 destSlotALU[6] = {1,2,2,3,3,3};
; 1861 :   static uint32 destSlotMUL[6] = {2,1,0,2,1,2};
; 1862 :   static uint32 destSlotMEM[6] = {3,3,3,0,0,1};
; 1863 : 
; 1864 :   uint32 comboScalarOutDep1, comboScalarOutDep2;
; 1865 :   uint32 comboMiscOutDep1, comboMiscOutDep2;
; 1866 :   uint32 tempScalarDep1, tempMiscDep1, tempScalarDep2, tempMiscDep2;
; 1867 :   uint32 minVal, minIndex, i;
; 1868 :   uint32 scores[6];
; 1869 : 
; 1870 :   tempScalarDep1 = srcEntry->scalarOutputDependencies[SLOT_RCU] | srcEntry->scalarOutputDependencies[SLOT_MUL];

  00006	8b 74 24 40	 mov	 esi, DWORD PTR _srcEntry$[esp+48]
  0000a	8b 86 f0 00 00
	00		 mov	 eax, DWORD PTR [esi+240]
  00010	0b 86 e8 00 00
	00		 or	 eax, DWORD PTR [esi+232]

; 1871 :   tempMiscDep1 = srcEntry->miscOutputDependencies[SLOT_RCU] | srcEntry->miscOutputDependencies[SLOT_MUL];
; 1872 :   
; 1873 :   comboScalarOutDep1 = srcEntry->scalarOutputDependencies[SLOT_ALU] | tempScalarDep1;
; 1874 :   comboMiscOutDep1 = srcEntry->miscOutputDependencies[SLOT_ALU] | tempMiscDep1;
; 1875 : 
; 1876 :   comboScalarOutDep2 = srcEntry->scalarOutputDependencies[SLOT_MEM] | tempScalarDep1;

  00016	8b 96 f4 00 00
	00		 mov	 edx, DWORD PTR [esi+244]
  0001c	8b 9e 00 01 00
	00		 mov	 ebx, DWORD PTR [esi+256]
  00022	57		 push	 edi
  00023	8b be ec 00 00
	00		 mov	 edi, DWORD PTR [esi+236]

; 1877 :   comboMiscOutDep2 = srcEntry->miscOutputDependencies[SLOT_MEM] | tempMiscDep1;
; 1878 : 
; 1879 :   tempScalarDep2 = srcEntry->scalarInputDependencies[SLOT_MEM] & comboScalarOutDep1;
; 1880 :   tempMiscDep2 = srcEntry->miscInputDependencies[SLOT_MEM] & comboMiscOutDep1;
; 1881 : 
; 1882 :   GetInstructionTripletDependencies(&tempScalarDep1,&tempMiscDep1,srcEntry,SLOT_RCU,SLOT_ALU,SLOT_MUL);

  00029	6a 03		 push	 3
  0002b	8b e9		 mov	 ebp, ecx
  0002d	8b 8e 04 01 00
	00		 mov	 ecx, DWORD PTR [esi+260]
  00033	0b 8e fc 00 00
	00		 or	 ecx, DWORD PTR [esi+252]
  00039	0b d0		 or	 edx, eax
  0003b	6a 02		 push	 2
  0003d	6a 01		 push	 1
  0003f	89 54 24 24	 mov	 DWORD PTR _comboScalarOutDep2$[esp+68], edx
  00043	8b 96 08 01 00
	00		 mov	 edx, DWORD PTR [esi+264]
  00049	0b f8		 or	 edi, eax
  0004b	23 be cc 00 00
	00		 and	 edi, DWORD PTR [esi+204]
  00051	89 44 24 1c	 mov	 DWORD PTR _tempScalarDep1$[esp+68], eax
  00055	0b d1		 or	 edx, ecx
  00057	0b d9		 or	 ebx, ecx
  00059	23 9e e0 00 00
	00		 and	 ebx, DWORD PTR [esi+224]
  0005f	56		 push	 esi
  00060	89 4c 24 54	 mov	 DWORD PTR _tempMiscDep1$[esp+68], ecx
  00064	8d 44 24 54	 lea	 eax, DWORD PTR _tempMiscDep1$[esp+68]
  00068	50		 push	 eax
  00069	8d 4c 24 24	 lea	 ecx, DWORD PTR _tempScalarDep1$[esp+76]
  0006d	51		 push	 ecx
  0006e	8b cd		 mov	 ecx, ebp
  00070	89 54 24 34	 mov	 DWORD PTR _comboMiscOutDep2$[esp+80], edx
  00074	e8 00 00 00 00	 call	 ?GetInstructionTripletDependencies@MPE@@QAEXPAI0PAVInstructionCacheEntry@@III@Z ; MPE::GetInstructionTripletDependencies

; 1883 :   scores[0] = OnesCount(tempScalarDep1 | tempScalarDep2) + OnesCount(tempMiscDep1 | tempMiscDep2);

  00079	8b d3		 mov	 edx, ebx
  0007b	0b 54 24 44	 or	 edx, DWORD PTR _tempMiscDep1$[esp+52]
  0007f	52		 push	 edx
  00080	e8 00 00 00 00	 call	 ?OnesCount@@YAII@Z	; OnesCount
  00085	89 44 24 18	 mov	 DWORD PTR tv260[esp+60], eax
  00089	8b c7		 mov	 eax, edi
  0008b	0b 44 24 14	 or	 eax, DWORD PTR _tempScalarDep1$[esp+60]
  0008f	50		 push	 eax
  00090	e8 00 00 00 00	 call	 ?OnesCount@@YAII@Z	; OnesCount
  00095	8b 4c 24 1c	 mov	 ecx, DWORD PTR tv260[esp+64]
  00099	83 c4 08	 add	 esp, 8

; 1884 : 
; 1885 :   GetInstructionTripletDependencies(&tempScalarDep1,&tempMiscDep1,srcEntry,SLOT_RCU,SLOT_MUL,SLOT_ALU);

  0009c	6a 02		 push	 2
  0009e	6a 03		 push	 3
  000a0	6a 01		 push	 1
  000a2	03 c8		 add	 ecx, eax
  000a4	56		 push	 esi
  000a5	8d 54 24 54	 lea	 edx, DWORD PTR _tempMiscDep1$[esp+68]
  000a9	52		 push	 edx
  000aa	8d 44 24 24	 lea	 eax, DWORD PTR _tempScalarDep1$[esp+76]
  000ae	89 4c 24 34	 mov	 DWORD PTR _scores$[esp+76], ecx
  000b2	50		 push	 eax
  000b3	8b cd		 mov	 ecx, ebp
  000b5	e8 00 00 00 00	 call	 ?GetInstructionTripletDependencies@MPE@@QAEXPAI0PAVInstructionCacheEntry@@III@Z ; MPE::GetInstructionTripletDependencies

; 1886 :   scores[1] = OnesCount(tempScalarDep1 | tempScalarDep2) + OnesCount(tempMiscDep1 | tempMiscDep2);

  000ba	8b cb		 mov	 ecx, ebx
  000bc	0b 4c 24 44	 or	 ecx, DWORD PTR _tempMiscDep1$[esp+52]
  000c0	51		 push	 ecx
  000c1	e8 00 00 00 00	 call	 ?OnesCount@@YAII@Z	; OnesCount
  000c6	8b d7		 mov	 edx, edi
  000c8	0b 54 24 14	 or	 edx, DWORD PTR _tempScalarDep1$[esp+60]
  000cc	89 44 24 18	 mov	 DWORD PTR tv181[esp+60], eax
  000d0	52		 push	 edx
  000d1	e8 00 00 00 00	 call	 ?OnesCount@@YAII@Z	; OnesCount
  000d6	8b 4c 24 1c	 mov	 ecx, DWORD PTR tv181[esp+64]
  000da	83 c4 08	 add	 esp, 8

; 1887 : 
; 1888 :   GetInstructionTripletDependencies(&tempScalarDep1,&tempMiscDep1,srcEntry,SLOT_MUL,SLOT_RCU,SLOT_ALU);

  000dd	6a 02		 push	 2
  000df	6a 01		 push	 1
  000e1	6a 03		 push	 3
  000e3	03 c8		 add	 ecx, eax
  000e5	56		 push	 esi
  000e6	8d 54 24 54	 lea	 edx, DWORD PTR _tempMiscDep1$[esp+68]
  000ea	52		 push	 edx
  000eb	8d 44 24 24	 lea	 eax, DWORD PTR _tempScalarDep1$[esp+76]
  000ef	89 4c 24 38	 mov	 DWORD PTR _scores$[esp+80], ecx
  000f3	50		 push	 eax
  000f4	8b cd		 mov	 ecx, ebp
  000f6	e8 00 00 00 00	 call	 ?GetInstructionTripletDependencies@MPE@@QAEXPAI0PAVInstructionCacheEntry@@III@Z ; MPE::GetInstructionTripletDependencies

; 1889 :   scores[2] = OnesCount(tempScalarDep1 | tempScalarDep2) + OnesCount(tempMiscDep1 | tempMiscDep2);

  000fb	0b 5c 24 44	 or	 ebx, DWORD PTR _tempMiscDep1$[esp+52]
  000ff	53		 push	 ebx
  00100	e8 00 00 00 00	 call	 ?OnesCount@@YAII@Z	; OnesCount
  00105	0b 7c 24 14	 or	 edi, DWORD PTR _tempScalarDep1$[esp+60]
  00109	8b d8		 mov	 ebx, eax
  0010b	57		 push	 edi
  0010c	e8 00 00 00 00	 call	 ?OnesCount@@YAII@Z	; OnesCount

; 1890 : 
; 1891 :   tempScalarDep2 = srcEntry->scalarInputDependencies[SLOT_ALU] & comboScalarOutDep2;

  00111	8b be c4 00 00
	00		 mov	 edi, DWORD PTR [esi+196]
  00117	23 7c 24 20	 and	 edi, DWORD PTR _comboScalarOutDep2$[esp+64]
  0011b	83 c4 08	 add	 esp, 8

; 1892 :   tempMiscDep2 = srcEntry->miscInputDependencies[SLOT_ALU] & comboMiscOutDep2;
; 1893 : 
; 1894 :   GetInstructionTripletDependencies(&tempScalarDep1,&tempMiscDep1,srcEntry,SLOT_MEM,SLOT_RCU,SLOT_MUL);

  0011e	6a 03		 push	 3
  00120	6a 01		 push	 1
  00122	6a 04		 push	 4
  00124	03 d8		 add	 ebx, eax
  00126	56		 push	 esi
  00127	8d 4c 24 54	 lea	 ecx, DWORD PTR _tempMiscDep1$[esp+68]
  0012b	51		 push	 ecx
  0012c	89 5c 24 3c	 mov	 DWORD PTR _scores$[esp+84], ebx
  00130	8b 9e d8 00 00
	00		 mov	 ebx, DWORD PTR [esi+216]
  00136	23 5c 24 30	 and	 ebx, DWORD PTR _comboMiscOutDep2$[esp+76]
  0013a	8d 54 24 24	 lea	 edx, DWORD PTR _tempScalarDep1$[esp+76]
  0013e	52		 push	 edx
  0013f	8b cd		 mov	 ecx, ebp
  00141	e8 00 00 00 00	 call	 ?GetInstructionTripletDependencies@MPE@@QAEXPAI0PAVInstructionCacheEntry@@III@Z ; MPE::GetInstructionTripletDependencies

; 1895 :   scores[3] = OnesCount(tempScalarDep1 | tempScalarDep2) + OnesCount(tempMiscDep1 | tempMiscDep2);

  00146	8b c3		 mov	 eax, ebx
  00148	0b 44 24 44	 or	 eax, DWORD PTR _tempMiscDep1$[esp+52]
  0014c	50		 push	 eax
  0014d	e8 00 00 00 00	 call	 ?OnesCount@@YAII@Z	; OnesCount
  00152	8b cf		 mov	 ecx, edi
  00154	0b 4c 24 14	 or	 ecx, DWORD PTR _tempScalarDep1$[esp+60]
  00158	89 44 24 20	 mov	 DWORD PTR tv69[esp+60], eax
  0015c	51		 push	 ecx
  0015d	e8 00 00 00 00	 call	 ?OnesCount@@YAII@Z	; OnesCount
  00162	8b 54 24 24	 mov	 edx, DWORD PTR tv69[esp+64]
  00166	83 c4 08	 add	 esp, 8

; 1896 : 
; 1897 :   GetInstructionTripletDependencies(&tempScalarDep1,&tempMiscDep1,srcEntry,SLOT_MEM,SLOT_MUL,SLOT_RCU);

  00169	6a 01		 push	 1
  0016b	6a 03		 push	 3
  0016d	6a 04		 push	 4
  0016f	03 d0		 add	 edx, eax
  00171	56		 push	 esi
  00172	8d 44 24 54	 lea	 eax, DWORD PTR _tempMiscDep1$[esp+68]
  00176	50		 push	 eax
  00177	8d 4c 24 24	 lea	 ecx, DWORD PTR _tempScalarDep1$[esp+76]
  0017b	51		 push	 ecx
  0017c	8b cd		 mov	 ecx, ebp
  0017e	89 54 24 44	 mov	 DWORD PTR _scores$[esp+92], edx
  00182	e8 00 00 00 00	 call	 ?GetInstructionTripletDependencies@MPE@@QAEXPAI0PAVInstructionCacheEntry@@III@Z ; MPE::GetInstructionTripletDependencies

; 1898 :   scores[4] = OnesCount(tempScalarDep1 | tempScalarDep2) + OnesCount(tempMiscDep1 | tempMiscDep2);

  00187	8b d3		 mov	 edx, ebx
  00189	0b 54 24 44	 or	 edx, DWORD PTR _tempMiscDep1$[esp+52]
  0018d	52		 push	 edx
  0018e	e8 00 00 00 00	 call	 ?OnesCount@@YAII@Z	; OnesCount
  00193	89 44 24 20	 mov	 DWORD PTR tv284[esp+60], eax
  00197	8b c7		 mov	 eax, edi
  00199	0b 44 24 14	 or	 eax, DWORD PTR _tempScalarDep1$[esp+60]
  0019d	50		 push	 eax
  0019e	e8 00 00 00 00	 call	 ?OnesCount@@YAII@Z	; OnesCount
  001a3	8b 4c 24 24	 mov	 ecx, DWORD PTR tv284[esp+64]
  001a7	83 c4 08	 add	 esp, 8

; 1899 :  
; 1900 :   GetInstructionTripletDependencies(&tempScalarDep1,&tempMiscDep1,srcEntry,SLOT_RCU,SLOT_MEM,SLOT_MUL);

  001aa	6a 03		 push	 3
  001ac	6a 04		 push	 4
  001ae	6a 01		 push	 1
  001b0	03 c8		 add	 ecx, eax
  001b2	56		 push	 esi
  001b3	8d 54 24 54	 lea	 edx, DWORD PTR _tempMiscDep1$[esp+68]
  001b7	52		 push	 edx
  001b8	8d 44 24 24	 lea	 eax, DWORD PTR _tempScalarDep1$[esp+76]
  001bc	89 4c 24 44	 mov	 DWORD PTR _scores$[esp+92], ecx
  001c0	50		 push	 eax
  001c1	8b cd		 mov	 ecx, ebp
  001c3	e8 00 00 00 00	 call	 ?GetInstructionTripletDependencies@MPE@@QAEXPAI0PAVInstructionCacheEntry@@III@Z ; MPE::GetInstructionTripletDependencies

; 1901 :   scores[5] = OnesCount(tempScalarDep1 | tempScalarDep2) + OnesCount(tempMiscDep1 | tempMiscDep2);

  001c8	0b 5c 24 44	 or	 ebx, DWORD PTR _tempMiscDep1$[esp+52]
  001cc	53		 push	 ebx
  001cd	e8 00 00 00 00	 call	 ?OnesCount@@YAII@Z	; OnesCount
  001d2	0b 7c 24 14	 or	 edi, DWORD PTR _tempScalarDep1$[esp+60]
  001d6	8b d8		 mov	 ebx, eax
  001d8	57		 push	 edi
  001d9	e8 00 00 00 00	 call	 ?OnesCount@@YAII@Z	; OnesCount

; 1902 : 
; 1903 :   minVal = scores[0];
; 1904 :   minIndex = 0;
; 1905 : 
; 1906 :   for(i = 1; i < 6; i++)
; 1907 :   {
; 1908 :     if(scores[i] <= minVal)

  001de	8b 4c 24 2c	 mov	 ecx, DWORD PTR _scores$[esp+68]
  001e2	03 d8		 add	 ebx, eax
  001e4	8b 44 24 28	 mov	 eax, DWORD PTR _scores$[esp+64]
  001e8	83 c4 08	 add	 esp, 8
  001eb	33 ff		 xor	 edi, edi
  001ed	3b c8		 cmp	 ecx, eax
  001ef	77 07		 ja	 SHORT $LN3@ScheduleIn@2

; 1909 :     {
; 1910 :       minIndex = i;

  001f1	bf 01 00 00 00	 mov	 edi, 1

; 1911 :       minVal = scores[i];

  001f6	8b c1		 mov	 eax, ecx
$LN3@ScheduleIn@2:
  001f8	8b 4c 24 28	 mov	 ecx, DWORD PTR _scores$[esp+64]
  001fc	3b c8		 cmp	 ecx, eax
  001fe	77 07		 ja	 SHORT $LN19@ScheduleIn@2
  00200	bf 02 00 00 00	 mov	 edi, 2
  00205	8b c1		 mov	 eax, ecx
$LN19@ScheduleIn@2:
  00207	8b 4c 24 2c	 mov	 ecx, DWORD PTR _scores$[esp+68]
  0020b	3b c8		 cmp	 ecx, eax
  0020d	77 07		 ja	 SHORT $LN20@ScheduleIn@2
  0020f	bf 03 00 00 00	 mov	 edi, 3
  00214	8b c1		 mov	 eax, ecx
$LN20@ScheduleIn@2:
  00216	8b 4c 24 30	 mov	 ecx, DWORD PTR _scores$[esp+72]
  0021a	3b c8		 cmp	 ecx, eax
  0021c	77 07		 ja	 SHORT $LN21@ScheduleIn@2
  0021e	bf 04 00 00 00	 mov	 edi, 4
  00223	8b c1		 mov	 eax, ecx
$LN21@ScheduleIn@2:

; 1902 : 
; 1903 :   minVal = scores[0];
; 1904 :   minIndex = 0;
; 1905 : 
; 1906 :   for(i = 1; i < 6; i++)
; 1907 :   {
; 1908 :     if(scores[i] <= minVal)

  00225	3b d8		 cmp	 ebx, eax
  00227	77 05		 ja	 SHORT $LN17@ScheduleIn@2

; 1909 :     {
; 1910 :       minIndex = i;

  00229	bf 05 00 00 00	 mov	 edi, 5
$LN17@ScheduleIn@2:

; 1912 :     }
; 1913 :   }
; 1914 : 
; 1915 :   destEntry->CopyInstructionData(baseSlot + destSlotRCU[minIndex], srcEntry, SLOT_RCU);

  0022e	8b 0c bd 00 00
	00 00		 mov	 ecx, DWORD PTR ?destSlotRCU@?1??ScheduleInstructionQuartet@MPE@@QAEXPAVInstructionCacheEntry@@I0@Z@4PAIA[edi*4]
  00235	8b 5c 24 40	 mov	 ebx, DWORD PTR _baseSlot$[esp+52]
  00239	8b 6c 24 3c	 mov	 ebp, DWORD PTR _destEntry$[esp+52]
  0023d	6a 01		 push	 1
  0023f	03 cb		 add	 ecx, ebx
  00241	56		 push	 esi
  00242	51		 push	 ecx
  00243	8b cd		 mov	 ecx, ebp
  00245	e8 00 00 00 00	 call	 ?CopyInstructionData@InstructionCacheEntry@@QAEXIPAV1@I@Z ; InstructionCacheEntry::CopyInstructionData

; 1916 :   destEntry->CopyInstructionData(baseSlot + destSlotALU[minIndex], srcEntry, SLOT_ALU);

  0024a	8b 14 bd 00 00
	00 00		 mov	 edx, DWORD PTR ?destSlotALU@?1??ScheduleInstructionQuartet@MPE@@QAEXPAVInstructionCacheEntry@@I0@Z@4PAIA[edi*4]
  00251	6a 02		 push	 2
  00253	56		 push	 esi
  00254	03 d3		 add	 edx, ebx
  00256	52		 push	 edx
  00257	8b cd		 mov	 ecx, ebp
  00259	e8 00 00 00 00	 call	 ?CopyInstructionData@InstructionCacheEntry@@QAEXIPAV1@I@Z ; InstructionCacheEntry::CopyInstructionData

; 1917 :   destEntry->CopyInstructionData(baseSlot + destSlotMUL[minIndex], srcEntry, SLOT_MUL);

  0025e	8b 04 bd 00 00
	00 00		 mov	 eax, DWORD PTR ?destSlotMUL@?1??ScheduleInstructionQuartet@MPE@@QAEXPAVInstructionCacheEntry@@I0@Z@4PAIA[edi*4]
  00265	6a 03		 push	 3
  00267	56		 push	 esi
  00268	03 c3		 add	 eax, ebx
  0026a	50		 push	 eax
  0026b	8b cd		 mov	 ecx, ebp
  0026d	e8 00 00 00 00	 call	 ?CopyInstructionData@InstructionCacheEntry@@QAEXIPAV1@I@Z ; InstructionCacheEntry::CopyInstructionData

; 1918 :   destEntry->CopyInstructionData(baseSlot + destSlotMEM[minIndex], srcEntry, SLOT_MEM);

  00272	8b 0c bd 00 00
	00 00		 mov	 ecx, DWORD PTR ?destSlotMEM@?1??ScheduleInstructionQuartet@MPE@@QAEXPAVInstructionCacheEntry@@I0@Z@4PAIA[edi*4]
  00279	6a 04		 push	 4
  0027b	03 cb		 add	 ecx, ebx
  0027d	56		 push	 esi
  0027e	51		 push	 ecx
  0027f	8b cd		 mov	 ecx, ebp
  00281	e8 00 00 00 00	 call	 ?CopyInstructionData@InstructionCacheEntry@@QAEXIPAV1@I@Z ; InstructionCacheEntry::CopyInstructionData
  00286	5f		 pop	 edi
  00287	5e		 pop	 esi
  00288	5d		 pop	 ebp
  00289	5b		 pop	 ebx

; 1919 : }

  0028a	83 c4 28	 add	 esp, 40			; 00000028H
  0028d	c2 0c 00	 ret	 12			; 0000000cH
?ScheduleInstructionQuartet@MPE@@QAEXPAVInstructionCacheEntry@@I0@Z ENDP ; MPE::ScheduleInstructionQuartet
_TEXT	ENDS
PUBLIC	?LogMemoryLocation@@YAXPAU_iobuf@@PADIPAVMPE@@@Z ; LogMemoryLocation
EXTRN	_fprintf:PROC
EXTRN	?SwapScalarBytes@@YIXPAI@Z:PROC			; SwapScalarBytes
EXTRN	?GetPointerToMemory@NuonEnvironment@@QAEPAXPAVMPE@@I_N@Z:PROC ; NuonEnvironment::GetPointerToMemory
EXTRN	?nuonEnv@@3PAVNuonEnvironment@@A:DWORD		; nuonEnv
; Function compile flags: /Ogtpy
;	COMDAT ?LogMemoryLocation@@YAXPAU_iobuf@@PADIPAVMPE@@@Z
_TEXT	SEGMENT
_value$ = -4						; size = 4
_outFile$ = 8						; size = 4
_varname$ = 12						; size = 4
_address$ = 16						; size = 4
_mpe$ = 20						; size = 4
?LogMemoryLocation@@YAXPAU_iobuf@@PADIPAVMPE@@@Z PROC	; LogMemoryLocation, COMDAT

; 1922 : {

  00000	51		 push	 ecx

; 1923 :   uint32 value = *((uint32 *)nuonEnv->GetPointerToMemory(mpe,address));

  00001	8b 44 24 10	 mov	 eax, DWORD PTR _address$[esp]
  00005	8b 4c 24 14	 mov	 ecx, DWORD PTR _mpe$[esp]
  00009	6a 01		 push	 1
  0000b	50		 push	 eax
  0000c	51		 push	 ecx
  0000d	8b 0d 00 00 00
	00		 mov	 ecx, DWORD PTR ?nuonEnv@@3PAVNuonEnvironment@@A ; nuonEnv
  00013	e8 00 00 00 00	 call	 ?GetPointerToMemory@NuonEnvironment@@QAEPAXPAVMPE@@I_N@Z ; NuonEnvironment::GetPointerToMemory
  00018	8b 10		 mov	 edx, DWORD PTR [eax]

; 1924 :   SwapScalarBytes(&value);

  0001a	8d 0c 24	 lea	 ecx, DWORD PTR _value$[esp+4]
  0001d	89 14 24	 mov	 DWORD PTR _value$[esp+4], edx
  00020	e8 00 00 00 00	 call	 ?SwapScalarBytes@@YIXPAI@Z ; SwapScalarBytes

; 1925 :   fprintf(outFile,"%s = $%8.8lx\n",varname,value);

  00025	8b 04 24	 mov	 eax, DWORD PTR _value$[esp+4]
  00028	8b 4c 24 0c	 mov	 ecx, DWORD PTR _varname$[esp]
  0002c	8b 54 24 08	 mov	 edx, DWORD PTR _outFile$[esp]
  00030	50		 push	 eax
  00031	51		 push	 ecx
  00032	68 00 00 00 00	 push	 OFFSET $SG53035
  00037	52		 push	 edx
  00038	e8 00 00 00 00	 call	 _fprintf

; 1926 : }

  0003d	83 c4 14	 add	 esp, 20			; 00000014H
  00040	c3		 ret	 0
?LogMemoryLocation@@YAXPAU_iobuf@@PADIPAVMPE@@@Z ENDP	; LogMemoryLocation
_TEXT	ENDS
PUBLIC	?UpdateInvalidateRegion@MPE@@QAEXII@Z		; MPE::UpdateInvalidateRegion
; Function compile flags: /Ogtpy
;	COMDAT ?UpdateInvalidateRegion@MPE@@QAEXII@Z
_TEXT	SEGMENT
_start$ = 8						; size = 4
_length$ = 12						; size = 4
?UpdateInvalidateRegion@MPE@@QAEXII@Z PROC		; MPE::UpdateInvalidateRegion, COMDAT
; _this$ = ecx

; 1930 :   uint32 end = (start + length - 1);

  00000	8b 54 24 04	 mov	 edx, DWORD PTR _start$[esp-4]
  00004	8b 44 24 08	 mov	 eax, DWORD PTR _length$[esp-4]
  00008	56		 push	 esi
  00009	8d 74 02 ff	 lea	 esi, DWORD PTR [edx+eax-1]

; 1931 : 
; 1932 :   invalidateRegionStart = (((start < invalidateRegionStart) || !invalidateRegionStart) ? start : invalidateRegionStart);

  0000d	8b 81 70 02 00
	00		 mov	 eax, DWORD PTR [ecx+624]
  00013	3b d0		 cmp	 edx, eax
  00015	72 04		 jb	 SHORT $LN3@UpdateInva
  00017	85 c0		 test	 eax, eax
  00019	75 02		 jne	 SHORT $LN4@UpdateInva
$LN3@UpdateInva:
  0001b	8b c2		 mov	 eax, edx
$LN4@UpdateInva:
  0001d	89 81 70 02 00
	00		 mov	 DWORD PTR [ecx+624], eax

; 1933 :   invalidateRegionEnd = ((end > invalidateRegionEnd) ? end : invalidateRegionEnd);

  00023	8b 81 74 02 00
	00		 mov	 eax, DWORD PTR [ecx+628]
  00029	3b f0		 cmp	 esi, eax
  0002b	76 02		 jbe	 SHORT $LN5@UpdateInva
  0002d	8b c6		 mov	 eax, esi
$LN5@UpdateInva:
  0002f	89 81 74 02 00
	00		 mov	 DWORD PTR [ecx+628], eax

; 1934 : 
; 1935 :   interpreterInvalidateRegionStart = (((start < interpreterInvalidateRegionStart) || !interpreterInvalidateRegionStart) ? start : interpreterInvalidateRegionStart);

  00035	8b 81 78 02 00
	00		 mov	 eax, DWORD PTR [ecx+632]
  0003b	3b d0		 cmp	 edx, eax
  0003d	72 04		 jb	 SHORT $LN7@UpdateInva
  0003f	85 c0		 test	 eax, eax
  00041	75 02		 jne	 SHORT $LN8@UpdateInva
$LN7@UpdateInva:
  00043	8b c2		 mov	 eax, edx
$LN8@UpdateInva:
  00045	89 81 78 02 00
	00		 mov	 DWORD PTR [ecx+632], eax

; 1936 :   interpreterInvalidateRegionEnd = ((end > interpreterInvalidateRegionEnd) ? end : interpreterInvalidateRegionEnd);

  0004b	8b 81 7c 02 00
	00		 mov	 eax, DWORD PTR [ecx+636]
  00051	3b f0		 cmp	 esi, eax
  00053	76 0a		 jbe	 SHORT $LN9@UpdateInva
  00055	89 b1 7c 02 00
	00		 mov	 DWORD PTR [ecx+636], esi
  0005b	5e		 pop	 esi

; 1937 : }

  0005c	c2 08 00	 ret	 8
$LN9@UpdateInva:

; 1936 :   interpreterInvalidateRegionEnd = ((end > interpreterInvalidateRegionEnd) ? end : interpreterInvalidateRegionEnd);

  0005f	89 81 7c 02 00
	00		 mov	 DWORD PTR [ecx+636], eax
  00065	5e		 pop	 esi

; 1937 : }

  00066	c2 08 00	 ret	 8
?UpdateInvalidateRegion@MPE@@QAEXII@Z ENDP		; MPE::UpdateInvalidateRegion
_TEXT	ENDS
PUBLIC	?InitStaticICacheEntries@MPE@@QAEXXZ		; MPE::InitStaticICacheEntries
; Function compile flags: /Ogtpy
;	COMDAT ?InitStaticICacheEntries@MPE@@QAEXXZ
_TEXT	SEGMENT
?InitStaticICacheEntries@MPE@@QAEXXZ PROC		; MPE::InitStaticICacheEntries, COMDAT
; _this$ = ecx

; 2338 :   ICacheEntry_SaveRegs.pScalarRegs = tempScalarRegs;

  00000	8d 81 c0 00 00
	00		 lea	 eax, DWORD PTR [ecx+192]
  00006	89 81 4c 03 00
	00		 mov	 DWORD PTR [ecx+844], eax

; 2339 :   ICacheEntry_SaveRegs.pIndexRegs = &tempRx;

  0000c	8d 91 4c 01 00
	00		 lea	 edx, DWORD PTR [ecx+332]
  00012	89 91 50 03 00
	00		 mov	 DWORD PTR [ecx+848], edx

; 2340 :   ICacheEntry_SaveRegs.pRzRegs = &tempRz;

  00018	8d 81 5c 01 00
	00		 lea	 eax, DWORD PTR [ecx+348]
  0001e	89 81 58 03 00
	00		 mov	 DWORD PTR [ecx+856], eax

; 2341 :   ICacheEntry_SaveRegs.pCounterRegs = &tempRc0;

  00024	8d 91 44 01 00
	00		 lea	 edx, DWORD PTR [ecx+324]
  0002a	89 91 54 03 00
	00		 mov	 DWORD PTR [ecx+852], edx

; 2342 :   ICacheEntry_SaveRegs.pAcshift = &tempAcshift;

  00030	8d 81 78 01 00
	00		 lea	 eax, DWORD PTR [ecx+376]
  00036	89 81 5c 03 00
	00		 mov	 DWORD PTR [ecx+860], eax

; 2343 :   ICacheEntry_SaveRegs.pSvshift = &tempSvshift;

  0003c	8d 91 7c 01 00
	00		 lea	 edx, DWORD PTR [ecx+380]
  00042	89 91 60 03 00
	00		 mov	 DWORD PTR [ecx+864], edx

; 2344 :   ICacheEntry_SaveRegs.pXyctl = &tempXyctl;

  00048	8d 81 68 01 00
	00		 lea	 eax, DWORD PTR [ecx+360]
  0004e	89 81 64 03 00
	00		 mov	 DWORD PTR [ecx+868], eax

; 2345 :   ICacheEntry_SaveRegs.pUvctl = &tempUvctl;

  00054	8d 91 6c 01 00
	00		 lea	 edx, DWORD PTR [ecx+364]
  0005a	89 91 68 03 00
	00		 mov	 DWORD PTR [ecx+872], edx

; 2346 :   ICacheEntry_SaveRegs.pXyrange = &tempXyrange;

  00060	8d 81 70 01 00
	00		 lea	 eax, DWORD PTR [ecx+368]
  00066	89 81 6c 03 00
	00		 mov	 DWORD PTR [ecx+876], eax

; 2347 :   ICacheEntry_SaveRegs.pUvrange = &tempUvrange;

  0006c	8d 91 74 01 00
	00		 lea	 edx, DWORD PTR [ecx+372]
  00072	89 91 70 03 00
	00		 mov	 DWORD PTR [ecx+880], edx

; 2348 :   
; 2349 :   ICacheEntry_SaveFlags.pScalarRegs = regs;
; 2350 :   ICacheEntry_SaveFlags.pIndexRegs = &rx;

  00078	8d 81 8c 00 00
	00		 lea	 eax, DWORD PTR [ecx+140]
  0007e	89 81 5c 04 00
	00		 mov	 DWORD PTR [ecx+1116], eax

; 2351 :   ICacheEntry_SaveFlags.pRzRegs = &rz;

  00084	8d 91 9c 00 00
	00		 lea	 edx, DWORD PTR [ecx+156]

; 2352 :   ICacheEntry_SaveFlags.pCounterRegs = &rc0;

  0008a	8d 81 84 00 00
	00		 lea	 eax, DWORD PTR [ecx+132]
  00090	89 91 64 04 00
	00		 mov	 DWORD PTR [ecx+1124], edx
  00096	89 81 60 04 00
	00		 mov	 DWORD PTR [ecx+1120], eax

; 2353 :   ICacheEntry_SaveFlags.pAcshift = &acshift;

  0009c	8d 91 b8 00 00
	00		 lea	 edx, DWORD PTR [ecx+184]

; 2354 :   ICacheEntry_SaveFlags.pSvshift = &svshift;

  000a2	8d 81 bc 00 00
	00		 lea	 eax, DWORD PTR [ecx+188]
  000a8	89 91 68 04 00
	00		 mov	 DWORD PTR [ecx+1128], edx
  000ae	89 81 6c 04 00
	00		 mov	 DWORD PTR [ecx+1132], eax

; 2355 :   ICacheEntry_SaveFlags.pXyctl = &xyctl;

  000b4	8d 91 a8 00 00
	00		 lea	 edx, DWORD PTR [ecx+168]

; 2356 :   ICacheEntry_SaveFlags.pUvctl = &uvctl;

  000ba	8d 81 ac 00 00
	00		 lea	 eax, DWORD PTR [ecx+172]
  000c0	89 91 70 04 00
	00		 mov	 DWORD PTR [ecx+1136], edx
  000c6	89 81 74 04 00
	00		 mov	 DWORD PTR [ecx+1140], eax

; 2357 :   ICacheEntry_SaveFlags.pXyrange = &xyrange;

  000cc	8d 91 b0 00 00
	00		 lea	 edx, DWORD PTR [ecx+176]

; 2358 :   ICacheEntry_SaveFlags.pUvrange = &uvrange;

  000d2	8d 81 b4 00 00
	00		 lea	 eax, DWORD PTR [ecx+180]
  000d8	89 89 58 04 00
	00		 mov	 DWORD PTR [ecx+1112], ecx
  000de	89 91 78 04 00
	00		 mov	 DWORD PTR [ecx+1144], edx
  000e4	89 81 7c 04 00
	00		 mov	 DWORD PTR [ecx+1148], eax

; 2359 : }

  000ea	c3		 ret	 0
?InitStaticICacheEntries@MPE@@QAEXXZ ENDP		; MPE::InitStaticICacheEntries
_TEXT	ENDS
PUBLIC	?SaveRegisters@MPE@@QAEXXZ			; MPE::SaveRegisters
; Function compile flags: /Ogtpy
;	COMDAT ?SaveRegisters@MPE@@QAEXXZ
_TEXT	SEGMENT
?SaveRegisters@MPE@@QAEXXZ PROC				; MPE::SaveRegisters, COMDAT
; _this$ = ecx

; 2362 : {

  00000	56		 push	 esi
  00001	8b c1		 mov	 eax, ecx
  00003	57		 push	 edi

; 2363 :   memcpy(tempScalarRegs, regs, sizeof(uint32) * 32);

  00004	8d b8 c0 00 00
	00		 lea	 edi, DWORD PTR [eax+192]
  0000a	b9 20 00 00 00	 mov	 ecx, 32			; 00000020H
  0000f	8b f0		 mov	 esi, eax
  00011	f3 a5		 rep movsd

; 2364 :   memcpy(&tempRc0, &rc0, sizeof(uint32) * 15);

  00013	8d b0 84 00 00
	00		 lea	 esi, DWORD PTR [eax+132]
  00019	8d b8 44 01 00
	00		 lea	 edi, DWORD PTR [eax+324]
  0001f	b9 0f 00 00 00	 mov	 ecx, 15			; 0000000fH
  00024	f3 a5		 rep movsd
  00026	5f		 pop	 edi
  00027	5e		 pop	 esi

; 2365 : }

  00028	c3		 ret	 0
?SaveRegisters@MPE@@QAEXXZ ENDP				; MPE::SaveRegisters
_TEXT	ENDS
PUBLIC	?ExecuteNuances@MPE@@QAEXAAVInstructionCacheEntry@@@Z ; MPE::ExecuteNuances
; Function compile flags: /Ogtpy
;	COMDAT ?ExecuteNuances@MPE@@QAEXAAVInstructionCacheEntry@@@Z
_TEXT	SEGMENT
_entry$ = 8						; size = 4
?ExecuteNuances@MPE@@QAEXAAVInstructionCacheEntry@@@Z PROC ; MPE::ExecuteNuances, COMDAT
; _this$ = ecx

; 2368 : {

  00000	53		 push	 ebx

; 2369 :   uint32 i;
; 2370 : 
; 2371 :   if(entry.packetInfo & PACKETINFO_BREAKPOINT)

  00001	8b 5c 24 08	 mov	 ebx, DWORD PTR _entry$[esp]
  00005	f6 43 18 02	 test	 BYTE PTR [ebx+24], 2
  00009	55		 push	 ebp
  0000a	8b e9		 mov	 ebp, ecx
  0000c	74 23		 je	 SHORT $LN13@ExecuteNua

; 2372 :   {
; 2373 :     excepsrc |= 0x04;

  0000e	b8 04 00 00 00	 mov	 eax, 4
  00013	09 85 84 01 00
	00		 or	 DWORD PTR [ebp+388], eax

; 2374 :     if(excephalten & 0x04)

  00019	84 85 8c 01 00
	00		 test	 BYTE PTR [ebp+396], al
  0001f	74 09		 je	 SHORT $LN7@ExecuteNua

; 2375 :     {
; 2376 :       //clear mpego bit
; 2377 :       mpectl &= ~MPECTRL_MPEGO;

  00021	83 a5 80 01 00
	00 fd		 and	 DWORD PTR [ebp+384], -3	; fffffffdH

; 2378 :     }
; 2379 :     else

  00028	eb 07		 jmp	 SHORT $LN13@ExecuteNua
$LN7@ExecuteNua:

; 2380 :     {
; 2381 :       //set exception bit in interrupt source register
; 2382 :       intsrc |= 0x01;

  0002a	83 8d a4 01 00
	00 01		 or	 DWORD PTR [ebp+420], 1
$LN13@ExecuteNua:

; 2383 :     }
; 2384 :   }
; 2385 : 
; 2386 :   if(!(entry.packetInfo & PACKETINFO_NOP))

  00031	8b 43 18	 mov	 eax, DWORD PTR [ebx+24]
  00034	a8 01		 test	 al, 1
  00036	75 67		 jne	 SHORT $LN1@ExecuteNua

; 2387 :   {
; 2388 :     if(entry.packetInfo & PACKETINFO_DEPENDENCY_PRESENT)

  00038	84 c0		 test	 al, al
  0003a	56		 push	 esi
  0003b	57		 push	 edi
  0003c	79 22		 jns	 SHORT $LN4@ExecuteNua

; 2389 :     {
; 2390 :       memcpy(tempScalarRegs, regs, sizeof(uint32) * 32);

  0003e	8d bd c0 00 00
	00		 lea	 edi, DWORD PTR [ebp+192]
  00044	b9 20 00 00 00	 mov	 ecx, 32			; 00000020H
  00049	8b f5		 mov	 esi, ebp
  0004b	f3 a5		 rep movsd

; 2391 :       memcpy(&tempRc0, &rc0, sizeof(uint32) * 15);

  0004d	8d b5 84 00 00
	00		 lea	 esi, DWORD PTR [ebp+132]
  00053	8d bd 44 01 00
	00		 lea	 edi, DWORD PTR [ebp+324]
  00059	b9 0f 00 00 00	 mov	 ecx, 15			; 0000000fH
  0005e	f3 a5		 rep movsd
$LN4@ExecuteNua:

; 2392 :     }
; 2393 : 
; 2394 :     tempCC = cc;

  00060	8b 85 80 00 00
	00		 mov	 eax, DWORD PTR [ebp+128]

; 2395 : 
; 2396 :     for(i = 0; i < entry.nuanceCount; i++)

  00066	33 f6		 xor	 esi, esi
  00068	89 85 40 01 00
	00		 mov	 DWORD PTR [ebp+320], eax
  0006e	39 73 14	 cmp	 DWORD PTR [ebx+20], esi
  00071	76 2a		 jbe	 SHORT $LN14@ExecuteNua

; 2392 :     }
; 2393 : 
; 2394 :     tempCC = cc;

  00073	8d 7b 58	 lea	 edi, DWORD PTR [ebx+88]
  00076	eb 08 8d a4 24
	00 00 00 00 90	 npad	 10
$LL3@ExecuteNua:

; 2397 :     {
; 2398 :       (nuanceHandlers[entry.handlers[i]])(*this,entry,*((Nuance *)(&entry.nuances[FIXED_FIELD(i,0)])));

  00080	8b 0c b3	 mov	 ecx, DWORD PTR [ebx+esi*4]
  00083	8b 14 8d 00 00
	00 00		 mov	 edx, DWORD PTR ?nuanceHandlers@@3PAP6AXAAVMPE@@AAVInstructionCacheEntry@@AAVNuance@@@ZA[ecx*4]
  0008a	57		 push	 edi
  0008b	53		 push	 ebx
  0008c	55		 push	 ebp
  0008d	ff d2		 call	 edx
  0008f	83 c6 01	 add	 esi, 1
  00092	83 c4 0c	 add	 esp, 12			; 0000000cH
  00095	83 c7 14	 add	 edi, 20			; 00000014H
  00098	3b 73 14	 cmp	 esi, DWORD PTR [ebx+20]
  0009b	72 e3		 jb	 SHORT $LL3@ExecuteNua
$LN14@ExecuteNua:
  0009d	5f		 pop	 edi
  0009e	5e		 pop	 esi
$LN1@ExecuteNua:
  0009f	5d		 pop	 ebp
  000a0	5b		 pop	 ebx

; 2399 :     }
; 2400 :   }
; 2401 : }

  000a1	c2 04 00	 ret	 4
?ExecuteNuances@MPE@@QAEXAAVInstructionCacheEntry@@@Z ENDP ; MPE::ExecuteNuances
_TEXT	ENDS
PUBLIC	?DecodeSingleInstruction@MPE@@QAEEPAEPAVInstructionCacheEntry@@PAIAA_N@Z ; MPE::DecodeSingleInstruction
EXTRN	?DecodeInstruction_RCU16@MPE@@QAEXPAEPAVInstructionCacheEntry@@PAI@Z:PROC ; MPE::DecodeInstruction_RCU16
EXTRN	?DecodeInstruction_ECU16@MPE@@QAEXPAEPAVInstructionCacheEntry@@PAI@Z:PROC ; MPE::DecodeInstruction_ECU16
EXTRN	?DecodeInstruction_MUL16@MPE@@QAEXPAEPAVInstructionCacheEntry@@PAI@Z:PROC ; MPE::DecodeInstruction_MUL16
EXTRN	?DecodeInstruction_MEM16@MPE@@QAEXPAEPAVInstructionCacheEntry@@PAI@Z:PROC ; MPE::DecodeInstruction_MEM16
EXTRN	?DecodeInstruction_MUL32@MPE@@QAEXPAEPAVInstructionCacheEntry@@PAI@Z:PROC ; MPE::DecodeInstruction_MUL32
EXTRN	?DecodeInstruction_ALU32@MPE@@QAEXPAEPAVInstructionCacheEntry@@PAI@Z:PROC ; MPE::DecodeInstruction_ALU32
EXTRN	?DecodeInstruction_MEM32@MPE@@QAEXPAEPAVInstructionCacheEntry@@PAI@Z:PROC ; MPE::DecodeInstruction_MEM32
EXTRN	?DecodeInstruction_ECU32@MPE@@QAEXPAEPAVInstructionCacheEntry@@PAI@Z:PROC ; MPE::DecodeInstruction_ECU32
EXTRN	?DecodeInstruction_ALU16@MPE@@QAEXPAEPAVInstructionCacheEntry@@PAI@Z:PROC ; MPE::DecodeInstruction_ALU16
; Function compile flags: /Ogtpy
;	COMDAT ?DecodeSingleInstruction@MPE@@QAEEPAEPAVInstructionCacheEntry@@PAIAA_N@Z
_TEXT	SEGMENT
_iPtr$ = 8						; size = 4
_entry$ = 12						; size = 4
_immExt$ = 16						; size = 4
_bTerminating$ = 20					; size = 4
?DecodeSingleInstruction@MPE@@QAEEPAEPAVInstructionCacheEntry@@PAIAA_N@Z PROC ; MPE::DecodeSingleInstruction, COMDAT
; _this$ = ecx

; 2404 : {

  00000	53		 push	 ebx
  00001	56		 push	 esi

; 2405 :   //if 16 bit ALU instruction
; 2406 :   uint8 opcode = *iPtr;

  00002	8b 74 24 0c	 mov	 esi, DWORD PTR _iPtr$[esp+4]
  00006	8a 1e		 mov	 bl, BYTE PTR [esi]

; 2407 :   if(opcode <= 0x3F)

  00008	80 fb 3f	 cmp	 bl, 63			; 0000003fH
  0000b	57		 push	 edi
  0000c	77 25		 ja	 SHORT $LN21@DecodeSing

; 2408 :   {
; 2409 :     DecodeInstruction_ALU16(iPtr,entry,immExt);

  0000e	8b 7c 24 18	 mov	 edi, DWORD PTR _immExt$[esp+8]
  00012	8b 44 24 14	 mov	 eax, DWORD PTR _entry$[esp+8]
  00016	57		 push	 edi
  00017	50		 push	 eax
  00018	56		 push	 esi
  00019	e8 00 00 00 00	 call	 ?DecodeInstruction_ALU16@MPE@@QAEXPAEPAVInstructionCacheEntry@@PAI@Z ; MPE::DecodeInstruction_ALU16

; 2410 :     bTerminating = true;

  0001e	8b 4c 24 1c	 mov	 ecx, DWORD PTR _bTerminating$[esp+8]
  00022	c6 01 01	 mov	 BYTE PTR [ecx], 1

; 2458 :       }
; 2459 : 
; 2460 :       *immExt = 0;

  00025	c7 07 00 00 00
	00		 mov	 DWORD PTR [edi], 0
  0002b	5f		 pop	 edi
  0002c	5e		 pop	 esi

; 2461 :       return 2;

  0002d	b0 02		 mov	 al, 2
  0002f	5b		 pop	 ebx

; 2493 :     }
; 2494 :   }
; 2495 :   return 0;
; 2496 : }

  00030	c2 10 00	 ret	 16			; 00000010H
$LN21@DecodeSing:

; 2411 :     *immExt = 0;
; 2412 :     return 2;
; 2413 :   }
; 2414 :   else
; 2415 :   {
; 2416 :     //Instruction is not a 16 bit ALU instruction
; 2417 : 
; 2418 :     //If 16 bit non-terminating non-ALU instruction, control instruction
; 2419 :     //or 32 bit immediate extension
; 2420 :     if(opcode < 0x88 || opcode > 0x9F)

  00033	8a d3		 mov	 dl, bl
  00035	80 c2 78	 add	 dl, 120			; 00000078H
  00038	80 fa 17	 cmp	 dl, 23			; 00000017H
  0003b	0f 87 df 00 00
	00		 ja	 $LN18@DecodeSing

; 2462 :     }
; 2463 :     else if(opcode >= 0x90)

  00041	80 fb 90	 cmp	 bl, 144			; 00000090H
  00044	0f 82 ba 00 00
	00		 jb	 $LN8@DecodeSing

; 2464 :     {
; 2465 :       switch((opcode & 0x0C) >> 2)

  0004a	8b 7c 24 18	 mov	 edi, DWORD PTR _immExt$[esp+8]
  0004e	c1 eb 02	 shr	 ebx, 2
  00051	83 e3 03	 and	 ebx, 3
  00054	83 fb 03	 cmp	 ebx, 3
  00057	0f 87 8b 00 00
	00		 ja	 $LN6@DecodeSing
  0005d	ff 24 9d 00 00
	00 00		 jmp	 DWORD PTR $LN25@DecodeSing[ebx*4]
$LN5@DecodeSing:

; 2466 :       {
; 2467 :         case 0:
; 2468 :           DecodeInstruction_ECU32(iPtr,entry,immExt);

  00064	8b 44 24 14	 mov	 eax, DWORD PTR _entry$[esp+8]
  00068	57		 push	 edi
  00069	50		 push	 eax
  0006a	56		 push	 esi
  0006b	e8 00 00 00 00	 call	 ?DecodeInstruction_ECU32@MPE@@QAEXPAEPAVInstructionCacheEntry@@PAI@Z ; MPE::DecodeInstruction_ECU32

; 2478 :           break;
; 2479 :       }
; 2480 : 
; 2481 :       //32 bit instruction: if bit 12 is set, instruction is a packet terminator
; 2482 :       bTerminating = *(iPtr + 2) & 0x10;

  00070	8a 46 02	 mov	 al, BYTE PTR [esi+2]
  00073	8b 4c 24 1c	 mov	 ecx, DWORD PTR _bTerminating$[esp+8]
  00077	c0 e8 04	 shr	 al, 4
  0007a	24 01		 and	 al, 1
  0007c	88 01		 mov	 BYTE PTR [ecx], al
  0007e	c7 07 00 00 00
	00		 mov	 DWORD PTR [edi], 0
  00084	5f		 pop	 edi
  00085	5e		 pop	 esi

; 2483 :       *immExt = 0;
; 2484 :       return 4;

  00086	b0 04		 mov	 al, 4
  00088	5b		 pop	 ebx

; 2493 :     }
; 2494 :   }
; 2495 :   return 0;
; 2496 : }

  00089	c2 10 00	 ret	 16			; 00000010H
$LN4@DecodeSing:

; 2469 :           break;
; 2470 :         case 1:
; 2471 :           DecodeInstruction_MEM32(iPtr,entry,immExt);

  0008c	8b 54 24 14	 mov	 edx, DWORD PTR _entry$[esp+8]
  00090	57		 push	 edi
  00091	52		 push	 edx
  00092	56		 push	 esi
  00093	e8 00 00 00 00	 call	 ?DecodeInstruction_MEM32@MPE@@QAEXPAEPAVInstructionCacheEntry@@PAI@Z ; MPE::DecodeInstruction_MEM32

; 2478 :           break;
; 2479 :       }
; 2480 : 
; 2481 :       //32 bit instruction: if bit 12 is set, instruction is a packet terminator
; 2482 :       bTerminating = *(iPtr + 2) & 0x10;

  00098	8a 46 02	 mov	 al, BYTE PTR [esi+2]
  0009b	8b 4c 24 1c	 mov	 ecx, DWORD PTR _bTerminating$[esp+8]
  0009f	c0 e8 04	 shr	 al, 4
  000a2	24 01		 and	 al, 1
  000a4	88 01		 mov	 BYTE PTR [ecx], al
  000a6	c7 07 00 00 00
	00		 mov	 DWORD PTR [edi], 0
  000ac	5f		 pop	 edi
  000ad	5e		 pop	 esi

; 2483 :       *immExt = 0;
; 2484 :       return 4;

  000ae	b0 04		 mov	 al, 4
  000b0	5b		 pop	 ebx

; 2493 :     }
; 2494 :   }
; 2495 :   return 0;
; 2496 : }

  000b1	c2 10 00	 ret	 16			; 00000010H
$LN3@DecodeSing:

; 2472 :           break;
; 2473 :         case 2:
; 2474 :           DecodeInstruction_ALU32(iPtr,entry,immExt);

  000b4	8b 44 24 14	 mov	 eax, DWORD PTR _entry$[esp+8]
  000b8	57		 push	 edi
  000b9	50		 push	 eax
  000ba	56		 push	 esi
  000bb	e8 00 00 00 00	 call	 ?DecodeInstruction_ALU32@MPE@@QAEXPAEPAVInstructionCacheEntry@@PAI@Z ; MPE::DecodeInstruction_ALU32

; 2478 :           break;
; 2479 :       }
; 2480 : 
; 2481 :       //32 bit instruction: if bit 12 is set, instruction is a packet terminator
; 2482 :       bTerminating = *(iPtr + 2) & 0x10;

  000c0	8a 46 02	 mov	 al, BYTE PTR [esi+2]
  000c3	8b 4c 24 1c	 mov	 ecx, DWORD PTR _bTerminating$[esp+8]
  000c7	c0 e8 04	 shr	 al, 4
  000ca	24 01		 and	 al, 1
  000cc	88 01		 mov	 BYTE PTR [ecx], al
  000ce	c7 07 00 00 00
	00		 mov	 DWORD PTR [edi], 0
  000d4	5f		 pop	 edi
  000d5	5e		 pop	 esi

; 2483 :       *immExt = 0;
; 2484 :       return 4;

  000d6	b0 04		 mov	 al, 4
  000d8	5b		 pop	 ebx

; 2493 :     }
; 2494 :   }
; 2495 :   return 0;
; 2496 : }

  000d9	c2 10 00	 ret	 16			; 00000010H
$LN2@DecodeSing:

; 2475 :           break;
; 2476 :         case 3:
; 2477 :           DecodeInstruction_MUL32(iPtr,entry,immExt);

  000dc	8b 54 24 14	 mov	 edx, DWORD PTR _entry$[esp+8]
  000e0	57		 push	 edi
  000e1	52		 push	 edx
  000e2	56		 push	 esi
  000e3	e8 00 00 00 00	 call	 ?DecodeInstruction_MUL32@MPE@@QAEXPAEPAVInstructionCacheEntry@@PAI@Z ; MPE::DecodeInstruction_MUL32
$LN6@DecodeSing:

; 2478 :           break;
; 2479 :       }
; 2480 : 
; 2481 :       //32 bit instruction: if bit 12 is set, instruction is a packet terminator
; 2482 :       bTerminating = *(iPtr + 2) & 0x10;

  000e8	8a 46 02	 mov	 al, BYTE PTR [esi+2]
  000eb	8b 4c 24 1c	 mov	 ecx, DWORD PTR _bTerminating$[esp+8]
  000ef	c0 e8 04	 shr	 al, 4
  000f2	24 01		 and	 al, 1
  000f4	88 01		 mov	 BYTE PTR [ecx], al
  000f6	c7 07 00 00 00
	00		 mov	 DWORD PTR [edi], 0
  000fc	5f		 pop	 edi
  000fd	5e		 pop	 esi

; 2483 :       *immExt = 0;
; 2484 :       return 4;

  000fe	b0 04		 mov	 al, 4
  00100	5b		 pop	 ebx

; 2493 :     }
; 2494 :   }
; 2495 :   return 0;
; 2496 : }

  00101	c2 10 00	 ret	 16			; 00000010H
$LN8@DecodeSing:

; 2485 :     }
; 2486 :     else
; 2487 :     {
; 2488 :       //32 bit extension (preceeding 48/64 bit instruction)
; 2489 :       *immExt = *((uint32 *)iPtr);

  00104	8b 16		 mov	 edx, DWORD PTR [esi]
  00106	8b 4c 24 18	 mov	 ecx, DWORD PTR _immExt$[esp+8]
  0010a	89 11		 mov	 DWORD PTR [ecx], edx

; 2490 :       SwapScalarBytes(immExt);

  0010c	e8 00 00 00 00	 call	 ?SwapScalarBytes@@YIXPAI@Z ; SwapScalarBytes

; 2491 :       bTerminating = false;

  00111	8b 44 24 1c	 mov	 eax, DWORD PTR _bTerminating$[esp+8]
  00115	5f		 pop	 edi
  00116	5e		 pop	 esi
  00117	c6 00 00	 mov	 BYTE PTR [eax], 0

; 2492 :       return 4;

  0011a	b0 04		 mov	 al, 4
  0011c	5b		 pop	 ebx

; 2493 :     }
; 2494 :   }
; 2495 :   return 0;
; 2496 : }

  0011d	c2 10 00	 ret	 16			; 00000010H
$LN18@DecodeSing:

; 2421 :     {
; 2422 :       //If not a control instruction (PAD, NOP or BREAKPOINT)
; 2423 :       if((opcode & 0xFC) != 0x80)

  00120	8b 7c 24 18	 mov	 edi, DWORD PTR _immExt$[esp+8]
  00124	8a d3		 mov	 dl, bl
  00126	80 e2 fc	 and	 dl, 252			; 000000fcH
  00129	80 fa 80	 cmp	 dl, 128			; 00000080H
  0012c	0f 84 99 00 00
	00		 je	 $LN17@DecodeSing

; 2424 :       {
; 2425 :         if((opcode & 0x7F) <= 0x67)

  00132	8a c3		 mov	 al, bl
  00134	24 7f		 and	 al, 127			; 0000007fH
  00136	3c 67		 cmp	 al, 103			; 00000067H

; 2428 :           {
; 2429 :             DecodeInstruction_MEM16(iPtr,entry,immExt);

  00138	57		 push	 edi
  00139	77 48		 ja	 SHORT $LN16@DecodeSing

; 2426 :         {
; 2427 :           if((opcode & 0x7F) >= 0x48)

  0013b	3c 48		 cmp	 al, 72			; 00000048H
  0013d	72 22		 jb	 SHORT $LN15@DecodeSing

; 2428 :           {
; 2429 :             DecodeInstruction_MEM16(iPtr,entry,immExt);

  0013f	8b 44 24 18	 mov	 eax, DWORD PTR _entry$[esp+12]
  00143	50		 push	 eax
  00144	56		 push	 esi
  00145	e8 00 00 00 00	 call	 ?DecodeInstruction_MEM16@MPE@@QAEXPAEPAVInstructionCacheEntry@@PAI@Z ; MPE::DecodeInstruction_MEM16

; 2445 :           }
; 2446 :         }
; 2447 : 
; 2448 :         //if bit 15 is set, the instruction is a packet terminator
; 2449 :         bTerminating = (opcode & 0x80);

  0014a	8b 44 24 1c	 mov	 eax, DWORD PTR _bTerminating$[esp+8]
  0014e	c0 eb 07	 shr	 bl, 7
  00151	88 18		 mov	 BYTE PTR [eax], bl

; 2458 :       }
; 2459 : 
; 2460 :       *immExt = 0;

  00153	c7 07 00 00 00
	00		 mov	 DWORD PTR [edi], 0
  00159	5f		 pop	 edi
  0015a	5e		 pop	 esi

; 2461 :       return 2;

  0015b	b0 02		 mov	 al, 2
  0015d	5b		 pop	 ebx

; 2493 :     }
; 2494 :   }
; 2495 :   return 0;
; 2496 : }

  0015e	c2 10 00	 ret	 16			; 00000010H
$LN15@DecodeSing:

; 2430 :           }
; 2431 :           else
; 2432 :           {
; 2433 :             DecodeInstruction_MUL16(iPtr,entry,immExt);

  00161	8b 54 24 18	 mov	 edx, DWORD PTR _entry$[esp+12]
  00165	52		 push	 edx
  00166	56		 push	 esi
  00167	e8 00 00 00 00	 call	 ?DecodeInstruction_MUL16@MPE@@QAEXPAEPAVInstructionCacheEntry@@PAI@Z ; MPE::DecodeInstruction_MUL16

; 2445 :           }
; 2446 :         }
; 2447 : 
; 2448 :         //if bit 15 is set, the instruction is a packet terminator
; 2449 :         bTerminating = (opcode & 0x80);

  0016c	8b 44 24 1c	 mov	 eax, DWORD PTR _bTerminating$[esp+8]
  00170	c0 eb 07	 shr	 bl, 7
  00173	88 18		 mov	 BYTE PTR [eax], bl

; 2458 :       }
; 2459 : 
; 2460 :       *immExt = 0;

  00175	c7 07 00 00 00
	00		 mov	 DWORD PTR [edi], 0
  0017b	5f		 pop	 edi
  0017c	5e		 pop	 esi

; 2461 :       return 2;

  0017d	b0 02		 mov	 al, 2
  0017f	5b		 pop	 ebx

; 2493 :     }
; 2494 :   }
; 2495 :   return 0;
; 2496 : }

  00180	c2 10 00	 ret	 16			; 00000010H
$LN16@DecodeSing:

; 2434 :           }
; 2435 :         }
; 2436 :         else
; 2437 :         {
; 2438 :           if((opcode & 0x7F) <= 0x73)

  00183	3c 73		 cmp	 al, 115			; 00000073H
  00185	77 22		 ja	 SHORT $LN12@DecodeSing

; 2439 :           {
; 2440 :             DecodeInstruction_ECU16(iPtr,entry,immExt);

  00187	8b 44 24 18	 mov	 eax, DWORD PTR _entry$[esp+12]
  0018b	50		 push	 eax
  0018c	56		 push	 esi
  0018d	e8 00 00 00 00	 call	 ?DecodeInstruction_ECU16@MPE@@QAEXPAEPAVInstructionCacheEntry@@PAI@Z ; MPE::DecodeInstruction_ECU16

; 2445 :           }
; 2446 :         }
; 2447 : 
; 2448 :         //if bit 15 is set, the instruction is a packet terminator
; 2449 :         bTerminating = (opcode & 0x80);

  00192	8b 44 24 1c	 mov	 eax, DWORD PTR _bTerminating$[esp+8]
  00196	c0 eb 07	 shr	 bl, 7
  00199	88 18		 mov	 BYTE PTR [eax], bl

; 2458 :       }
; 2459 : 
; 2460 :       *immExt = 0;

  0019b	c7 07 00 00 00
	00		 mov	 DWORD PTR [edi], 0
  001a1	5f		 pop	 edi
  001a2	5e		 pop	 esi

; 2461 :       return 2;

  001a3	b0 02		 mov	 al, 2
  001a5	5b		 pop	 ebx

; 2493 :     }
; 2494 :   }
; 2495 :   return 0;
; 2496 : }

  001a6	c2 10 00	 ret	 16			; 00000010H
$LN12@DecodeSing:

; 2441 :           }
; 2442 :           else
; 2443 :           {
; 2444 :             DecodeInstruction_RCU16(iPtr,entry,immExt);

  001a9	8b 54 24 18	 mov	 edx, DWORD PTR _entry$[esp+12]
  001ad	52		 push	 edx
  001ae	56		 push	 esi
  001af	e8 00 00 00 00	 call	 ?DecodeInstruction_RCU16@MPE@@QAEXPAEPAVInstructionCacheEntry@@PAI@Z ; MPE::DecodeInstruction_RCU16

; 2445 :           }
; 2446 :         }
; 2447 : 
; 2448 :         //if bit 15 is set, the instruction is a packet terminator
; 2449 :         bTerminating = (opcode & 0x80);

  001b4	8b 44 24 1c	 mov	 eax, DWORD PTR _bTerminating$[esp+8]
  001b8	c0 eb 07	 shr	 bl, 7
  001bb	88 18		 mov	 BYTE PTR [eax], bl

; 2458 :       }
; 2459 : 
; 2460 :       *immExt = 0;

  001bd	c7 07 00 00 00
	00		 mov	 DWORD PTR [edi], 0
  001c3	5f		 pop	 edi
  001c4	5e		 pop	 esi

; 2461 :       return 2;

  001c5	b0 02		 mov	 al, 2
  001c7	5b		 pop	 ebx

; 2493 :     }
; 2494 :   }
; 2495 :   return 0;
; 2496 : }

  001c8	c2 10 00	 ret	 16			; 00000010H
$LN17@DecodeSing:

; 2450 :       }
; 2451 :       else
; 2452 :       {
; 2453 :         //PAD, NOP, or BREAKPOINT.
; 2454 :         entry->packetInfo |= (opcode & 0x03);

  001cb	8b 44 24 14	 mov	 eax, DWORD PTR _entry$[esp+8]

; 2455 : 
; 2456 :         //if bit 8 is set, the instruction is a terminating breakpoint or NOP
; 2457 :         bTerminating = (opcode & 0x01);

  001cf	8b 54 24 1c	 mov	 edx, DWORD PTR _bTerminating$[esp+8]
  001d3	0f b6 cb	 movzx	 ecx, bl
  001d6	83 e1 03	 and	 ecx, 3
  001d9	09 48 18	 or	 DWORD PTR [eax+24], ecx
  001dc	80 e3 01	 and	 bl, 1
  001df	88 1a		 mov	 BYTE PTR [edx], bl

; 2458 :       }
; 2459 : 
; 2460 :       *immExt = 0;

  001e1	c7 07 00 00 00
	00		 mov	 DWORD PTR [edi], 0
  001e7	5f		 pop	 edi
  001e8	5e		 pop	 esi

; 2461 :       return 2;

  001e9	b0 02		 mov	 al, 2
  001eb	5b		 pop	 ebx

; 2493 :     }
; 2494 :   }
; 2495 :   return 0;
; 2496 : }

  001ec	c2 10 00	 ret	 16			; 00000010H
  001ef	90		 npad	 1
$LN25@DecodeSing:
  001f0	00 00 00 00	 DD	 $LN5@DecodeSing
  001f4	00 00 00 00	 DD	 $LN4@DecodeSing
  001f8	00 00 00 00	 DD	 $LN3@DecodeSing
  001fc	00 00 00 00	 DD	 $LN2@DecodeSing
?DecodeSingleInstruction@MPE@@QAEEPAEPAVInstructionCacheEntry@@PAIAA_N@Z ENDP ; MPE::DecodeSingleInstruction
_TEXT	ENDS
PUBLIC	?CompileNativeCodeBlock@MPE@@QAEP6AXXZIW4SuperBlockCompileType@@AA_N_N@Z ; MPE::CompileNativeCodeBlock
EXTRN	?CompileBlock@SuperBlock@@QAEP6AXXZPAVMPE@@IAAVNativeCodeCache@@W4SuperBlockCompileType@@_NAA_N@Z:PROC ; SuperBlock::CompileBlock
; Function compile flags: /Ogtpy
;	COMDAT ?CompileNativeCodeBlock@MPE@@QAEP6AXXZIW4SuperBlockCompileType@@AA_N_N@Z
_TEXT	SEGMENT
_pcexec$ = 8						; size = 4
_compileType$ = 12					; size = 4
_bError$ = 16						; size = 4
_bSinglePacket$ = 20					; size = 1
?CompileNativeCodeBlock@MPE@@QAEP6AXXZIW4SuperBlockCompileType@@AA_N_N@Z PROC ; MPE::CompileNativeCodeBlock, COMDAT
; _this$ = ecx

; 2500 :   return superBlock->CompileBlock(this, pcexec, *nativeCodeCache, compileType, bSinglePacket, bError);

  00000	8b 44 24 0c	 mov	 eax, DWORD PTR _bError$[esp-4]
  00004	8b 54 24 10	 mov	 edx, DWORD PTR _bSinglePacket$[esp-4]
  00008	50		 push	 eax
  00009	8b 44 24 0c	 mov	 eax, DWORD PTR _compileType$[esp]
  0000d	52		 push	 edx
  0000e	8b 91 a8 02 00
	00		 mov	 edx, DWORD PTR [ecx+680]
  00014	50		 push	 eax
  00015	8b 44 24 10	 mov	 eax, DWORD PTR _pcexec$[esp+8]
  00019	52		 push	 edx
  0001a	50		 push	 eax
  0001b	51		 push	 ecx
  0001c	8b 89 a4 02 00
	00		 mov	 ecx, DWORD PTR [ecx+676]
  00022	e8 00 00 00 00	 call	 ?CompileBlock@SuperBlock@@QAEP6AXXZPAVMPE@@IAAVNativeCodeCache@@W4SuperBlockCompileType@@_NAA_N@Z ; SuperBlock::CompileBlock

; 2501 : }

  00027	c2 10 00	 ret	 16			; 00000010H
?CompileNativeCodeBlock@MPE@@QAEP6AXXZIW4SuperBlockCompileType@@AA_N_N@Z ENDP ; MPE::CompileNativeCodeBlock
_TEXT	ENDS
PUBLIC	?PrintInstructionCachePacket@MPE@@QAEXPADAAVInstructionCacheEntry@@@Z ; MPE::PrintInstructionCachePacket
EXTRN	_sprintf:PROC
; Function compile flags: /Ogtpy
;	COMDAT ?PrintInstructionCachePacket@MPE@@QAEXPADAAVInstructionCacheEntry@@@Z
_TEXT	SEGMENT
_buffer$ = 8						; size = 4
_entry$ = 12						; size = 4
?PrintInstructionCachePacket@MPE@@QAEXPADAAVInstructionCacheEntry@@@Z PROC ; MPE::PrintInstructionCachePacket, COMDAT
; _this$ = ecx

; 2504 : {

  00000	55		 push	 ebp
  00001	56		 push	 esi
  00002	57		 push	 edi

; 2505 :   if(entry.nuanceCount != 0)

  00003	8b 7c 24 14	 mov	 edi, DWORD PTR _entry$[esp+8]
  00007	8b 47 14	 mov	 eax, DWORD PTR [edi+20]
  0000a	85 c0		 test	 eax, eax
  0000c	74 35		 je	 SHORT $LN12@PrintInstr

; 2506 :   {
; 2507 :     for(uint32 i = 0; i < entry.nuanceCount; i++)

  0000e	33 f6		 xor	 esi, esi
  00010	85 c0		 test	 eax, eax
  00012	76 2f		 jbe	 SHORT $LN12@PrintInstr
  00014	8b 6c 24 10	 mov	 ebp, DWORD PTR _buffer$[esp+8]
  00018	53		 push	 ebx
  00019	8d 5f 58	 lea	 ebx, DWORD PTR [edi+88]
  0001c	8d 64 24 00	 npad	 4
$LL6@PrintInstr:

; 2508 :     {
; 2509 :       buffer += (printHandlers[entry.handlers[i]])(buffer, *((Nuance *)(&entry.nuances[FIXED_FIELD(i,0)])), true);

  00020	8b 04 b7	 mov	 eax, DWORD PTR [edi+esi*4]
  00023	8b 0c 85 00 00
	00 00		 mov	 ecx, DWORD PTR ?printHandlers@@3PAP6AIPADAAVNuance@@_N@ZA[eax*4]
  0002a	6a 01		 push	 1
  0002c	53		 push	 ebx
  0002d	55		 push	 ebp
  0002e	ff d1		 call	 ecx
  00030	83 c6 01	 add	 esi, 1
  00033	83 c4 0c	 add	 esp, 12			; 0000000cH
  00036	03 e8		 add	 ebp, eax
  00038	83 c3 14	 add	 ebx, 20			; 00000014H
  0003b	3b 77 14	 cmp	 esi, DWORD PTR [edi+20]
  0003e	72 e0		 jb	 SHORT $LL6@PrintInstr
  00040	5b		 pop	 ebx

; 2506 :   {
; 2507 :     for(uint32 i = 0; i < entry.nuanceCount; i++)

  00041	eb 04		 jmp	 SHORT $LN4@PrintInstr
$LN12@PrintInstr:
  00043	8b 6c 24 10	 mov	 ebp, DWORD PTR _buffer$[esp+8]
$LN4@PrintInstr:

; 2510 :     }
; 2511 :   }
; 2512 :   
; 2513 :   if(entry.packetInfo & PACKETINFO_BREAKPOINT)

  00047	8b 47 18	 mov	 eax, DWORD PTR [edi+24]
  0004a	a8 02		 test	 al, 2
  0004c	74 14		 je	 SHORT $LN3@PrintInstr

; 2514 :   {
; 2515 :       sprintf(buffer,"breakpoint\n");

  0004e	68 00 00 00 00	 push	 OFFSET $SG53209

; 2518 :   {
; 2519 :     sprintf(buffer,"nop\n");

  00053	55		 push	 ebp
  00054	e8 00 00 00 00	 call	 _sprintf
  00059	83 c4 08	 add	 esp, 8
  0005c	5f		 pop	 edi
  0005d	5e		 pop	 esi
  0005e	5d		 pop	 ebp

; 2520 :   }
; 2521 : }

  0005f	c2 08 00	 ret	 8
$LN3@PrintInstr:

; 2516 :   }
; 2517 :   else if(entry.packetInfo & PACKETINFO_NOP)

  00062	a8 01		 test	 al, 1
  00064	74 0e		 je	 SHORT $LN1@PrintInstr

; 2518 :   {
; 2519 :     sprintf(buffer,"nop\n");

  00066	68 00 00 00 00	 push	 OFFSET $SG53212
  0006b	55		 push	 ebp
  0006c	e8 00 00 00 00	 call	 _sprintf
  00071	83 c4 08	 add	 esp, 8
$LN1@PrintInstr:
  00074	5f		 pop	 edi
  00075	5e		 pop	 esi
  00076	5d		 pop	 ebp

; 2520 :   }
; 2521 : }

  00077	c2 08 00	 ret	 8
?PrintInstructionCachePacket@MPE@@QAEXPADAAVInstructionCacheEntry@@@Z ENDP ; MPE::PrintInstructionCachePacket
_TEXT	ENDS
PUBLIC	??0MPE@@QAE@I@Z					; MPE::MPE
EXTRN	?commLogFile@@3PAU_iobuf@@A:DWORD		; commLogFile
EXTRN	_fopen:PROC
EXTRN	??0SuperBlock@@QAE@PAVMPE@@II@Z:PROC		; SuperBlock::SuperBlock
EXTRN	??0OverlayManager@@QAE@XZ:PROC			; OverlayManager::OverlayManager
EXTRN	??0InstructionCache@@QAE@I@Z:PROC		; InstructionCache::InstructionCache
EXTRN	??0NativeCodeCache@@QAE@III@Z:PROC		; NativeCodeCache::NativeCodeCache
EXTRN	??2@YAPAXI@Z:PROC				; operator new
EXTRN	___CxxFrameHandler3:PROC
;	COMDAT xdata$x
; File c:\nuanceexperimental\nativecodecache.h
xdata$x	SEGMENT
__unwindtable$??0MPE@@QAE@I@Z DD 0ffffffffH
	DD	FLAT:__unwindfunclet$??0MPE@@QAE@I@Z$0
	DD	0ffffffffH
	DD	FLAT:__unwindfunclet$??0MPE@@QAE@I@Z$1
	DD	0ffffffffH
	DD	FLAT:__unwindfunclet$??0MPE@@QAE@I@Z$2
	DD	0ffffffffH
	DD	FLAT:__unwindfunclet$??0MPE@@QAE@I@Z$3
__ehfuncinfo$??0MPE@@QAE@I@Z DD 019930522H
	DD	04H
	DD	FLAT:__unwindtable$??0MPE@@QAE@I@Z
	DD	2 DUP(00H)
	DD	2 DUP(00H)
	DD	00H
	DD	01H
; Function compile flags: /Ogtpy
; File c:\nuanceexperimental\mpe.cpp
xdata$x	ENDS
;	COMDAT ??0MPE@@QAE@I@Z
_TEXT	SEGMENT
_numTLBEntries$ = -108					; size = 16
_numCacheEntries$ = -92					; size = 16
_overlayLengths$ = -76					; size = 16
_emitvars$ = -60					; size = 48
__$EHRec$ = -12						; size = 12
$T54994 = 8						; size = 4
$T54990 = 8						; size = 4
$T54986 = 8						; size = 4
$T54982 = 8						; size = 4
_index$ = 8						; size = 4
??0MPE@@QAE@I@Z PROC					; MPE::MPE, COMDAT
; _this$ = ecx

; 773  : {

  00000	6a ff		 push	 -1
  00002	68 00 00 00 00	 push	 __ehhandler$??0MPE@@QAE@I@Z
  00007	64 a1 00 00 00
	00		 mov	 eax, DWORD PTR fs:0
  0000d	50		 push	 eax
  0000e	64 89 25 00 00
	00 00		 mov	 DWORD PTR fs:0, esp
  00015	83 ec 60	 sub	 esp, 96			; 00000060H
  00018	53		 push	 ebx

; 774  :   EmitterVariables emitvars;
; 775  :   uint32 numCacheEntries[] = {4096,2048,2048,262144};

  00019	b8 00 10 00 00	 mov	 eax, 4096		; 00001000H
  0001e	55		 push	 ebp
  0001f	8b e9		 mov	 ebp, ecx
  00021	b9 00 08 00 00	 mov	 ecx, 2048		; 00000800H
  00026	56		 push	 esi
  00027	89 44 24 1c	 mov	 DWORD PTR _numCacheEntries$[esp+120], eax

; 776  :   uint32 numTLBEntries[] = {4096,2048,2048,98304};

  0002b	89 44 24 0c	 mov	 DWORD PTR _numTLBEntries$[esp+120], eax

; 777  :   uint32 overlayLengths[] = {8192,4096,4096,4096};

  0002f	89 44 24 30	 mov	 DWORD PTR _overlayLengths$[esp+124], eax
  00033	89 44 24 34	 mov	 DWORD PTR _overlayLengths$[esp+128], eax
  00037	89 44 24 38	 mov	 DWORD PTR _overlayLengths$[esp+132], eax

; 778  : 
; 779  :   numInterpreterCacheFlushes = 0;
; 780  :   numNativeCodeCacheFlushes = 0;
; 781  :   numNonCompilablePackets = 0;
; 782  :   mpeIndex = index;

  0003b	8b 44 24 7c	 mov	 eax, DWORD PTR _index$[esp+116]
  0003f	33 db		 xor	 ebx, ebx

; 783  :   bStrictMemoryDependencyPolicy = true;
; 784  :   strictMemoryMiscInputDependencies = 0xFFFFFFFF;

  00041	83 ce ff	 or	 esi, -1

; 785  :   strictMemoryMiscOutputDependencies = 0xFFFFFFFF;
; 786  :   AllocateMPELocalMemory();

  00044	68 00 00 80 00	 push	 8388608			; 00800000H
  00049	89 4c 24 24	 mov	 DWORD PTR _numCacheEntries$[esp+128], ecx
  0004d	89 4c 24 28	 mov	 DWORD PTR _numCacheEntries$[esp+132], ecx
  00051	c7 44 24 2c 00
	00 04 00	 mov	 DWORD PTR _numCacheEntries$[esp+136], 262144 ; 00040000H
  00059	89 4c 24 14	 mov	 DWORD PTR _numTLBEntries$[esp+128], ecx
  0005d	89 4c 24 18	 mov	 DWORD PTR _numTLBEntries$[esp+132], ecx
  00061	c7 44 24 1c 00
	80 01 00	 mov	 DWORD PTR _numTLBEntries$[esp+136], 98304 ; 00018000H
  00069	c7 44 24 30 00
	20 00 00	 mov	 DWORD PTR _overlayLengths$[esp+124], 8192 ; 00002000H
  00071	89 9d 84 02 00
	00		 mov	 DWORD PTR [ebp+644], ebx
  00077	89 9d 88 02 00
	00		 mov	 DWORD PTR [ebp+648], ebx
  0007d	89 9d 8c 02 00
	00		 mov	 DWORD PTR [ebp+652], ebx
  00083	89 85 98 02 00
	00		 mov	 DWORD PTR [ebp+664], eax
  00089	c6 85 40 05 00
	00 01		 mov	 BYTE PTR [ebp+1344], 1
  00090	89 b5 44 05 00
	00		 mov	 DWORD PTR [ebp+1348], esi
  00096	89 b5 48 05 00
	00		 mov	 DWORD PTR [ebp+1352], esi
  0009c	e8 00 00 00 00	 call	 ??_U@YAPAXI@Z		; operator new[]
  000a1	83 c4 04	 add	 esp, 4

; 787  :   GenerateMirrorLookupTable();

  000a4	8b cd		 mov	 ecx, ebp
  000a6	89 85 30 02 00
	00		 mov	 DWORD PTR [ebp+560], eax
  000ac	e8 00 00 00 00	 call	 ?GenerateMirrorLookupTable@MPE@@QAEXXZ ; MPE::GenerateMirrorLookupTable

; 788  :   nativeCodeCache = new NativeCodeCache(5UL*1024UL*1024UL, 0, numTLBEntries[mpeIndex & 0x03]);

  000b1	6a 4c		 push	 76			; 0000004cH
  000b3	e8 00 00 00 00	 call	 ??2@YAPAXI@Z		; operator new
  000b8	83 c4 04	 add	 esp, 4
  000bb	89 44 24 7c	 mov	 DWORD PTR $T54982[esp+116], eax
  000bf	3b c3		 cmp	 eax, ebx
  000c1	89 5c 24 74	 mov	 DWORD PTR __$EHRec$[esp+128], ebx
  000c5	74 1d		 je	 SHORT $LN6@MPE
  000c7	8b 8d 98 02 00
	00		 mov	 ecx, DWORD PTR [ebp+664]
  000cd	83 e1 03	 and	 ecx, 3
  000d0	8b 54 8c 0c	 mov	 edx, DWORD PTR _numTLBEntries$[esp+ecx*4+120]
  000d4	52		 push	 edx
  000d5	53		 push	 ebx
  000d6	68 00 00 50 00	 push	 5242880			; 00500000H
  000db	8b c8		 mov	 ecx, eax
  000dd	e8 00 00 00 00	 call	 ??0NativeCodeCache@@QAE@III@Z ; NativeCodeCache::NativeCodeCache
  000e2	eb 02		 jmp	 SHORT $LN7@MPE
$LN6@MPE:
  000e4	33 c0		 xor	 eax, eax
$LN7@MPE:

; 789  :   instructionCache = new InstructionCache(numCacheEntries[mpeIndex & 0x03]);

  000e6	6a 0c		 push	 12			; 0000000cH
  000e8	89 74 24 78	 mov	 DWORD PTR __$EHRec$[esp+132], esi
  000ec	89 85 a8 02 00
	00		 mov	 DWORD PTR [ebp+680], eax
  000f2	e8 00 00 00 00	 call	 ??2@YAPAXI@Z		; operator new
  000f7	83 c4 04	 add	 esp, 4
  000fa	89 44 24 7c	 mov	 DWORD PTR $T54986[esp+116], eax
  000fe	3b c3		 cmp	 eax, ebx
  00100	c7 44 24 74 01
	00 00 00	 mov	 DWORD PTR __$EHRec$[esp+128], 1
  00108	74 17		 je	 SHORT $LN8@MPE
  0010a	8b 8d 98 02 00
	00		 mov	 ecx, DWORD PTR [ebp+664]
  00110	83 e1 03	 and	 ecx, 3
  00113	8b 54 8c 1c	 mov	 edx, DWORD PTR _numCacheEntries$[esp+ecx*4+120]
  00117	52		 push	 edx
  00118	8b c8		 mov	 ecx, eax
  0011a	e8 00 00 00 00	 call	 ??0InstructionCache@@QAE@I@Z ; InstructionCache::InstructionCache
  0011f	eb 02		 jmp	 SHORT $LN9@MPE
$LN8@MPE:
  00121	33 c0		 xor	 eax, eax
$LN9@MPE:

; 790  :   overlayManager = new OverlayManager();

  00123	68 0c 06 00 00	 push	 1548			; 0000060cH
  00128	89 74 24 78	 mov	 DWORD PTR __$EHRec$[esp+132], esi
  0012c	89 85 a0 02 00
	00		 mov	 DWORD PTR [ebp+672], eax
  00132	e8 00 00 00 00	 call	 ??2@YAPAXI@Z		; operator new
  00137	83 c4 04	 add	 esp, 4
  0013a	89 44 24 7c	 mov	 DWORD PTR $T54990[esp+116], eax
  0013e	3b c3		 cmp	 eax, ebx
  00140	c7 44 24 74 02
	00 00 00	 mov	 DWORD PTR __$EHRec$[esp+128], 2
  00148	74 09		 je	 SHORT $LN10@MPE
  0014a	8b c8		 mov	 ecx, eax
  0014c	e8 00 00 00 00	 call	 ??0OverlayManager@@QAE@XZ ; OverlayManager::OverlayManager
  00151	eb 02		 jmp	 SHORT $LN11@MPE
$LN10@MPE:
  00153	33 c0		 xor	 eax, eax
$LN11@MPE:

; 791  :   overlayManager->SetOverlayLength(overlayLengths[mpeIndex]);

  00155	8b 8d 98 02 00
	00		 mov	 ecx, DWORD PTR [ebp+664]
  0015b	8b 4c 8c 2c	 mov	 ecx, DWORD PTR _overlayLengths$[esp+ecx*4+120]
  0015f	89 85 ac 02 00
	00		 mov	 DWORD PTR [ebp+684], eax
  00165	89 88 08 06 00
	00		 mov	 DWORD PTR [eax+1544], ecx

; 792  :   bInvalidateInstructionCaches = false;
; 793  :   bInvalidateInterpreterCache = false;
; 794  :   
; 795  :   interpretNextPacket = 0;
; 796  : 
; 797  :   emitvars.mpe = this;
; 798  :   emitvars.codeCache = nativeCodeCache;

  0016b	8b 85 a8 02 00
	00		 mov	 eax, DWORD PTR [ebp+680]

; 799  :   emitvars.regBase = (uint32)&cc;
; 800  :   emitvars.tempRegBase = (uint32)&tempCC;

  00171	8d 8d 40 01 00
	00		 lea	 ecx, DWORD PTR [ebp+320]
  00177	89 4c 24 54	 mov	 DWORD PTR _emitvars$[esp+144], ecx
  0017b	88 9d 81 02 00
	00		 mov	 BYTE PTR [ebp+641], bl
  00181	88 9d 80 02 00
	00		 mov	 BYTE PTR [ebp+640], bl
  00187	89 9d 6c 02 00
	00		 mov	 DWORD PTR [ebp+620], ebx

; 801  :   emitvars.ppEmitLoc = nativeCodeCache->GetEmitPointerAddress();
; 802  :   emitvars.patchMgr = nativeCodeCache->patchMgr;

  0018d	8b 08		 mov	 ecx, DWORD PTR [eax]
  0018f	8d 95 80 00 00
	00		 lea	 edx, DWORD PTR [ebp+128]
  00195	89 54 24 50	 mov	 DWORD PTR _emitvars$[esp+140], edx
  00199	57		 push	 edi
  0019a	89 74 24 78	 mov	 DWORD PTR __$EHRec$[esp+132], esi
  0019e	89 4c 24 48	 mov	 DWORD PTR _emitvars$[esp+132], ecx
  001a2	8d 50 04	 lea	 edx, DWORD PTR [eax+4]

; 803  :   nativeCodeCache->SetEmitVars(emitvars);

  001a5	8d 78 1c	 lea	 edi, DWORD PTR [eax+28]
  001a8	89 44 24 44	 mov	 DWORD PTR _emitvars$[esp+128], eax
  001ac	89 54 24 6c	 mov	 DWORD PTR _emitvars$[esp+168], edx
  001b0	b9 0c 00 00 00	 mov	 ecx, 12			; 0000000cH
  001b5	8d 74 24 40	 lea	 esi, DWORD PTR _emitvars$[esp+124]
  001b9	89 6c 24 40	 mov	 DWORD PTR _emitvars$[esp+124], ebp

; 804  : 
; 805  :   //SuperBlock(mpe,maxPackets, maxInstructionsPerPacket)
; 806  :   superBlock = new SuperBlock(this,120,5);

  001bd	6a 40		 push	 64			; 00000040H
  001bf	f3 a5		 rep movsd
  001c1	e8 00 00 00 00	 call	 ??2@YAPAXI@Z		; operator new
  001c6	83 c4 04	 add	 esp, 4
  001c9	89 84 24 80 00
	00 00		 mov	 DWORD PTR $T54994[esp+120], eax
  001d0	3b c3		 cmp	 eax, ebx
  001d2	c7 44 24 78 03
	00 00 00	 mov	 DWORD PTR __$EHRec$[esp+132], 3
  001da	5f		 pop	 edi
  001db	74 0e		 je	 SHORT $LN12@MPE
  001dd	6a 05		 push	 5
  001df	6a 78		 push	 120			; 00000078H
  001e1	55		 push	 ebp
  001e2	8b c8		 mov	 ecx, eax
  001e4	e8 00 00 00 00	 call	 ??0SuperBlock@@QAE@PAVMPE@@II@Z ; SuperBlock::SuperBlock
  001e9	eb 02		 jmp	 SHORT $LN13@MPE
$LN12@MPE:
  001eb	33 c0		 xor	 eax, eax
$LN13@MPE:

; 807  :   InitStaticICacheEntries();

  001ed	8b cd		 mov	 ecx, ebp
  001ef	c7 44 24 74 ff
	ff ff ff	 mov	 DWORD PTR __$EHRec$[esp+128], -1
  001f7	89 85 a4 02 00
	00		 mov	 DWORD PTR [ebp+676], eax
  001fd	e8 00 00 00 00	 call	 ?InitStaticICacheEntries@MPE@@QAEXXZ ; MPE::InitStaticICacheEntries

; 808  :   if(mpeIndex == LOG_MPE_INDEX)

  00202	83 bd 98 02 00
	00 01		 cmp	 DWORD PTR [ebp+664], 1
  00209	75 3e		 jne	 SHORT $LN1@MPE

; 809  :   {      
; 810  :     if(!logfile)

  0020b	39 1d 00 00 00
	00		 cmp	 DWORD PTR ?logfile@@3PAU_iobuf@@A, ebx ; logfile
  00211	75 17		 jne	 SHORT $LN2@MPE

; 811  :     {
; 812  :       logfile = fopen("logfile","w");

  00213	68 00 00 00 00	 push	 OFFSET $SG52673
  00218	68 00 00 00 00	 push	 OFFSET $SG52674
  0021d	e8 00 00 00 00	 call	 _fopen
  00222	83 c4 08	 add	 esp, 8
  00225	a3 00 00 00 00	 mov	 DWORD PTR ?logfile@@3PAU_iobuf@@A, eax ; logfile
$LN2@MPE:

; 813  :     }
; 814  : 
; 815  :     if(!commLogFile)

  0022a	39 1d 00 00 00
	00		 cmp	 DWORD PTR ?commLogFile@@3PAU_iobuf@@A, ebx ; commLogFile
  00230	75 17		 jne	 SHORT $LN1@MPE

; 816  :     {
; 817  :       commLogFile = fopen("commlog","w");

  00232	68 00 00 00 00	 push	 OFFSET $SG52676
  00237	68 00 00 00 00	 push	 OFFSET $SG52677
  0023c	e8 00 00 00 00	 call	 _fopen
  00241	83 c4 08	 add	 esp, 8
  00244	a3 00 00 00 00	 mov	 DWORD PTR ?commLogFile@@3PAU_iobuf@@A, eax ; commLogFile
$LN1@MPE:

; 818  :     }
; 819  :   }
; 820  :   Reset();

  00249	8b cd		 mov	 ecx, ebp
  0024b	e8 00 00 00 00	 call	 ?Reset@MPE@@QAEXXZ	; MPE::Reset

; 821  : }

  00250	8b 4c 24 6c	 mov	 ecx, DWORD PTR __$EHRec$[esp+120]
  00254	5e		 pop	 esi
  00255	8b c5		 mov	 eax, ebp
  00257	5d		 pop	 ebp
  00258	5b		 pop	 ebx
  00259	64 89 0d 00 00
	00 00		 mov	 DWORD PTR fs:0, ecx
  00260	83 c4 6c	 add	 esp, 108		; 0000006cH
  00263	c2 04 00	 ret	 4
_TEXT	ENDS
;	COMDAT text$x
text$x	SEGMENT
__unwindfunclet$??0MPE@@QAE@I@Z$0:
  00000	8b 45 04	 mov	 eax, DWORD PTR $T54982[ebp-4]
  00003	50		 push	 eax
  00004	e8 00 00 00 00	 call	 ??3@YAXPAX@Z		; operator delete
  00009	59		 pop	 ecx
  0000a	c3		 ret	 0
__unwindfunclet$??0MPE@@QAE@I@Z$1:
  0000b	8b 45 04	 mov	 eax, DWORD PTR $T54986[ebp-4]
  0000e	50		 push	 eax
  0000f	e8 00 00 00 00	 call	 ??3@YAXPAX@Z		; operator delete
  00014	59		 pop	 ecx
  00015	c3		 ret	 0
__unwindfunclet$??0MPE@@QAE@I@Z$2:
  00016	8b 45 04	 mov	 eax, DWORD PTR $T54990[ebp-4]
  00019	50		 push	 eax
  0001a	e8 00 00 00 00	 call	 ??3@YAXPAX@Z		; operator delete
  0001f	59		 pop	 ecx
  00020	c3		 ret	 0
__unwindfunclet$??0MPE@@QAE@I@Z$3:
  00021	8b 45 04	 mov	 eax, DWORD PTR $T54994[ebp-4]
  00024	50		 push	 eax
  00025	e8 00 00 00 00	 call	 ??3@YAXPAX@Z		; operator delete
  0002a	59		 pop	 ecx
  0002b	c3		 ret	 0
__ehhandler$??0MPE@@QAE@I@Z:
  0002c	b8 00 00 00 00	 mov	 eax, OFFSET __ehfuncinfo$??0MPE@@QAE@I@Z
  00031	e9 00 00 00 00	 jmp	 ___CxxFrameHandler3
text$x	ENDS
??0MPE@@QAE@I@Z ENDP					; MPE::MPE
PUBLIC	??1MPE@@QAE@XZ					; MPE::~MPE
EXTRN	_fclose:PROC
; Function compile flags: /Ogtpy
;	COMDAT ??1MPE@@QAE@XZ
_TEXT	SEGMENT
??1MPE@@QAE@XZ PROC					; MPE::~MPE, COMDAT
; _this$ = ecx

; 824  : {

  00000	56		 push	 esi
  00001	8b f1		 mov	 esi, ecx
  00003	57		 push	 edi

; 825  :   delete nativeCodeCache;

  00004	8b be a8 02 00
	00		 mov	 edi, DWORD PTR [esi+680]
  0000a	85 ff		 test	 edi, edi
  0000c	74 10		 je	 SHORT $LN6@MPE@2
  0000e	8b cf		 mov	 ecx, edi
  00010	e8 00 00 00 00	 call	 ??1NativeCodeCache@@QAE@XZ ; NativeCodeCache::~NativeCodeCache
  00015	57		 push	 edi
  00016	e8 00 00 00 00	 call	 ??3@YAXPAX@Z		; operator delete
  0001b	83 c4 04	 add	 esp, 4
$LN6@MPE@2:

; 826  :   delete instructionCache;

  0001e	8b be a0 02 00
	00		 mov	 edi, DWORD PTR [esi+672]
  00024	85 ff		 test	 edi, edi
  00026	74 10		 je	 SHORT $LN8@MPE@2
  00028	8b cf		 mov	 ecx, edi
  0002a	e8 00 00 00 00	 call	 ??1InstructionCache@@QAE@XZ ; InstructionCache::~InstructionCache
  0002f	57		 push	 edi
  00030	e8 00 00 00 00	 call	 ??3@YAXPAX@Z		; operator delete
  00035	83 c4 04	 add	 esp, 4
$LN8@MPE@2:

; 827  :   delete overlayManager;

  00038	8b 86 ac 02 00
	00		 mov	 eax, DWORD PTR [esi+684]
  0003e	50		 push	 eax
  0003f	e8 00 00 00 00	 call	 ??3@YAXPAX@Z		; operator delete

; 828  :   delete superBlock;

  00044	8b be a4 02 00
	00		 mov	 edi, DWORD PTR [esi+676]
  0004a	83 c4 04	 add	 esp, 4
  0004d	85 ff		 test	 edi, edi
  0004f	74 10		 je	 SHORT $LN10@MPE@2
  00051	8b cf		 mov	 ecx, edi
  00053	e8 00 00 00 00	 call	 ??1SuperBlock@@QAE@XZ	; SuperBlock::~SuperBlock
  00058	57		 push	 edi
  00059	e8 00 00 00 00	 call	 ??3@YAXPAX@Z		; operator delete
  0005e	83 c4 04	 add	 esp, 4
$LN10@MPE@2:

; 829  :   if(mpeIndex == LOG_MPE_INDEX)

  00061	83 be 98 02 00
	00 01		 cmp	 DWORD PTR [esi+664], 1
  00068	75 24		 jne	 SHORT $LN1@MPE@2

; 830  :   {
; 831  :     if(logfile)

  0006a	a1 00 00 00 00	 mov	 eax, DWORD PTR ?logfile@@3PAU_iobuf@@A ; logfile
  0006f	85 c0		 test	 eax, eax
  00071	74 09		 je	 SHORT $LN2@MPE@2

; 832  :     {
; 833  :       fclose(logfile);

  00073	50		 push	 eax
  00074	e8 00 00 00 00	 call	 _fclose
  00079	83 c4 04	 add	 esp, 4
$LN2@MPE@2:

; 834  :     }
; 835  : 
; 836  :     if(commLogFile)

  0007c	a1 00 00 00 00	 mov	 eax, DWORD PTR ?commLogFile@@3PAU_iobuf@@A ; commLogFile
  00081	85 c0		 test	 eax, eax
  00083	74 09		 je	 SHORT $LN1@MPE@2

; 837  :     {
; 838  :       fclose(commLogFile);

  00085	50		 push	 eax
  00086	e8 00 00 00 00	 call	 _fclose
  0008b	83 c4 04	 add	 esp, 4
$LN1@MPE@2:

; 839  :     }
; 840  :   }
; 841  :   FreeMPELocalMemory();

  0008e	8b 8e 30 02 00
	00		 mov	 ecx, DWORD PTR [esi+560]
  00094	51		 push	 ecx
  00095	e8 00 00 00 00	 call	 ??_V@YAXPAX@Z		; operator delete[]
  0009a	83 c4 04	 add	 esp, 4
  0009d	5f		 pop	 edi
  0009e	5e		 pop	 esi

; 842  : }

  0009f	c3		 ret	 0
??1MPE@@QAE@XZ ENDP					; MPE::~MPE
_TEXT	ENDS
PUBLIC	?DecompressPacket@MPE@@QAEXPAEPAVInstructionCacheEntry@@I@Z ; MPE::DecompressPacket
; Function compile flags: /Ogtpy
;	COMDAT ?DecompressPacket@MPE@@QAEXPAEPAVInstructionCacheEntry@@I@Z
_TEXT	SEGMENT
_bTerminating$ = -277					; size = 1
_ecuIndex$ = -276					; size = 4
_pStruct$ = -272					; size = 268
_immExt$ = -4						; size = 4
_iBuffer$ = 8						; size = 4
_pICacheEntry$ = 12					; size = 4
_options$ = 16						; size = 4
?DecompressPacket@MPE@@QAEXPAEPAVInstructionCacheEntry@@I@Z PROC ; MPE::DecompressPacket, COMDAT
; _this$ = ecx

; 1079 : {

  00000	81 ec 18 01 00
	00		 sub	 esp, 280		; 00000118H

; 1080 :   InstructionCacheEntry pStruct;
; 1081 :   uint32 executionUnits, i;
; 1082 :   uint32 ecuIndex, rcuIndex, aluIndex, mulIndex, memIndex, baseIndex;
; 1083 :   uint32 immExt = 0;

  00006	33 c0		 xor	 eax, eax
  00008	55		 push	 ebp
  00009	56		 push	 esi

; 1084 :   uint32 packetByteCount = 0;
; 1085 :   uint32 comboScalarInDep;
; 1086 :   uint32 comboMiscInDep;
; 1087 :   uint32 comboScalarOutDep;
; 1088 :   uint32 comboMiscOutDep;
; 1089 :   bool bTerminating = false;
; 1090 :   bool bCanEmitNativeCode = true;
; 1091 :   uint8 iLength;
; 1092 : 
; 1093 :   pStruct.pcexec = pICacheEntry->pcexec;

  0000a	8b b4 24 28 01
	00 00		 mov	 esi, DWORD PTR _pICacheEntry$[esp+284]

; 1094 :   pICacheEntry->pcroute = pICacheEntry->pcexec;
; 1095 :   pICacheEntry->nuanceCount = 0;

  00011	89 46 14	 mov	 DWORD PTR [esi+20], eax
  00014	8b e9		 mov	 ebp, ecx
  00016	8b 4e 1c	 mov	 ecx, DWORD PTR [esi+28]
  00019	89 4e 4c	 mov	 DWORD PTR [esi+76], ecx
  0001c	57		 push	 edi

; 1096 :   pStruct.packetInfo = 0;
; 1097 : 
; 1098 :   for(i = 0; i < 5; i++)
; 1099 :   {
; 1100 :     pStruct.scalarInputDependencies[i] = 0;
; 1101 :     pStruct.miscInputDependencies[i] = 0;
; 1102 :     pStruct.scalarOutputDependencies[i] = 0;
; 1103 :     pStruct.miscOutputDependencies[i] = 0;
; 1104 :     pICacheEntry->scalarInputDependencies[i] = 0;
; 1105 :     pICacheEntry->miscInputDependencies[i] = 0;
; 1106 :     pICacheEntry->scalarOutputDependencies[i] = 0;
; 1107 :     pICacheEntry->miscOutputDependencies[i] = 0;

  0001d	8b bc 24 28 01
	00 00		 mov	 edi, DWORD PTR _iBuffer$[esp+288]
  00024	89 84 24 20 01
	00 00		 mov	 DWORD PTR _immExt$[esp+292], eax
  0002b	88 44 24 0f	 mov	 BYTE PTR _bTerminating$[esp+292], al
  0002f	89 4c 24 30	 mov	 DWORD PTR _pStruct$[esp+320], ecx
  00033	89 44 24 2c	 mov	 DWORD PTR _pStruct$[esp+316], eax
  00037	89 84 24 d0 00
	00 00		 mov	 DWORD PTR _pStruct$[esp+480], eax
  0003e	89 84 24 e4 00
	00 00		 mov	 DWORD PTR _pStruct$[esp+500], eax
  00045	89 84 24 f8 00
	00 00		 mov	 DWORD PTR _pStruct$[esp+520], eax
  0004c	89 84 24 0c 01
	00 00		 mov	 DWORD PTR _pStruct$[esp+540], eax
  00053	89 86 bc 00 00
	00		 mov	 DWORD PTR [esi+188], eax
  00059	89 86 d0 00 00
	00		 mov	 DWORD PTR [esi+208], eax
  0005f	89 86 e4 00 00
	00		 mov	 DWORD PTR [esi+228], eax
  00065	89 86 f8 00 00
	00		 mov	 DWORD PTR [esi+248], eax
  0006b	89 84 24 d4 00
	00 00		 mov	 DWORD PTR _pStruct$[esp+484], eax
  00072	89 84 24 e8 00
	00 00		 mov	 DWORD PTR _pStruct$[esp+504], eax
  00079	89 84 24 fc 00
	00 00		 mov	 DWORD PTR _pStruct$[esp+524], eax
  00080	89 84 24 10 01
	00 00		 mov	 DWORD PTR _pStruct$[esp+544], eax
  00087	89 86 c0 00 00
