 Nuance

 Timestamp is 46a16bc6 (Fri Jul 20 21:13:26 2007)

 Preferred load address is 00400000

 Start         Length     Name                   Class
 0001:00000000 00057a35H .text                   CODE
 0001:00057a40 000001d3H .text$x                 CODE
 0001:00057c13 00000014H .text$yd                CODE
 0002:00000000 00000300H .idata$5                DATA
 0002:00000300 00000004H .CRT$XCA                DATA
 0002:00000304 00000004H .CRT$XCZ                DATA
 0002:00000308 00000004H .CRT$XIA                DATA
 0002:0000030c 00000014H .CRT$XIC                DATA
 0002:00000320 00000004H .CRT$XIY                DATA
 0002:00000324 00000004H .CRT$XIZ                DATA
 0002:00000328 00000004H .CRT$XPA                DATA
 0002:0000032c 00000004H .CRT$XPX                DATA
 0002:00000330 00000004H .CRT$XPXA               DATA
 0002:00000334 00000004H .CRT$XPZ                DATA
 0002:00000338 00000004H .CRT$XTA                DATA
 0002:0000033c 00000004H .CRT$XTZ                DATA
 0002:00000340 00005c80H .rdata                  DATA
 0002:00005fc0 00000041H .rdata$debug            DATA
 0002:00006004 00000214H .rdata$r                DATA
 0002:00006220 00000050H .rdata$sxdata           DATA
 0002:00006270 00000004H .rtc$IAA                DATA
 0002:00006274 00000004H .rtc$IZZ                DATA
 0002:00006278 00000004H .rtc$TAA                DATA
 0002:0000627c 00000004H .rtc$TZZ                DATA
 0002:00006280 00000c7cH .xdata$x                DATA
 0002:00006efc 000000a0H .idata$2                DATA
 0002:00006f9c 00000014H .idata$3                DATA
 0002:00006fb0 00000300H .idata$4                DATA
 0002:000072b0 00000d88H .idata$6                DATA
 0002:00008038 00000000H .edata                  DATA
 0003:00000000 00003a10H .data                   DATA
 0003:00003a20 000046a4H .bss                    DATA
 0004:00000000 000001f0H .rsrc$01                DATA
 0004:000001f0 000253c8H .rsrc$02                DATA

  Address         Publics by Value              Rva+Base       Lib:Object

 0000:00000000       __except_list              00000000     <absolute>
 0000:00000014       ___safe_se_handler_count   00000014     <absolute>
 0000:00000000       ___ImageBase               00400000     <linker-defined>
 0001:00000000       ??0OverlayManager@@QAE@XZ  00401000 f   OverlayManager.obj
 0001:000000d0       ?Hash@OverlayManager@@QAEIPAI@Z 004010d0 f   OverlayManager.obj
 0001:00000140       ?FindOverlay@OverlayManager@@QAEIPAIAA_N@Z 00401140 f   OverlayManager.obj
 0001:000001d0       ?AudioMute@@YAXPAVMPE@@@Z  004011d0 f   audio.obj
 0001:000001f0       ?AudioReset@@YAXPAVMPE@@@Z 004011f0 f   audio.obj
 0001:00000220       ?AudioQuerySampleRates@@YAXPAVMPE@@@Z 00401220 f   audio.obj
 0001:00000230       ?AudioSetSampleRate@@YAXPAVMPE@@@Z 00401230 f   audio.obj
 0001:00000350       ?AudioQueryChannelMode@@YAXPAVMPE@@@Z 00401350 f   audio.obj
 0001:00000360       ?AudioSetChannelMode@@YAXPAVMPE@@@Z 00401360 f   audio.obj
 0001:000003e0       ?AudioSetDMABuffer@@YAXPAVMPE@@@Z 004013e0 f   audio.obj
 0001:00000410       ?BDMA_Type12_Write_0@@YAXPAVMPE@@IIIII@Z 00401410 f   bdma_type12.obj
 0001:00000790       ?BDMA_Type5_Write_0@@YAXPAVMPE@@IIIII@Z 00401790 f   bdma_type5.obj
 0001:00000bb0       ?BDMA_Type5_Read_0@@YAXPAVMPE@@IIIII@Z 00401bb0 f   bdma_type5.obj
 0001:00000d30       ?BDMA_Type8_Write_0@@YAXPAVMPE@@IIIII@Z 00401d30 f   bdma_type8.obj
 0001:00000fa0       ?BDMA_Type8_Write_3@@YAXPAVMPE@@IIIII@Z 00401fa0 f   bdma_type8.obj
 0001:00000fa0       ?AssemblyBiosHandler@@YAXPAVMPE@@@Z 00401fa0 f   bios.obj
 0001:00000fa0       ?BDMA_Type8_Write_7@@YAXPAVMPE@@IIIII@Z 00401fa0 f   bdma_type8.obj
 0001:00000fa0       ?BDMA_Type8_Read_5@@YAXPAVMPE@@IIIII@Z 00401fa0 f   bdma_type8.obj
 0001:00000fa0       ?BDMA_Type8_Write_4@@YAXPAVMPE@@IIIII@Z 00401fa0 f   bdma_type8.obj
 0001:00000fa0       ?BDMA_Type8_Read_7@@YAXPAVMPE@@IIIII@Z 00401fa0 f   bdma_type8.obj
 0001:00000fa0       ?BDMA_Type5_Write_2@@YAXPAVMPE@@IIIII@Z 00401fa0 f   bdma_type5.obj
 0001:00000fa0       ?BDMA_Type8_Write_5@@YAXPAVMPE@@IIIII@Z 00401fa0 f   bdma_type8.obj
 0001:00000fa0       ?API_NDK@@YAXPAVMPE@@@Z    00401fa0 f   PresentationEngine.obj
 0001:00000fa0       ?BDMA_Type8_Write_6@@YAXPAVMPE@@IIIII@Z 00401fa0 f   bdma_type8.obj
 0001:00000fa0       ?BDMA_Type8_Read_4@@YAXPAVMPE@@IIIII@Z 00401fa0 f   bdma_type8.obj
 0001:00000fa0       ?BDMA_Type5_Read_2@@YAXPAVMPE@@IIIII@Z 00401fa0 f   bdma_type5.obj
 0001:00000fa0       ?API_DVD@@YAXPAVMPE@@@Z    00401fa0 f   PresentationEngine.obj
 0001:00000fa0       ?UnimplementedBilinearDMAHandler@@YAXPAVMPE@@IIIII@Z 00401fa0 f   dma.obj
 0001:00000fa0       ?BDMA_Type5_Write_3@@YAXPAVMPE@@IIIII@Z 00401fa0 f   bdma_type5.obj
 0001:00000fa0       ?BDMA_Type5_Read_4@@YAXPAVMPE@@IIIII@Z 00401fa0 f   bdma_type5.obj
 0001:00000fa0       ?API_StepOneFrame@@YAXPAVMPE@@@Z 00401fa0 f   PresentationEngine.obj
 0001:00000fa0       ?BDMA_Type8_Read_3@@YAXPAVMPE@@IIIII@Z 00401fa0 f   bdma_type8.obj
 0001:00000fa0       ?API_AUDIOStreamSelect@@YAXPAVMPE@@@Z 00401fa0 f   PresentationEngine.obj
 0001:00000fa0       ?BDMA_Type8_Read_0@@YAXPAVMPE@@IIIII@Z 00401fa0 f   bdma_type8.obj
 0001:00000fa0       ?NullBiosHandler@@YAXPAVMPE@@@Z 00401fa0 f   bios.obj
 0001:00000fa0       ?BDMA_Type8_Write_2@@YAXPAVMPE@@IIIII@Z 00401fa0 f   bdma_type8.obj
 0001:00000fa0       ?Execute_ECU_NOP@@YAXAAVMPE@@AAVInstructionCacheEntry@@AAVNuance@@@Z 00401fa0 f   ExecuteECU.obj
 0001:00000fa0       ?BDMA_Type5_Read_7@@YAXPAVMPE@@IIIII@Z 00401fa0 f   bdma_type5.obj
 0001:00000fa0       ?BDMA_Type5_Read_6@@YAXPAVMPE@@IIIII@Z 00401fa0 f   bdma_type5.obj
 0001:00000fa0       ?API_PresentCell@@YAXPAVMPE@@@Z 00401fa0 f   PresentationEngine.obj
 0001:00000fa0       ?Close@GLWindow@@QAEXXZ    00401fa0 f   GLWindow.obj
 0001:00000fa0       ?BDMA_Type5_Write_1@@YAXPAVMPE@@IIIII@Z 00401fa0 f   bdma_type5.obj
 0001:00000fa0       ?PropagateConstants_PacketStart@@YAXAAVSuperBlockConstants@@@Z 00401fa0 f   SuperBlockConstants.obj
 0001:00000fa0       ?BDMA_Type5_Write_4@@YAXPAVMPE@@IIIII@Z 00401fa0 f   bdma_type5.obj
 0001:00000fa0       ?BDMA_Type5_Write_6@@YAXPAVMPE@@IIIII@Z 00401fa0 f   bdma_type5.obj
 0001:00000fa0       ?BDMA_Type8_Write_1@@YAXPAVMPE@@IIIII@Z 00401fa0 f   bdma_type8.obj
 0001:00000fa0       ?API_CellStillDone@@YAXPAVMPE@@@Z 00401fa0 f   PresentationEngine.obj
 0001:00000fa0       ?API_ForwardSpeed@@YAXPAVMPE@@@Z 00401fa0 f   PresentationEngine.obj
 0001:00000fa0       ?BDMA_Type5_Write_7@@YAXPAVMPE@@IIIII@Z 00401fa0 f   bdma_type5.obj
 0001:00000fa0       ?BDMA_Type8_Read_2@@YAXPAVMPE@@IIIII@Z 00401fa0 f   bdma_type8.obj
 0001:00000fa0       ?BDMA_Type5_Write_5@@YAXPAVMPE@@IIIII@Z 00401fa0 f   bdma_type5.obj
 0001:00000fa0       ?BDMA_Type8_Read_6@@YAXPAVMPE@@IIIII@Z 00401fa0 f   bdma_type8.obj
 0001:00000fa0       ?API_EnterPE@@YAXPAVMPE@@@Z 00401fa0 f   PresentationEngine.obj
 0001:00000fa0       ??1GLWindow@@QAE@XZ        00401fa0 f   GLWindow.obj
 0001:00000fa0       ?BDMA_Type5_Read_5@@YAXPAVMPE@@IIIII@Z 00401fa0 f   bdma_type5.obj
 0001:00000fa0       ?Emit_NOP@@YAXPAVEmitterVariables@@AAVNuance@@@Z 00401fa0 f   EmitMisc.obj
 0001:00000fa0       ?BDMA_Type5_Read_1@@YAXPAVMPE@@IIIII@Z 00401fa0 f   bdma_type5.obj
 0001:00000fa0       ?API_SetAngle@@YAXPAVMPE@@@Z 00401fa0 f   PresentationEngine.obj
 0001:00000fa0       ?BDMA_Type8_Read_1@@YAXPAVMPE@@IIIII@Z 00401fa0 f   bdma_type8.obj
 0001:00000fa0       ?API_StartCellStill@@YAXPAVMPE@@@Z 00401fa0 f   PresentationEngine.obj
 0001:00000fa0       ?BDMA_Type5_Read_3@@YAXPAVMPE@@IIIII@Z 00401fa0 f   bdma_type5.obj
 0001:00000fa0       ?API_PresentVOB@@YAXPAVMPE@@@Z 00401fa0 f   PresentationEngine.obj
 0001:00000fa0       ?UnimplementedCacheHandler@@YAXPAVMPE@@@Z 00401fa0 f   bios.obj
 0001:00000fa0       ??1SuperBlockConstants@@QAE@XZ 00401fa0 f   SuperBlockConstants.obj
 0001:00000fa0       ?API_CellReadDone@@YAXPAVMPE@@@Z 00401fa0 f   PresentationEngine.obj
 0001:00000fa0       ?DMAWait@@YAXPAVMPE@@@Z    00401fa0 f   dma.obj
 0001:00000fb0       ?UnimplementedMediaHandler@@YAXPAVMPE@@@Z 00401fb0 f   bios.obj
 0001:00000fd0       ?SetISRExitHook@@YAXPAVMPE@@@Z 00401fd0 f   bios.obj
 0001:00001000       ?InstallCommHandler@@YA_NPAVMPE@@IPAI1@Z 00402000 f   bios.obj
 0001:00001120       ?IntGetVector@@YAXPAVMPE@@@Z 00402120 f   bios.obj
 0001:00001160       ?IntSetVector@@YAXPAVMPE@@@Z 00402160 f   bios.obj
 0001:00001210       ?BiosExit@@YAXPAVMPE@@@Z   00402210 f   bios.obj
 0001:00001220       ?PatchJumptable@@YAIII@Z   00402220 f   bios.obj
 0001:000012f0       ?PatchJumptable@@YAXPAVMPE@@@Z 004022f0 f   bios.obj
 0001:00001310       ?BiosPauseMsg@@YAXPAVMPE@@@Z 00402310 f   bios.obj
 0001:00001350       ?InitBios@@YAXPAVMPE@@@Z   00402350 f   bios.obj
 0001:00001580       ?KPrintf@@YAXPAVMPE@@@Z    00402580 f   bios.obj
 0001:000015c0       ?SwapWordBytes@@YIXPAG@Z   004025c0 f   byteswap.obj
 0001:000015d0       ?SwapScalarBytes@@YIXPAI@Z 004025d0 f   byteswap.obj
 0001:000015e0       ?SwapShortVectorBytes@@YIXPAG@Z 004025e0 f   byteswap.obj
 0001:00001610       ?SwapVectorBytes@@YIXPAI@Z 00402610 f   byteswap.obj
 0001:00001630       ?LoadCoffFile@MPE@@QAE_NPAD_NH@Z 00402630 f   coff.obj
 0001:00001b00       ?DoCommBusController@@YAXXZ 00402b00 f   comm.obj
 0001:00001de0       ?DecodeInstruction_ALU16@MPE@@QAEXPAEPAVInstructionCacheEntry@@PAI@Z 00402de0 f   DecodeALU.obj
 0001:00002240       ?DecodeInstruction_ALU32@MPE@@QAEXPAEPAVInstructionCacheEntry@@PAI@Z 00403240 f   DecodeALU.obj
 0001:00003670       ?DecodeInstruction_ECU16@MPE@@QAEXPAEPAVInstructionCacheEntry@@PAI@Z 00404670 f   DecodeECU.obj
 0001:00003980       ?DecodeInstruction_ECU32@MPE@@QAEXPAEPAVInstructionCacheEntry@@PAI@Z 00404980 f   DecodeECU.obj
 0001:00003de0       ?GetControlRegisterInputDependencies@MPE@@QAEIIAA_N@Z 00404de0 f   DecodeMEM.obj
 0001:00003f70       ?GetControlRegisterOutputDependencies@MPE@@QAEIIAA_N@Z 00404f70 f   DecodeMEM.obj
 0001:00004110       ?DecodeInstruction_MEM16@MPE@@QAEXPAEPAVInstructionCacheEntry@@PAI@Z 00405110 f   DecodeMEM.obj
 0001:000045e0       ?DecodeInstruction_MEM32@MPE@@QAEXPAEPAVInstructionCacheEntry@@PAI@Z 004055e0 f   DecodeMEM.obj
 0001:00005430       ?DecodeInstruction_MUL16@MPE@@QAEXPAEPAVInstructionCacheEntry@@PAI@Z 00406430 f   DecodeMUL.obj
 0001:000054e0       ?DecodeInstruction_MUL32@MPE@@QAEXPAEPAVInstructionCacheEntry@@PAI@Z 004064e0 f   DecodeMUL.obj
 0001:00005d10       ?DecodeInstruction_RCU16@MPE@@QAEXPAEPAVInstructionCacheEntry@@PAI@Z 00406d10 f   DecodeRCU.obj
 0001:00005fa0       ?DMALinear@@YAXPAVMPE@@III@Z 00406fa0 f   dma.obj
 0001:00006620       ?DMALinear@@YAXPAVMPE@@@Z  00407620 f   dma.obj
 0001:00006660       ?DMABiLinear@@YAXPAVMPE@@IIIII@Z 00407660 f   dma.obj
 0001:00006f50       ?DMABiLinear@@YAXPAVMPE@@@Z 00407f50 f   dma.obj
 0001:00006fb0       ?DMADo@@YAXPAVMPE@@@Z      00407fb0 f   dma.obj
 0001:00007140       ?Emit_ABS@@YAXPAVEmitterVariables@@AAVNuance@@@Z 00408140 f   EmitALU.obj
 0001:00007310       ?Emit_BITSScalar@@YAXPAVEmitterVariables@@AAVNuance@@@Z 00408310 f   EmitALU.obj
 0001:000074a0       ?Emit_BITSImmediate@@YAXPAVEmitterVariables@@AAVNuance@@@Z 004084a0 f   EmitALU.obj
 0001:000075e0       ?Emit_BTST@@YAXPAVEmitterVariables@@AAVNuance@@@Z 004085e0 f   EmitALU.obj
 0001:000076c0       ?Emit_BUTT@@YAXPAVEmitterVariables@@AAVNuance@@@Z 004086c0 f   EmitALU.obj
 0001:000078c0       ?Emit_COPY@@YAXPAVEmitterVariables@@AAVNuance@@@Z 004088c0 f   EmitALU.obj
 0001:000079f0       ?Emit_MSB@@YAXPAVEmitterVariables@@AAVNuance@@@Z 004089f0 f   EmitALU.obj
 0001:00007ca0       ?Emit_SAT@@YAXPAVEmitterVariables@@AAVNuance@@@Z 00408ca0 f   EmitALU.obj
 0001:00007e20       ?Emit_ADD_SV@@YAXPAVEmitterVariables@@AAVNuance@@@Z 00408e20 f   EmitALU.obj
 0001:000081f0       ?Emit_ADD_P@@YAXPAVEmitterVariables@@AAVNuance@@@Z 004091f0 f   EmitALU.obj
 0001:00008420       ?Emit_SUB_SV@@YAXPAVEmitterVariables@@AAVNuance@@@Z 00409420 f   EmitALU.obj
 0001:00008850       ?Emit_SUB_P@@YAXPAVEmitterVariables@@AAVNuance@@@Z 00409850 f   EmitALU.obj
 0001:00008ae0       ?Emit_ANDScalar@@YAXPAVEmitterVariables@@AAVNuance@@@Z 00409ae0 f   EmitALU.obj
 0001:00008c50       ?Emit_ANDImmediate@@YAXPAVEmitterVariables@@AAVNuance@@@Z 00409c50 f   EmitALU.obj
 0001:00008d90       ?Emit_ANDImmediateShiftScalar@@YAXPAVEmitterVariables@@AAVNuance@@@Z 00409d90 f   EmitALU.obj
 0001:00008f90       ?Emit_ANDScalarShiftScalar@@YAXPAVEmitterVariables@@AAVNuance@@@Z 00409f90 f   EmitALU.obj
 0001:000091c0       ?Emit_ANDScalarRotateScalar@@YAXPAVEmitterVariables@@AAVNuance@@@Z 0040a1c0 f   EmitALU.obj
 0001:000093f0       ?Emit_ANDScalarShiftLeftImmediate@@YAXPAVEmitterVariables@@AAVNuance@@@Z 0040a3f0 f   EmitALU.obj
 0001:00009530       ?Emit_ANDScalarShiftRightImmediate@@YAXPAVEmitterVariables@@AAVNuance@@@Z 0040a530 f   EmitALU.obj
 0001:00009670       ?Emit_FTSTImmediate@@YAXPAVEmitterVariables@@AAVNuance@@@Z 0040a670 f   EmitALU.obj
 0001:00009790       ?Emit_FTSTScalar@@YAXPAVEmitterVariables@@AAVNuance@@@Z 0040a790 f   EmitALU.obj
 0001:000098d0       ?Emit_FTSTImmediateShiftScalar@@YAXPAVEmitterVariables@@AAVNuance@@@Z 0040a8d0 f   EmitALU.obj
 0001:00009ac0       ?Emit_FTSTScalarShiftScalar@@YAXPAVEmitterVariables@@AAVNuance@@@Z 0040aac0 f   EmitALU.obj
 0001:00009cd0       ?Emit_FTSTScalarRotateScalar@@YAXPAVEmitterVariables@@AAVNuance@@@Z 0040acd0 f   EmitALU.obj
 0001:00009ee0       ?Emit_FTSTScalarShiftLeftImmediate@@YAXPAVEmitterVariables@@AAVNuance@@@Z 0040aee0 f   EmitALU.obj
 0001:0000a000       ?Emit_FTSTScalarShiftRightImmediate@@YAXPAVEmitterVariables@@AAVNuance@@@Z 0040b000 f   EmitALU.obj
 0001:0000a120       ?Emit_ORImmediate@@YAXPAVEmitterVariables@@AAVNuance@@@Z 0040b120 f   EmitALU.obj
 0001:0000a260       ?Emit_ORScalar@@YAXPAVEmitterVariables@@AAVNuance@@@Z 0040b260 f   EmitALU.obj
 0001:0000a3d0       ?Emit_ORImmediateShiftScalar@@YAXPAVEmitterVariables@@AAVNuance@@@Z 0040b3d0 f   EmitALU.obj
 0001:0000a5d0       ?Emit_ORScalarShiftScalar@@YAXPAVEmitterVariables@@AAVNuance@@@Z 0040b5d0 f   EmitALU.obj
 0001:0000a800       ?Emit_ORScalarRotateScalar@@YAXPAVEmitterVariables@@AAVNuance@@@Z 0040b800 f   EmitALU.obj
 0001:0000aa30       ?Emit_ORScalarShiftLeftImmediate@@YAXPAVEmitterVariables@@AAVNuance@@@Z 0040ba30 f   EmitALU.obj
 0001:0000ab70       ?Emit_ORScalarShiftRightImmediate@@YAXPAVEmitterVariables@@AAVNuance@@@Z 0040bb70 f   EmitALU.obj
 0001:0000acb0       ?Emit_EORImmediate@@YAXPAVEmitterVariables@@AAVNuance@@@Z 0040bcb0 f   EmitALU.obj
 0001:0000adf0       ?Emit_EORScalar@@YAXPAVEmitterVariables@@AAVNuance@@@Z 0040bdf0 f   EmitALU.obj
 0001:0000af60       ?Emit_EORImmediateShiftScalar@@YAXPAVEmitterVariables@@AAVNuance@@@Z 0040bf60 f   EmitALU.obj
 0001:0000b160       ?Emit_EORScalarShiftScalar@@YAXPAVEmitterVariables@@AAVNuance@@@Z 0040c160 f   EmitALU.obj
 0001:0000b390       ?Emit_EORScalarRotateScalar@@YAXPAVEmitterVariables@@AAVNuance@@@Z 0040c390 f   EmitALU.obj
 0001:0000b5c0       ?Emit_EORScalarShiftLeftImmediate@@YAXPAVEmitterVariables@@AAVNuance@@@Z 0040c5c0 f   EmitALU.obj
 0001:0000b700       ?Emit_EORScalarShiftRightImmediate@@YAXPAVEmitterVariables@@AAVNuance@@@Z 0040c700 f   EmitALU.obj
 0001:0000b840       ?Emit_ADDImmediate@@YAXPAVEmitterVariables@@AAVNuance@@@Z 0040c840 f   EmitALU.obj
 0001:0000b9c0       ?Emit_ADDScalar@@YAXPAVEmitterVariables@@AAVNuance@@@Z 0040c9c0 f   EmitALU.obj
 0001:0000bb70       ?Emit_ADDScalarShiftLeftImmediate@@YAXPAVEmitterVariables@@AAVNuance@@@Z 0040cb70 f   EmitALU.obj
 0001:0000bd10       ?Emit_ADDScalarShiftRightImmediate@@YAXPAVEmitterVariables@@AAVNuance@@@Z 0040cd10 f   EmitALU.obj
 0001:0000beb0       ?Emit_SUBImmediate@@YAXPAVEmitterVariables@@AAVNuance@@@Z 0040ceb0 f   EmitALU.obj
 0001:0000c030       ?Emit_SUBScalar@@YAXPAVEmitterVariables@@AAVNuance@@@Z 0040d030 f   EmitALU.obj
 0001:0000c1e0       ?Emit_SUBImmediateReverse@@YAXPAVEmitterVariables@@AAVNuance@@@Z 0040d1e0 f   EmitALU.obj
 0001:0000c360       ?Emit_SUBScalarShiftLeftImmediate@@YAXPAVEmitterVariables@@AAVNuance@@@Z 0040d360 f   EmitALU.obj
 0001:0000c500       ?Emit_SUBScalarShiftRightImmediate@@YAXPAVEmitterVariables@@AAVNuance@@@Z 0040d500 f   EmitALU.obj
 0001:0000c6a0       ?Emit_CMPImmediate@@YAXPAVEmitterVariables@@AAVNuance@@@Z 0040d6a0 f   EmitALU.obj
 0001:0000c800       ?Emit_CMPScalar@@YAXPAVEmitterVariables@@AAVNuance@@@Z 0040d800 f   EmitALU.obj
 0001:0000c980       ?Emit_CMPImmediateReverse@@YAXPAVEmitterVariables@@AAVNuance@@@Z 0040d980 f   EmitALU.obj
 0001:0000cae0       ?Emit_CMPScalarShiftLeftImmediate@@YAXPAVEmitterVariables@@AAVNuance@@@Z 0040dae0 f   EmitALU.obj
 0001:0000cc60       ?Emit_CMPScalarShiftRightImmediate@@YAXPAVEmitterVariables@@AAVNuance@@@Z 0040dc60 f   EmitALU.obj
 0001:0000cde0       ?Emit_ROT@@YAXPAVEmitterVariables@@AAVNuance@@@Z 0040dde0 f   EmitALU.obj
 0001:0000cfd0       ?Emit_ROL@@YAXPAVEmitterVariables@@AAVNuance@@@Z 0040dfd0 f   EmitALU.obj
 0001:0000d0f0       ?Emit_ROR@@YAXPAVEmitterVariables@@AAVNuance@@@Z 0040e0f0 f   EmitALU.obj
 0001:0000d210       ?Emit_AS@@YAXPAVEmitterVariables@@AAVNuance@@@Z 0040e210 f   EmitALU.obj
 0001:0000d4a0       ?Emit_ASL@@YAXPAVEmitterVariables@@AAVNuance@@@Z 0040e4a0 f   EmitALU.obj
 0001:0000d600       ?Emit_ASR@@YAXPAVEmitterVariables@@AAVNuance@@@Z 0040e600 f   EmitALU.obj
 0001:0000d760       ?Emit_LS@@YAXPAVEmitterVariables@@AAVNuance@@@Z 0040e760 f   EmitALU.obj
 0001:0000d9f0       ?Emit_LSR@@YAXPAVEmitterVariables@@AAVNuance@@@Z 0040e9f0 f   EmitALU.obj
 0001:0000db50       ?Emit_ADDWCImmediate@@YAXPAVEmitterVariables@@AAVNuance@@@Z 0040eb50 f   EmitALU.obj
 0001:0000dd10       ?Emit_ADDWCScalar@@YAXPAVEmitterVariables@@AAVNuance@@@Z 0040ed10 f   EmitALU.obj
 0001:0000df00       ?Emit_ADDWCScalarShiftLeftImmediate@@YAXPAVEmitterVariables@@AAVNuance@@@Z 0040ef00 f   EmitALU.obj
 0001:0000e100       ?Emit_ADDWCScalarShiftRightImmediate@@YAXPAVEmitterVariables@@AAVNuance@@@Z 0040f100 f   EmitALU.obj
 0001:0000e300       ?Emit_SUBWCImmediate@@YAXPAVEmitterVariables@@AAVNuance@@@Z 0040f300 f   EmitALU.obj
 0001:0000e4c0       ?Emit_SUBWCImmediateReverse@@YAXPAVEmitterVariables@@AAVNuance@@@Z 0040f4c0 f   EmitALU.obj
 0001:0000e680       ?Emit_SUBWCScalar@@YAXPAVEmitterVariables@@AAVNuance@@@Z 0040f680 f   EmitALU.obj
 0001:0000e870       ?Emit_SUBWCScalarShiftLeftImmediate@@YAXPAVEmitterVariables@@AAVNuance@@@Z 0040f870 f   EmitALU.obj
 0001:0000ea70       ?Emit_SUBWCScalarShiftRightImmediate@@YAXPAVEmitterVariables@@AAVNuance@@@Z 0040fa70 f   EmitALU.obj
 0001:0000ec70       ?Emit_CMPWCImmediate@@YAXPAVEmitterVariables@@AAVNuance@@@Z 0040fc70 f   EmitALU.obj
 0001:0000ee00       ?Emit_CMPWCImmediateReverse@@YAXPAVEmitterVariables@@AAVNuance@@@Z 0040fe00 f   EmitALU.obj
 0001:0000ef90       ?Emit_CMPWCScalar@@YAXPAVEmitterVariables@@AAVNuance@@@Z 0040ff90 f   EmitALU.obj
 0001:0000f150       ?Emit_CMPWCScalarShiftLeftImmediate@@YAXPAVEmitterVariables@@AAVNuance@@@Z 00410150 f   EmitALU.obj
 0001:0000f330       ?Emit_CMPWCScalarShiftRightImmediate@@YAXPAVEmitterVariables@@AAVNuance@@@Z 00410330 f   EmitALU.obj
 0001:0000f510       ?EmitConditionCheck@@YAXPAVEmitterVariables@@III@Z 00410510 f   EmitECU.obj
 0001:0000f930       ?Emit_BRAAlways@@YAXPAVEmitterVariables@@AAVNuance@@@Z 00410930 f   EmitECU.obj
 0001:0000fa00       ?Emit_BRAAlways_NOP@@YAXPAVEmitterVariables@@AAVNuance@@@Z 00410a00 f   EmitECU.obj
 0001:0000fad0       ?Emit_BRAConditional@@YAXPAVEmitterVariables@@AAVNuance@@@Z 00410ad0 f   EmitECU.obj
 0001:0000fbb0       ?Emit_BRAConditional_NOP@@YAXPAVEmitterVariables@@AAVNuance@@@Z 00410bb0 f   EmitECU.obj
 0001:0000fca0       ?Emit_JMPAlwaysIndirect@@YAXPAVEmitterVariables@@AAVNuance@@@Z 00410ca0 f   EmitECU.obj
 0001:0000fd80       ?Emit_JMPAlwaysIndirect_NOP@@YAXPAVEmitterVariables@@AAVNuance@@@Z 00410d80 f   EmitECU.obj
 0001:0000fe70       ?Emit_JMPConditionalIndirect@@YAXPAVEmitterVariables@@AAVNuance@@@Z 00410e70 f   EmitECU.obj
 0001:0000ff70       ?Emit_JMPConditionalIndirect_NOP@@YAXPAVEmitterVariables@@AAVNuance@@@Z 00410f70 f   EmitECU.obj
 0001:00010080       ?Emit_JSRAlways@@YAXPAVEmitterVariables@@AAVNuance@@@Z 00411080 f   EmitECU.obj
 0001:00010150       ?Emit_JSRAlways_NOP@@YAXPAVEmitterVariables@@AAVNuance@@@Z 00411150 f   EmitECU.obj
 0001:00010230       ?Emit_JSRConditional@@YAXPAVEmitterVariables@@AAVNuance@@@Z 00411230 f   EmitECU.obj
 0001:00010320       ?Emit_JSRConditional_NOP@@YAXPAVEmitterVariables@@AAVNuance@@@Z 00411320 f   EmitECU.obj
 0001:00010420       ?Emit_JSRAlwaysIndirect@@YAXPAVEmitterVariables@@AAVNuance@@@Z 00411420 f   EmitECU.obj
 0001:00010510       ?Emit_JSRAlwaysIndirect_NOP@@YAXPAVEmitterVariables@@AAVNuance@@@Z 00411510 f   EmitECU.obj
 0001:00010610       ?Emit_JSRConditionalIndirect@@YAXPAVEmitterVariables@@AAVNuance@@@Z 00411610 f   EmitECU.obj
 0001:00010730       ?Emit_JSRConditionalIndirect_NOP@@YAXPAVEmitterVariables@@AAVNuance@@@Z 00411730 f   EmitECU.obj
 0001:00010850       ?Emit_RTSAlways@@YAXPAVEmitterVariables@@AAVNuance@@@Z 00411850 f   EmitECU.obj
 0001:00010920       ?Emit_RTSAlways_NOP@@YAXPAVEmitterVariables@@AAVNuance@@@Z 00411920 f   EmitECU.obj
 0001:000109f0       ?Emit_RTSConditional@@YAXPAVEmitterVariables@@AAVNuance@@@Z 004119f0 f   EmitECU.obj
 0001:00010ae0       ?Emit_RTSConditional_NOP@@YAXPAVEmitterVariables@@AAVNuance@@@Z 00411ae0 f   EmitECU.obj
 0001:00010be0       ?Emit_RTI1Conditional@@YAXPAVEmitterVariables@@AAVNuance@@@Z 00411be0 f   EmitECU.obj
 0001:00010cf0       ?Emit_RTI1Conditional_NOP@@YAXPAVEmitterVariables@@AAVNuance@@@Z 00411cf0 f   EmitECU.obj
 0001:00010e10       ?Emit_RTI2Conditional@@YAXPAVEmitterVariables@@AAVNuance@@@Z 00411e10 f   EmitECU.obj
 0001:00010f30       ?Emit_RTI2Conditional_NOP@@YAXPAVEmitterVariables@@AAVNuance@@@Z 00411f30 f   EmitECU.obj
 0001:00011050       ?Emit_Mirror@@YAXPAVEmitterVariables@@AAVNuance@@@Z 00412050 f   EmitMEM.obj
 0001:00011200       ?Emit_MV_SImmediate@@YAXPAVEmitterVariables@@AAVNuance@@@Z 00412200 f   EmitMEM.obj
 0001:00011230       ?Emit_MV_SScalar@@YAXPAVEmitterVariables@@AAVNuance@@@Z 00412230 f   EmitMEM.obj
 0001:00011290       ?Emit_MV_V@@YAXPAVEmitterVariables@@AAVNuance@@@Z 00412290 f   EmitMEM.obj
 0001:00011430       ?Emit_LoadByteAbsolute@@YAXPAVEmitterVariables@@AAVNuance@@@Z 00412430 f   EmitMEM.obj
 0001:00011480       ?Emit_LoadByteLinear@@YAXPAVEmitterVariables@@AAVNuance@@@Z 00412480 f   EmitMEM.obj
 0001:00011660       ?Emit_LoadByteBilinearXY@@YAXPAVEmitterVariables@@AAVNuance@@@Z 00412660 f   EmitMEM.obj
 0001:00011850       ?Emit_LoadByteBilinearUV@@YAXPAVEmitterVariables@@AAVNuance@@@Z 00412850 f   EmitMEM.obj
 0001:00011a40       ?Emit_LoadWordAbsolute@@YAXPAVEmitterVariables@@AAVNuance@@@Z 00412a40 f   EmitMEM.obj
 0001:00011a90       ?Emit_LoadWordLinear@@YAXPAVEmitterVariables@@AAVNuance@@@Z 00412a90 f   EmitMEM.obj
 0001:00011c80       ?Emit_LoadWordBilinearXY@@YAXPAVEmitterVariables@@AAVNuance@@@Z 00412c80 f   EmitMEM.obj
 0001:00011e80       ?Emit_LoadWordBilinearUV@@YAXPAVEmitterVariables@@AAVNuance@@@Z 00412e80 f   EmitMEM.obj
 0001:00012080       ?Emit_LoadScalarAbsolute@@YAXPAVEmitterVariables@@AAVNuance@@@Z 00413080 f   EmitMEM.obj
 0001:000120d0       ?Emit_LoadScalarLinear@@YAXPAVEmitterVariables@@AAVNuance@@@Z 004130d0 f   EmitMEM.obj
 0001:00012240       ?Emit_LoadScalarBilinearXY@@YAXPAVEmitterVariables@@AAVNuance@@@Z 00413240 f   EmitMEM.obj
 0001:000123d0       ?Emit_LoadScalarBilinearUV@@YAXPAVEmitterVariables@@AAVNuance@@@Z 004133d0 f   EmitMEM.obj
 0001:00012560       ?Emit_LoadShortVectorAbsolute@@YAXPAVEmitterVariables@@AAVNuance@@@Z 00413560 f   EmitMEM.obj
 0001:00012680       ?Emit_LoadShortVectorLinear@@YAXPAVEmitterVariables@@AAVNuance@@@Z 00413680 f   EmitMEM.obj
 0001:00012820       ?Emit_LoadShortVectorBilinearXY@@YAXPAVEmitterVariables@@AAVNuance@@@Z 00413820 f   EmitMEM.obj
 0001:00012a80       ?Emit_LoadShortVectorBilinearUV@@YAXPAVEmitterVariables@@AAVNuance@@@Z 00413a80 f   EmitMEM.obj
 0001:00012ce0       ?Emit_LoadVectorAbsolute@@YAXPAVEmitterVariables@@AAVNuance@@@Z 00413ce0 f   EmitMEM.obj
 0001:00012dc0       ?Emit_LoadVectorLinear@@YAXPAVEmitterVariables@@AAVNuance@@@Z 00413dc0 f   EmitMEM.obj
 0001:00012fc0       ?Emit_LoadVectorBilinearXY@@YAXPAVEmitterVariables@@AAVNuance@@@Z 00413fc0 f   EmitMEM.obj
 0001:000131e0       ?Emit_LoadVectorBilinearUV@@YAXPAVEmitterVariables@@AAVNuance@@@Z 004141e0 f   EmitMEM.obj
 0001:00013400       ?Emit_LoadPixelAbsolute@@YAXPAVEmitterVariables@@AAVNuance@@@Z 00414400 f   EmitMEM.obj
 0001:000134b0       ?Emit_LoadPixelZAbsolute@@YAXPAVEmitterVariables@@AAVNuance@@@Z 004144b0 f   EmitMEM.obj
 0001:00013560       ?Emit_LoadPixelLinear@@YAXPAVEmitterVariables@@AAVNuance@@@Z 00414560 f   EmitMEM.obj
 0001:00013690       ?Emit_LoadPixelZLinear@@YAXPAVEmitterVariables@@AAVNuance@@@Z 00414690 f   EmitMEM.obj
 0001:000137c0       ?Emit_LoadPixelBilinearUV@@YAXPAVEmitterVariables@@AAVNuance@@@Z 004147c0 f   EmitMEM.obj
 0001:00013990       ?Emit_LoadPixelZBilinearUV@@YAXPAVEmitterVariables@@AAVNuance@@@Z 00414990 f   EmitMEM.obj
 0001:00013b60       ?Emit_LoadPixelBilinearXY@@YAXPAVEmitterVariables@@AAVNuance@@@Z 00414b60 f   EmitMEM.obj
 0001:00013d30       ?Emit_LoadPixelZBilinearXY@@YAXPAVEmitterVariables@@AAVNuance@@@Z 00414d30 f   EmitMEM.obj
 0001:00013f00       ?Emit_StoreScalarImmediate@@YAXPAVEmitterVariables@@AAVNuance@@@Z 00414f00 f   EmitMEM.obj
 0001:00013f40       ?Emit_StoreScalarAbsolute@@YAXPAVEmitterVariables@@AAVNuance@@@Z 00414f40 f   EmitMEM.obj
 0001:00013fa0       ?Emit_StoreScalarLinear@@YAXPAVEmitterVariables@@AAVNuance@@@Z 00414fa0 f   EmitMEM.obj
 0001:00014110       ?Emit_StoreScalarBilinearXY@@YAXPAVEmitterVariables@@AAVNuance@@@Z 00415110 f   EmitMEM.obj
 0001:000142b0       ?Emit_StoreScalarBilinearUV@@YAXPAVEmitterVariables@@AAVNuance@@@Z 004152b0 f   EmitMEM.obj
 0001:00014450       ?Emit_StoreShortVectorAbsolute@@YAXPAVEmitterVariables@@AAVNuance@@@Z 00415450 f   EmitMEM.obj
 0001:000145a0       ?Emit_StoreShortVectorLinear@@YAXPAVEmitterVariables@@AAVNuance@@@Z 004155a0 f   EmitMEM.obj
 0001:00014770       ?Emit_StoreShortVectorBilinearXY@@YAXPAVEmitterVariables@@AAVNuance@@@Z 00415770 f   EmitMEM.obj
 0001:00014a10       ?Emit_StoreShortVectorBilinearUV@@YAXPAVEmitterVariables@@AAVNuance@@@Z 00415a10 f   EmitMEM.obj
 0001:00014cb0       ?Emit_StoreVectorAbsolute@@YAXPAVEmitterVariables@@AAVNuance@@@Z 00415cb0 f   EmitMEM.obj
 0001:00014e00       ?Emit_StoreVectorLinear@@YAXPAVEmitterVariables@@AAVNuance@@@Z 00415e00 f   EmitMEM.obj
 0001:00015070       ?Emit_StorePixelAbsolute@@YAXPAVEmitterVariables@@AAVNuance@@@Z 00416070 f   EmitMEM.obj
 0001:00015100       ?Emit_StoreVectorBilinearXY@@YAXPAVEmitterVariables@@AAVNuance@@@Z 00416100 f   EmitMEM.obj
 0001:000153a0       ?Emit_StoreVectorBilinearUV@@YAXPAVEmitterVariables@@AAVNuance@@@Z 004163a0 f   EmitMEM.obj
 0001:00015640       ?Emit_StorePixelZAbsolute@@YAXPAVEmitterVariables@@AAVNuance@@@Z 00416640 f   EmitMEM.obj
 0001:000156d0       ?Emit_StorePixelLinear@@YAXPAVEmitterVariables@@AAVNuance@@@Z 004166d0 f   EmitMEM.obj
 0001:000157e0       ?Emit_StorePixelZLinear@@YAXPAVEmitterVariables@@AAVNuance@@@Z 004167e0 f   EmitMEM.obj
 0001:00015980       ?Emit_StorePixelBilinearUV@@YAXPAVEmitterVariables@@AAVNuance@@@Z 00416980 f   EmitMEM.obj
 0001:00015b20       ?Emit_StorePixelZBilinearUV@@YAXPAVEmitterVariables@@AAVNuance@@@Z 00416b20 f   EmitMEM.obj
 0001:00015cc0       ?Emit_StorePixelBilinearXY@@YAXPAVEmitterVariables@@AAVNuance@@@Z 00416cc0 f   EmitMEM.obj
 0001:00015e60       ?Emit_StorePixelZBilinearXY@@YAXPAVEmitterVariables@@AAVNuance@@@Z 00416e60 f   EmitMEM.obj
 0001:00016000       ?Emit_PushVector@@YAXPAVEmitterVariables@@AAVNuance@@@Z 00417000 f   EmitMEM.obj
 0001:000161a0       ?Emit_PushVectorRz@@YAXPAVEmitterVariables@@AAVNuance@@@Z 004171a0 f   EmitMEM.obj
 0001:00016340       ?Emit_PushScalarRzi1@@YAXPAVEmitterVariables@@AAVNuance@@@Z 00417340 f   EmitMEM.obj
 0001:000164c0       ?Emit_PushScalarRzi2@@YAXPAVEmitterVariables@@AAVNuance@@@Z 004174c0 f   EmitMEM.obj
 0001:00016640       ?Emit_PopVector@@YAXPAVEmitterVariables@@AAVNuance@@@Z 00417640 f   EmitMEM.obj
 0001:00016780       ?Emit_PopVectorRz@@YAXPAVEmitterVariables@@AAVNuance@@@Z 00417780 f   EmitMEM.obj
 0001:000168c0       ?Emit_PopScalarRzi1@@YAXPAVEmitterVariables@@AAVNuance@@@Z 004178c0 f   EmitMEM.obj
 0001:00016a00       ?Emit_PopScalarRzi2@@YAXPAVEmitterVariables@@AAVNuance@@@Z 00417a00 f   EmitMEM.obj
 0001:00016b40       ?EmitControlRegisterLoad@@YAXPAVEmitterVariables@@IW4x86Reg@@@Z 00417b40 f   EmitMEM.obj
 0001:00016f00       ?EmitControlRegisterStore@@YAXPAVEmitterVariables@@IW4x86Reg@@@Z 00417f00 f   EmitMEM.obj
 0001:00017420       ?EmitControlRegisterStoreImmediate@@YAXPAVEmitterVariables@@II@Z 00418420 f   EmitMEM.obj
 0001:000177e0       ?Emit_LoadScalarControlRegisterAbsolute@@YAXPAVEmitterVariables@@AAVNuance@@@Z 004187e0 f   EmitMEM.obj
 0001:00017820       ?Emit_StoreScalarControlRegisterImmediate@@YAXPAVEmitterVariables@@AAVNuance@@@Z 00418820 f   EmitMEM.obj
 0001:00017840       ?Emit_StoreScalarControlRegisterAbsolute@@YAXPAVEmitterVariables@@AAVNuance@@@Z 00418840 f   EmitMEM.obj
 0001:00017890       ?Emit_ExitBlock@@YAXPAVEmitterVariables@@@Z 00418890 f   EmitMisc.obj
 0001:000178c0       ?Emit_SaveRegs@@YAXPAVEmitterVariables@@AAVNuance@@@Z 004188c0 f   EmitMisc.obj
 0001:00017ac0       ?Emit_StoreScalarRegisterConstant@@YAXPAVEmitterVariables@@AAVNuance@@@Z 00418ac0 f   EmitMisc.obj
 0001:00017b30       ?Emit_StoreMiscRegisterConstant@@YAXPAVEmitterVariables@@AAVNuance@@@Z 00418b30 f   EmitMisc.obj
 0001:00017bd0       ?Emit_ADDM@@YAXPAVEmitterVariables@@AAVNuance@@@Z 00418bd0 f   EmitMUL.obj
 0001:00017c70       ?Emit_ADDMImmediate@@YAXPAVEmitterVariables@@AAVNuance@@@Z 00418c70 f   EmitMUL.obj
 0001:00017ce0       ?Emit_SUBM@@YAXPAVEmitterVariables@@AAVNuance@@@Z 00418ce0 f   EmitMUL.obj
 0001:00017da0       ?Emit_SUBMImmediateReverse@@YAXPAVEmitterVariables@@AAVNuance@@@Z 00418da0 f   EmitMUL.obj
 0001:00017e10       ?Emit_MULScalarShiftAcshift@@YAXPAVEmitterVariables@@AAVNuance@@@Z 00418e10 f   EmitMUL.obj
 0001:00018190       ?Emit_MULScalarShiftRightImmediate@@YAXPAVEmitterVariables@@AAVNuance@@@Z 00419190 f   EmitMUL.obj
 0001:00018320       ?Emit_MULScalarShiftLeftImmediate@@YAXPAVEmitterVariables@@AAVNuance@@@Z 00419320 f   EmitMUL.obj
 0001:000184d0       ?Emit_MULImmediateShiftAcshift@@YAXPAVEmitterVariables@@AAVNuance@@@Z 004194d0 f   EmitMUL.obj
 0001:00018820       ?Emit_MULScalarShiftScalar@@YAXPAVEmitterVariables@@AAVNuance@@@Z 00419820 f   EmitMUL.obj
 0001:00018bc0       ?Emit_MULImmediateShiftScalar@@YAXPAVEmitterVariables@@AAVNuance@@@Z 00419bc0 f   EmitMUL.obj
 0001:00018f20       ?Emit_MULImmediateShiftRightImmediate@@YAXPAVEmitterVariables@@AAVNuance@@@Z 00419f20 f   EmitMUL.obj
 0001:00019090       ?Emit_MULImmediateShiftLeftImmediate@@YAXPAVEmitterVariables@@AAVNuance@@@Z 0041a090 f   EmitMUL.obj
 0001:00019220       ?Emit_MUL_SVImmediateShiftImmediate@@YAXPAVEmitterVariables@@AAVNuance@@@Z 0041a220 f   EmitMUL.obj
 0001:00019410       ?Emit_MUL_SVScalarShiftImmediate@@YAXPAVEmitterVariables@@AAVNuance@@@Z 0041a410 f   EmitMUL.obj
 0001:00019630       ?Emit_MUL_SVScalarShiftSvshift@@YAXPAVEmitterVariables@@AAVNuance@@@Z 0041a630 f   EmitMUL.obj
 0001:000198b0       ?Emit_MUL_SVRuShiftImmediate@@YAXPAVEmitterVariables@@AAVNuance@@@Z 0041a8b0 f   EmitMUL.obj
 0001:00019b20       ?Emit_MUL_SVRuShiftSvshift@@YAXPAVEmitterVariables@@AAVNuance@@@Z 0041ab20 f   EmitMUL.obj
 0001:00019de0       ?Emit_MUL_SVRvShiftImmediate@@YAXPAVEmitterVariables@@AAVNuance@@@Z 0041ade0 f   EmitMUL.obj
 0001:0001a050       ?Emit_MUL_SVRvShiftSvshift@@YAXPAVEmitterVariables@@AAVNuance@@@Z 0041b050 f   EmitMUL.obj
 0001:0001a310       ?Emit_MUL_SVVectorShiftImmediate@@YAXPAVEmitterVariables@@AAVNuance@@@Z 0041b310 f   EmitMUL.obj
 0001:0001a660       ?Emit_MUL_SVVectorShiftSvshift@@YAXPAVEmitterVariables@@AAVNuance@@@Z 0041b660 f   EmitMUL.obj
 0001:0001a9d0       ?Emit_MUL_PImmediateShiftImmediate@@YAXPAVEmitterVariables@@AAVNuance@@@Z 0041b9d0 f   EmitMUL.obj
 0001:0001ab60       ?Emit_MUL_PScalarShiftImmediate@@YAXPAVEmitterVariables@@AAVNuance@@@Z 0041bb60 f   EmitMUL.obj
 0001:0001ad20       ?Emit_MUL_PScalarShiftSvshift@@YAXPAVEmitterVariables@@AAVNuance@@@Z 0041bd20 f   EmitMUL.obj
 0001:0001af20       ?Emit_MUL_PRuShiftImmediate@@YAXPAVEmitterVariables@@AAVNuance@@@Z 0041bf20 f   EmitMUL.obj
 0001:0001b120       ?Emit_MUL_PRuShiftSvshift@@YAXPAVEmitterVariables@@AAVNuance@@@Z 0041c120 f   EmitMUL.obj
 0001:0001b360       ?Emit_MUL_PRvShiftImmediate@@YAXPAVEmitterVariables@@AAVNuance@@@Z 0041c360 f   EmitMUL.obj
 0001:0001b560       ?Emit_MUL_PRvShiftSvshift@@YAXPAVEmitterVariables@@AAVNuance@@@Z 0041c560 f   EmitMUL.obj
 0001:0001b7a0       ?Emit_MUL_PVectorShiftImmediate@@YAXPAVEmitterVariables@@AAVNuance@@@Z 0041c7a0 f   EmitMUL.obj
 0001:0001ba00       ?Emit_MUL_PVectorShiftSvshift@@YAXPAVEmitterVariables@@AAVNuance@@@Z 0041ca00 f   EmitMUL.obj
 0001:0001bc90       ?Emit_DOTPScalarShiftImmediate@@YAXPAVEmitterVariables@@AAVNuance@@@Z 0041cc90 f   EmitMUL.obj
 0001:0001be80       ?Emit_DOTPScalarShiftSvshift@@YAXPAVEmitterVariables@@AAVNuance@@@Z 0041ce80 f   EmitMUL.obj
 0001:0001c0b0       ?Emit_DOTPVectorShiftImmediate@@YAXPAVEmitterVariables@@AAVNuance@@@Z 0041d0b0 f   EmitMUL.obj
 0001:0001c380       ?Emit_DOTPVectorShiftSvshift@@YAXPAVEmitterVariables@@AAVNuance@@@Z 0041d380 f   EmitMUL.obj
 0001:0001c690       ?Emit_DECRc0@@YAXPAVEmitterVariables@@AAVNuance@@@Z 0041d690 f   EmitRCU.obj
 0001:0001c750       ?Emit_DECRc1@@YAXPAVEmitterVariables@@AAVNuance@@@Z 0041d750 f   EmitRCU.obj
 0001:0001c810       ?Emit_DECBoth@@YAXPAVEmitterVariables@@AAVNuance@@@Z 0041d810 f   EmitRCU.obj
 0001:0001c830       ?Emit_ADDRImmediateOnly@@YAXPAVEmitterVariables@@AAVNuance@@@Z 0041d830 f   EmitRCU.obj
 0001:0001c8b0       ?Emit_ADDRImmediate@@YAXPAVEmitterVariables@@AAVNuance@@@Z 0041d8b0 f   EmitRCU.obj
 0001:0001c8f0       ?Emit_ADDRScalarOnly@@YAXPAVEmitterVariables@@AAVNuance@@@Z 0041d8f0 f   EmitRCU.obj
 0001:0001c990       ?Emit_ADDRScalar@@YAXPAVEmitterVariables@@AAVNuance@@@Z 0041d990 f   EmitRCU.obj
 0001:0001c9d0       ?Emit_MVRImmediateOnly@@YAXPAVEmitterVariables@@AAVNuance@@@Z 0041d9d0 f   EmitRCU.obj
 0001:0001ca00       ?Emit_MVRImmediate@@YAXPAVEmitterVariables@@AAVNuance@@@Z 0041da00 f   EmitRCU.obj
 0001:0001ca60       ?Emit_MVRScalarOnly@@YAXPAVEmitterVariables@@AAVNuance@@@Z 0041da60 f   EmitRCU.obj
 0001:0001cac0       ?Emit_MVRScalar@@YAXPAVEmitterVariables@@AAVNuance@@@Z 0041dac0 f   EmitRCU.obj
 0001:0001cb00       ?Emit_RangeOnly@@YAXPAVEmitterVariables@@AAVNuance@@@Z 0041db00 f   EmitRCU.obj
 0001:0001cd20       ?Emit_Range@@YAXPAVEmitterVariables@@AAVNuance@@@Z 0041dd20 f   EmitRCU.obj
 0001:0001cd60       ?Emit_ModuloOnly@@YAXPAVEmitterVariables@@AAVNuance@@@Z 0041dd60 f   EmitRCU.obj
 0001:0001cda0       ?Emit_Modulo@@YAXPAVEmitterVariables@@AAVNuance@@@Z 0041dda0 f   EmitRCU.obj
 0001:0001ce00       ?Execute_ABS@@YAXAAVMPE@@AAVInstructionCacheEntry@@AAVNuance@@@Z 0041de00 f   ExecuteALU.obj
 0001:0001ce60       ?Execute_BITSScalar@@YAXAAVMPE@@AAVInstructionCacheEntry@@AAVNuance@@@Z 0041de60 f   ExecuteALU.obj
 0001:0001ceb0       ?Execute_BITSImmediate@@YAXAAVMPE@@AAVInstructionCacheEntry@@AAVNuance@@@Z 0041deb0 f   ExecuteALU.obj
 0001:0001cf00       ?Execute_BTST@@YAXAAVMPE@@AAVInstructionCacheEntry@@AAVNuance@@@Z 0041df00 f   ExecuteALU.obj
 0001:0001cf40       ?Execute_BUTT@@YAXAAVMPE@@AAVInstructionCacheEntry@@AAVNuance@@@Z 0041df40 f   ExecuteALU.obj
 0001:0001cfd0       ?Execute_COPY@@YAXAAVMPE@@AAVInstructionCacheEntry@@AAVNuance@@@Z 0041dfd0 f   ExecuteALU.obj
 0001:0001d010       ?Execute_MSB@@YAXAAVMPE@@AAVInstructionCacheEntry@@AAVNuance@@@Z 0041e010 f   ExecuteALU.obj
 0001:0001d0b0       ?Execute_SAT@@YAXAAVMPE@@AAVInstructionCacheEntry@@AAVNuance@@@Z 0041e0b0 f   ExecuteALU.obj
 0001:0001d120       ?Execute_AS@@YAXAAVMPE@@AAVInstructionCacheEntry@@AAVNuance@@@Z 0041e120 f   ExecuteALU.obj
 0001:0001d1e0       ?Execute_ASL@@YAXAAVMPE@@AAVInstructionCacheEntry@@AAVNuance@@@Z 0041e1e0 f   ExecuteALU.obj
 0001:0001d240       ?Execute_ASR@@YAXAAVMPE@@AAVInstructionCacheEntry@@AAVNuance@@@Z 0041e240 f   ExecuteALU.obj
 0001:0001d2a0       ?Execute_LS@@YAXAAVMPE@@AAVInstructionCacheEntry@@AAVNuance@@@Z 0041e2a0 f   ExecuteALU.obj
 0001:0001d360       ?Execute_LSR@@YAXAAVMPE@@AAVInstructionCacheEntry@@AAVNuance@@@Z 0041e360 f   ExecuteALU.obj
 0001:0001d3c0       ?Execute_ROT@@YAXAAVMPE@@AAVInstructionCacheEntry@@AAVNuance@@@Z 0041e3c0 f   ExecuteALU.obj
 0001:0001d430       ?Execute_ROL@@YAXAAVMPE@@AAVInstructionCacheEntry@@AAVNuance@@@Z 0041e430 f   ExecuteALU.obj
 0001:0001d480       ?Execute_ROR@@YAXAAVMPE@@AAVInstructionCacheEntry@@AAVNuance@@@Z 0041e480 f   ExecuteALU.obj
 0001:0001d4d0       ?Execute_ADD_P@@YAXAAVMPE@@AAVInstructionCacheEntry@@AAVNuance@@@Z 0041e4d0 f   ExecuteALU.obj
 0001:0001d550       ?Execute_SUB_P@@YAXAAVMPE@@AAVInstructionCacheEntry@@AAVNuance@@@Z 0041e550 f   ExecuteALU.obj
 0001:0001d5d0       ?Execute_ADD_SV@@YAXAAVMPE@@AAVInstructionCacheEntry@@AAVNuance@@@Z 0041e5d0 f   ExecuteALU.obj
 0001:0001d660       ?Execute_SUB_SV@@YAXAAVMPE@@AAVInstructionCacheEntry@@AAVNuance@@@Z 0041e660 f   ExecuteALU.obj
 0001:0001d6f0       ?Execute_ADDImmediate@@YAXAAVMPE@@AAVInstructionCacheEntry@@AAVNuance@@@Z 0041e6f0 f   ExecuteALU.obj
 0001:0001d780       ?Execute_ADDScalar@@YAXAAVMPE@@AAVInstructionCacheEntry@@AAVNuance@@@Z 0041e780 f   ExecuteALU.obj
 0001:0001d820       ?Execute_ADDScalarShiftRightImmediate@@YAXAAVMPE@@AAVInstructionCacheEntry@@AAVNuance@@@Z 0041e820 f   ExecuteALU.obj
 0001:0001d8c0       ?Execute_ADDScalarShiftLeftImmediate@@YAXAAVMPE@@AAVInstructionCacheEntry@@AAVNuance@@@Z 0041e8c0 f   ExecuteALU.obj
 0001:0001d960       ?Execute_SUBImmediate@@YAXAAVMPE@@AAVInstructionCacheEntry@@AAVNuance@@@Z 0041e960 f   ExecuteALU.obj
 0001:0001d9f0       ?Execute_SUBImmediateReverse@@YAXAAVMPE@@AAVInstructionCacheEntry@@AAVNuance@@@Z 0041e9f0 f   ExecuteALU.obj
 0001:0001da80       ?Execute_SUBScalar@@YAXAAVMPE@@AAVInstructionCacheEntry@@AAVNuance@@@Z 0041ea80 f   ExecuteALU.obj
 0001:0001db20       ?Execute_SUBScalarShiftRightImmediate@@YAXAAVMPE@@AAVInstructionCacheEntry@@AAVNuance@@@Z 0041eb20 f   ExecuteALU.obj
 0001:0001dbc0       ?Execute_SUBScalarShiftLeftImmediate@@YAXAAVMPE@@AAVInstructionCacheEntry@@AAVNuance@@@Z 0041ebc0 f   ExecuteALU.obj
 0001:0001dc60       ?Execute_CMPImmediate@@YAXAAVMPE@@AAVInstructionCacheEntry@@AAVNuance@@@Z 0041ec60 f   ExecuteALU.obj
 0001:0001dce0       ?Execute_CMPImmediateReverse@@YAXAAVMPE@@AAVInstructionCacheEntry@@AAVNuance@@@Z 0041ece0 f   ExecuteALU.obj
 0001:0001dd60       ?Execute_CMPScalar@@YAXAAVMPE@@AAVInstructionCacheEntry@@AAVNuance@@@Z 0041ed60 f   ExecuteALU.obj
 0001:0001ddf0       ?Execute_CMPScalarShiftRightImmediate@@YAXAAVMPE@@AAVInstructionCacheEntry@@AAVNuance@@@Z 0041edf0 f   ExecuteALU.obj
 0001:0001de80       ?Execute_CMPScalarShiftLeftImmediate@@YAXAAVMPE@@AAVInstructionCacheEntry@@AAVNuance@@@Z 0041ee80 f   ExecuteALU.obj
 0001:0001df10       ?Execute_ANDImmediate@@YAXAAVMPE@@AAVInstructionCacheEntry@@AAVNuance@@@Z 0041ef10 f   ExecuteALU.obj
 0001:0001df50       ?Execute_ANDScalar@@YAXAAVMPE@@AAVInstructionCacheEntry@@AAVNuance@@@Z 0041ef50 f   ExecuteALU.obj
 0001:0001dfa0       ?Execute_ANDImmediateShiftScalar@@YAXAAVMPE@@AAVInstructionCacheEntry@@AAVNuance@@@Z 0041efa0 f   ExecuteALU.obj
 0001:0001e010       ?Execute_ANDScalarShiftRightImmediate@@YAXAAVMPE@@AAVInstructionCacheEntry@@AAVNuance@@@Z 0041f010 f   ExecuteALU.obj
 0001:0001e060       ?Execute_ANDScalarShiftLeftImmediate@@YAXAAVMPE@@AAVInstructionCacheEntry@@AAVNuance@@@Z 0041f060 f   ExecuteALU.obj
 0001:0001e0b0       ?Execute_ANDScalarShiftScalar@@YAXAAVMPE@@AAVInstructionCacheEntry@@AAVNuance@@@Z 0041f0b0 f   ExecuteALU.obj
 0001:0001e120       ?Execute_ANDScalarRotateScalar@@YAXAAVMPE@@AAVInstructionCacheEntry@@AAVNuance@@@Z 0041f120 f   ExecuteALU.obj
 0001:0001e190       ?Execute_FTSTImmediate@@YAXAAVMPE@@AAVInstructionCacheEntry@@AAVNuance@@@Z 0041f190 f   ExecuteALU.obj
 0001:0001e1e0       ?Execute_FTSTScalar@@YAXAAVMPE@@AAVInstructionCacheEntry@@AAVNuance@@@Z 0041f1e0 f   ExecuteALU.obj
 0001:0001e230       ?Execute_FTSTImmediateShiftScalar@@YAXAAVMPE@@AAVInstructionCacheEntry@@AAVNuance@@@Z 0041f230 f   ExecuteALU.obj
 0001:0001e2a0       ?Execute_FTSTScalarShiftRightImmediate@@YAXAAVMPE@@AAVInstructionCacheEntry@@AAVNuance@@@Z 0041f2a0 f   ExecuteALU.obj
 0001:0001e300       ?Execute_FTSTScalarShiftLeftImmediate@@YAXAAVMPE@@AAVInstructionCacheEntry@@AAVNuance@@@Z 0041f300 f   ExecuteALU.obj
 0001:0001e360       ?Execute_FTSTScalarShiftScalar@@YAXAAVMPE@@AAVInstructionCacheEntry@@AAVNuance@@@Z 0041f360 f   ExecuteALU.obj
 0001:0001e3e0       ?Execute_FTSTScalarRotateScalar@@YAXAAVMPE@@AAVInstructionCacheEntry@@AAVNuance@@@Z 0041f3e0 f   ExecuteALU.obj
 0001:0001e450       ?Execute_ORImmediate@@YAXAAVMPE@@AAVInstructionCacheEntry@@AAVNuance@@@Z 0041f450 f   ExecuteALU.obj
 0001:0001e490       ?Execute_ORScalar@@YAXAAVMPE@@AAVInstructionCacheEntry@@AAVNuance@@@Z 0041f490 f   ExecuteALU.obj
 0001:0001e4e0       ?Execute_ORImmediateShiftScalar@@YAXAAVMPE@@AAVInstructionCacheEntry@@AAVNuance@@@Z 0041f4e0 f   ExecuteALU.obj
 0001:0001e550       ?Execute_ORScalarShiftRightImmediate@@YAXAAVMPE@@AAVInstructionCacheEntry@@AAVNuance@@@Z 0041f550 f   ExecuteALU.obj
 0001:0001e5a0       ?Execute_ORScalarShiftLeftImmediate@@YAXAAVMPE@@AAVInstructionCacheEntry@@AAVNuance@@@Z 0041f5a0 f   ExecuteALU.obj
 0001:0001e5f0       ?Execute_ORScalarShiftScalar@@YAXAAVMPE@@AAVInstructionCacheEntry@@AAVNuance@@@Z 0041f5f0 f   ExecuteALU.obj
 0001:0001e660       ?Execute_ORScalarRotateScalar@@YAXAAVMPE@@AAVInstructionCacheEntry@@AAVNuance@@@Z 0041f660 f   ExecuteALU.obj
 0001:0001e6d0       ?Execute_EORImmediate@@YAXAAVMPE@@AAVInstructionCacheEntry@@AAVNuance@@@Z 0041f6d0 f   ExecuteALU.obj
 0001:0001e710       ?Execute_EORScalar@@YAXAAVMPE@@AAVInstructionCacheEntry@@AAVNuance@@@Z 0041f710 f   ExecuteALU.obj
 0001:0001e760       ?Execute_EORImmediateShiftScalar@@YAXAAVMPE@@AAVInstructionCacheEntry@@AAVNuance@@@Z 0041f760 f   ExecuteALU.obj
 0001:0001e7d0       ?Execute_EORScalarShiftRightImmediate@@YAXAAVMPE@@AAVInstructionCacheEntry@@AAVNuance@@@Z 0041f7d0 f   ExecuteALU.obj
 0001:0001e820       ?Execute_EORScalarShiftLeftImmediate@@YAXAAVMPE@@AAVInstructionCacheEntry@@AAVNuance@@@Z 0041f820 f   ExecuteALU.obj
 0001:0001e870       ?Execute_EORScalarShiftScalar@@YAXAAVMPE@@AAVInstructionCacheEntry@@AAVNuance@@@Z 0041f870 f   ExecuteALU.obj
 0001:0001e8e0       ?Execute_EORScalarRotateScalar@@YAXAAVMPE@@AAVInstructionCacheEntry@@AAVNuance@@@Z 0041f8e0 f   ExecuteALU.obj
 0001:0001e950       ?Execute_ADDWCImmediate@@YAXAAVMPE@@AAVInstructionCacheEntry@@AAVNuance@@@Z 0041f950 f   ExecuteALU.obj
 0001:0001ea00       ?Execute_ADDWCScalar@@YAXAAVMPE@@AAVInstructionCacheEntry@@AAVNuance@@@Z 0041fa00 f   ExecuteALU.obj
 0001:0001eab0       ?Execute_ADDWCScalarShiftRightImmediate@@YAXAAVMPE@@AAVInstructionCacheEntry@@AAVNuance@@@Z 0041fab0 f   ExecuteALU.obj
 0001:0001eb80       ?Execute_ADDWCScalarShiftLeftImmediate@@YAXAAVMPE@@AAVInstructionCacheEntry@@AAVNuance@@@Z 0041fb80 f   ExecuteALU.obj
 0001:0001ec30       ?Execute_SUBWCImmediate@@YAXAAVMPE@@AAVInstructionCacheEntry@@AAVNuance@@@Z 0041fc30 f   ExecuteALU.obj
 0001:0001ece0       ?Execute_SUBWCImmediateReverse@@YAXAAVMPE@@AAVInstructionCacheEntry@@AAVNuance@@@Z 0041fce0 f   ExecuteALU.obj
 0001:0001ed90       ?Execute_SUBWCScalar@@YAXAAVMPE@@AAVInstructionCacheEntry@@AAVNuance@@@Z 0041fd90 f   ExecuteALU.obj
 0001:0001ee40       ?Execute_SUBWCScalarShiftRightImmediate@@YAXAAVMPE@@AAVInstructionCacheEntry@@AAVNuance@@@Z 0041fe40 f   ExecuteALU.obj
 0001:0001ef00       ?Execute_SUBWCScalarShiftLeftImmediate@@YAXAAVMPE@@AAVInstructionCacheEntry@@AAVNuance@@@Z 0041ff00 f   ExecuteALU.obj
 0001:0001efc0       ?Execute_CMPWCImmediate@@YAXAAVMPE@@AAVInstructionCacheEntry@@AAVNuance@@@Z 0041ffc0 f   ExecuteALU.obj
 0001:0001f050       ?Execute_CMPWCImmediateReverse@@YAXAAVMPE@@AAVInstructionCacheEntry@@AAVNuance@@@Z 00420050 f   ExecuteALU.obj
 0001:0001f0e0       ?Execute_CMPWCScalar@@YAXAAVMPE@@AAVInstructionCacheEntry@@AAVNuance@@@Z 004200e0 f   ExecuteALU.obj
 0001:0001f180       ?Execute_CMPWCScalarShiftRightImmediate@@YAXAAVMPE@@AAVInstructionCacheEntry@@AAVNuance@@@Z 00420180 f   ExecuteALU.obj
 0001:0001f230       ?Execute_CMPWCScalarShiftLeftImmediate@@YAXAAVMPE@@AAVInstructionCacheEntry@@AAVNuance@@@Z 00420230 f   ExecuteALU.obj
 0001:0001f2d0       ?Execute_Halt@@YAXAAVMPE@@AAVInstructionCacheEntry@@AAVNuance@@@Z 004202d0 f   ExecuteECU.obj
 0001:0001f320       ?Execute_BRAAlways@@YAXAAVMPE@@AAVInstructionCacheEntry@@AAVNuance@@@Z 00420320 f   ExecuteECU.obj
 0001:0001f350       ?Execute_BRAAlways_NOP@@YAXAAVMPE@@AAVInstructionCacheEntry@@AAVNuance@@@Z 00420350 f   ExecuteECU.obj
 0001:0001f380       ?Execute_BRAConditional@@YAXAAVMPE@@AAVInstructionCacheEntry@@AAVNuance@@@Z 00420380 f   ExecuteECU.obj
 0001:0001f3c0       ?Execute_BRAConditional_NOP@@YAXAAVMPE@@AAVInstructionCacheEntry@@AAVNuance@@@Z 004203c0 f   ExecuteECU.obj
 0001:0001f400       ?Execute_JMPAlwaysIndirect@@YAXAAVMPE@@AAVInstructionCacheEntry@@AAVNuance@@@Z 00420400 f   ExecuteECU.obj
 0001:0001f430       ?Execute_JMPAlwaysIndirect_NOP@@YAXAAVMPE@@AAVInstructionCacheEntry@@AAVNuance@@@Z 00420430 f   ExecuteECU.obj
 0001:0001f460       ?Execute_JMPConditionalIndirect@@YAXAAVMPE@@AAVInstructionCacheEntry@@AAVNuance@@@Z 00420460 f   ExecuteECU.obj
 0001:0001f4b0       ?Execute_JMPConditionalIndirect_NOP@@YAXAAVMPE@@AAVInstructionCacheEntry@@AAVNuance@@@Z 004204b0 f   ExecuteECU.obj
 0001:0001f500       ?Execute_JSRAlways@@YAXAAVMPE@@AAVInstructionCacheEntry@@AAVNuance@@@Z 00420500 f   ExecuteECU.obj
 0001:0001f530       ?Execute_JSRAlways_NOP@@YAXAAVMPE@@AAVInstructionCacheEntry@@AAVNuance@@@Z 00420530 f   ExecuteECU.obj
 0001:0001f560       ?Execute_JSRConditional@@YAXAAVMPE@@AAVInstructionCacheEntry@@AAVNuance@@@Z 00420560 f   ExecuteECU.obj
 0001:0001f5b0       ?Execute_JSRConditional_NOP@@YAXAAVMPE@@AAVInstructionCacheEntry@@AAVNuance@@@Z 004205b0 f   ExecuteECU.obj
 0001:0001f600       ?Execute_JSRAlwaysIndirect@@YAXAAVMPE@@AAVInstructionCacheEntry@@AAVNuance@@@Z 00420600 f   ExecuteECU.obj
 0001:0001f640       ?Execute_JSRAlwaysIndirect_NOP@@YAXAAVMPE@@AAVInstructionCacheEntry@@AAVNuance@@@Z 00420640 f   ExecuteECU.obj
 0001:0001f680       ?Execute_JSRConditionalIndirect@@YAXAAVMPE@@AAVInstructionCacheEntry@@AAVNuance@@@Z 00420680 f   ExecuteECU.obj
 0001:0001f6d0       ?Execute_JSRConditionalIndirect_NOP@@YAXAAVMPE@@AAVInstructionCacheEntry@@AAVNuance@@@Z 004206d0 f   ExecuteECU.obj
 0001:0001f720       ?Execute_RTSAlways@@YAXAAVMPE@@AAVInstructionCacheEntry@@AAVNuance@@@Z 00420720 f   ExecuteECU.obj
 0001:0001f750       ?Execute_RTSAlways_NOP@@YAXAAVMPE@@AAVInstructionCacheEntry@@AAVNuance@@@Z 00420750 f   ExecuteECU.obj
 0001:0001f780       ?Execute_RTSConditional@@YAXAAVMPE@@AAVInstructionCacheEntry@@AAVNuance@@@Z 00420780 f   ExecuteECU.obj
 0001:0001f7c0       ?Execute_RTSConditional_NOP@@YAXAAVMPE@@AAVInstructionCacheEntry@@AAVNuance@@@Z 004207c0 f   ExecuteECU.obj
 0001:0001f800       ?Execute_RTI1Conditional@@YAXAAVMPE@@AAVInstructionCacheEntry@@AAVNuance@@@Z 00420800 f   ExecuteECU.obj
 0001:0001f850       ?Execute_RTI1Conditional_NOP@@YAXAAVMPE@@AAVInstructionCacheEntry@@AAVNuance@@@Z 00420850 f   ExecuteECU.obj
 0001:0001f8a0       ?Execute_RTI2Conditional@@YAXAAVMPE@@AAVInstructionCacheEntry@@AAVNuance@@@Z 004208a0 f   ExecuteECU.obj
 0001:0001f8f0       ?Execute_RTI2Conditional_NOP@@YAXAAVMPE@@AAVInstructionCacheEntry@@AAVNuance@@@Z 004208f0 f   ExecuteECU.obj
 0001:0001f940       ?SaturateColorComponents@@YAXPAI00_N@Z 00420940 f i ExecuteMEM.obj
 0001:0001fab0       ?CalculateBilinearAddress@@YAXAAVMPE@@PAIIII@Z 00420ab0 f i ExecuteMEM.obj
 0001:0001fb90       ?GetBilinearAddress@@YAXXZ 00420b90 f   ExecuteMEM.obj
 0001:0001fcd0       ?Execute_Mirror@@YAXAAVMPE@@AAVInstructionCacheEntry@@AAVNuance@@@Z 00420cd0 f   ExecuteMEM.obj
 0001:0001fd50       ?Execute_MV_SImmediate@@YAXAAVMPE@@AAVInstructionCacheEntry@@AAVNuance@@@Z 00420d50 f   ExecuteMEM.obj
 0001:0001fd70       ?Execute_MV_SScalar@@YAXAAVMPE@@AAVInstructionCacheEntry@@AAVNuance@@@Z 00420d70 f   ExecuteMEM.obj
 0001:0001fd90       ?Execute_MV_V@@YAXAAVMPE@@AAVInstructionCacheEntry@@AAVNuance@@@Z 00420d90 f   ExecuteMEM.obj
 0001:0001fde0       ?Execute_PopVector@@YAXAAVMPE@@AAVInstructionCacheEntry@@AAVNuance@@@Z 00420de0 f   ExecuteMEM.obj
 0001:0001fe50       ?Execute_PopVectorRz@@YAXAAVMPE@@AAVInstructionCacheEntry@@AAVNuance@@@Z 00420e50 f   ExecuteMEM.obj
 0001:0001fed0       ?Execute_PopScalarRzi1@@YAXAAVMPE@@AAVInstructionCacheEntry@@AAVNuance@@@Z 00420ed0 f   ExecuteMEM.obj
 0001:0001ff50       ?Execute_PopScalarRzi2@@YAXAAVMPE@@AAVInstructionCacheEntry@@AAVNuance@@@Z 00420f50 f   ExecuteMEM.obj
 0001:0001ffd0       ?Execute_PushVector@@YAXAAVMPE@@AAVInstructionCacheEntry@@AAVNuance@@@Z 00420fd0 f   ExecuteMEM.obj
 0001:00020050       ?Execute_PushVectorRz@@YAXAAVMPE@@AAVInstructionCacheEntry@@AAVNuance@@@Z 00421050 f   ExecuteMEM.obj
 0001:000200d0       ?Execute_PushScalarRzi1@@YAXAAVMPE@@AAVInstructionCacheEntry@@AAVNuance@@@Z 004210d0 f   ExecuteMEM.obj
 0001:00020150       ?Execute_PushScalarRzi2@@YAXAAVMPE@@AAVInstructionCacheEntry@@AAVNuance@@@Z 00421150 f   ExecuteMEM.obj
 0001:000201d0       ?Execute_LoadScalarControlRegisterAbsolute@@YAXAAVMPE@@AAVInstructionCacheEntry@@AAVNuance@@@Z 004211d0 f   ExecuteMEM.obj
 0001:00020200       ?Execute_LoadByteAbsolute@@YAXAAVMPE@@AAVInstructionCacheEntry@@AAVNuance@@@Z 00421200 f   ExecuteMEM.obj
 0001:00020220       ?Execute_LoadWordAbsolute@@YAXAAVMPE@@AAVInstructionCacheEntry@@AAVNuance@@@Z 00421220 f   ExecuteMEM.obj
 0001:00020240       ?Execute_LoadScalarAbsolute@@YAXAAVMPE@@AAVInstructionCacheEntry@@AAVNuance@@@Z 00421240 f   ExecuteMEM.obj
 0001:00020270       ?Execute_LoadScalarLinear@@YAXAAVMPE@@AAVInstructionCacheEntry@@AAVNuance@@@Z 00421270 f   ExecuteMEM.obj
 0001:000202f0       ?Execute_LoadVectorAbsolute@@YAXAAVMPE@@AAVInstructionCacheEntry@@AAVNuance@@@Z 004212f0 f   ExecuteMEM.obj
 0001:00020320       ?Execute_LoadVectorControlRegisterAbsolute@@YAXAAVMPE@@AAVInstructionCacheEntry@@AAVNuance@@@Z 00421320 f   ExecuteMEM.obj
 0001:00020390       ?LoadPixelAbsolute@@YAXXZ  00421390 f   ExecuteMEM.obj
 0001:00020500       ?Execute_LoadPixelAbsolute@@YAXAAVMPE@@AAVInstructionCacheEntry@@AAVNuance@@@Z 00421500 f   ExecuteMEM.obj
 0001:00020690       ?LoadPixelZAbsolute@@YAXXZ 00421690 f   ExecuteMEM.obj
 0001:000208b0       ?Execute_LoadPixelZAbsolute@@YAXAAVMPE@@AAVInstructionCacheEntry@@AAVNuance@@@Z 004218b0 f   ExecuteMEM.obj
 0001:00020af0       ?Execute_LoadByteLinear@@YAXAAVMPE@@AAVInstructionCacheEntry@@AAVNuance@@@Z 00421af0 f   ExecuteMEM.obj
 0001:00020b30       ?Execute_LoadByteBilinearUV@@YAXAAVMPE@@AAVInstructionCacheEntry@@AAVNuance@@@Z 00421b30 f   ExecuteMEM.obj
 0001:00020ba0       ?Execute_LoadByteBilinearXY@@YAXAAVMPE@@AAVInstructionCacheEntry@@AAVNuance@@@Z 00421ba0 f   ExecuteMEM.obj
 0001:00020c10       ?Execute_LoadWordLinear@@YAXAAVMPE@@AAVInstructionCacheEntry@@AAVNuance@@@Z 00421c10 f   ExecuteMEM.obj
 0001:00020c50       ?Execute_LoadWordBilinearUV@@YAXAAVMPE@@AAVInstructionCacheEntry@@AAVNuance@@@Z 00421c50 f   ExecuteMEM.obj
 0001:00020cd0       ?Execute_LoadWordBilinearXY@@YAXAAVMPE@@AAVInstructionCacheEntry@@AAVNuance@@@Z 00421cd0 f   ExecuteMEM.obj
 0001:00020d50       ?Execute_LoadScalarBilinearUV@@YAXAAVMPE@@AAVInstructionCacheEntry@@AAVNuance@@@Z 00421d50 f   ExecuteMEM.obj
 0001:00020dd0       ?Execute_LoadScalarBilinearXY@@YAXAAVMPE@@AAVInstructionCacheEntry@@AAVNuance@@@Z 00421dd0 f   ExecuteMEM.obj
 0001:00020e50       ?Execute_LoadShortVectorAbsolute@@YAXAAVMPE@@AAVInstructionCacheEntry@@AAVNuance@@@Z 00421e50 f   ExecuteMEM.obj
 0001:00020ed0       ?Execute_LoadShortVectorLinear@@YAXAAVMPE@@AAVInstructionCacheEntry@@AAVNuance@@@Z 00421ed0 f   ExecuteMEM.obj
 0001:00020f70       ?Execute_LoadShortVectorBilinearUV@@YAXAAVMPE@@AAVInstructionCacheEntry@@AAVNuance@@@Z 00421f70 f   ExecuteMEM.obj
 0001:00021000       ?Execute_LoadShortVectorBilinearXY@@YAXAAVMPE@@AAVInstructionCacheEntry@@AAVNuance@@@Z 00422000 f   ExecuteMEM.obj
 0001:00021090       ?Execute_LoadVectorLinear@@YAXAAVMPE@@AAVInstructionCacheEntry@@AAVNuance@@@Z 00422090 f   ExecuteMEM.obj
 0001:00021140       ?Execute_LoadVectorBilinearUV@@YAXAAVMPE@@AAVInstructionCacheEntry@@AAVNuance@@@Z 00422140 f   ExecuteMEM.obj
 0001:000211d0       ?Execute_LoadVectorBilinearXY@@YAXAAVMPE@@AAVInstructionCacheEntry@@AAVNuance@@@Z 004221d0 f   ExecuteMEM.obj
 0001:00021260       ?Execute_LoadPixelLinear@@YAXAAVMPE@@AAVInstructionCacheEntry@@AAVNuance@@@Z 00422260 f   ExecuteMEM.obj
 0001:000212c0       ?Execute_LoadPixelBilinearUV@@YAXAAVMPE@@AAVInstructionCacheEntry@@AAVNuance@@@Z 004222c0 f   ExecuteMEM.obj
 0001:00021360       ?Execute_LoadPixelBilinearXY@@YAXAAVMPE@@AAVInstructionCacheEntry@@AAVNuance@@@Z 00422360 f   ExecuteMEM.obj
 0001:00021400       ?Execute_LoadPixelZLinear@@YAXAAVMPE@@AAVInstructionCacheEntry@@AAVNuance@@@Z 00422400 f   ExecuteMEM.obj
 0001:00021460       ?Execute_LoadPixelZBilinearUV@@YAXAAVMPE@@AAVInstructionCacheEntry@@AAVNuance@@@Z 00422460 f   ExecuteMEM.obj
 0001:000214f0       ?Execute_LoadPixelZBilinearXY@@YAXAAVMPE@@AAVInstructionCacheEntry@@AAVNuance@@@Z 004224f0 f   ExecuteMEM.obj
 0001:00021580       ?Execute_StoreScalarImmediate@@YAXAAVMPE@@AAVInstructionCacheEntry@@AAVNuance@@@Z 00422580 f   ExecuteMEM.obj
 0001:000215a0       ?Execute_StoreScalarAbsolute@@YAXAAVMPE@@AAVInstructionCacheEntry@@AAVNuance@@@Z 004225a0 f   ExecuteMEM.obj
 0001:000215c0       ?Execute_StoreScalarControlRegisterImmediate@@YAXAAVMPE@@AAVInstructionCacheEntry@@AAVNuance@@@Z 004225c0 f   ExecuteMEM.obj
 0001:000215e0       ?Execute_StoreScalarLinear@@YAXAAVMPE@@AAVInstructionCacheEntry@@AAVNuance@@@Z 004225e0 f   ExecuteMEM.obj
 0001:00021670       ?Execute_StoreScalarBilinearUV@@YAXAAVMPE@@AAVInstructionCacheEntry@@AAVNuance@@@Z 00422670 f   ExecuteMEM.obj
 0001:000216f0       ?Execute_StoreScalarBilinearXY@@YAXAAVMPE@@AAVInstructionCacheEntry@@AAVNuance@@@Z 004226f0 f   ExecuteMEM.obj
 0001:00021770       ?Execute_StoreScalarControlRegisterAbsolute@@YAXAAVMPE@@AAVInstructionCacheEntry@@AAVNuance@@@Z 00422770 f   ExecuteMEM.obj
 0001:000217a0       ?Execute_StoreVectorControlRegisterAbsolute@@YAXAAVMPE@@AAVInstructionCacheEntry@@AAVNuance@@@Z 004227a0 f   ExecuteMEM.obj
 0001:00021810       ?StorePixelAbsolute@@YAXXZ 00422810 f   ExecuteMEM.obj
 0001:00021960       ?Execute_StorePixelAbsolute@@YAXAAVMPE@@AAVInstructionCacheEntry@@AAVNuance@@@Z 00422960 f   ExecuteMEM.obj
 0001:00021b00       ?StorePixelZAbsolute@@YAXXZ 00422b00 f   ExecuteMEM.obj
 0001:00021d60       ?Execute_StorePixelZAbsolute@@YAXAAVMPE@@AAVInstructionCacheEntry@@AAVNuance@@@Z 00422d60 f   ExecuteMEM.obj
 0001:00022030       ?Execute_StoreShortVectorAbsolute@@YAXAAVMPE@@AAVInstructionCacheEntry@@AAVNuance@@@Z 00423030 f   ExecuteMEM.obj
 0001:00022070       ?Execute_StoreShortVectorLinear@@YAXAAVMPE@@AAVInstructionCacheEntry@@AAVNuance@@@Z 00423070 f   ExecuteMEM.obj
 0001:000220d0       ?Execute_StoreShortVectorBilinearUV@@YAXAAVMPE@@AAVInstructionCacheEntry@@AAVNuance@@@Z 004230d0 f   ExecuteMEM.obj
 0001:00022170       ?Execute_StoreShortVectorBilinearXY@@YAXAAVMPE@@AAVInstructionCacheEntry@@AAVNuance@@@Z 00423170 f   ExecuteMEM.obj
 0001:00022210       ?Execute_StoreVectorAbsolute@@YAXAAVMPE@@AAVInstructionCacheEntry@@AAVNuance@@@Z 00423210 f   ExecuteMEM.obj
 0001:00022250       ?Execute_StoreVectorLinear@@YAXAAVMPE@@AAVInstructionCacheEntry@@AAVNuance@@@Z 00423250 f   ExecuteMEM.obj
 0001:00022320       ?Execute_StoreVectorBilinearUV@@YAXAAVMPE@@AAVInstructionCacheEntry@@AAVNuance@@@Z 00423320 f   ExecuteMEM.obj
 0001:000223c0       ?Execute_StoreVectorBilinearXY@@YAXAAVMPE@@AAVInstructionCacheEntry@@AAVNuance@@@Z 004233c0 f   ExecuteMEM.obj
 0001:00022460       ?Execute_StorePixelLinear@@YAXAAVMPE@@AAVInstructionCacheEntry@@AAVNuance@@@Z 00423460 f   ExecuteMEM.obj
 0001:000224c0       ?Execute_StorePixelBilinearUV@@YAXAAVMPE@@AAVInstructionCacheEntry@@AAVNuance@@@Z 004234c0 f   ExecuteMEM.obj
 0001:00022550       ?Execute_StorePixelBilinearXY@@YAXAAVMPE@@AAVInstructionCacheEntry@@AAVNuance@@@Z 00423550 f   ExecuteMEM.obj
 0001:000225e0       ?Execute_StorePixelZLinear@@YAXAAVMPE@@AAVInstructionCacheEntry@@AAVNuance@@@Z 004235e0 f   ExecuteMEM.obj
 0001:00022640       ?Execute_StorePixelZBilinearUV@@YAXAAVMPE@@AAVInstructionCacheEntry@@AAVNuance@@@Z 00423640 f   ExecuteMEM.obj
 0001:000226d0       ?Execute_StorePixelZBilinearXY@@YAXAAVMPE@@AAVInstructionCacheEntry@@AAVNuance@@@Z 004236d0 f   ExecuteMEM.obj
 0001:00022760       ?Execute_CheckECUSkipCounter@@YAXAAVMPE@@AAVInstructionCacheEntry@@AAVNuance@@@Z 00423760 f   ExecuteMisc.obj
 0001:00022790       ?Execute_SaveFlags@@YAXAAVMPE@@AAVInstructionCacheEntry@@AAVNuance@@@Z 00423790 f   ExecuteMisc.obj
 0001:000227b0       ?Execute_SaveRegs@@YAXAAVMPE@@AAVInstructionCacheEntry@@AAVNuance@@@Z 004237b0 f   ExecuteMisc.obj
 0001:000228a0       ?Execute_StoreScalarRegisterConstant@@YAXAAVMPE@@AAVInstructionCacheEntry@@AAVNuance@@@Z 004238a0 f   ExecuteMisc.obj
 0001:000228e0       ?Execute_StoreMiscRegisterConstant@@YAXAAVMPE@@AAVInstructionCacheEntry@@AAVNuance@@@Z 004238e0 f   ExecuteMisc.obj
 0001:00022a00       ?Execute_ADDM@@YAXAAVMPE@@AAVInstructionCacheEntry@@AAVNuance@@@Z 00423a00 f   ExecuteMUL.obj
 0001:00022a30       ?Execute_ADDMImmediate@@YAXAAVMPE@@AAVInstructionCacheEntry@@AAVNuance@@@Z 00423a30 f   ExecuteMUL.obj
 0001:00022a50       ?Execute_SUBM@@YAXAAVMPE@@AAVInstructionCacheEntry@@AAVNuance@@@Z 00423a50 f   ExecuteMUL.obj
 0001:00022a80       ?Execute_SUBMImmediateReverse@@YAXAAVMPE@@AAVInstructionCacheEntry@@AAVNuance@@@Z 00423a80 f   ExecuteMUL.obj
 0001:00022ab0       ?Execute_MULScalarShiftAcshift@@YAXAAVMPE@@AAVInstructionCacheEntry@@AAVNuance@@@Z 00423ab0 f   ExecuteMUL.obj
 0001:00022b50       ?Execute_MULScalarShiftRightImmediate@@YAXAAVMPE@@AAVInstructionCacheEntry@@AAVNuance@@@Z 00423b50 f   ExecuteMUL.obj
 0001:00022bd0       ?Execute_MULScalarShiftLeftImmediate@@YAXAAVMPE@@AAVInstructionCacheEntry@@AAVNuance@@@Z 00423bd0 f   ExecuteMUL.obj
 0001:00022c50       ?Execute_MULImmediateShiftAcshift@@YAXAAVMPE@@AAVInstructionCacheEntry@@AAVNuance@@@Z 00423c50 f   ExecuteMUL.obj
 0001:00022ce0       ?Execute_MULScalarShiftScalar@@YAXAAVMPE@@AAVInstructionCacheEntry@@AAVNuance@@@Z 00423ce0 f   ExecuteMUL.obj
 0001:00022d80       ?Execute_MULImmediateShiftScalar@@YAXAAVMPE@@AAVInstructionCacheEntry@@AAVNuance@@@Z 00423d80 f   ExecuteMUL.obj
 0001:00022e10       ?Execute_MULImmediateShiftRightImmediate@@YAXAAVMPE@@AAVInstructionCacheEntry@@AAVNuance@@@Z 00423e10 f   ExecuteMUL.obj
 0001:00022e90       ?Execute_MULImmediateShiftLeftImmediate@@YAXAAVMPE@@AAVInstructionCacheEntry@@AAVNuance@@@Z 00423e90 f   ExecuteMUL.obj
 0001:00022f10       ?Execute_MUL_SVImmediateShiftImmediate@@YAXAAVMPE@@AAVInstructionCacheEntry@@AAVNuance@@@Z 00423f10 f   ExecuteMUL.obj
 0001:00022f80       ?Execute_MUL_SVScalarShiftImmediate@@YAXAAVMPE@@AAVInstructionCacheEntry@@AAVNuance@@@Z 00423f80 f   ExecuteMUL.obj
 0001:00022ff0       ?Execute_MUL_SVScalarShiftSvshift@@YAXAAVMPE@@AAVInstructionCacheEntry@@AAVNuance@@@Z 00423ff0 f   ExecuteMUL.obj
 0001:00023070       ?Execute_MUL_SVRuShiftImmediate@@YAXAAVMPE@@AAVInstructionCacheEntry@@AAVNuance@@@Z 00424070 f   ExecuteMUL.obj
 0001:00023100       ?Execute_MUL_SVRuShiftSvshift@@YAXAAVMPE@@AAVInstructionCacheEntry@@AAVNuance@@@Z 00424100 f   ExecuteMUL.obj
 0001:00023190       ?Execute_MUL_SVRvShiftImmediate@@YAXAAVMPE@@AAVInstructionCacheEntry@@AAVNuance@@@Z 00424190 f   ExecuteMUL.obj
 0001:00023220       ?Execute_MUL_SVRvShiftSvshift@@YAXAAVMPE@@AAVInstructionCacheEntry@@AAVNuance@@@Z 00424220 f   ExecuteMUL.obj
 0001:000232b0       ?Execute_MUL_SVVectorShiftImmediate@@YAXAAVMPE@@AAVInstructionCacheEntry@@AAVNuance@@@Z 004242b0 f   ExecuteMUL.obj
 0001:00023360       ?Execute_MUL_SVVectorShiftSvshift@@YAXAAVMPE@@AAVInstructionCacheEntry@@AAVNuance@@@Z 00424360 f   ExecuteMUL.obj
 0001:00023400       ?Execute_MUL_PImmediateShiftImmediate@@YAXAAVMPE@@AAVInstructionCacheEntry@@AAVNuance@@@Z 00424400 f   ExecuteMUL.obj
 0001:00023460       ?Execute_MUL_PScalarShiftImmediate@@YAXAAVMPE@@AAVInstructionCacheEntry@@AAVNuance@@@Z 00424460 f   ExecuteMUL.obj
 0001:000234c0       ?Execute_MUL_PScalarShiftSvshift@@YAXAAVMPE@@AAVInstructionCacheEntry@@AAVNuance@@@Z 004244c0 f   ExecuteMUL.obj
 0001:00023530       ?Execute_MUL_PRuShiftImmediate@@YAXAAVMPE@@AAVInstructionCacheEntry@@AAVNuance@@@Z 00424530 f   ExecuteMUL.obj
 0001:000235b0       ?Execute_MUL_PRuShiftSvshift@@YAXAAVMPE@@AAVInstructionCacheEntry@@AAVNuance@@@Z 004245b0 f   ExecuteMUL.obj
 0001:00023630       ?Execute_MUL_PRvShiftImmediate@@YAXAAVMPE@@AAVInstructionCacheEntry@@AAVNuance@@@Z 00424630 f   ExecuteMUL.obj
 0001:000236b0       ?Execute_MUL_PRvShiftSvshift@@YAXAAVMPE@@AAVInstructionCacheEntry@@AAVNuance@@@Z 004246b0 f   ExecuteMUL.obj
 0001:00023730       ?Execute_MUL_PVectorShiftImmediate@@YAXAAVMPE@@AAVInstructionCacheEntry@@AAVNuance@@@Z 00424730 f   ExecuteMUL.obj
 0001:000237b0       ?Execute_MUL_PVectorShiftSvshift@@YAXAAVMPE@@AAVInstructionCacheEntry@@AAVNuance@@@Z 004247b0 f   ExecuteMUL.obj
 0001:00023830       ?Execute_DOTPScalarShiftImmediate@@YAXAAVMPE@@AAVInstructionCacheEntry@@AAVNuance@@@Z 00424830 f   ExecuteMUL.obj
 0001:00023890       ?Execute_DOTPScalarShiftSvshift@@YAXAAVMPE@@AAVInstructionCacheEntry@@AAVNuance@@@Z 00424890 f   ExecuteMUL.obj
 0001:00023900       ?Execute_DOTPVectorShiftImmediate@@YAXAAVMPE@@AAVInstructionCacheEntry@@AAVNuance@@@Z 00424900 f   ExecuteMUL.obj
 0001:00023980       ?Execute_DOTPVectorShiftSvshift@@YAXAAVMPE@@AAVInstructionCacheEntry@@AAVNuance@@@Z 00424980 f   ExecuteMUL.obj
 0001:00023a10       ?Execute_DECRc0@@YAXAAVMPE@@AAVInstructionCacheEntry@@AAVNuance@@@Z 00424a10 f   ExecuteRCU.obj
 0001:00023a40       ?Execute_DECRc1@@YAXAAVMPE@@AAVInstructionCacheEntry@@AAVNuance@@@Z 00424a40 f   ExecuteRCU.obj
 0001:00023a70       ?Execute_DECBoth@@YAXAAVMPE@@AAVInstructionCacheEntry@@AAVNuance@@@Z 00424a70 f   ExecuteRCU.obj
 0001:00023ac0       ?Execute_ADDRImmediateOnly@@YAXAAVMPE@@AAVInstructionCacheEntry@@AAVNuance@@@Z 00424ac0 f   ExecuteRCU.obj
 0001:00023ae0       ?Execute_ADDRImmediate@@YAXAAVMPE@@AAVInstructionCacheEntry@@AAVNuance@@@Z 00424ae0 f   ExecuteRCU.obj
 0001:00023b70       ?Execute_ADDRScalarOnly@@YAXAAVMPE@@AAVInstructionCacheEntry@@AAVNuance@@@Z 00424b70 f   ExecuteRCU.obj
 0001:00023ba0       ?Execute_ADDRScalar@@YAXAAVMPE@@AAVInstructionCacheEntry@@AAVNuance@@@Z 00424ba0 f   ExecuteRCU.obj
 0001:00023c30       ?Execute_MVRImmediateOnly@@YAXAAVMPE@@AAVInstructionCacheEntry@@AAVNuance@@@Z 00424c30 f   ExecuteRCU.obj
 0001:00023c50       ?Execute_MVRImmediate@@YAXAAVMPE@@AAVInstructionCacheEntry@@AAVNuance@@@Z 00424c50 f   ExecuteRCU.obj
 0001:00023cd0       ?Execute_MVRScalarOnly@@YAXAAVMPE@@AAVInstructionCacheEntry@@AAVNuance@@@Z 00424cd0 f   ExecuteRCU.obj
 0001:00023cf0       ?Execute_MVRScalar@@YAXAAVMPE@@AAVInstructionCacheEntry@@AAVNuance@@@Z 00424cf0 f   ExecuteRCU.obj
 0001:00023d80       ?Execute_RangeOnly@@YAXAAVMPE@@AAVInstructionCacheEntry@@AAVNuance@@@Z 00424d80 f   ExecuteRCU.obj
 0001:00023e30       ?Execute_Range@@YAXAAVMPE@@AAVInstructionCacheEntry@@AAVNuance@@@Z 00424e30 f   ExecuteRCU.obj
 0001:00023f40       ?Execute_ModuloOnly@@YAXAAVMPE@@AAVInstructionCacheEntry@@AAVNuance@@@Z 00424f40 f   ExecuteRCU.obj
 0001:00024010       ?Execute_Modulo@@YAXAAVMPE@@AAVInstructionCacheEntry@@AAVNuance@@@Z 00425010 f   ExecuteRCU.obj
 0001:00024140       ?ConvertFlags@@YAII@Z      00425140 f   file.obj
 0001:00024190       ?ConvertIFMT@@YAII@Z       00425190 f   file.obj
 0001:000241e0       ?FileOpen@@YAXPAVMPE@@@Z   004251e0 f   file.obj
 0001:00024350       ?FileClose@@YAXPAVMPE@@@Z  00425350 f   file.obj
 0001:000243d0       ?FileRead@@YAXPAVMPE@@@Z   004253d0 f   file.obj
 0001:00024450       ?FileWrite@@YAXPAVMPE@@@Z  00425450 f   file.obj
 0001:00024500       ?FileIoctl@@YAXPAVMPE@@@Z  00425500 f   file.obj
 0001:00024520       ?FileFstat@@YAXPAVMPE@@@Z  00425520 f   file.obj
 0001:00024760       ?FileStat@@YAXPAVMPE@@@Z   00425760 f   file.obj
 0001:00024790       ?FileIsatty@@YAXPAVMPE@@@Z 00425790 f   file.obj
 0001:000247c0       ?FileLseek@@YAXPAVMPE@@@Z  004257c0 f   file.obj
 0001:00024830       ?FileLink@@YAXPAVMPE@@@Z   00425830 f   file.obj
 0001:00024850       ?FileLstat@@YAXPAVMPE@@@Z  00425850 f   file.obj
 0001:00024880       ?FileUnlink@@YAXPAVMPE@@@Z 00425880 f   file.obj
 0001:000248b0       ?ReadData@FlashEEPROM@@QAEXIPAI@Z 004258b0 f   FlashEEPROM.obj
 0001:00024930       ?EraseSector@FlashEEPROM@@QAEXI@Z 00425930 f   FlashEEPROM.obj
 0001:00024990       ?LockSector@FlashEEPROM@@QAEXI@Z 00425990 f   FlashEEPROM.obj
 0001:000249c0       ?LoadFromFile@FlashEEPROM@@QAEXPAD@Z 004259c0 f   FlashEEPROM.obj
 0001:00024a40       ?SaveToFile@FlashEEPROM@@QAEXPAD@Z 00425a40 f   FlashEEPROM.obj
 0001:00024a90       ?EraseChip@FlashEEPROM@@QAEXXZ 00425a90 f   FlashEEPROM.obj
 0001:00024b00       ?WriteData@FlashEEPROM@@QAEXII@Z 00425b00 f   FlashEEPROM.obj
 0001:00024d60       ?MMTimerCallback@GLWindow@@KGXIIKKK@Z 00425d60 f   GLWindow.obj
 0001:00024d80       ?SetTimer@GLWindow@@QAE_NXZ 00425d80 f   GLWindow.obj
 0001:00024db0       ?UpdateRestoreValues@GLWindow@@QAEXXZ 00425db0 f   GLWindow.obj
 0001:00024e20       ?OnResize@GLWindow@@IAEXHH@Z 00425e20 f   GLWindow.obj
 0001:00024e80       ?ToggleFullscreen@GLWindow@@QAEXXZ 00425e80 f   GLWindow.obj
 0001:00024ea0       ?ChangeScreenResolution@GLWindow@@IAE_NHHH@Z 00425ea0 f   GLWindow.obj
 0001:00024f10       ?CreateWindowGL@GLWindow@@IAE_NXZ 00425f10 f   GLWindow.obj
 0001:00025420       ?CleanUp@GLWindow@@IAEXXZ  00426420 f   GLWindow.obj
 0001:000254a0       ?GLWindowProc@GLWindow@@KGJPAUHWND__@@IIJ@Z 004264a0 f   GLWindow.obj
 0001:000258c0       ?RegisterWindowClass@GLWindow@@IAE_NXZ 004268c0 f   GLWindow.obj
 0001:00025950       ?MessagePump@GLWindow@@QAE_NXZ 00426950 f   GLWindow.obj
 0001:00025980       ?GLWindowMain@GLWindow@@KGKPAX@Z 00426980 f   GLWindow.obj
 0001:00025a70       ??0GLWindow@@QAE@XZ        00426a70 f   GLWindow.obj
 0001:00025af0       ?Create@GLWindow@@QAE_NXZ  00426af0 f   GLWindow.obj
 0001:00025b80       ??1InstructionCache@@QAE@XZ 00426b80 f   InstructionCache.obj
 0001:00025bb0       ?Invalidate@InstructionCache@@QAEXXZ 00426bb0 f   InstructionCache.obj
 0001:00025be0       ?InvalidateRegion@InstructionCache@@QAEXII@Z 00426be0 f   InstructionCache.obj
 0001:00025c40       ?CopyInstructionData@InstructionCacheEntry@@QAEXIPAV1@I@Z 00426c40 f   InstructionCache.obj
 0001:00025cd0       ??0InstructionCache@@QAE@I@Z 00426cd0 f   InstructionCache.obj
 0001:00025d60       ?ControllerInitialize@@YAXPAVMPE@@@Z 00426d60 f   joystick.obj
 0001:00025e10       ?DeviceDetect@@YAXPAVMPE@@@Z 00426e10 f   joystick.obj
 0001:00025ed0       ?MediaShutdownMPE@@YAXPAVMPE@@@Z 00426ed0 f   media.obj
 0001:00025f30       ?MediaInitMPE@@YAXI@Z      00426f30 f   media.obj
 0001:00026090       ?MediaInitMPE@@YAXPAVMPE@@@Z 00427090 f   media.obj
 0001:000260e0       ?MediaOpen@@YAXPAVMPE@@@Z  004270e0 f   media.obj
 0001:00026260       ?MediaClose@@YAXPAVMPE@@@Z 00427260 f   media.obj
 0001:00026290       ?MediaGetDevicesAvailable@@YAXPAVMPE@@@Z 00427290 f   media.obj
 0001:000262a0       ?MediaGetInfo@@YAXPAVMPE@@@Z 004272a0 f   media.obj
 0001:00026320       ?MediaRead@@YAXPAVMPE@@@Z  00427320 f   media.obj
 0001:00026400       ?MediaWrite@@YAXPAVMPE@@@Z 00427400 f   media.obj
 0001:00026500       ?MediaIoctl@@YAXPAVMPE@@@Z 00427500 f   media.obj
 0001:000265a0       ?SpinWait@@YAXPAVMPE@@@Z   004275a0 f   media.obj
 0001:000265f0       ?MemLocalScratch@@YAXPAVMPE@@@Z 004275f0 f   memory.obj
 0001:00026620       ?MemAlloc@@YAXPAVMPE@@@Z   00427620 f   memory.obj
 0001:00026660       ?MemFree@@YAXPAVMPE@@@Z    00427660 f   memory.obj
 0001:00026680       ?MemInit@@YAXPAVMPE@@@Z    00427680 f   memory.obj
 0001:00026690       ??1bad_alloc@std@@UAE@XZ   00427690 f i MemoryManager.obj
 0001:000266a0       ??_Ebad_alloc@std@@UAEPAXI@Z 004276a0 f i MemoryManager.obj
 0001:000266a0       ??_Gbad_alloc@std@@UAEPAXI@Z 004276a0 f i MemoryManager.obj
 0001:000266d0       ?size@?$vector@VFreeMemoryBlock@@V?$allocator@VFreeMemoryBlock@@@std@@@std@@QBEIXZ 004276d0 f i MemoryManager.obj
 0001:000266f0       ??A?$vector@VFreeMemoryBlock@@V?$allocator@VFreeMemoryBlock@@@std@@@std@@QAEAAVFreeMemoryBlock@@I@Z 004276f0 f i MemoryManager.obj
 0001:00026730       ??$_Allocate@VFreeMemoryBlock@@@std@@YAPAVFreeMemoryBlock@@IPAV1@@Z 00427730 f i MemoryManager.obj
 0001:00026790       ??$_Allocate@VAllocatedMemoryBlock@@@std@@YAPAVAllocatedMemoryBlock@@IPAV1@@Z 00427790 f i MemoryManager.obj
 0001:000267f0       ??$_Allocate@D@std@@YAPADIPAD@Z 004277f0 f i MemoryManager.obj
 0001:00026850       ??0bad_alloc@std@@QAE@ABV01@@Z 00427850 f i MemoryManager.obj
 0001:00026870       ??$_Copy_opt@PAVFreeMemoryBlock@@PAV1@@std@@YAPAVFreeMemoryBlock@@PAV1@00Urandom_access_iterator_tag@0@U_Nonscalar_ptr_iterator_tag@0@U_Range_checked_iterator_tag@0@@Z 00427870 f i MemoryManager.obj
 0001:000268c0       ??$_Copy_backward_opt@PAVFreeMemoryBlock@@PAV1@@std@@YAPAVFreeMemoryBlock@@PAV1@00Urandom_access_iterator_tag@0@U_Nonscalar_ptr_iterator_tag@0@U_Range_checked_iterator_tag@0@@Z 004278c0 f i MemoryManager.obj
 0001:00026920       ??$_Uninit_copy@PAVFreeMemoryBlock@@PAV1@V?$allocator@VFreeMemoryBlock@@@std@@@std@@YAPAVFreeMemoryBlock@@PAV1@00AAV?$allocator@VFreeMemoryBlock@@@0@U_Nonscalar_ptr_iterator_tag@0@U_Range_checked_iterator_tag@0@@Z 00427920 f i MemoryManager.obj
 0001:00026960       ??$_Uninit_copy@PAVAllocatedMemoryBlock@@PAV1@V?$allocator@VAllocatedMemoryBlock@@@std@@@std@@YAPAVAllocatedMemoryBlock@@PAV1@00AAV?$allocator@VAllocatedMemoryBlock@@@0@U_Nonscalar_ptr_iterator_tag@0@U_Range_checked_iterator_tag@0@@Z 00427960 f i MemoryManager.obj
 0001:00026990       ??H?$_Vector_iterator@VFreeMemoryBlock@@V?$allocator@VFreeMemoryBlock@@@std@@@std@@QBE?AV01@H@Z 00427990 f i MemoryManager.obj
 0001:000269d0       ?erase@?$basic_string@DU?$char_traits@D@std@@V?$allocator@D@2@@std@@QAEAAV12@II@Z 004279d0 f i MemoryManager.obj
 0001:00026a60       ?_Copy@?$basic_string@DU?$char_traits@D@std@@V?$allocator@D@2@@std@@IAEXII@Z 00427a60 f i MemoryManager.obj
 0001:00026ba0       ??$fill@PAVFreeMemoryBlock@@V1@@std@@YAXPAVFreeMemoryBlock@@0ABV1@@Z 00427ba0 f i MemoryManager.obj
 0001:00026bd0       ??$fill@PAVAllocatedMemoryBlock@@V1@@std@@YAXPAVAllocatedMemoryBlock@@0ABV1@@Z 00427bd0 f i MemoryManager.obj
 0001:00026c00       ??$_Uninit_fill_n@PAVFreeMemoryBlock@@IV1@V?$allocator@VFreeMemoryBlock@@@std@@@std@@YAXPAVFreeMemoryBlock@@IABV1@AAV?$allocator@VFreeMemoryBlock@@@0@U_Nonscalar_ptr_iterator_tag@0@U_Range_checked_iterator_tag@0@@Z 00427c00 f i MemoryManager.obj
 0001:00026c40       ??$_Uninit_fill_n@PAVAllocatedMemoryBlock@@IV1@V?$allocator@VAllocatedMemoryBlock@@@std@@@std@@YAXPAVAllocatedMemoryBlock@@IABV1@AAV?$allocator@VAllocatedMemoryBlock@@@0@U_Nonscalar_ptr_iterator_tag@0@U_Range_checked_iterator_tag@0@@Z 00427c40 f i MemoryManager.obj
 0001:00026c70       ??1?$basic_string@DU?$char_traits@D@std@@V?$allocator@D@2@@std@@QAE@XZ 00427c70 f i MemoryManager.obj
 0001:00026ca0       ?begin@?$vector@VFreeMemoryBlock@@V?$allocator@VFreeMemoryBlock@@@std@@@std@@QAE?AV?$_Vector_iterator@VFreeMemoryBlock@@V?$allocator@VFreeMemoryBlock@@@std@@@2@XZ 00427ca0 f i MemoryManager.obj
 0001:00026cd0       ??$_Unchecked_move_backward@PAVFreeMemoryBlock@@PAV1@@stdext@@YAPAVFreeMemoryBlock@@PAV1@00@Z 00427cd0 f i MemoryManager.obj
 0001:00026d00       ??$_Unchecked_move_backward@PAVAllocatedMemoryBlock@@PAV1@@stdext@@YAPAVAllocatedMemoryBlock@@PAV1@00@Z 00427d00 f i MemoryManager.obj
 0001:00026d40       ??1logic_error@std@@UAE@XZ 00427d40 f i MemoryManager.obj
 0001:00026d40       ??1length_error@std@@UAE@XZ 00427d40 f i MemoryManager.obj
 0001:00026d80       ?what@logic_error@std@@UBEPBDXZ 00427d80 f i MemoryManager.obj
 0001:00026d90       ??_Elogic_error@std@@UAEPAXI@Z 00427d90 f i MemoryManager.obj
 0001:00026d90       ??_Glogic_error@std@@UAEPAXI@Z 00427d90 f i MemoryManager.obj
 0001:00026d90       ??_Elength_error@std@@UAEPAXI@Z 00427d90 f i MemoryManager.obj
 0001:00026d90       ??_Glength_error@std@@UAEPAXI@Z 00427d90 f i MemoryManager.obj
 0001:00026de0       ?assign@?$basic_string@DU?$char_traits@D@std@@V?$allocator@D@2@@std@@QAEAAV12@ABV12@II@Z 00427de0 f i MemoryManager.obj
 0001:00026ec0       ?_Ufill@?$vector@VFreeMemoryBlock@@V?$allocator@VFreeMemoryBlock@@@std@@@std@@IAEPAVFreeMemoryBlock@@PAV3@IABV3@@Z 00427ec0 f i MemoryManager.obj
 0001:00026f00       ?_Ufill@?$vector@VAllocatedMemoryBlock@@V?$allocator@VAllocatedMemoryBlock@@@std@@@std@@IAEPAVAllocatedMemoryBlock@@PAV3@IABV3@@Z 00427f00 f i MemoryManager.obj
 0001:00026f40       ?assign@?$basic_string@DU?$char_traits@D@std@@V?$allocator@D@2@@std@@QAEAAV12@PBDI@Z 00427f40 f i MemoryManager.obj
 0001:00027010       ??1?$vector@VFreeMemoryBlock@@V?$allocator@VFreeMemoryBlock@@@std@@@std@@QAE@XZ 00428010 f i MemoryManager.obj
 0001:00027040       ?erase@?$vector@VFreeMemoryBlock@@V?$allocator@VFreeMemoryBlock@@@std@@@std@@QAE?AV?$_Vector_iterator@VFreeMemoryBlock@@V?$allocator@VFreeMemoryBlock@@@std@@@2@V32@@Z 00428040 f i MemoryManager.obj
 0001:00027090       ??$_Umove@PAVFreeMemoryBlock@@@?$vector@VFreeMemoryBlock@@V?$allocator@VFreeMemoryBlock@@@std@@@std@@IAEPAVFreeMemoryBlock@@PAV2@00@Z 00428090 f i MemoryManager.obj
 0001:000270c0       ??$_Umove@PAVAllocatedMemoryBlock@@@?$vector@VAllocatedMemoryBlock@@V?$allocator@VAllocatedMemoryBlock@@@std@@@std@@IAEPAVAllocatedMemoryBlock@@PAV2@00@Z 004280c0 f i MemoryManager.obj
 0001:000270f0       ??0logic_error@std@@QAE@ABV?$basic_string@DU?$char_traits@D@std@@V?$allocator@D@2@@1@@Z 004280f0 f i MemoryManager.obj
 0001:00027150       ??0?$basic_string@DU?$char_traits@D@std@@V?$allocator@D@2@@std@@QAE@PBD@Z 00428150 f i MemoryManager.obj
 0001:00027190       ?_Xlen@?$vector@VFreeMemoryBlock@@V?$allocator@VFreeMemoryBlock@@@std@@@std@@KAXXZ 00428190 f i MemoryManager.obj
 0001:00027190       ?_Xlen@?$vector@VAllocatedMemoryBlock@@V?$allocator@VAllocatedMemoryBlock@@@std@@@std@@KAXXZ 00428190 f i MemoryManager.obj
 0001:00027200       ??0logic_error@std@@QAE@ABV01@@Z 00428200 f i MemoryManager.obj
 0001:00027270       ??0length_error@std@@QAE@ABV01@@Z 00428270 f i MemoryManager.obj
 0001:00027290       ?_Insert_n@?$vector@VFreeMemoryBlock@@V?$allocator@VFreeMemoryBlock@@@std@@@std@@IAEXV?$_Vector_iterator@VFreeMemoryBlock@@V?$allocator@VFreeMemoryBlock@@@std@@@2@IABVFreeMemoryBlock@@@Z 00428290 f i MemoryManager.obj
 0001:00027530       ?_Insert_n@?$vector@VAllocatedMemoryBlock@@V?$allocator@VAllocatedMemoryBlock@@@std@@@std@@IAEXV?$_Vector_iterator@VAllocatedMemoryBlock@@V?$allocator@VAllocatedMemoryBlock@@@std@@@2@IABVAllocatedMemoryBlock@@@Z 00428530 f i MemoryManager.obj
 0001:00027780       ?insert@?$vector@VFreeMemoryBlock@@V?$allocator@VFreeMemoryBlock@@@std@@@std@@QAE?AV?$_Vector_iterator@VFreeMemoryBlock@@V?$allocator@VFreeMemoryBlock@@@std@@@2@V32@ABVFreeMemoryBlock@@@Z 00428780 f i MemoryManager.obj
 0001:00027830       ?insert@?$vector@VAllocatedMemoryBlock@@V?$allocator@VAllocatedMemoryBlock@@@std@@@std@@QAE?AV?$_Vector_iterator@VAllocatedMemoryBlock@@V?$allocator@VAllocatedMemoryBlock@@@std@@@2@V32@ABVAllocatedMemoryBlock@@@Z 00428830 f i MemoryManager.obj
 0001:000278c0       ??0MemoryManager@@QAE@II@Z 004288c0 f   MemoryManager.obj
 0001:00027910       ?AddAllocatedBlock@MemoryManager@@QAEXII@Z 00428910 f   MemoryManager.obj
 0001:000279b0       ?push_back@?$vector@VFreeMemoryBlock@@V?$allocator@VFreeMemoryBlock@@@std@@@std@@QAEXABVFreeMemoryBlock@@@Z 004289b0 f i MemoryManager.obj
 0001:00027a50       ?Add@MemoryManager@@QAEXIII@Z 00428a50 f   MemoryManager.obj
 0001:00027e40       ?Free@MemoryManager@@QAEXI@Z 00428e40 f   MemoryManager.obj
 0001:00027f60       ?Allocate@MemoryManager@@QAEPAXII@Z 00428f60 f   MemoryManager.obj
 0001:00028230       ?FindInstructionCacheEntry@InstructionCache@@QAEPAVInstructionCacheEntry@@IAAI@Z 00429230 f i mpe.obj
 0001:00028280       ?ClearCompiledStates@InstructionCache@@QAEXXZ 00429280 f i mpe.obj
 0001:000282b0       ?GenerateMirrorLookupTable@MPE@@QAEXXZ 004292b0 f   mpe.obj
 0001:00028310       ?InitializeBankTable@MPE@@QAEXPAE00@Z 00429310 f   mpe.obj
 0001:00028390       ?Reset@MPE@@QAEXXZ         00429390 f   mpe.obj
 0001:000284e0       ?GetPacketDelta@MPE@@QAEIPAEI@Z 004294e0 f i mpe.obj
 0001:00028570       ?ChooseInstructionPairOrdering@MPE@@QAE_NPAVInstructionCacheEntry@@II@Z 00429570 f i mpe.obj
 0001:00028610       ?ScheduleInstructionTriplet@MPE@@QAEXPAVInstructionCacheEntry@@I0III@Z 00429610 f   mpe.obj
 0001:000288f0       ?GetInstructionTripletDependencies@MPE@@QAEXPAI0PAVInstructionCacheEntry@@III@Z 004298f0 f   mpe.obj
 0001:00028970       ?ScheduleInstructionQuartet@MPE@@QAEXPAVInstructionCacheEntry@@I0@Z 00429970 f   mpe.obj
 0001:00028c00       ?UpdateInvalidateRegion@MPE@@QAEXII@Z 00429c00 f   mpe.obj
 0001:00028c70       ?InitStaticICacheEntries@MPE@@QAEXXZ 00429c70 f   mpe.obj
 0001:00028d60       ?SaveRegisters@MPE@@QAEXXZ 00429d60 f   mpe.obj
 0001:00028d90       ?ExecuteNuances@MPE@@QAEXAAVInstructionCacheEntry@@@Z 00429d90 f   mpe.obj
 0001:00028e40       ?DecodeSingleInstruction@MPE@@QAEEPAEPAVInstructionCacheEntry@@PAIAA_N@Z 00429e40 f   mpe.obj
 0001:00029040       ?CompileNativeCodeBlock@MPE@@QAEP6AXXZIW4SuperBlockCompileType@@AA_N_N@Z 0042a040 f   mpe.obj
 0001:00029070       ?PrintInstructionCachePacket@MPE@@QAEXPADAAVInstructionCacheEntry@@@Z 0042a070 f   mpe.obj
 0001:000290f0       ??0MPE@@QAE@I@Z            0042a0f0 f   mpe.obj
 0001:00029360       ??1MPE@@QAE@XZ             0042a360 f   mpe.obj
 0001:00029400       ?DecompressPacket@MPE@@QAEXPAEPAVInstructionCacheEntry@@I@Z 0042a400 f   mpe.obj
 0001:0002a380       ?FetchDecodeExecute@MPE@@QAE_NXZ 0042b380 f   mpe.obj
 0001:0002a970       ?PrintInstructionCachePacket@MPE@@QAEXPADI@Z 0042b970 f   mpe.obj
 0001:0002aa30       ?ExecuteSingleStep@MPE@@QAEXXZ 0042ba30 f   mpe.obj
 0001:0002aa70       ?ResetMPEFlags@@YAXPAVMPE@@@Z 0042ba70 f   mpe_alloc.obj
 0001:0002aab0       ?MPEAlloc@@YAXPAVMPE@@@Z   0042bab0 f   mpe_alloc.obj
 0001:0002ab20       ?MPEAllocSpecific@@YAXPAVMPE@@@Z 0042bb20 f   mpe_alloc.obj
 0001:0002ab50       ?MPEFree@@YAXPAVMPE@@@Z    0042bb50 f   mpe_alloc.obj
 0001:0002ab90       ?MPEStatus@@YAXPAVMPE@@@Z  0042bb90 f   mpe_alloc.obj
 0001:0002abb0       ?MPEsAvailable@@YAXPAVMPE@@@Z 0042bbb0 f   mpe_alloc.obj
 0001:0002abf0       ?MPERun@@YAXPAVMPE@@@Z     0042bbf0 f   mpe_alloc.obj
 0001:0002ad00       ?MPERunThread@@YAXPAVMPE@@@Z 0042bd00 f   mpe_alloc.obj
 0001:0002ae30       ?MPEStop@@YAXPAVMPE@@@Z    0042be30 f   mpe_alloc.obj
 0001:0002ae60       ?MPELoad@@YAXPAVMPE@@@Z    0042be60 f   mpe_alloc.obj
 0001:0002aef0       ?MPEReadRegister@@YAXPAVMPE@@@Z 0042bef0 f   mpe_alloc.obj
 0001:0002afb0       ?MPEWriteRegister@@YAXPAVMPE@@@Z 0042bfb0 f   mpe_alloc.obj
 0001:0002aff0       ?InvalidateICache@MPE@@QAEXXZ 0042bff0 f i MPEControlRegisters.obj
 0001:0002b010       ?ReadControlRegister@MPE@@QAEIIPAVInstructionCacheEntry@@@Z 0042c010 f   MPEControlRegisters.obj
 0001:0002b500       ?WriteControlRegister@MPE@@QAEXII@Z 0042c500 f   MPEControlRegisters.obj
 0001:0002bf60       ??0NativeCodeCache@@QAE@III@Z 0042cf60 f   nativecodecache.obj
 0001:0002c140       ?FindNativeCodeCacheEntry@NativeCodeCache@@QAEPAVNativeCodeCacheEntry@@I@Z 0042d140 f   nativecodecache.obj
 0001:0002c160       ?ReleaseBuffer@NativeCodeCache@@QAE_NP6AXXZIIIIIW4SuperBlockCompileType@@II@Z 0042d160 f   nativecodecache.obj
 0001:0002c200       ?Flush@NativeCodeCache@@QAEXXZ 0042d200 f   nativecodecache.obj
 0001:0002c220       ?FlushRegion@NativeCodeCache@@QAEXII@Z 0042d220 f   nativecodecache.obj
 0001:0002c230       ?X86Emit_ModRegRM@NativeCodeCache@@QAEXW4x86ModType@@W4x86ModReg@@IW4x86IndexReg@@W4x86ScaleVal@@H@Z 0042d230 f   nativecodecache.obj
 0001:0002c3e0       ?X86Emit_Group1RR@NativeCodeCache@@QAEXW4x86Reg@@0E@Z 0042d3e0 f   nativecodecache.obj
 0001:0002c460       ?X86Emit_Group1RM@NativeCodeCache@@QAEXW4x86Reg@@IW4x86IndexReg@@W4x86ScaleVal@@HE@Z 0042d460 f   nativecodecache.obj
 0001:0002c560       ?X86Emit_Group1MR@NativeCodeCache@@QAEXW4x86Reg@@IW4x86IndexReg@@W4x86ScaleVal@@HE@Z 0042d560 f   nativecodecache.obj
 0001:0002c660       ?X86Emit_Group1IR@NativeCodeCache@@QAEXHW4x86Reg@@E@Z 0042d660 f   nativecodecache.obj
 0001:0002c8b0       ?X86Emit_Group1IM@NativeCodeCache@@QAEXHW4x86MemPtr@@IW4x86IndexReg@@W4x86ScaleVal@@HE@Z 0042d8b0 f   nativecodecache.obj
 0001:0002ca20       ?X86Emit_Group2IR@NativeCodeCache@@QAEXW4x86Reg@@EE@Z 0042da20 f   nativecodecache.obj
 0001:0002cb90       ?X86Emit_Group2RR@NativeCodeCache@@QAEXW4x86Reg@@E@Z 0042db90 f   nativecodecache.obj
 0001:0002cc10       ?X86Emit_ADDRR@NativeCodeCache@@QAEXW4x86Reg@@0@Z 0042dc10 f   nativecodecache.obj
 0001:0002cc30       ?X86Emit_ADDMR@NativeCodeCache@@QAEXW4x86Reg@@IW4x86IndexReg@@W4x86ScaleVal@@H@Z 0042dc30 f   nativecodecache.obj
 0001:0002cc60       ?X86Emit_ADDIR@NativeCodeCache@@QAEXHW4x86Reg@@@Z 0042dc60 f   nativecodecache.obj
 0001:0002cc80       ?X86Emit_ORRR@NativeCodeCache@@QAEXW4x86Reg@@0@Z 0042dc80 f   nativecodecache.obj
 0001:0002cca0       ?X86Emit_ORRM@NativeCodeCache@@QAEXW4x86Reg@@IW4x86IndexReg@@W4x86ScaleVal@@H@Z 0042dca0 f   nativecodecache.obj
 0001:0002ccd0       ?X86Emit_ORMR@NativeCodeCache@@QAEXW4x86Reg@@IW4x86IndexReg@@W4x86ScaleVal@@H@Z 0042dcd0 f   nativecodecache.obj
 0001:0002cd00       ?X86Emit_ORIR@NativeCodeCache@@QAEXHW4x86Reg@@@Z 0042dd00 f   nativecodecache.obj
 0001:0002cd20       ?X86Emit_ORIM@NativeCodeCache@@QAEXHW4x86MemPtr@@IW4x86IndexReg@@W4x86ScaleVal@@H@Z 0042dd20 f   nativecodecache.obj
 0001:0002cd50       ?X86Emit_ADCRR@NativeCodeCache@@QAEXW4x86Reg@@0@Z 0042dd50 f   nativecodecache.obj
 0001:0002cd70       ?X86Emit_ADCMR@NativeCodeCache@@QAEXW4x86Reg@@IW4x86IndexReg@@W4x86ScaleVal@@H@Z 0042dd70 f   nativecodecache.obj
 0001:0002cda0       ?X86Emit_ADCIR@NativeCodeCache@@QAEXHW4x86Reg@@@Z 0042dda0 f   nativecodecache.obj
 0001:0002cdc0       ?X86Emit_SBBRR@NativeCodeCache@@QAEXW4x86Reg@@0@Z 0042ddc0 f   nativecodecache.obj
 0001:0002cde0       ?X86Emit_SBBMR@NativeCodeCache@@QAEXW4x86Reg@@IW4x86IndexReg@@W4x86ScaleVal@@H@Z 0042dde0 f   nativecodecache.obj
 0001:0002ce10       ?X86Emit_SBBIR@NativeCodeCache@@QAEXHW4x86Reg@@@Z 0042de10 f   nativecodecache.obj
 0001:0002ce30       ?X86Emit_ANDRR@NativeCodeCache@@QAEXW4x86Reg@@0@Z 0042de30 f   nativecodecache.obj
 0001:0002ce50       ?X86Emit_ANDRM@NativeCodeCache@@QAEXW4x86Reg@@IW4x86IndexReg@@W4x86ScaleVal@@H@Z 0042de50 f   nativecodecache.obj
 0001:0002ce80       ?X86Emit_ANDMR@NativeCodeCache@@QAEXW4x86Reg@@IW4x86IndexReg@@W4x86ScaleVal@@H@Z 0042de80 f   nativecodecache.obj
 0001:0002ceb0       ?X86Emit_ANDIR@NativeCodeCache@@QAEXHW4x86Reg@@@Z 0042deb0 f   nativecodecache.obj
 0001:0002ced0       ?X86Emit_ANDIM@NativeCodeCache@@QAEXHW4x86MemPtr@@IW4x86IndexReg@@W4x86ScaleVal@@H@Z 0042ded0 f   nativecodecache.obj
 0001:0002cf00       ?X86Emit_SUBRR@NativeCodeCache@@QAEXW4x86Reg@@0@Z 0042df00 f   nativecodecache.obj
 0001:0002cf20       ?X86Emit_SUBMR@NativeCodeCache@@QAEXW4x86Reg@@IW4x86IndexReg@@W4x86ScaleVal@@H@Z 0042df20 f   nativecodecache.obj
 0001:0002cf50       ?X86Emit_SUBIR@NativeCodeCache@@QAEXHW4x86Reg@@@Z 0042df50 f   nativecodecache.obj
 0001:0002cf70       ?X86Emit_XORRR@NativeCodeCache@@QAEXW4x86Reg@@0@Z 0042df70 f   nativecodecache.obj
 0001:0002cf90       ?X86Emit_XORMR@NativeCodeCache@@QAEXW4x86Reg@@IW4x86IndexReg@@W4x86ScaleVal@@H@Z 0042df90 f   nativecodecache.obj
 0001:0002cfc0       ?X86Emit_XORIR@NativeCodeCache@@QAEXHW4x86Reg@@@Z 0042dfc0 f   nativecodecache.obj
 0001:0002cfe0       ?X86Emit_CMPRR@NativeCodeCache@@QAEXW4x86Reg@@0@Z 0042dfe0 f   nativecodecache.obj
 0001:0002d000       ?X86Emit_CMPIR@NativeCodeCache@@QAEXHW4x86Reg@@@Z 0042e000 f   nativecodecache.obj
 0001:0002d020       ?X86Emit_DECR@NativeCodeCache@@QAEXW4x86Reg@@@Z 0042e020 f   nativecodecache.obj
 0001:0002d090       ?X86Emit_PUSHAD@NativeCodeCache@@QAEXXZ 0042e090 f   nativecodecache.obj
 0001:0002d0a0       ?X86Emit_POPAD@NativeCodeCache@@QAEXXZ 0042e0a0 f   nativecodecache.obj
 0001:0002d0b0       ?X86Emit_IMULRRR@NativeCodeCache@@QAEXW4x86Reg@@0@Z 0042e0b0 f   nativecodecache.obj
 0001:0002d120       ?X86Emit_IMULIRR@NativeCodeCache@@QAEXW4x86Reg@@H0@Z 0042e120 f   nativecodecache.obj
 0001:0002d280       ?X86Emit_EMMS@NativeCodeCache@@QAEXXZ 0042e280 f   nativecodecache.obj
 0001:0002d2a0       ?X86Emit_JCC@NativeCodeCache@@QAEXPAEC@Z 0042e2a0 f   nativecodecache.obj
 0001:0002d310       ?X86Emit_JCC_Label@NativeCodeCache@@QAEXPAVPatchManager@@CI@Z 0042e310 f   nativecodecache.obj
 0001:0002d3b0       ?X86Emit_TESTRR@NativeCodeCache@@QAEXW4x86Reg@@0@Z 0042e3b0 f   nativecodecache.obj
 0001:0002d430       ?X86Emit_MOVRR@NativeCodeCache@@QAEXW4x86Reg@@0@Z 0042e430 f   nativecodecache.obj
 0001:0002d450       ?X86Emit_CALLI@NativeCodeCache@@QAEXIG@Z 0042e450 f   nativecodecache.obj
 0001:0002d4a0       ?X86Emit_JMPI_Label@NativeCodeCache@@QAEXPAVPatchManager@@I@Z 0042e4a0 f   nativecodecache.obj
 0001:0002d560       ?X86Emit_MOVMR@NativeCodeCache@@QAEXW4x86Reg@@IW4x86IndexReg@@W4x86ScaleVal@@H@Z 0042e560 f   nativecodecache.obj
 0001:0002d5e0       ?X86Emit_MOVRM@NativeCodeCache@@QAEXW4x86Reg@@IW4x86IndexReg@@W4x86ScaleVal@@H@Z 0042e5e0 f   nativecodecache.obj
 0001:0002d660       ?X86Emit_MOVIR@NativeCodeCache@@QAEXHW4x86Reg@@@Z 0042e660 f   nativecodecache.obj
 0001:0002d6d0       ?X86Emit_ROLIR@NativeCodeCache@@QAEXW4x86Reg@@E@Z 0042e6d0 f   nativecodecache.obj
 0001:0002d6f0       ?X86Emit_RORIR@NativeCodeCache@@QAEXW4x86Reg@@E@Z 0042e6f0 f   nativecodecache.obj
 0001:0002d710       ?X86Emit_RCRIR@NativeCodeCache@@QAEXW4x86Reg@@E@Z 0042e710 f   nativecodecache.obj
 0001:0002d730       ?X86Emit_SHLIR@NativeCodeCache@@QAEXW4x86Reg@@E@Z 0042e730 f   nativecodecache.obj
 0001:0002d750       ?X86Emit_SHRIR@NativeCodeCache@@QAEXW4x86Reg@@E@Z 0042e750 f   nativecodecache.obj
 0001:0002d770       ?X86Emit_SARIR@NativeCodeCache@@QAEXW4x86Reg@@E@Z 0042e770 f   nativecodecache.obj
 0001:0002d790       ?X86Emit_SHLRM@NativeCodeCache@@QAEXW4x86MemPtr@@IW4x86IndexReg@@W4x86ScaleVal@@H@Z 0042e790 f   nativecodecache.obj
 0001:0002d7e0       ?X86Emit_RETN@NativeCodeCache@@QAEXG@Z 0042e7e0 f   nativecodecache.obj
 0001:0002d810       ?X86Emit_MOVIM@NativeCodeCache@@QAEXHW4x86MemPtr@@IW4x86IndexReg@@W4x86ScaleVal@@H@Z 0042e810 f   nativecodecache.obj
 0001:0002d8e0       ?X86Emit_ROLRR@NativeCodeCache@@QAEXW4x86Reg@@@Z 0042e8e0 f   nativecodecache.obj
 0001:0002d8f0       ?X86Emit_RORRR@NativeCodeCache@@QAEXW4x86Reg@@@Z 0042e8f0 f   nativecodecache.obj
 0001:0002d900       ?X86Emit_SHLRR@NativeCodeCache@@QAEXW4x86Reg@@@Z 0042e900 f   nativecodecache.obj
 0001:0002d910       ?X86Emit_SHRRR@NativeCodeCache@@QAEXW4x86Reg@@@Z 0042e910 f   nativecodecache.obj
 0001:0002d920       ?X86Emit_SARRR@NativeCodeCache@@QAEXW4x86Reg@@@Z 0042e920 f   nativecodecache.obj
 0001:0002d930       ?X86Emit_NOTR@NativeCodeCache@@QAEXW4x86Reg@@@Z 0042e930 f   nativecodecache.obj
 0001:0002d990       ?X86Emit_IMULRR@NativeCodeCache@@QAEXW4x86Reg@@@Z 0042e990 f   nativecodecache.obj
 0001:0002d9f0       ?X86Emit_IMULMR@NativeCodeCache@@QAEXW4x86MemPtr@@IW4x86IndexReg@@W4x86ScaleVal@@H@Z 0042e9f0 f   nativecodecache.obj
 0001:0002da40       ?X86Emit_NEGR@NativeCodeCache@@QAEXW4x86Reg@@@Z 0042ea40 f   nativecodecache.obj
 0001:0002daa0       ?X86Emit_TESTIR@NativeCodeCache@@QAEXIW4x86Reg@@@Z 0042eaa0 f   nativecodecache.obj
 0001:0002dc00       ?X86Emit_BSWAP@NativeCodeCache@@QAEXW4x86Reg@@@Z 0042ec00 f   nativecodecache.obj
 0001:0002dc20       ?X86Emit_SETOR@NativeCodeCache@@QAEXW4x86Reg@@@Z 0042ec20 f   nativecodecache.obj
 0001:0002dc70       ?X86Emit_SETBR@NativeCodeCache@@QAEXW4x86Reg@@@Z 0042ec70 f   nativecodecache.obj
 0001:0002dcc0       ?X86Emit_SETZR@NativeCodeCache@@QAEXW4x86Reg@@@Z 0042ecc0 f   nativecodecache.obj
 0001:0002dd10       ?X86Emit_SETSR@NativeCodeCache@@QAEXW4x86Reg@@@Z 0042ed10 f   nativecodecache.obj
 0001:0002dd60       ?X86Emit_CMOVNBRR@NativeCodeCache@@QAEXW4x86Reg@@I@Z 0042ed60 f   nativecodecache.obj
 0001:0002ddd0       ?X86Emit_CMOVZRR@NativeCodeCache@@QAEXW4x86Reg@@I@Z 0042edd0 f   nativecodecache.obj
 0001:0002de40       ?X86Emit_CMOVNZRR@NativeCodeCache@@QAEXW4x86Reg@@I@Z 0042ee40 f   nativecodecache.obj
 0001:0002deb0       ?X86Emit_CMOVLRR@NativeCodeCache@@QAEXW4x86Reg@@I@Z 0042eeb0 f   nativecodecache.obj
 0001:0002df20       ?X86Emit_CMOVNLRR@NativeCodeCache@@QAEXW4x86Reg@@I@Z 0042ef20 f   nativecodecache.obj
 0001:0002df90       ?X86Emit_CMOVNLERR@NativeCodeCache@@QAEXW4x86Reg@@I@Z 0042ef90 f   nativecodecache.obj
 0001:0002e000       ?X86Emit_MOVQMR@NativeCodeCache@@QAEXW4x86Reg@@IW4x86IndexReg@@W4x86ScaleVal@@H@Z 0042f000 f   nativecodecache.obj
 0001:0002e070       ?X86Emit_MOVQRM@NativeCodeCache@@QAEXW4x86Reg@@IW4x86IndexReg@@W4x86ScaleVal@@H@Z 0042f070 f   nativecodecache.obj
 0001:0002e0e0       ?X86Emit_SHLDIRR@NativeCodeCache@@QAEXW4x86Reg@@0E@Z 0042f0e0 f   nativecodecache.obj
 0001:0002e170       ?X86Emit_SHLDRRR@NativeCodeCache@@QAEXW4x86Reg@@0@Z 0042f170 f   nativecodecache.obj
 0001:0002e1e0       ?X86Emit_SHRDIRR@NativeCodeCache@@QAEXW4x86Reg@@0E@Z 0042f1e0 f   nativecodecache.obj
 0001:0002e270       ?X86Emit_SHRDRRR@NativeCodeCache@@QAEXW4x86Reg@@0@Z 0042f270 f   nativecodecache.obj
 0001:0002e2e0       ?X86Emit_MOVZXMR@NativeCodeCache@@QAEXW4x86Reg@@W4x86MemPtr@@IW4x86IndexReg@@W4x86ScaleVal@@H@Z 0042f2e0 f   nativecodecache.obj
 0001:0002e330       ?X86Emit_PANDRR@NativeCodeCache@@QAEXW4x86Reg@@0@Z 0042f330 f   nativecodecache.obj
 0001:0002e3a0       ?X86Emit_PSUBDRR@NativeCodeCache@@QAEXW4x86Reg@@0@Z 0042f3a0 f   nativecodecache.obj
 0001:0002e410       ?X86Emit_PADDRR@NativeCodeCache@@QAEXW4x86Reg@@0@Z 0042f410 f   nativecodecache.obj
 0001:0002e480       ??1NativeCodeCache@@QAE@XZ 0042f480 f   nativecodecache.obj
 0001:0002e4d0       ?UpdateStatusWindowDisplay@@YAXXZ 0042f4d0 f   NuanceMain.obj
 0001:0002f290       ?UpdateControlPanelDisplay@@YAXXZ 00430290 f   NuanceMain.obj
 0001:0002f420       ?OnMPELEDDoubleClick@@YAXI@Z 00430420 f   NuanceMain.obj
 0001:0002f4c0       ?ExecuteSingleStep@@YAXXZ  004304c0 f   NuanceMain.obj
 0001:0002f510       ?StatusWindowDialogProc@@YGHPAUHWND__@@IIJ@Z 00430510 f   NuanceMain.obj
 0001:0002f6b0       ?ControlPanelDialogProc@@YGHPAUHWND__@@IIJ@Z 004306b0 f   NuanceMain.obj
 0001:0002fa20       ?SplashScreenDialogProc@@YGHPAUHWND__@@IIJ@Z 00430a20 f   NuanceMain.obj
 0001:0002fa40       ?OnDisplayPaint@@YA_NIJ@Z  00430a40 f   NuanceMain.obj
 0001:0002fa90       ?OnDisplayResize@@YA_NGG@Z 00430a90 f   NuanceMain.obj
 0001:0002fb70       ?OnDisplayTimer@@YAXI@Z    00430b70 f   NuanceMain.obj
 0001:0002fba0       ?OnDisplayKeyDown@@YA_NFI@Z 00430ba0 f   NuanceMain.obj
 0001:0002fce0       ?OnDisplayKeyUp@@YA_NFI@Z  00430ce0 f   NuanceMain.obj
 0001:0002fe40       _WinMain@16                00430e40 f   NuanceMain.obj
 0001:00030380       ?TriggerAudioInterrupt@NuonEnvironment@@QAEXXZ 00431380 f   NuonEnvironment.obj
 0001:000303e0       ?TriggerVideoInterrupt@NuonEnvironment@@QAEXXZ 004313e0 f   NuonEnvironment.obj
 0001:00030430       ?ConvertNuonAudioData@AudioCallbacks@@SAXPAE0I@Z 00431430 f i NuonEnvironment.obj
 0001:00030480       ?StreamCallback@AudioCallbacks@@SGCPAUFSOUND_STREAM@@PAXHH@Z 00431480 f i NuonEnvironment.obj
 0001:00030550       ?InitAudio@NuonEnvironment@@QAEXXZ 00431550 f   NuonEnvironment.obj
 0001:000305c0       ?MuteAudio@NuonEnvironment@@QAEXI@Z 004315c0 f   NuonEnvironment.obj
 0001:000305f0       ?SetAudioPlaybackRate@NuonEnvironment@@QAEXI@Z 004315f0 f   NuonEnvironment.obj
 0001:00030650       ?SetAudioVolume@NuonEnvironment@@QAEXI@Z 00431650 f   NuonEnvironment.obj
 0001:00030680       ?GetPointerToMemory@NuonEnvironment@@QAEPAXPAVMPE@@I_N@Z 00431680 f   NuonEnvironment.obj
 0001:00030830       ?WriteFile@NuonEnvironment@@QAEXPAVMPE@@III@Z 00431830 f   NuonEnvironment.obj
 0001:000308b0       ?GetBufferSize@NuonEnvironment@@QAEII@Z 004318b0 f   NuonEnvironment.obj
 0001:000308e0       ?InitBios@NuonEnvironment@@QAEXXZ 004318e0 f   NuonEnvironment.obj
 0001:000308f0       ?SetDVDBaseFromFileName@NuonEnvironment@@QAEXPAD@Z 004318f0 f   NuonEnvironment.obj
 0001:00030970       ?ReadConfigLine@NuonEnvironment@@AAE?AW4ConfigTokenType@@PAU_iobuf@@PAD@Z 00431970 f   NuonEnvironment.obj
 0001:000309e0       ?LoadConfigFile@NuonEnvironment@@AAE_NPAD@Z 004319e0 f   NuonEnvironment.obj
 0001:00030de0       ??0FlashEEPROM@@QAE@XZ     00431de0 f i NuonEnvironment.obj
 0001:00030e40       ?CloseAudio@NuonEnvironment@@QAEXXZ 00431e40 f   NuonEnvironment.obj
 0001:00030ea0       ?RestartAudio@NuonEnvironment@@QAEXXZ 00431ea0 f   NuonEnvironment.obj
 0001:00030eb0       ??0NuonEnvironment@@QAE@XZ 00431eb0 f   NuonEnvironment.obj
 0001:000310f0       ??1NuonEnvironment@@QAE@XZ 004320f0 f   NuonEnvironment.obj
 0001:000311d0       ??0NuonMemoryManager@@QAE@XZ 004321d0 f   NuonMemoryManager.obj
 0001:00031280       ?Alloc@NuonMemoryManager@@QAEIIII@Z 00432280 f   NuonMemoryManager.obj
 0001:00031330       ?Free@NuonMemoryManager@@QAEXI@Z 00432330 f   NuonMemoryManager.obj
 0001:00031370       ?erase@?$vector@VFreeMemoryBlock@@V?$allocator@VFreeMemoryBlock@@@std@@@std@@QAE?AV?$_Vector_iterator@VFreeMemoryBlock@@V?$allocator@VFreeMemoryBlock@@@std@@@2@V32@0@Z 00432370 f i NuonMemoryManager.obj
 0001:000313d0       ?erase@?$vector@VAllocatedMemoryBlock@@V?$allocator@VAllocatedMemoryBlock@@@std@@@std@@QAE?AV?$_Vector_iterator@VAllocatedMemoryBlock@@V?$allocator@VAllocatedMemoryBlock@@@std@@@2@V32@0@Z 004323d0 f i NuonMemoryManager.obj
 0001:00031440       ?Reset@MemoryManager@@QAEXXZ 00432440 f i NuonMemoryManager.obj
 0001:000314b0       ?Init@NuonMemoryManager@@QAEXXZ 004324b0 f   NuonMemoryManager.obj
 0001:00031510       ??1NuonMemoryManager@@QAE@XZ 00432510 f   NuonMemoryManager.obj
 0001:000315a0       ?LoadNuonRomFile@MPE@@QAE_NPAD@Z 004325a0 f   nuonrom.obj
 0001:000317f0       ??0PageMap@@QAE@XZ         004327f0 f   PageMap.obj
 0001:00031810       ??1PageMap@@QAE@XZ         00432810 f   PageMap.obj
 0001:00031860       ?AllocatePage@PageMap@@QAEPAVNativeCodeCacheEntry@@I@Z 00432860 f   PageMap.obj
 0001:000318e0       ?FindEntry@PageMap@@QAEPAVNativeCodeCacheEntry@@I@Z 004328e0 f   PageMap.obj
 0001:00031920       ?Invalidate@PageMap@@QAEIXZ 00432920 f   PageMap.obj
 0001:00031970       ?InvalidateRegion@PageMap@@QAEXII@Z 00432970 f   PageMap.obj
 0001:000319c0       ?UpdateEntry@PageMap@@QAEXIAAVNativeCodeCacheEntry@@@Z 004329c0 f   PageMap.obj
 0001:00031a10       ?ApplyPatches@PatchManager@@QAEXXZ 00432a10 f   PatchManager.obj
 0001:00031aa0       ?API_FindDiskType@@YAXPAVMPE@@@Z 00432aa0 f   PresentationEngine.obj
 0001:00031ab0       ?API_ProgramChange@@YAXPAVMPE@@@Z 00432ab0 f   PresentationEngine.obj
 0001:00031ab0       ?API_IsNDK@@YAXPAVMPE@@@Z  00432ab0 f   PresentationEngine.obj
 0001:00031ab0       ?API_IsPresenting@@YAXPAVMPE@@@Z 00432ab0 f   PresentationEngine.obj
 0001:00031ab0       ?BiosPoll@@YAXPAVMPE@@@Z   00432ab0 f   bios.obj
 0001:00031ac0       ?API_GetFieldCounter@@YAXPAVMPE@@@Z 00432ac0 f   PresentationEngine.obj
 0001:00031af0       ?API_IsDVD@@YAXPAVMPE@@@Z  00432af0 f   PresentationEngine.obj
 0001:00031b00       ?InitDVDJumpTable@@YAXXZ   00432b00 f   PresentationEngine.obj
 0001:00031b30       ?CallPEHandler@@YAXPAVMPE@@I@Z 00432b30 f   PresentationEngine.obj
 0001:00031bc0       ?Print_ABS@@YAIPADAAVNuance@@_N@Z 00432bc0 f   PrintALU.obj
 0001:00031c40       ?Print_BITSScalar@@YAIPADAAVNuance@@_N@Z 00432c40 f   PrintALU.obj
 0001:00031cc0       ?Print_BITSImmediate@@YAIPADAAVNuance@@_N@Z 00432cc0 f   PrintALU.obj
 0001:00031d40       ?Print_BTST@@YAIPADAAVNuance@@_N@Z 00432d40 f   PrintALU.obj
 0001:00031de0       ?Print_BUTT@@YAIPADAAVNuance@@_N@Z 00432de0 f   PrintALU.obj
 0001:00031e60       ?Print_COPY@@YAIPADAAVNuance@@_N@Z 00432e60 f   PrintALU.obj
 0001:00031ee0       ?Print_MSB@@YAIPADAAVNuance@@_N@Z 00432ee0 f   PrintALU.obj
 0001:00031f60       ?Print_SAT@@YAIPADAAVNuance@@_N@Z 00432f60 f   PrintALU.obj
 0001:00031fe0       ?Print_AS@@YAIPADAAVNuance@@_N@Z 00432fe0 f   PrintALU.obj
 0001:00032060       ?Print_ASL@@YAIPADAAVNuance@@_N@Z 00433060 f   PrintALU.obj
 0001:000320e0       ?Print_ASR@@YAIPADAAVNuance@@_N@Z 004330e0 f   PrintALU.obj
 0001:00032160       ?Print_LS@@YAIPADAAVNuance@@_N@Z 00433160 f   PrintALU.obj
 0001:000321e0       ?Print_LSR@@YAIPADAAVNuance@@_N@Z 004331e0 f   PrintALU.obj
 0001:00032260       ?Print_ROT@@YAIPADAAVNuance@@_N@Z 00433260 f   PrintALU.obj
 0001:000322e0       ?Print_ROL@@YAIPADAAVNuance@@_N@Z 004332e0 f   PrintALU.obj
 0001:00032360       ?Print_ROR@@YAIPADAAVNuance@@_N@Z 00433360 f   PrintALU.obj
 0001:000323e0       ?Print_ADD_P@@YAIPADAAVNuance@@_N@Z 004333e0 f   PrintALU.obj
 0001:00032470       ?Print_SUB_P@@YAIPADAAVNuance@@_N@Z 00433470 f   PrintALU.obj
 0001:00032500       ?Print_ADD_SV@@YAIPADAAVNuance@@_N@Z 00433500 f   PrintALU.obj
 0001:00032590       ?Print_SUB_SV@@YAIPADAAVNuance@@_N@Z 00433590 f   PrintALU.obj
 0001:00032620       ?Print_ADDImmediate@@YAIPADAAVNuance@@_N@Z 00433620 f   PrintALU.obj
 0001:000326a0       ?Print_ADDScalar@@YAIPADAAVNuance@@_N@Z 004336a0 f   PrintALU.obj
 0001:00032720       ?Print_ADDScalarShiftRightImmediate@@YAIPADAAVNuance@@_N@Z 00433720 f   PrintALU.obj
 0001:000327a0       ?Print_ADDScalarShiftLeftImmediate@@YAIPADAAVNuance@@_N@Z 004337a0 f   PrintALU.obj
 0001:00032820       ?Print_SUBImmediate@@YAIPADAAVNuance@@_N@Z 00433820 f   PrintALU.obj
 0001:000328a0       ?Print_SUBImmediateReverse@@YAIPADAAVNuance@@_N@Z 004338a0 f   PrintALU.obj
 0001:00032920       ?Print_SUBScalar@@YAIPADAAVNuance@@_N@Z 00433920 f   PrintALU.obj
 0001:000329a0       ?Print_SUBScalarShiftRightImmediate@@YAIPADAAVNuance@@_N@Z 004339a0 f   PrintALU.obj
 0001:00032a20       ?Print_SUBScalarShiftLeftImmediate@@YAIPADAAVNuance@@_N@Z 00433a20 f   PrintALU.obj
 0001:00032aa0       ?Print_CMPImmediate@@YAIPADAAVNuance@@_N@Z 00433aa0 f   PrintALU.obj
 0001:00032b20       ?Print_CMPImmediateReverse@@YAIPADAAVNuance@@_N@Z 00433b20 f   PrintALU.obj
 0001:00032ba0       ?Print_CMPScalar@@YAIPADAAVNuance@@_N@Z 00433ba0 f   PrintALU.obj
 0001:00032c20       ?Print_CMPScalarShiftRightImmediate@@YAIPADAAVNuance@@_N@Z 00433c20 f   PrintALU.obj
 0001:00032ca0       ?Print_CMPScalarShiftLeftImmediate@@YAIPADAAVNuance@@_N@Z 00433ca0 f   PrintALU.obj
 0001:00032d20       ?Print_ANDImmediate@@YAIPADAAVNuance@@_N@Z 00433d20 f   PrintALU.obj
 0001:00032da0       ?Print_ANDScalar@@YAIPADAAVNuance@@_N@Z 00433da0 f   PrintALU.obj
 0001:00032e20       ?Print_ANDImmediateShiftScalar@@YAIPADAAVNuance@@_N@Z 00433e20 f   PrintALU.obj
 0001:00032ea0       ?Print_ANDScalarShiftRightImmediate@@YAIPADAAVNuance@@_N@Z 00433ea0 f   PrintALU.obj
 0001:00032f20       ?Print_ANDScalarShiftLeftImmediate@@YAIPADAAVNuance@@_N@Z 00433f20 f   PrintALU.obj
 0001:00032fa0       ?Print_ANDScalarShiftScalar@@YAIPADAAVNuance@@_N@Z 00433fa0 f   PrintALU.obj
 0001:00033020       ?Print_ANDScalarRotateScalar@@YAIPADAAVNuance@@_N@Z 00434020 f   PrintALU.obj
 0001:000330a0       ?Print_FTSTImmediate@@YAIPADAAVNuance@@_N@Z 004340a0 f   PrintALU.obj
 0001:00033120       ?Print_FTSTScalar@@YAIPADAAVNuance@@_N@Z 00434120 f   PrintALU.obj
 0001:000331a0       ?Print_FTSTImmediateShiftScalar@@YAIPADAAVNuance@@_N@Z 004341a0 f   PrintALU.obj
 0001:00033220       ?Print_FTSTScalarShiftRightImmediate@@YAIPADAAVNuance@@_N@Z 00434220 f   PrintALU.obj
 0001:000332a0       ?Print_FTSTScalarShiftLeftImmediate@@YAIPADAAVNuance@@_N@Z 004342a0 f   PrintALU.obj
 0001:00033320       ?Print_FTSTScalarShiftScalar@@YAIPADAAVNuance@@_N@Z 00434320 f   PrintALU.obj
 0001:000333a0       ?Print_FTSTScalarRotateScalar@@YAIPADAAVNuance@@_N@Z 004343a0 f   PrintALU.obj
 0001:00033420       ?Print_ORImmediate@@YAIPADAAVNuance@@_N@Z 00434420 f   PrintALU.obj
 0001:000334a0       ?Print_ORScalar@@YAIPADAAVNuance@@_N@Z 004344a0 f   PrintALU.obj
 0001:00033520       ?Print_ORImmediateShiftScalar@@YAIPADAAVNuance@@_N@Z 00434520 f   PrintALU.obj
 0001:000335a0       ?Print_ORScalarShiftRightImmediate@@YAIPADAAVNuance@@_N@Z 004345a0 f   PrintALU.obj
 0001:00033620       ?Print_ORScalarShiftLeftImmediate@@YAIPADAAVNuance@@_N@Z 00434620 f   PrintALU.obj
 0001:000336a0       ?Print_ORScalarShiftScalar@@YAIPADAAVNuance@@_N@Z 004346a0 f   PrintALU.obj
 0001:00033720       ?Print_ORScalarRotateScalar@@YAIPADAAVNuance@@_N@Z 00434720 f   PrintALU.obj
 0001:000337a0       ?Print_EORImmediate@@YAIPADAAVNuance@@_N@Z 004347a0 f   PrintALU.obj
 0001:00033820       ?Print_EORScalar@@YAIPADAAVNuance@@_N@Z 00434820 f   PrintALU.obj
 0001:000338a0       ?Print_EORImmediateShiftScalar@@YAIPADAAVNuance@@_N@Z 004348a0 f   PrintALU.obj
 0001:00033920       ?Print_EORScalarShiftRightImmediate@@YAIPADAAVNuance@@_N@Z 00434920 f   PrintALU.obj
 0001:000339a0       ?Print_EORScalarShiftLeftImmediate@@YAIPADAAVNuance@@_N@Z 004349a0 f   PrintALU.obj
 0001:00033a20       ?Print_EORScalarShiftScalar@@YAIPADAAVNuance@@_N@Z 00434a20 f   PrintALU.obj
 0001:00033aa0       ?Print_EORScalarRotateScalar@@YAIPADAAVNuance@@_N@Z 00434aa0 f   PrintALU.obj
 0001:00033b20       ?Print_ADDWCImmediate@@YAIPADAAVNuance@@_N@Z 00434b20 f   PrintALU.obj
 0001:00033ba0       ?Print_ADDWCScalar@@YAIPADAAVNuance@@_N@Z 00434ba0 f   PrintALU.obj
 0001:00033c20       ?Print_ADDWCScalarShiftRightImmediate@@YAIPADAAVNuance@@_N@Z 00434c20 f   PrintALU.obj
 0001:00033ca0       ?Print_ADDWCScalarShiftLeftImmediate@@YAIPADAAVNuance@@_N@Z 00434ca0 f   PrintALU.obj
 0001:00033d20       ?Print_SUBWCImmediate@@YAIPADAAVNuance@@_N@Z 00434d20 f   PrintALU.obj
 0001:00033da0       ?Print_SUBWCImmediateReverse@@YAIPADAAVNuance@@_N@Z 00434da0 f   PrintALU.obj
 0001:00033e20       ?Print_SUBWCScalar@@YAIPADAAVNuance@@_N@Z 00434e20 f   PrintALU.obj
 0001:00033ea0       ?Print_SUBWCScalarShiftRightImmediate@@YAIPADAAVNuance@@_N@Z 00434ea0 f   PrintALU.obj
 0001:00033f20       ?Print_SUBWCScalarShiftLeftImmediate@@YAIPADAAVNuance@@_N@Z 00434f20 f   PrintALU.obj
 0001:00033fa0       ?Print_CMPWCImmediate@@YAIPADAAVNuance@@_N@Z 00434fa0 f   PrintALU.obj
 0001:00034020       ?Print_CMPWCImmediateReverse@@YAIPADAAVNuance@@_N@Z 00435020 f   PrintALU.obj
 0001:000340a0       ?Print_CMPWCScalar@@YAIPADAAVNuance@@_N@Z 004350a0 f   PrintALU.obj
 0001:00034120       ?Print_CMPWCScalarShiftRightImmediate@@YAIPADAAVNuance@@_N@Z 00435120 f   PrintALU.obj
 0001:000341a0       ?Print_CMPWCScalarShiftLeftImmediate@@YAIPADAAVNuance@@_N@Z 004351a0 f   PrintALU.obj
 0001:00034220       ?GetConditionCode@@YAPADI@Z 00435220 f   PrintECU.obj
 0001:00034380       ?Print_ECU_NOP@@YAIPADAAVNuance@@_N@Z 00435380 f   PrintECU.obj
 0001:000343f0       ?Print_Halt@@YAIPADAAVNuance@@_N@Z 004353f0 f   PrintECU.obj
 0001:00034460       ?Print_BRAAlways@@YAIPADAAVNuance@@_N@Z 00435460 f   PrintECU.obj
 0001:000344e0       ?Print_BRAAlways_NOP@@YAIPADAAVNuance@@_N@Z 004354e0 f   PrintECU.obj
 0001:00034560       ?Print_BRAConditional@@YAIPADAAVNuance@@_N@Z 00435560 f   PrintECU.obj
 0001:000345f0       ?Print_BRAConditional_NOP@@YAIPADAAVNuance@@_N@Z 004355f0 f   PrintECU.obj
 0001:00034680       ?Print_JMPAlwaysIndirect@@YAIPADAAVNuance@@_N@Z 00435680 f   PrintECU.obj
 0001:00034700       ?Print_JMPAlwaysIndirect_NOP@@YAIPADAAVNuance@@_N@Z 00435700 f   PrintECU.obj
 0001:00034780       ?Print_JMPConditionalIndirect@@YAIPADAAVNuance@@_N@Z 00435780 f   PrintECU.obj
 0001:00034810       ?Print_JMPConditionalIndirect_NOP@@YAIPADAAVNuance@@_N@Z 00435810 f   PrintECU.obj
 0001:000348a0       ?Print_JSRAlways@@YAIPADAAVNuance@@_N@Z 004358a0 f   PrintECU.obj
 0001:00034920       ?Print_JSRAlways_NOP@@YAIPADAAVNuance@@_N@Z 00435920 f   PrintECU.obj
 0001:000349a0       ?Print_JSRConditional@@YAIPADAAVNuance@@_N@Z 004359a0 f   PrintECU.obj
 0001:00034a30       ?Print_JSRConditional_NOP@@YAIPADAAVNuance@@_N@Z 00435a30 f   PrintECU.obj
 0001:00034ac0       ?Print_JSRAlwaysIndirect@@YAIPADAAVNuance@@_N@Z 00435ac0 f   PrintECU.obj
 0001:00034b40       ?Print_JSRAlwaysIndirect_NOP@@YAIPADAAVNuance@@_N@Z 00435b40 f   PrintECU.obj
 0001:00034bc0       ?Print_JSRConditionalIndirect@@YAIPADAAVNuance@@_N@Z 00435bc0 f   PrintECU.obj
 0001:00034c50       ?Print_JSRConditionalIndirect_NOP@@YAIPADAAVNuance@@_N@Z 00435c50 f   PrintECU.obj
 0001:00034ce0       ?Print_RTSAlways@@YAIPADAAVNuance@@_N@Z 00435ce0 f   PrintECU.obj
 0001:00034d40       ?Print_RTSAlways_NOP@@YAIPADAAVNuance@@_N@Z 00435d40 f   PrintECU.obj
 0001:00034db0       ?Print_RTSConditional@@YAIPADAAVNuance@@_N@Z 00435db0 f   PrintECU.obj
 0001:00034e30       ?Print_RTSConditional_NOP@@YAIPADAAVNuance@@_N@Z 00435e30 f   PrintECU.obj
 0001:00034eb0       ?Print_RTI1Conditional@@YAIPADAAVNuance@@_N@Z 00435eb0 f   PrintECU.obj
 0001:00034f30       ?Print_RTI1Conditional_NOP@@YAIPADAAVNuance@@_N@Z 00435f30 f   PrintECU.obj
 0001:00034fb0       ?Print_RTI2Conditional@@YAIPADAAVNuance@@_N@Z 00435fb0 f   PrintECU.obj
 0001:00035030       ?Print_RTI2Conditional_NOP@@YAIPADAAVNuance@@_N@Z 00436030 f   PrintECU.obj
 0001:000350b0       ?GetControlRegister@@YAPADI@Z 004360b0 f   PrintMEM.obj
 0001:00035990       ?Print_Mirror@@YAIPADAAVNuance@@_N@Z 00436990 f   PrintMEM.obj
 0001:00035a10       ?Print_MV_SImmediate@@YAIPADAAVNuance@@_N@Z 00436a10 f   PrintMEM.obj
 0001:00035a90       ?Print_MV_SScalar@@YAIPADAAVNuance@@_N@Z 00436a90 f   PrintMEM.obj
 0001:00035b10       ?Print_MV_V@@YAIPADAAVNuance@@_N@Z 00436b10 f   PrintMEM.obj
 0001:00035b90       ?Print_PopVector@@YAIPADAAVNuance@@_N@Z 00436b90 f   PrintMEM.obj
 0001:00035c10       ?Print_PopVectorRz@@YAIPADAAVNuance@@_N@Z 00436c10 f   PrintMEM.obj
 0001:00035c90       ?Print_PopScalarRzi1@@YAIPADAAVNuance@@_N@Z 00436c90 f   PrintMEM.obj
 0001:00035d10       ?Print_PopScalarRzi2@@YAIPADAAVNuance@@_N@Z 00436d10 f   PrintMEM.obj
 0001:00035d90       ?Print_PushVector@@YAIPADAAVNuance@@_N@Z 00436d90 f   PrintMEM.obj
 0001:00035e10       ?Print_PushVectorRz@@YAIPADAAVNuance@@_N@Z 00436e10 f   PrintMEM.obj
 0001:00035e90       ?Print_PushScalarRzi1@@YAIPADAAVNuance@@_N@Z 00436e90 f   PrintMEM.obj
 0001:00035f10       ?Print_PushScalarRzi2@@YAIPADAAVNuance@@_N@Z 00436f10 f   PrintMEM.obj
 0001:00035f90       ?Print_LoadScalarControlRegisterAbsolute@@YAIPADAAVNuance@@_N@Z 00436f90 f   PrintMEM.obj
 0001:00036020       ?Print_LoadByteAbsolute@@YAIPADAAVNuance@@_N@Z 00437020 f   PrintMEM.obj
 0001:000360a0       ?Print_LoadWordAbsolute@@YAIPADAAVNuance@@_N@Z 004370a0 f   PrintMEM.obj
 0001:00036120       ?Print_LoadScalarAbsolute@@YAIPADAAVNuance@@_N@Z 00437120 f   PrintMEM.obj
 0001:000361a0       ?Print_LoadScalarLinear@@YAIPADAAVNuance@@_N@Z 004371a0 f   PrintMEM.obj
 0001:00036220       ?Print_LoadVectorAbsolute@@YAIPADAAVNuance@@_N@Z 00437220 f   PrintMEM.obj
 0001:000362a0       ?Print_LoadVectorControlRegisterAbsolute@@YAIPADAAVNuance@@_N@Z 004372a0 f   PrintMEM.obj
 0001:00036330       ?Print_LoadPixelAbsolute@@YAIPADAAVNuance@@_N@Z 00437330 f   PrintMEM.obj
 0001:000363b0       ?Print_LoadPixelZAbsolute@@YAIPADAAVNuance@@_N@Z 004373b0 f   PrintMEM.obj
 0001:00036430       ?Print_LoadByteLinear@@YAIPADAAVNuance@@_N@Z 00437430 f   PrintMEM.obj
 0001:000364b0       ?Print_LoadByteBilinearUV@@YAIPADAAVNuance@@_N@Z 004374b0 f   PrintMEM.obj
 0001:00036530       ?Print_LoadByteBilinearXY@@YAIPADAAVNuance@@_N@Z 00437530 f   PrintMEM.obj
 0001:000365b0       ?Print_LoadWordLinear@@YAIPADAAVNuance@@_N@Z 004375b0 f   PrintMEM.obj
 0001:00036630       ?Print_LoadWordBilinearUV@@YAIPADAAVNuance@@_N@Z 00437630 f   PrintMEM.obj
 0001:000366b0       ?Print_LoadWordBilinearXY@@YAIPADAAVNuance@@_N@Z 004376b0 f   PrintMEM.obj
 0001:00036730       ?Print_LoadScalarBilinearUV@@YAIPADAAVNuance@@_N@Z 00437730 f   PrintMEM.obj
 0001:000367b0       ?Print_LoadScalarBilinearXY@@YAIPADAAVNuance@@_N@Z 004377b0 f   PrintMEM.obj
 0001:00036830       ?Print_LoadShortVectorAbsolute@@YAIPADAAVNuance@@_N@Z 00437830 f   PrintMEM.obj
 0001:000368b0       ?Print_LoadShortVectorLinear@@YAIPADAAVNuance@@_N@Z 004378b0 f   PrintMEM.obj
 0001:00036930       ?Print_LoadShortVectorBilinearUV@@YAIPADAAVNuance@@_N@Z 00437930 f   PrintMEM.obj
 0001:000369b0       ?Print_LoadShortVectorBilinearXY@@YAIPADAAVNuance@@_N@Z 004379b0 f   PrintMEM.obj
 0001:00036a30       ?Print_LoadVectorLinear@@YAIPADAAVNuance@@_N@Z 00437a30 f   PrintMEM.obj
 0001:00036ab0       ?Print_LoadVectorBilinearUV@@YAIPADAAVNuance@@_N@Z 00437ab0 f   PrintMEM.obj
 0001:00036b30       ?Print_LoadVectorBilinearXY@@YAIPADAAVNuance@@_N@Z 00437b30 f   PrintMEM.obj
 0001:00036bb0       ?Print_LoadPixelLinear@@YAIPADAAVNuance@@_N@Z 00437bb0 f   PrintMEM.obj
 0001:00036c30       ?Print_LoadPixelBilinearUV@@YAIPADAAVNuance@@_N@Z 00437c30 f   PrintMEM.obj
 0001:00036cb0       ?Print_LoadPixelBilinearXY@@YAIPADAAVNuance@@_N@Z 00437cb0 f   PrintMEM.obj
 0001:00036d30       ?Print_LoadPixelZLinear@@YAIPADAAVNuance@@_N@Z 00437d30 f   PrintMEM.obj
 0001:00036db0       ?Print_LoadPixelZBilinearUV@@YAIPADAAVNuance@@_N@Z 00437db0 f   PrintMEM.obj
 0001:00036e30       ?Print_LoadPixelZBilinearXY@@YAIPADAAVNuance@@_N@Z 00437e30 f   PrintMEM.obj
 0001:00036eb0       ?Print_StoreScalarImmediate@@YAIPADAAVNuance@@_N@Z 00437eb0 f   PrintMEM.obj
 0001:00036f30       ?Print_StoreScalarAbsolute@@YAIPADAAVNuance@@_N@Z 00437f30 f   PrintMEM.obj
 0001:00036fb0       ?Print_StoreScalarControlRegisterImmediate@@YAIPADAAVNuance@@_N@Z 00437fb0 f   PrintMEM.obj
 0001:00037040       ?Print_StoreScalarLinear@@YAIPADAAVNuance@@_N@Z 00438040 f   PrintMEM.obj
 0001:000370c0       ?Print_StoreScalarBilinearUV@@YAIPADAAVNuance@@_N@Z 004380c0 f   PrintMEM.obj
 0001:00037140       ?Print_StoreScalarBilinearXY@@YAIPADAAVNuance@@_N@Z 00438140 f   PrintMEM.obj
 0001:000371c0       ?Print_StoreScalarControlRegisterAbsolute@@YAIPADAAVNuance@@_N@Z 004381c0 f   PrintMEM.obj
 0001:00037250       ?Print_StoreVectorControlRegisterAbsolute@@YAIPADAAVNuance@@_N@Z 00438250 f   PrintMEM.obj
 0001:000372e0       ?Print_StorePixelAbsolute@@YAIPADAAVNuance@@_N@Z 004382e0 f   PrintMEM.obj
 0001:00037360       ?Print_StorePixelZAbsolute@@YAIPADAAVNuance@@_N@Z 00438360 f   PrintMEM.obj
 0001:000373e0       ?Print_StoreShortVectorAbsolute@@YAIPADAAVNuance@@_N@Z 004383e0 f   PrintMEM.obj
 0001:00037460       ?Print_StoreShortVectorLinear@@YAIPADAAVNuance@@_N@Z 00438460 f   PrintMEM.obj
 0001:000374e0       ?Print_StoreShortVectorBilinearUV@@YAIPADAAVNuance@@_N@Z 004384e0 f   PrintMEM.obj
 0001:00037560       ?Print_StoreShortVectorBilinearXY@@YAIPADAAVNuance@@_N@Z 00438560 f   PrintMEM.obj
 0001:000375e0       ?Print_StoreVectorAbsolute@@YAIPADAAVNuance@@_N@Z 004385e0 f   PrintMEM.obj
 0001:00037660       ?Print_StoreVectorLinear@@YAIPADAAVNuance@@_N@Z 00438660 f   PrintMEM.obj
 0001:000376e0       ?Print_StoreVectorBilinearUV@@YAIPADAAVNuance@@_N@Z 004386e0 f   PrintMEM.obj
 0001:00037760       ?Print_StoreVectorBilinearXY@@YAIPADAAVNuance@@_N@Z 00438760 f   PrintMEM.obj
 0001:000377e0       ?Print_StorePixelLinear@@YAIPADAAVNuance@@_N@Z 004387e0 f   PrintMEM.obj
 0001:00037860       ?Print_StorePixelBilinearUV@@YAIPADAAVNuance@@_N@Z 00438860 f   PrintMEM.obj
 0001:000378e0       ?Print_StorePixelBilinearXY@@YAIPADAAVNuance@@_N@Z 004388e0 f   PrintMEM.obj
 0001:00037960       ?Print_StorePixelZLinear@@YAIPADAAVNuance@@_N@Z 00438960 f   PrintMEM.obj
 0001:000379e0       ?Print_StorePixelZBilinearUV@@YAIPADAAVNuance@@_N@Z 004389e0 f   PrintMEM.obj
 0001:00037a60       ?Print_StorePixelZBilinearXY@@YAIPADAAVNuance@@_N@Z 00438a60 f   PrintMEM.obj
 0001:00037ae0       ?Print_StoreScalarRegisterConstant@@YAIPADAAVNuance@@_N@Z 00438ae0 f   PrintMEM.obj
 0001:00037b60       ?GetMiscConstantRegister@@YAPADI@Z 00438b60 f   PrintMEM.obj
 0001:00037c00       ?Print_StoreMiscRegisterConstant@@YAIPADAAVNuance@@_N@Z 00438c00 f   PrintMEM.obj
 0001:00037cb0       ?Print_PacketStart@@YAIPADAAVNuance@@_N@Z 00438cb0 f   PrintMisc.obj
 0001:00037d20       ?Print_PacketEnd@@YAIPADAAVNuance@@_N@Z 00438d20 f   PrintMisc.obj
 0001:00037d90       ?Print_CheckECUSkipCounter@@YAIPADAAVNuance@@_N@Z 00438d90 f   PrintMisc.obj
 0001:00037e00       ?Print_SaveFlags@@YAIPADAAVNuance@@_N@Z 00438e00 f   PrintMisc.obj
 0001:00037e70       ?Print_SaveRegs@@YAIPADAAVNuance@@_N@Z 00438e70 f   PrintMisc.obj
 0001:00037ee0       ?Print_ADDMImmediate@@YAIPADAAVNuance@@_N@Z 00438ee0 f   PrintMUL.obj
 0001:00037f60       ?Print_ADDM@@YAIPADAAVNuance@@_N@Z 00438f60 f   PrintMUL.obj
 0001:00037fe0       ?Print_SUBMImmediateReverse@@YAIPADAAVNuance@@_N@Z 00438fe0 f   PrintMUL.obj
 0001:00038060       ?Print_SUBM@@YAIPADAAVNuance@@_N@Z 00439060 f   PrintMUL.obj
 0001:000380e0       ?Print_MULScalarShiftAcshift@@YAIPADAAVNuance@@_N@Z 004390e0 f   PrintMUL.obj
 0001:00038160       ?Print_MULScalarShiftRightImmediate@@YAIPADAAVNuance@@_N@Z 00439160 f   PrintMUL.obj
 0001:000381e0       ?Print_MULScalarShiftLeftImmediate@@YAIPADAAVNuance@@_N@Z 004391e0 f   PrintMUL.obj
 0001:00038260       ?Print_MULImmediateShiftAcshift@@YAIPADAAVNuance@@_N@Z 00439260 f   PrintMUL.obj
 0001:000382e0       ?Print_MULScalarShiftScalar@@YAIPADAAVNuance@@_N@Z 004392e0 f   PrintMUL.obj
 0001:00038360       ?Print_MULImmediateShiftScalar@@YAIPADAAVNuance@@_N@Z 00439360 f   PrintMUL.obj
 0001:000383e0       ?Print_MULImmediateShiftRightImmediate@@YAIPADAAVNuance@@_N@Z 004393e0 f   PrintMUL.obj
 0001:00038460       ?Print_MULImmediateShiftLeftImmediate@@YAIPADAAVNuance@@_N@Z 00439460 f   PrintMUL.obj
 0001:000384e0       ?Print_MUL_SVImmediateShiftImmediate@@YAIPADAAVNuance@@_N@Z 004394e0 f   PrintMUL.obj
 0001:000385b0       ?Print_MUL_SVScalarShiftImmediate@@YAIPADAAVNuance@@_N@Z 004395b0 f   PrintMUL.obj
 0001:00038680       ?Print_MUL_SVScalarShiftSvshift@@YAIPADAAVNuance@@_N@Z 00439680 f   PrintMUL.obj
 0001:00038710       ?Print_MUL_SVRuShiftImmediate@@YAIPADAAVNuance@@_N@Z 00439710 f   PrintMUL.obj
 0001:000387d0       ?Print_MUL_SVRuShiftSvshift@@YAIPADAAVNuance@@_N@Z 004397d0 f   PrintMUL.obj
 0001:00038850       ?Print_MUL_SVRvShiftImmediate@@YAIPADAAVNuance@@_N@Z 00439850 f   PrintMUL.obj
 0001:00038910       ?Print_MUL_SVRvShiftSvshift@@YAIPADAAVNuance@@_N@Z 00439910 f   PrintMUL.obj
 0001:00038990       ?Print_MUL_SVVectorShiftImmediate@@YAIPADAAVNuance@@_N@Z 00439990 f   PrintMUL.obj
 0001:00038a60       ?Print_MUL_SVVectorShiftSvshift@@YAIPADAAVNuance@@_N@Z 00439a60 f   PrintMUL.obj
 0001:00038af0       ?Print_MUL_PImmediateShiftImmediate@@YAIPADAAVNuance@@_N@Z 00439af0 f   PrintMUL.obj
 0001:00038bc0       ?Print_MUL_PScalarShiftImmediate@@YAIPADAAVNuance@@_N@Z 00439bc0 f   PrintMUL.obj
 0001:00038c90       ?Print_MUL_PScalarShiftSvshift@@YAIPADAAVNuance@@_N@Z 00439c90 f   PrintMUL.obj
 0001:00038d20       ?Print_MUL_PRuShiftImmediate@@YAIPADAAVNuance@@_N@Z 00439d20 f   PrintMUL.obj
 0001:00038de0       ?Print_MUL_PRuShiftSvshift@@YAIPADAAVNuance@@_N@Z 00439de0 f   PrintMUL.obj
 0001:00038e60       ?Print_MUL_PRvShiftImmediate@@YAIPADAAVNuance@@_N@Z 00439e60 f   PrintMUL.obj
 0001:00038f20       ?Print_MUL_PRvShiftSvshift@@YAIPADAAVNuance@@_N@Z 00439f20 f   PrintMUL.obj
 0001:00038fa0       ?Print_MUL_PVectorShiftImmediate@@YAIPADAAVNuance@@_N@Z 00439fa0 f   PrintMUL.obj
 0001:00039070       ?Print_MUL_PVectorShiftSvshift@@YAIPADAAVNuance@@_N@Z 0043a070 f   PrintMUL.obj
 0001:00039100       ?Print_DOTPScalarShiftImmediate@@YAIPADAAVNuance@@_N@Z 0043a100 f   PrintMUL.obj
 0001:000391c0       ?Print_DOTPScalarShiftSvshift@@YAIPADAAVNuance@@_N@Z 0043a1c0 f   PrintMUL.obj
 0001:00039240       ?Print_DOTPVectorShiftImmediate@@YAIPADAAVNuance@@_N@Z 0043a240 f   PrintMUL.obj
 0001:00039310       ?Print_DOTPVectorShiftSvshift@@YAIPADAAVNuance@@_N@Z 0043a310 f   PrintMUL.obj
 0001:000393a0       ?Print_DEC@@YAIPADAAVNuance@@_N@Z 0043a3a0 f   PrintRCU.obj
 0001:00039500       ?Print_ADDRImmediate@@YAIPADAAVNuance@@_N@Z 0043a500 f   PrintRCU.obj
 0001:000395c0       ?Print_ADDRScalar@@YAIPADAAVNuance@@_N@Z 0043a5c0 f   PrintRCU.obj
 0001:00039680       ?Print_MVRImmediate@@YAIPADAAVNuance@@_N@Z 0043a680 f   PrintRCU.obj
 0001:00039740       ?Print_MVRScalar@@YAIPADAAVNuance@@_N@Z 0043a740 f   PrintRCU.obj
 0001:00039800       ?Print_Range@@YAIPADAAVNuance@@_N@Z 0043a800 f   PrintRCU.obj
 0001:000398c0       ?Print_Modulo@@YAIPADAAVNuance@@_N@Z 0043a8c0 f   PrintRCU.obj
 0001:00039980       ?PropagateConstants_ABS@@YAXAAVSuperBlockConstants@@@Z 0043a980 f   PropagateConstants_ALU.obj
 0001:00039a40       ?PropagateConstants_BITSImmediate@@YAXAAVSuperBlockConstants@@@Z 0043aa40 f   PropagateConstants_ALU.obj
 0001:00039ad0       ?PropagateConstants_BITSScalar@@YAXAAVSuperBlockConstants@@@Z 0043aad0 f   PropagateConstants_ALU.obj
 0001:00039b50       ?PropagateConstants_BTST@@YAXAAVSuperBlockConstants@@@Z 0043ab50 f   PropagateConstants_ALU.obj
 0001:00039c00       ?PropagateConstants_BUTT@@YAXAAVSuperBlockConstants@@@Z 0043ac00 f   PropagateConstants_ALU.obj
 0001:00039c40       ?PropagateConstants_COPY@@YAXAAVSuperBlockConstants@@@Z 0043ac40 f   PropagateConstants_ALU.obj
 0001:00039cf0       ?PropagateConstants_MSB@@YAXAAVSuperBlockConstants@@@Z 0043acf0 f   PropagateConstants_ALU.obj
 0001:00039e00       ?PropagateConstants_SAT@@YAXAAVSuperBlockConstants@@@Z 0043ae00 f   PropagateConstants_ALU.obj
 0001:00039eb0       ?PropagateConstants_ASL@@YAXAAVSuperBlockConstants@@@Z 0043aeb0 f   PropagateConstants_ALU.obj
 0001:00039f80       ?PropagateConstants_ASR@@YAXAAVSuperBlockConstants@@@Z 0043af80 f   PropagateConstants_ALU.obj
 0001:0003a040       ?PropagateConstants_AS@@YAXAAVSuperBlockConstants@@@Z 0043b040 f   PropagateConstants_ALU.obj
 0001:0003a110       ?PropagateConstants_LSR@@YAXAAVSuperBlockConstants@@@Z 0043b110 f   PropagateConstants_ALU.obj
 0001:0003a1d0       ?PropagateConstants_LS@@YAXAAVSuperBlockConstants@@@Z 0043b1d0 f   PropagateConstants_ALU.obj
 0001:0003a2a0       ?PropagateConstants_ROL@@YAXAAVSuperBlockConstants@@@Z 0043b2a0 f   PropagateConstants_ALU.obj
 0001:0003a350       ?PropagateConstants_ROR@@YAXAAVSuperBlockConstants@@@Z 0043b350 f   PropagateConstants_ALU.obj
 0001:0003a400       ?PropagateConstants_ROT@@YAXAAVSuperBlockConstants@@@Z 0043b400 f   PropagateConstants_ALU.obj
 0001:0003a4d0       ?PropagateConstants_ADD_P@@YAXAAVSuperBlockConstants@@@Z 0043b4d0 f   PropagateConstants_ALU.obj
 0001:0003a500       ?PropagateConstants_SUB_P@@YAXAAVSuperBlockConstants@@@Z 0043b500 f   PropagateConstants_ALU.obj
 0001:0003a570       ?PropagateConstants_ADD_SV@@YAXAAVSuperBlockConstants@@@Z 0043b570 f   PropagateConstants_ALU.obj
 0001:0003a5a0       ?PropagateConstants_SUB_SV@@YAXAAVSuperBlockConstants@@@Z 0043b5a0 f   PropagateConstants_ALU.obj
 0001:0003a620       ?PropagateConstants_ADDImmediate@@YAXAAVSuperBlockConstants@@@Z 0043b620 f   PropagateConstants_ALU.obj
 0001:0003a720       ?PropagateConstants_ADDScalar@@YAXAAVSuperBlockConstants@@@Z 0043b720 f   PropagateConstants_ALU.obj
 0001:0003a7a0       ?PropagateConstants_ADDScalarShiftRightImmediate@@YAXAAVSuperBlockConstants@@@Z 0043b7a0 f   PropagateConstants_ALU.obj
 0001:0003a830       ?PropagateConstants_ADDScalarShiftLeftImmediate@@YAXAAVSuperBlockConstants@@@Z 0043b830 f   PropagateConstants_ALU.obj
 0001:0003a8c0       ?PropagateConstants_SUBImmediate@@YAXAAVSuperBlockConstants@@@Z 0043b8c0 f   PropagateConstants_ALU.obj
 0001:0003a9b0       ?PropagateConstants_SUBImmediateReverse@@YAXAAVSuperBlockConstants@@@Z 0043b9b0 f   PropagateConstants_ALU.obj
 0001:0003aab0       ?PropagateConstants_SUBScalar@@YAXAAVSuperBlockConstants@@@Z 0043bab0 f   PropagateConstants_ALU.obj
 0001:0003abe0       ?PropagateConstants_SUBScalarShiftRightImmediate@@YAXAAVSuperBlockConstants@@@Z 0043bbe0 f   PropagateConstants_ALU.obj
 0001:0003ac70       ?PropagateConstants_SUBScalarShiftLeftImmediate@@YAXAAVSuperBlockConstants@@@Z 0043bc70 f   PropagateConstants_ALU.obj
 0001:0003ad00       ?PropagateConstants_CMPImmediate@@YAXAAVSuperBlockConstants@@@Z 0043bd00 f   PropagateConstants_ALU.obj
 0001:0003ade0       ?PropagateConstants_CMPImmediateReverse@@YAXAAVSuperBlockConstants@@@Z 0043bde0 f   PropagateConstants_ALU.obj
 0001:0003aec0       ?PropagateConstants_CMPScalar@@YAXAAVSuperBlockConstants@@@Z 0043bec0 f   PropagateConstants_ALU.obj
 0001:0003af70       ?PropagateConstants_CMPScalarShiftRightImmediate@@YAXAAVSuperBlockConstants@@@Z 0043bf70 f   PropagateConstants_ALU.obj
 0001:0003aff0       ?PropagateConstants_CMPScalarShiftLeftImmediate@@YAXAAVSuperBlockConstants@@@Z 0043bff0 f   PropagateConstants_ALU.obj
 0001:0003b070       ?PropagateConstants_ANDImmediate@@YAXAAVSuperBlockConstants@@@Z 0043c070 f   PropagateConstants_ALU.obj
 0001:0003b120       ?PropagateConstants_ANDScalar@@YAXAAVSuperBlockConstants@@@Z 0043c120 f   PropagateConstants_ALU.obj
 0001:0003b210       ?PropagateConstants_ANDImmediateShiftScalar@@YAXAAVSuperBlockConstants@@@Z 0043c210 f   PropagateConstants_ALU.obj
 0001:0003b2d0       ?PropagateConstants_ANDScalarShiftRightImmediate@@YAXAAVSuperBlockConstants@@@Z 0043c2d0 f   PropagateConstants_ALU.obj
 0001:0003b370       ?PropagateConstants_ANDScalarShiftLeftImmediate@@YAXAAVSuperBlockConstants@@@Z 0043c370 f   PropagateConstants_ALU.obj
 0001:0003b410       ?PropagateConstants_ANDScalarShiftScalar@@YAXAAVSuperBlockConstants@@@Z 0043c410 f   PropagateConstants_ALU.obj
 0001:0003b4c0       ?PropagateConstants_ANDScalarRotateScalar@@YAXAAVSuperBlockConstants@@@Z 0043c4c0 f   PropagateConstants_ALU.obj
 0001:0003b5a0       ?PropagateConstants_FTSTImmediate@@YAXAAVSuperBlockConstants@@@Z 0043c5a0 f   PropagateConstants_ALU.obj
 0001:0003b640       ?PropagateConstants_FTSTScalar@@YAXAAVSuperBlockConstants@@@Z 0043c640 f   PropagateConstants_ALU.obj
 0001:0003b710       ?PropagateConstants_FTSTImmediateShiftScalar@@YAXAAVSuperBlockConstants@@@Z 0043c710 f   PropagateConstants_ALU.obj
 0001:0003b7c0       ?PropagateConstants_FTSTScalarShiftRightImmediate@@YAXAAVSuperBlockConstants@@@Z 0043c7c0 f   PropagateConstants_ALU.obj
 0001:0003b850       ?PropagateConstants_FTSTScalarShiftLeftImmediate@@YAXAAVSuperBlockConstants@@@Z 0043c850 f   PropagateConstants_ALU.obj
 0001:0003b8e0       ?PropagateConstants_FTSTScalarShiftScalar@@YAXAAVSuperBlockConstants@@@Z 0043c8e0 f   PropagateConstants_ALU.obj
 0001:0003b980       ?PropagateConstants_FTSTScalarRotateScalar@@YAXAAVSuperBlockConstants@@@Z 0043c980 f   PropagateConstants_ALU.obj
 0001:0003ba50       ?PropagateConstants_ORImmediate@@YAXAAVSuperBlockConstants@@@Z 0043ca50 f   PropagateConstants_ALU.obj
 0001:0003bb00       ?PropagateConstants_ORScalar@@YAXAAVSuperBlockConstants@@@Z 0043cb00 f   PropagateConstants_ALU.obj
 0001:0003bbf0       ?PropagateConstants_ORImmediateShiftScalar@@YAXAAVSuperBlockConstants@@@Z 0043cbf0 f   PropagateConstants_ALU.obj
 0001:0003bcb0       ?PropagateConstants_ORScalarShiftRightImmediate@@YAXAAVSuperBlockConstants@@@Z 0043ccb0 f   PropagateConstants_ALU.obj
 0001:0003bd50       ?PropagateConstants_ORScalarShiftLeftImmediate@@YAXAAVSuperBlockConstants@@@Z 0043cd50 f   PropagateConstants_ALU.obj
 0001:0003bdf0       ?PropagateConstants_ORScalarShiftScalar@@YAXAAVSuperBlockConstants@@@Z 0043cdf0 f   PropagateConstants_ALU.obj
 0001:0003bea0       ?PropagateConstants_ORScalarRotateScalar@@YAXAAVSuperBlockConstants@@@Z 0043cea0 f   PropagateConstants_ALU.obj
 0001:0003bf80       ?PropagateConstants_EORImmediate@@YAXAAVSuperBlockConstants@@@Z 0043cf80 f   PropagateConstants_ALU.obj
 0001:0003c030       ?PropagateConstants_EORScalar@@YAXAAVSuperBlockConstants@@@Z 0043d030 f   PropagateConstants_ALU.obj
 0001:0003c170       ?PropagateConstants_EORImmediateShiftScalar@@YAXAAVSuperBlockConstants@@@Z 0043d170 f   PropagateConstants_ALU.obj
 0001:0003c230       ?PropagateConstants_EORScalarShiftRightImmediate@@YAXAAVSuperBlockConstants@@@Z 0043d230 f   PropagateConstants_ALU.obj
 0001:0003c2d0       ?PropagateConstants_EORScalarShiftLeftImmediate@@YAXAAVSuperBlockConstants@@@Z 0043d2d0 f   PropagateConstants_ALU.obj
 0001:0003c370       ?PropagateConstants_EORScalarShiftScalar@@YAXAAVSuperBlockConstants@@@Z 0043d370 f   PropagateConstants_ALU.obj
 0001:0003c420       ?PropagateConstants_EORScalarRotateScalar@@YAXAAVSuperBlockConstants@@@Z 0043d420 f   PropagateConstants_ALU.obj
 0001:0003c500       ?PropagateConstants_ADDWCImmediate@@YAXAAVSuperBlockConstants@@@Z 0043d500 f   PropagateConstants_ALU.obj
 0001:0003c620       ?PropagateConstants_ADDWCScalar@@YAXAAVSuperBlockConstants@@@Z 0043d620 f   PropagateConstants_ALU.obj
 0001:0003c6a0       ?PropagateConstants_ADDWCScalarShiftRightImmediate@@YAXAAVSuperBlockConstants@@@Z 0043d6a0 f   PropagateConstants_ALU.obj
 0001:0003c730       ?PropagateConstants_ADDWCScalarShiftLeftImmediate@@YAXAAVSuperBlockConstants@@@Z 0043d730 f   PropagateConstants_ALU.obj
 0001:0003c7c0       ?PropagateConstants_SUBWCImmediate@@YAXAAVSuperBlockConstants@@@Z 0043d7c0 f   PropagateConstants_ALU.obj
 0001:0003c8e0       ?PropagateConstants_SUBWCImmediateReverse@@YAXAAVSuperBlockConstants@@@Z 0043d8e0 f   PropagateConstants_ALU.obj
 0001:0003c9f0       ?PropagateConstants_SUBWCScalar@@YAXAAVSuperBlockConstants@@@Z 0043d9f0 f   PropagateConstants_ALU.obj
 0001:0003cac0       ?PropagateConstants_SUBWCScalarShiftRightImmediate@@YAXAAVSuperBlockConstants@@@Z 0043dac0 f   PropagateConstants_ALU.obj
 0001:0003cb50       ?PropagateConstants_SUBWCScalarShiftLeftImmediate@@YAXAAVSuperBlockConstants@@@Z 0043db50 f   PropagateConstants_ALU.obj
 0001:0003cbe0       ?PropagateConstants_CMPWCImmediate@@YAXAAVSuperBlockConstants@@@Z 0043dbe0 f   PropagateConstants_ALU.obj
 0001:0003ccd0       ?PropagateConstants_CMPWCImmediateReverse@@YAXAAVSuperBlockConstants@@@Z 0043dcd0 f   PropagateConstants_ALU.obj
 0001:0003cdc0       ?PropagateConstants_CMPWCScalar@@YAXAAVSuperBlockConstants@@@Z 0043ddc0 f   PropagateConstants_ALU.obj
 0001:0003ce70       ?PropagateConstants_CMPWCScalarShiftRightImmediate@@YAXAAVSuperBlockConstants@@@Z 0043de70 f   PropagateConstants_ALU.obj
 0001:0003cef0       ?PropagateConstants_CMPWCScalarShiftLeftImmediate@@YAXAAVSuperBlockConstants@@@Z 0043def0 f   PropagateConstants_ALU.obj
 0001:0003cf70       ?PropagateConstants_ECU_NOP@@YAXAAVSuperBlockConstants@@@Z 0043df70 f   PropagateConstants_ECU.obj
 0001:0003cfa0       ?PropagateConstants_Halt@@YAXAAVSuperBlockConstants@@@Z 0043dfa0 f   PropagateConstants_ECU.obj
 0001:0003cfc0       ?PropagateConstants_BRAAlways@@YAXAAVSuperBlockConstants@@@Z 0043dfc0 f   PropagateConstants_ECU.obj
 0001:0003cff0       ?PropagateConstants_BRAAlways_NOP@@YAXAAVSuperBlockConstants@@@Z 0043dff0 f   PropagateConstants_ECU.obj
 0001:0003d020       ?PropagateConstants_BRAConditional@@YAXAAVSuperBlockConstants@@@Z 0043e020 f   PropagateConstants_ECU.obj
 0001:0003d0d0       ?PropagateConstants_BRAConditional_NOP@@YAXAAVSuperBlockConstants@@@Z 0043e0d0 f   PropagateConstants_ECU.obj
 0001:0003d170       ?PropagateConstants_JMPAlwaysIndirect@@YAXAAVSuperBlockConstants@@@Z 0043e170 f   PropagateConstants_ECU.obj
 0001:0003d1f0       ?PropagateConstants_JMPAlwaysIndirect_NOP@@YAXAAVSuperBlockConstants@@@Z 0043e1f0 f   PropagateConstants_ECU.obj
 0001:0003d270       ?PropagateConstants_JMPConditionalIndirect@@YAXAAVSuperBlockConstants@@@Z 0043e270 f   PropagateConstants_ECU.obj
 0001:0003d300       ?PropagateConstants_JMPConditionalIndirect_NOP@@YAXAAVSuperBlockConstants@@@Z 0043e300 f   PropagateConstants_ECU.obj
 0001:0003d390       ?PropagateConstants_JSRAlways@@YAXAAVSuperBlockConstants@@@Z 0043e390 f   PropagateConstants_ECU.obj
 0001:0003d3c0       ?PropagateConstants_JSRAlways_NOP@@YAXAAVSuperBlockConstants@@@Z 0043e3c0 f   PropagateConstants_ECU.obj
 0001:0003d3f0       ?PropagateConstants_JSRConditional@@YAXAAVSuperBlockConstants@@@Z 0043e3f0 f   PropagateConstants_ECU.obj
 0001:0003d4a0       ?PropagateConstants_JSRConditional_NOP@@YAXAAVSuperBlockConstants@@@Z 0043e4a0 f   PropagateConstants_ECU.obj
 0001:0003d540       ?PropagateConstants_JSRAlwaysIndirect@@YAXAAVSuperBlockConstants@@@Z 0043e540 f   PropagateConstants_ECU.obj
 0001:0003d5c0       ?PropagateConstants_JSRAlwaysIndirect_NOP@@YAXAAVSuperBlockConstants@@@Z 0043e5c0 f   PropagateConstants_ECU.obj
 0001:0003d640       ?PropagateConstants_JSRConditionalIndirect@@YAXAAVSuperBlockConstants@@@Z 0043e640 f   PropagateConstants_ECU.obj
 0001:0003d6d0       ?PropagateConstants_JSRConditionalIndirect_NOP@@YAXAAVSuperBlockConstants@@@Z 0043e6d0 f   PropagateConstants_ECU.obj
 0001:0003d760       ?PropagateConstants_RTSAlways@@YAXAAVSuperBlockConstants@@@Z 0043e760 f   PropagateConstants_ECU.obj
 0001:0003d780       ?PropagateConstants_RTSAlways_NOP@@YAXAAVSuperBlockConstants@@@Z 0043e780 f   PropagateConstants_ECU.obj
 0001:0003d7a0       ?PropagateConstants_RTSConditional@@YAXAAVSuperBlockConstants@@@Z 0043e7a0 f   PropagateConstants_ECU.obj
 0001:0003d840       ?PropagateConstants_RTSConditional_NOP@@YAXAAVSuperBlockConstants@@@Z 0043e840 f   PropagateConstants_ECU.obj
 0001:0003d8d0       ?PropagateConstants_RTI1Conditional@@YAXAAVSuperBlockConstants@@@Z 0043e8d0 f   PropagateConstants_ECU.obj
 0001:0003d950       ?PropagateConstants_RTI1Conditional_NOP@@YAXAAVSuperBlockConstants@@@Z 0043e950 f   PropagateConstants_ECU.obj
 0001:0003d9d0       ?PropagateConstants_RTI2Conditional@@YAXAAVSuperBlockConstants@@@Z 0043e9d0 f   PropagateConstants_ECU.obj
 0001:0003da50       ?PropagateConstants_RTI2Conditional_NOP@@YAXAAVSuperBlockConstants@@@Z 0043ea50 f   PropagateConstants_ECU.obj
 0001:0003dad0       ?PropagateConstants_UpdateFlagConstants@@YAXAAVSuperBlockConstants@@@Z 0043ead0 f   PropagateConstants_MEM.obj
 0001:0003dc40       ?PropagateConstants_StoreScalarRegisterConstant@@YAXAAVSuperBlockConstants@@@Z 0043ec40 f   PropagateConstants_MEM.obj
 0001:0003dc80       ?PropagateConstants_StoreMiscRegisterConstant@@YAXAAVSuperBlockConstants@@@Z 0043ec80 f   PropagateConstants_MEM.obj
 0001:0003dcd0       ?PropagateConstants_Mirror@@YAXAAVSuperBlockConstants@@@Z 0043ecd0 f   PropagateConstants_MEM.obj
 0001:0003ddb0       ?PropagateConstants_MV_SImmediate@@YAXAAVSuperBlockConstants@@@Z 0043edb0 f   PropagateConstants_MEM.obj
 0001:0003dde0       ?PropagateConstants_MV_SScalar@@YAXAAVSuperBlockConstants@@@Z 0043ede0 f   PropagateConstants_MEM.obj
 0001:0003de60       ?PropagateConstants_PopVectorRz@@YAXAAVSuperBlockConstants@@@Z 0043ee60 f   PropagateConstants_MEM.obj
 0001:0003dea0       ?PropagateConstants_PopScalarRzi1@@YAXAAVSuperBlockConstants@@@Z 0043eea0 f   PropagateConstants_MEM.obj
 0001:0003dee0       ?PropagateConstants_PopScalarRzi2@@YAXAAVSuperBlockConstants@@@Z 0043eee0 f   PropagateConstants_MEM.obj
 0001:0003df20       ?PropagateConstants_LoadScalarControlRegisterAbsolute@@YAXAAVSuperBlockConstants@@@Z 0043ef20 f   PropagateConstants_MEM.obj
 0001:0003e140       ?PropagateConstants_LoadScalarLinear@@YAXAAVSuperBlockConstants@@@Z 0043f140 f   PropagateConstants_MEM.obj
 0001:0003e210       ?PropagateConstants_LoadPixelZAbsolute@@YAXAAVSuperBlockConstants@@@Z 0043f210 f   PropagateConstants_MEM.obj
 0001:0003e210       ?PropagateConstants_LoadShortVectorBilinearXY@@YAXAAVSuperBlockConstants@@@Z 0043f210 f   PropagateConstants_MEM.obj
 0001:0003e210       ?PropagateConstants_LoadPixelZBilinearUV@@YAXAAVSuperBlockConstants@@@Z 0043f210 f   PropagateConstants_MEM.obj
 0001:0003e210       ?PropagateConstants_LoadPixelZBilinearXY@@YAXAAVSuperBlockConstants@@@Z 0043f210 f   PropagateConstants_MEM.obj
 0001:0003e210       ?PropagateConstants_LoadShortVectorBilinearUV@@YAXAAVSuperBlockConstants@@@Z 0043f210 f   PropagateConstants_MEM.obj
 0001:0003e210       ?PropagateConstants_LoadPixelBilinearXY@@YAXAAVSuperBlockConstants@@@Z 0043f210 f   PropagateConstants_MEM.obj
 0001:0003e210       ?PropagateConstants_LoadVectorBilinearXY@@YAXAAVSuperBlockConstants@@@Z 0043f210 f   PropagateConstants_MEM.obj
 0001:0003e210       ?PropagateConstants_LoadVectorAbsolute@@YAXAAVSuperBlockConstants@@@Z 0043f210 f   PropagateConstants_MEM.obj
 0001:0003e210       ?PropagateConstants_MV_V@@YAXAAVSuperBlockConstants@@@Z 0043f210 f   PropagateConstants_MEM.obj
 0001:0003e210       ?PropagateConstants_LoadShortVectorAbsolute@@YAXAAVSuperBlockConstants@@@Z 0043f210 f   PropagateConstants_MEM.obj
 0001:0003e210       ?PropagateConstants_LoadVectorBilinearUV@@YAXAAVSuperBlockConstants@@@Z 0043f210 f   PropagateConstants_MEM.obj
 0001:0003e210       ?PropagateConstants_LoadPixelBilinearUV@@YAXAAVSuperBlockConstants@@@Z 0043f210 f   PropagateConstants_MEM.obj
 0001:0003e240       ?PropagateConstants_LoadVectorControlRegisterAbsolute@@YAXAAVSuperBlockConstants@@@Z 0043f240 f   PropagateConstants_MEM.obj
 0001:0003e240       ?PropagateConstants_PopVector@@YAXAAVSuperBlockConstants@@@Z 0043f240 f   PropagateConstants_MEM.obj
 0001:0003e270       ?PropagateConstants_LoadPixelAbsolute@@YAXAAVSuperBlockConstants@@@Z 0043f270 f   PropagateConstants_MEM.obj
 0001:0003e2a0       ?PropagateConstants_LoadByteLinear@@YAXAAVSuperBlockConstants@@@Z 0043f2a0 f   PropagateConstants_MEM.obj
 0001:0003e330       ?PropagateConstants_LoadWordLinear@@YAXAAVSuperBlockConstants@@@Z 0043f330 f   PropagateConstants_MEM.obj
 0001:0003e3d0       ?PropagateConstants_LoadScalarAbsolute@@YAXAAVSuperBlockConstants@@@Z 0043f3d0 f   PropagateConstants_MEM.obj
 0001:0003e3d0       ?PropagateConstants_LoadWordBilinearXY@@YAXAAVSuperBlockConstants@@@Z 0043f3d0 f   PropagateConstants_MEM.obj
 0001:0003e3d0       ?PropagateConstants_LoadWordAbsolute@@YAXAAVSuperBlockConstants@@@Z 0043f3d0 f   PropagateConstants_MEM.obj
 0001:0003e3d0       ?PropagateConstants_LoadWordBilinearUV@@YAXAAVSuperBlockConstants@@@Z 0043f3d0 f   PropagateConstants_MEM.obj
 0001:0003e3d0       ?PropagateConstants_LoadByteBilinearXY@@YAXAAVSuperBlockConstants@@@Z 0043f3d0 f   PropagateConstants_MEM.obj
 0001:0003e3d0       ?PropagateConstants_LoadScalarBilinearXY@@YAXAAVSuperBlockConstants@@@Z 0043f3d0 f   PropagateConstants_MEM.obj
 0001:0003e3d0       ?PropagateConstants_LoadByteBilinearUV@@YAXAAVSuperBlockConstants@@@Z 0043f3d0 f   PropagateConstants_MEM.obj
 0001:0003e3d0       ?PropagateConstants_LoadScalarBilinearUV@@YAXAAVSuperBlockConstants@@@Z 0043f3d0 f   PropagateConstants_MEM.obj
 0001:0003e3d0       ?PropagateConstants_LoadByteAbsolute@@YAXAAVSuperBlockConstants@@@Z 0043f3d0 f   PropagateConstants_MEM.obj
 0001:0003e400       ?PropagateConstants_LoadShortVectorLinear@@YAXAAVSuperBlockConstants@@@Z 0043f400 f   PropagateConstants_MEM.obj
 0001:0003e4a0       ?PropagateConstants_LoadVectorLinear@@YAXAAVSuperBlockConstants@@@Z 0043f4a0 f   PropagateConstants_MEM.obj
 0001:0003e570       ?PropagateConstants_LoadPixelLinear@@YAXAAVSuperBlockConstants@@@Z 0043f570 f   PropagateConstants_MEM.obj
 0001:0003e600       ?PropagateConstants_LoadPixelZLinear@@YAXAAVSuperBlockConstants@@@Z 0043f600 f   PropagateConstants_MEM.obj
 0001:0003e680       ?PropagateConstants_StoreScalarControlRegisterImmediate@@YAXAAVSuperBlockConstants@@@Z 0043f680 f   PropagateConstants_MEM.obj
 0001:0003e850       ?PropagateConstants_StoreScalarControlRegisterAbsolute@@YAXAAVSuperBlockConstants@@@Z 0043f850 f   PropagateConstants_MEM.obj
 0001:0003ea20       ?PropagateConstants_StoreScalarAbsolute@@YAXAAVSuperBlockConstants@@@Z 0043fa20 f   PropagateConstants_MEM.obj
 0001:0003ea70       ?PropagateConstants_StoreScalarLinear@@YAXAAVSuperBlockConstants@@@Z 0043fa70 f   PropagateConstants_MEM.obj
 0001:0003eb30       ?PropagateConstants_StoreShortVectorLinear@@YAXAAVSuperBlockConstants@@@Z 0043fb30 f   PropagateConstants_MEM.obj
 0001:0003eba0       ?PropagateConstants_StoreVectorLinear@@YAXAAVSuperBlockConstants@@@Z 0043fba0 f   PropagateConstants_MEM.obj
 0001:0003ec10       ?PropagateConstants_StorePixelLinear@@YAXAAVSuperBlockConstants@@@Z 0043fc10 f   PropagateConstants_MEM.obj
 0001:0003ec80       ?PropagateConstants_StorePixelZLinear@@YAXAAVSuperBlockConstants@@@Z 0043fc80 f   PropagateConstants_MEM.obj
 0001:0003ecf0       ?PropagateConstants_PushScalarRzi1@@YAXAAVSuperBlockConstants@@@Z 0043fcf0 f   PropagateConstants_MEM.obj
 0001:0003ecf0       ?PropagateConstants_StoreVectorBilinearUV@@YAXAAVSuperBlockConstants@@@Z 0043fcf0 f   PropagateConstants_MEM.obj
 0001:0003ecf0       ?PropagateConstants_StoreScalarBilinearXY@@YAXAAVSuperBlockConstants@@@Z 0043fcf0 f   PropagateConstants_MEM.obj
 0001:0003ecf0       ?PropagateConstants_StorePixelZBilinearXY@@YAXAAVSuperBlockConstants@@@Z 0043fcf0 f   PropagateConstants_MEM.obj
 0001:0003ecf0       ?PropagateConstants_StorePixelZBilinearUV@@YAXAAVSuperBlockConstants@@@Z 0043fcf0 f   PropagateConstants_MEM.obj
 0001:0003ecf0       ?PropagateConstants_StoreShortVectorBilinearXY@@YAXAAVSuperBlockConstants@@@Z 0043fcf0 f   PropagateConstants_MEM.obj
 0001:0003ecf0       ?PropagateConstants_StoreScalarImmediate@@YAXAAVSuperBlockConstants@@@Z 0043fcf0 f   PropagateConstants_MEM.obj
 0001:0003ecf0       ?PropagateConstants_StoreVectorAbsolute@@YAXAAVSuperBlockConstants@@@Z 0043fcf0 f   PropagateConstants_MEM.obj
 0001:0003ecf0       ?PropagateConstants_StorePixelBilinearXY@@YAXAAVSuperBlockConstants@@@Z 0043fcf0 f   PropagateConstants_MEM.obj
 0001:0003ecf0       ?PropagateConstants_PushVectorRz@@YAXAAVSuperBlockConstants@@@Z 0043fcf0 f   PropagateConstants_MEM.obj
 0001:0003ecf0       ?PropagateConstants_StorePixelZAbsolute@@YAXAAVSuperBlockConstants@@@Z 0043fcf0 f   PropagateConstants_MEM.obj
 0001:0003ecf0       ?PropagateConstants_StoreShortVectorAbsolute@@YAXAAVSuperBlockConstants@@@Z 0043fcf0 f   PropagateConstants_MEM.obj
 0001:0003ecf0       ?PropagateConstants_StoreVectorBilinearXY@@YAXAAVSuperBlockConstants@@@Z 0043fcf0 f   PropagateConstants_MEM.obj
 0001:0003ecf0       ?PropagateConstants_StoreScalarBilinearUV@@YAXAAVSuperBlockConstants@@@Z 0043fcf0 f   PropagateConstants_MEM.obj
 0001:0003ecf0       ?PropagateConstants_StorePixelAbsolute@@YAXAAVSuperBlockConstants@@@Z 0043fcf0 f   PropagateConstants_MEM.obj
 0001:0003ecf0       ?PropagateConstants_StorePixelBilinearUV@@YAXAAVSuperBlockConstants@@@Z 0043fcf0 f   PropagateConstants_MEM.obj
 0001:0003ecf0       ?PropagateConstants_StoreShortVectorBilinearUV@@YAXAAVSuperBlockConstants@@@Z 0043fcf0 f   PropagateConstants_MEM.obj
 0001:0003ecf0       ?PropagateConstants_PushVector@@YAXAAVSuperBlockConstants@@@Z 0043fcf0 f   PropagateConstants_MEM.obj
 0001:0003ecf0       ?PropagateConstants_PushScalarRzi2@@YAXAAVSuperBlockConstants@@@Z 0043fcf0 f   PropagateConstants_MEM.obj
 0001:0003ecf0       ?PropagateConstants_StoreVectorControlRegisterAbsolute@@YAXAAVSuperBlockConstants@@@Z 0043fcf0 f   PropagateConstants_MEM.obj
 0001:0003ed10       ?PropagateConstants_ADDMImmediate@@YAXAAVSuperBlockConstants@@@Z 0043fd10 f   PropagateConstants_MUL.obj
 0001:0003ed90       ?PropagateConstants_ADDM@@YAXAAVSuperBlockConstants@@@Z 0043fd90 f   PropagateConstants_MUL.obj
 0001:0003ee60       ?PropagateConstants_SUBMImmediateReverse@@YAXAAVSuperBlockConstants@@@Z 0043fe60 f   PropagateConstants_MUL.obj
 0001:0003eee0       ?PropagateConstants_SUBM@@YAXAAVSuperBlockConstants@@@Z 0043fee0 f   PropagateConstants_MUL.obj
 0001:0003eff0       ?PropagateConstants_MULImmediateShiftRightImmediate@@YAXAAVSuperBlockConstants@@@Z 0043fff0 f   PropagateConstants_MUL.obj
 0001:0003f0c0       ?PropagateConstants_MULImmediateShiftLeftImmediate@@YAXAAVSuperBlockConstants@@@Z 004400c0 f   PropagateConstants_MUL.obj
 0001:0003f190       ?PropagateConstants_MULScalarShiftRightImmediate@@YAXAAVSuperBlockConstants@@@Z 00440190 f   PropagateConstants_MUL.obj
 0001:0003f210       ?PropagateConstants_MULScalarShiftLeftImmediate@@YAXAAVSuperBlockConstants@@@Z 00440210 f   PropagateConstants_MUL.obj
 0001:0003f290       ?PropagateConstants_MULImmediateShiftAcshift@@YAXAAVSuperBlockConstants@@@Z 00440290 f   PropagateConstants_MUL.obj
 0001:0003f330       ?PropagateConstants_MULScalarShiftAcshift@@YAXAAVSuperBlockConstants@@@Z 00440330 f   PropagateConstants_MUL.obj
 0001:0003f460       ?PropagateConstants_MULImmediateShiftScalar@@YAXAAVSuperBlockConstants@@@Z 00440460 f   PropagateConstants_MUL.obj
 0001:0003f520       ?PropagateConstants_MULScalarShiftScalar@@YAXAAVSuperBlockConstants@@@Z 00440520 f   PropagateConstants_MUL.obj
 0001:0003f5a0       ?PropagateConstants_MUL_SVScalarShiftImmediate@@YAXAAVSuperBlockConstants@@@Z 004405a0 f   PropagateConstants_MUL.obj
 0001:0003f630       ?PropagateConstants_MUL_SVScalarShiftSvshift@@YAXAAVSuperBlockConstants@@@Z 00440630 f   PropagateConstants_MUL.obj
 0001:0003f690       ?PropagateConstants_MUL_SVRuShiftSvshift@@YAXAAVSuperBlockConstants@@@Z 00440690 f   PropagateConstants_MUL.obj
 0001:0003f700       ?PropagateConstants_MUL_SVImmediateShiftImmediate@@YAXAAVSuperBlockConstants@@@Z 00440700 f   PropagateConstants_MUL.obj
 0001:0003f700       ?PropagateConstants_MUL_SVRvShiftImmediate@@YAXAAVSuperBlockConstants@@@Z 00440700 f   PropagateConstants_MUL.obj
 0001:0003f700       ?PropagateConstants_MUL_SVRuShiftImmediate@@YAXAAVSuperBlockConstants@@@Z 00440700 f   PropagateConstants_MUL.obj
 0001:0003f700       ?PropagateConstants_MUL_SVVectorShiftImmediate@@YAXAAVSuperBlockConstants@@@Z 00440700 f   PropagateConstants_MUL.obj
 0001:0003f730       ?PropagateConstants_MUL_SVRvShiftSvshift@@YAXAAVSuperBlockConstants@@@Z 00440730 f   PropagateConstants_MUL.obj
 0001:0003f7a0       ?PropagateConstants_MUL_SVVectorShiftSvshift@@YAXAAVSuperBlockConstants@@@Z 004407a0 f   PropagateConstants_MUL.obj
 0001:0003f810       ?PropagateConstants_MUL_PScalarShiftImmediate@@YAXAAVSuperBlockConstants@@@Z 00440810 f   PropagateConstants_MUL.obj
 0001:0003f8a0       ?PropagateConstants_MUL_PScalarShiftSvshift@@YAXAAVSuperBlockConstants@@@Z 004408a0 f   PropagateConstants_MUL.obj
 0001:0003f900       ?PropagateConstants_MUL_PRuShiftSvshift@@YAXAAVSuperBlockConstants@@@Z 00440900 f   PropagateConstants_MUL.obj
 0001:0003f970       ?PropagateConstants_MUL_PImmediateShiftImmediate@@YAXAAVSuperBlockConstants@@@Z 00440970 f   PropagateConstants_MUL.obj
 0001:0003f970       ?PropagateConstants_MUL_PRuShiftImmediate@@YAXAAVSuperBlockConstants@@@Z 00440970 f   PropagateConstants_MUL.obj
 0001:0003f970       ?PropagateConstants_MUL_PRvShiftImmediate@@YAXAAVSuperBlockConstants@@@Z 00440970 f   PropagateConstants_MUL.obj
 0001:0003f970       ?PropagateConstants_MUL_PVectorShiftImmediate@@YAXAAVSuperBlockConstants@@@Z 00440970 f   PropagateConstants_MUL.obj
 0001:0003f9a0       ?PropagateConstants_MUL_PRvShiftSvshift@@YAXAAVSuperBlockConstants@@@Z 004409a0 f   PropagateConstants_MUL.obj
 0001:0003fa10       ?PropagateConstants_MUL_PVectorShiftSvshift@@YAXAAVSuperBlockConstants@@@Z 00440a10 f   PropagateConstants_MUL.obj
 0001:0003fa80       ?PropagateConstants_DOTPScalarShiftSvshift@@YAXAAVSuperBlockConstants@@@Z 00440a80 f   PropagateConstants_MUL.obj
 0001:0003fad0       ?PropagateConstants_DOTPVectorShiftImmediate@@YAXAAVSuperBlockConstants@@@Z 00440ad0 f   PropagateConstants_MUL.obj
 0001:0003fad0       ?PropagateConstants_DOTPScalarShiftImmediate@@YAXAAVSuperBlockConstants@@@Z 00440ad0 f   PropagateConstants_MUL.obj
 0001:0003fb00       ?PropagateConstants_DOTPVectorShiftSvshift@@YAXAAVSuperBlockConstants@@@Z 00440b00 f   PropagateConstants_MUL.obj
 0001:0003fb50       ?PropagateConstants_DECRc0@@YAXAAVSuperBlockConstants@@@Z 00440b50 f   PropagateConstants_RCU.obj
 0001:0003fbc0       ?PropagateConstants_DECRc1@@YAXAAVSuperBlockConstants@@@Z 00440bc0 f   PropagateConstants_RCU.obj
 0001:0003fc40       ?PropagateConstants_DECBoth@@YAXAAVSuperBlockConstants@@@Z 00440c40 f   PropagateConstants_RCU.obj
 0001:0003fc60       ?PropagateConstants_ADDRImmediateOnly@@YAXAAVSuperBlockConstants@@@Z 00440c60 f   PropagateConstants_RCU.obj
 0001:0003fce0       ?PropagateConstants_ADDRImmediate@@YAXAAVSuperBlockConstants@@@Z 00440ce0 f   PropagateConstants_RCU.obj
 0001:0003fd20       ?PropagateConstants_ADDRScalarOnly@@YAXAAVSuperBlockConstants@@@Z 00440d20 f   PropagateConstants_RCU.obj
 0001:0003fda0       ?PropagateConstants_ADDRScalar@@YAXAAVSuperBlockConstants@@@Z 00440da0 f   PropagateConstants_RCU.obj
 0001:0003fe30       ?PropagateConstants_MVRImmediateOnly@@YAXAAVSuperBlockConstants@@@Z 00440e30 f   PropagateConstants_RCU.obj
 0001:0003fe60       ?PropagateConstants_MVRImmediate@@YAXAAVSuperBlockConstants@@@Z 00440e60 f   PropagateConstants_RCU.obj
 0001:0003fea0       ?PropagateConstants_MVRScalarOnly@@YAXAAVSuperBlockConstants@@@Z 00440ea0 f   PropagateConstants_RCU.obj
 0001:0003ff40       ?PropagateConstants_MVRScalar@@YAXAAVSuperBlockConstants@@@Z 00440f40 f   PropagateConstants_RCU.obj
 0001:00040000       ?PropagateConstants_RangeOnly@@YAXAAVSuperBlockConstants@@@Z 00441000 f   PropagateConstants_RCU.obj
 0001:00040020       ?PropagateConstants_Range@@YAXAAVSuperBlockConstants@@@Z 00441020 f   PropagateConstants_RCU.obj
 0001:00040040       ?PropagateConstants_ModuloOnly@@YAXAAVSuperBlockConstants@@@Z 00441040 f   PropagateConstants_RCU.obj
 0001:00040080       ?PropagateConstants_Modulo@@YAXAAVSuperBlockConstants@@@Z 00441080 f   PropagateConstants_RCU.obj
 0001:000400c0       ??0ShaderProgram@@QAE@XZ   004410c0 f   ShaderProgram.obj
 0001:000400e0       ?Initialize@ShaderProgram@@QAE_NXZ 004410e0 f   ShaderProgram.obj
 0001:00040130       ?PrintInfoLog@ShaderProgram@@QAEXHPBD@Z 00441130 f   ShaderProgram.obj
 0001:000401d0       ?InstallShaderSourceFromFile@ShaderProgram@@QAE_NPADI@Z 004411d0 f   ShaderProgram.obj
 0001:000402b0       ?AttachShader@ShaderProgram@@QAE_NI@Z 004412b0 f   ShaderProgram.obj
 0001:00040310       ?CompileAndLinkShaders@ShaderProgram@@QAE_NXZ 00441310 f   ShaderProgram.obj
 0001:00040410       ?StartShaderProgram@ShaderProgram@@QAE_NXZ 00441410 f   ShaderProgram.obj
 0001:00040430       ??0SuperBlock@@QAE@PAVMPE@@II@Z 00441430 f   SuperBlock.obj
 0001:00040540       ?GetIFlagsString@@YAXPADI@Z 00441540 f   SuperBlock.obj
 0001:000406a0       ?EmitCodeBlock@SuperBlock@@QAE_NAAVNativeCodeCache@@W4SuperBlockCompileType@@_N@Z 004416a0 f   SuperBlock.obj
 0001:000409b0       ?PerformConstantPropagation@SuperBlock@@QAEXXZ 004419b0 f   SuperBlock.obj
 0001:00040a30       ?PrintBlockToFile@SuperBlock@@QAEXW4SuperBlockCompileType@@I@Z 00441a30 f   SuperBlock.obj
 0001:00040ce0       ?AddPacketToList@SuperBlock@@QAEXAAVInstructionCacheEntry@@I@Z 00441ce0 f   SuperBlock.obj
 0001:00040da0       ?AddInstructionsToList@SuperBlock@@QAE_NAAVInstructionCacheEntry@@PAUPacketEntry@@I_N@Z 00441da0 f   SuperBlock.obj
 0001:00040ef0       ?PerformDeadCodeElimination@SuperBlock@@QAEIXZ 00441ef0 f   SuperBlock.obj
 0001:00041050       ?UpdateDependencyInfo@SuperBlock@@QAEXXZ 00442050 f   SuperBlock.obj
 0001:00041140       ?FetchSuperBlock@SuperBlock@@QAEHAAVMPE@@IAA_N@Z 00442140 f   SuperBlock.obj
 0001:00041510       ??1SuperBlock@@QAE@XZ      00442510 f   SuperBlock.obj
 0001:00041560       ?CompileBlock@SuperBlock@@QAEP6AXXZPAVMPE@@IAAVNativeCodeCache@@W4SuperBlockCompileType@@_NAA_N@Z 00442560 f   SuperBlock.obj
 0001:00041650       ?CommitConstants@SuperBlockConstants@@QAEXXZ 00442650 f i SuperBlockConstants.obj
 0001:000416a0       ?PropagateConstants_PacketEnd@@YAXAAVSuperBlockConstants@@@Z 004426a0 f   SuperBlockConstants.obj
 0001:000416b0       ??0SuperBlockConstants@@QAE@PAVMPE@@PAVSuperBlock@@@Z 004426b0 f   SuperBlockConstants.obj
 0001:00041700       ?EvaluateBranchCondition@SuperBlockConstants@@QAE_NIPA_N@Z 00442700 f   SuperBlockConstants.obj
 0001:00041c60       ?Syscall_InterruptTriggered@@YAXPAVMPE@@@Z 00442c60 f   Syscall.obj
 0001:00041cc0       ?Syscall_WaitForInterruptCommon@@YAXII@Z 00442cc0 f   Syscall.obj
 0001:00041d20       ?Syscall_WaitForCommPacket@@YAXPAVMPE@@@Z 00442d20 f   Syscall.obj
 0001:00041de0       ?ExecuteSyscall@@YAXPAVMPE@@I@Z 00442de0 f   Syscall.obj
 0001:00041e30       ?TestConditionCode@MPE@@QAE_NI@Z 00442e30 f   TestConditionCode.obj
 0001:000420a0       ?SysTimer0Callback@@YGXIIHHH@Z 004430a0 f   timer.obj
 0001:00042100       ?SysTimer1Callback@@YGXIIHHH@Z 00443100 f   timer.obj
 0001:00042160       ?SysTimer2Callback@@YGXIIHHH@Z 00443160 f   timer.obj
 0001:00042180       ?InitializeTimingMethod@@YAXXZ 00443180 f   timer.obj
 0001:000421c0       ?TimeOfDay@@YAXPAVMPE@@@Z  004431c0 f   timer.obj
 0001:000422c0       ?TimeElapsed@@YAXPAVMPE@@@Z 004432c0 f   timer.obj
 0001:000423e0       ?TimerInit@@YAXII@Z        004433e0 f   timer.obj
 0001:00042520       ?TimerInit@@YAXPAVMPE@@@Z  00443520 f   timer.obj
 0001:00042550       ?OnesCount@@YAII@Z         00443550 f   Utility.obj
 0001:00042590       ?CalculateTableEntries@@YAXPAEEE@Z 00443590 f   video.obj
 0001:00042620       ?InitializeYCrCbColorSpace@@YAXXZ 00443620 f   video.obj
 0001:000426a0       ?InitializeColorSpaceTables@@YAXXZ 004436a0 f   video.obj
 0001:000426f0       ?AllocateTextureMemory@@YAPAEI_N@Z 004436f0 f   video.obj
 0001:00042740       ?FreeTextureMemory@@YAXPAE_N@Z 00443740 f   video.obj
 0001:000427c0       ?UpdateTextureStates@@YAXXZ 004437c0 f   video.obj
 0001:00042cb0       ?UpdateDisplayList@@YAXXZ  00443cb0 f   video.obj
 0001:00042fd0       ?InitTextures@@YAXXZ       00443fd0 f   video.obj
 0001:00043160       ?RenderVideo_Type4@@YAXPAE0II_N@Z 00444160 f   video.obj
 0001:00043240       ?IncrementVideoFieldCounter@@YAXXZ 00444240 f   video.obj
 0001:00043280       ?RenderVideo@@YAXHH@Z      00444280 f   video.obj
 0001:00043ad0       ?UpdateBufferLengths@@YAXXZ 00444ad0 f   video.obj
 0001:00043b80       ?VidQueryConfig@@YAXPAVMPE@@@Z 00444b80 f   video.obj
 0001:00043ca0       ?VidConfig@@YAXPAVMPE@@@Z  00444ca0 f   video.obj
 0001:00044330       ?VidSetup@@YAXPAVMPE@@@Z   00445330 f   video.obj
 0001:00044630       ?VidChangeBase@@YAXPAVMPE@@@Z 00445630 f   video.obj
 0001:00044790       ?VidChangeScroll@@YAXPAVMPE@@@Z 00445790 f   video.obj
 0001:00044830       ?SetDefaultColor@@YAXPAVMPE@@@Z 00445830 f   video.obj
 0001:00044860       ?VidSetCLUTRange@@YAXPAVMPE@@@Z 00445860 f   video.obj
 0001:000448ce       _FSOUND_Stream_Play@8      004458ce f   fmodvc:fmod.dll
 0001:000448d4       _FSOUND_Stream_Create@20   004458d4 f   fmodvc:fmod.dll
 0001:000448da       _FSOUND_Stream_Close@4     004458da f   fmodvc:fmod.dll
 0001:000448e0       _FSOUND_Init@12            004458e0 f   fmodvc:fmod.dll
 0001:000448e6       _FSOUND_SetDriver@4        004458e6 f   fmodvc:fmod.dll
 0001:000448ec       _FSOUND_SetMute@8          004458ec f   fmodvc:fmod.dll
 0001:000448f2       _FSOUND_SetFrequency@8     004458f2 f   fmodvc:fmod.dll
 0001:000448f8       _FSOUND_IsPlaying@4        004458f8 f   fmodvc:fmod.dll
 0001:000448fe       _FSOUND_Stream_Stop@4      004458fe f   fmodvc:fmod.dll
 0001:00044904       _FSOUND_SetVolume@8        00445904 f   fmodvc:fmod.dll
 0001:0004490a       _FSOUND_Close@0            0044590a f   fmodvc:fmod.dll
 0001:00044910       ??_U@YAPAXI@Z              00445910 f   libcpmt:newaop.obj
 0001:00044915       ??1out_of_range@std@@UAE@XZ 00445915 f i libcpmt:string.obj
 0001:00044920       ??_Gout_of_range@std@@UAEPAXI@Z 00445920 f i libcpmt:string.obj
 0001:00044920       ??_Eout_of_range@std@@UAEPAXI@Z 00445920 f i libcpmt:string.obj
 0001:00044942       ?_Xlen@_String_base@std@@SAXXZ 00445942 f   libcpmt:string.obj
 0001:00044981       ?_Xran@_String_base@std@@SAXXZ 00445981 f   libcpmt:string.obj
 0001:000449c0       ??0out_of_range@std@@QAE@ABV01@@Z 004459c0 f i libcpmt:string.obj
 0001:000449d8       _sprintf                   004459d8 f   LIBCMT:sprintf.obj
 0001:00044a60       __allshr                   00445a60 f   LIBCMT:llshr.obj
 0001:00044a90       __allshl                   00445a90 f   LIBCMT:llshl.obj
 0001:00044aaf       _strncmp                   00445aaf f   LIBCMT:strncmp.obj
 0001:00044b6d       __get_errno_from_oserr     00445b6d f   LIBCMT:dosmap.obj
 0001:00044ba8       __errno                    00445ba8 f   LIBCMT:dosmap.obj
 0001:00044bbb       ___doserrno                00445bbb f   LIBCMT:dosmap.obj
 0001:00044bce       __dosmaperr                00445bce f   LIBCMT:dosmap.obj
 0001:00044bec       __fstat32                  00445bec f   LIBCMT:fstat.obj
 0001:00044f20       _memset                    00445f20 f   LIBCMT:memset.obj
 0001:00044f9a       __fclose_nolock            00445f9a f   LIBCMT:fclose.obj
 0001:0004500c       _fclose                    0044600c f   LIBCMT:fclose.obj
 0001:00045088       _fgetc                     00446088 f   LIBCMT:fgetc.obj
 0001:000451bf       __ftell_nolock             004461bf f   LIBCMT:ftell.obj
 0001:00045357       _ftell                     00446357 f   LIBCMT:ftell.obj
 0001:000453c5       __fseek_nolock             004463c5 f   LIBCMT:fseek.obj
 0001:0004544c       _fseek                     0044644c f   LIBCMT:fseek.obj
 0001:000454d1       __fsopen                   004464d1 f   LIBCMT:fopen.obj
 0001:00045595       _fopen                     00446595 f   LIBCMT:fopen.obj
 0001:000455a8       _fputc                     004465a8 f   LIBCMT:fputc.obj
 0001:000456e7       ??3@YAXPAX@Z               004466e7 f   LIBCMT:delete.obj
 0001:000456ec       ??0bad_alloc@std@@QAE@XZ   004466ec f i LIBCMT:new.obj
 0001:00045705       ??2@YAPAXI@Z               00446705 f   LIBCMT:new.obj
 0001:0004576f       ??_V@YAXPAX@Z              0044676f f   LIBCMT:delete2.obj
 0001:00045774       __fread_nolock_s           00446774 f   LIBCMT:fread.obj
 0001:0004597a       _fread_s                   0044697a f   LIBCMT:fread.obj
 0001:00045a10       _fread                     00446a10 f   LIBCMT:fread.obj
 0001:00045a2b       __fwrite_nolock            00446a2b f   LIBCMT:fwrite.obj
 0001:00045b8a       _fwrite                    00446b8a f   LIBCMT:fwrite.obj
 0001:00045c0c       _printf                    00446c0c f   LIBCMT:printf.obj
 0001:00045cbb       __get_printf_count_output  00446cbb f   LIBCMT:printf.obj
 0001:00045cd1       _memcpy_s                  00446cd1 f   LIBCMT:memcpy_s.obj
 0001:00045d4c       _memmove_s                 00446d4c f   LIBCMT:memmove_s.obj
 0001:00045da7       ??0exception@std@@QAE@XZ   00446da7 f   LIBCMT:stdexcpt.obj
 0001:00045db8       ??0exception@std@@QAE@ABQBD@Z 00446db8 f   LIBCMT:stdexcpt.obj
 0001:00045e06       ??0exception@std@@QAE@ABQBDH@Z 00446e06 f   LIBCMT:stdexcpt.obj
 0001:00045e1e       ??0exception@std@@QAE@ABV01@@Z 00446e1e f   LIBCMT:stdexcpt.obj
 0001:00045e76       ??1exception@std@@UAE@XZ   00446e76 f   LIBCMT:stdexcpt.obj
 0001:00045e8c       ?what@exception@std@@UBEPBDXZ 00446e8c f   LIBCMT:stdexcpt.obj
 0001:00045e99       ??_Eexception@std@@UAEPAXI@Z 00446e99 f i LIBCMT:stdexcpt.obj
 0001:00045e99       ??_Gexception@std@@UAEPAXI@Z 00446e99 f i LIBCMT:stdexcpt.obj
 0001:00045eb5       __initp_misc_invarg        00446eb5 f   LIBCMT:invarg.obj
 0001:00045ebf       __invoke_watson            00446ebf f   LIBCMT:invarg.obj
 0001:00045fbb       __invalid_parameter        00446fbb f   LIBCMT:invarg.obj
 0001:00045fdf       __invalid_parameter_noinfo 00446fdf f   LIBCMT:invarg.obj
 0001:00045fef       __CxxThrowException@8      00446fef f   LIBCMT:throw.obj
 0001:00046039       ??1type_info@@UAE@XZ       00447039 f   LIBCMT:typinfo.obj
 0001:00046047       ??_Gtype_info@@UAEPAXI@Z   00447047 f i LIBCMT:typinfo.obj
 0001:00046047       ??_Etype_info@@UAEPAXI@Z   00447047 f i LIBCMT:typinfo.obj
 0001:00046063       ??8type_info@@QBE_NABV0@@Z 00447063 f   LIBCMT:typinfo.obj
 0001:0004607e       ?_JumpToContinuation@@YGXPAXPAUEHRegistrationNode@@@Z 0044707e f   LIBCMT:trnsctrl.obj
 0001:000460ae       ?_CallMemberFunction2@@YGXPAX00H@Z 004470ae f   LIBCMT:trnsctrl.obj
 0001:000460ae       ?_CallMemberFunction1@@YGXPAX00@Z 004470ae f   LIBCMT:trnsctrl.obj
 0001:000460ae       ?_CallMemberFunction0@@YGXPAX0@Z 004470ae f   LIBCMT:trnsctrl.obj
 0001:000460b5       ?_UnwindNestedFrames@@YGXPAUEHRegistrationNode@@PAUEHExceptionRecord@@@Z 004470b5 f   LIBCMT:trnsctrl.obj
 0001:00046107       ___CxxFrameHandler3        00447107 f   LIBCMT:trnsctrl.obj
 0001:0004616d       ?_CallSETranslator@@YAHPAUEHExceptionRecord@@PAUEHRegistrationNode@@PAX2PBU_s_FuncInfo@@H1@Z 0044716d f   LIBCMT:trnsctrl.obj
 0001:000462df       ?_GetRangeOfTrysToCheck@@YAPBU_s_TryBlockMapEntry@@PBU_s_FuncInfo@@HHPAI1@Z 004472df f   LIBCMT:trnsctrl.obj
 0001:00046352       __CreateFrameInfo          00447352 f   LIBCMT:trnsctrl.obj
 0001:0004637a       __IsExceptionObjectToBeDestroyed 0044737a f   LIBCMT:trnsctrl.obj
 0001:0004639b       __FindAndUnlinkFrame       0044739b f   LIBCMT:trnsctrl.obj
 0001:000463e7       ?_CallCatchBlock2@@YAPAXPAUEHRegistrationNode@@PBU_s_FuncInfo@@PAXHK@Z 004473e7 f   LIBCMT:trnsctrl.obj
 0001:00046445       _fprintf                   00447445 f   LIBCMT:fprintf.obj
 0001:00046594       __initp_misc_winxfltr      00447594 f   LIBCMT:winxfltr.obj
 0001:00046594       __fpclear                  00447594 f   LIBCMT:fpinit.obj
 0001:00046595       __cfltcvt_init             00447595 f   LIBCMT:fpinit.obj
 0001:000465f5       __fpmath                   004475f5 f   LIBCMT:fpinit.obj
 0001:00046613       _vfscanf                   00447613 f   LIBCMT:fscanf.obj
 0001:00046750       _fscanf                    00447750 f   LIBCMT:fscanf.obj
 0001:00046770       _strncpy                   00447770 f   LIBCMT:strncpy.obj
 0001:00046894       _feof                      00447894 f   LIBCMT:feoferr.obj
 0001:0004692b       _sscanf                    0044792b f   LIBCMT:sscanf.obj
 0001:0004694a       __flush                    0044794a f   LIBCMT:fflush.obj
 0001:000469ac       __fflush_nolock            004479ac f   LIBCMT:fflush.obj
 0001:00046ac8       _fflush                    00447ac8 f   LIBCMT:fflush.obj
 0001:00046b1b       __flushall                 00447b1b f   LIBCMT:fflush.obj
 0001:00046b24       __localtime64_s            00447b24 f   LIBCMT:loctim64.obj
 0001:00046de9       __localtime64              00447de9 f   LIBCMT:loctim64.obj
 0001:00046e0d       __time64                   00447e0d f   LIBCMT:time64.obj
 0001:00046e49       __get_daylight             00447e49 f   LIBCMT:timeset.obj
 0001:00046e7d       __get_dstbias              00447e7d f   LIBCMT:timeset.obj
 0001:00046eb1       __get_timezone             00447eb1 f   LIBCMT:timeset.obj
 0001:00046ee5       ___daylight                00447ee5 f   LIBCMT:timeset.obj
 0001:00046eeb       ___dstbias                 00447eeb f   LIBCMT:timeset.obj
 0001:00046ef1       ___timezone                00447ef1 f   LIBCMT:timeset.obj
 0001:00046ef7       ___tzname                  00447ef7 f   LIBCMT:timeset.obj
 0001:00046f00       __allmul                   00447f00 f   LIBCMT:llmul.obj
 0001:00046f40       __ftol2_sse                00447f40 f   LIBCMT:ftol2.obj
 0001:00046f49       __ftol2_pentium4           00447f49 f   LIBCMT:ftol2.obj
 0001:00046f5c       __ftol2_sse_excpt          00447f5c f   LIBCMT:ftol2.obj
 0001:00046f76       __ftol2                    00447f76 f   LIBCMT:ftol2.obj
 0001:00047230       _WinMainCRTStartup         00448230 f   LIBCMT:wincrt0.obj
 0001:00047240       _strlen                    00448240 f   LIBCMT:strlen.obj
 0001:000472cb       @__security_check_cookie@4 004482cb f   LIBCMT:secchk.obj
 0001:000472da       __EH_prolog3               004482da f   LIBCMT:ehprolg3.obj
 0001:0004730d       __EH_prolog3_catch         0044830d f   LIBCMT:ehprolg3.obj
 0001:00047343       __flsbuf                   00448343 f   LIBCMT:_flsbuf.obj
 0001:000474a3       ??0_LocaleUpdate@@QAE@PAUlocaleinfo_struct@@@Z 004484a3 f i LIBCMT:output.obj
 0001:000475c6       __output_l                 004485c6 f   LIBCMT:output.obj
 0001:00047fc6       __encode_pointer           00448fc6 f   LIBCMT:tidtable.obj
 0001:00048034       __encoded_null             00449034 f   LIBCMT:tidtable.obj
 0001:0004803d       __decode_pointer           0044903d f   LIBCMT:tidtable.obj
 0001:000480ab       ___crtTlsAlloc@4           004490ab f   LIBCMT:tidtable.obj
 0001:000480b4       ___set_flsgetvalue         004490b4 f   LIBCMT:tidtable.obj
 0001:000480e6       __mtterm                   004490e6 f   LIBCMT:tidtable.obj
 0001:00048123       __initptd                  00449123 f   LIBCMT:tidtable.obj
 0001:000481e2       __getptd_noexit            004491e2 f   LIBCMT:tidtable.obj
 0001:00048259       __getptd                   00449259 f   LIBCMT:tidtable.obj
 0001:00048271       __freefls@4                00449271 f   LIBCMT:tidtable.obj
 0001:00048392       __mtinit                   00449392 f   LIBCMT:tidtable.obj
 0001:00048516       __set_osfhnd               00449516 f   LIBCMT:osfinfo.obj
 0001:00048593       __free_osfhnd              00449593 f   LIBCMT:osfinfo.obj
 0001:00048614       __get_osfhandle            00449614 f   LIBCMT:osfinfo.obj
 0001:00048685       ___lock_fhandle            00449685 f   LIBCMT:osfinfo.obj
 0001:00048725       __unlock_fhandle           00449725 f   LIBCMT:osfinfo.obj
 0001:00048747       __alloc_osfhnd             00449747 f   LIBCMT:osfinfo.obj
 0001:000488e6       ___loctotime32_t           004498e6 f   LIBCMT:dtoxtime.obj
 0001:00048aea       __ioinit                   00449aea f   LIBCMT:ioinit.obj
 0001:00048d2c       __SEH_prolog4              00449d2c f   LIBCMT:sehprolg4.obj
 0001:00048d71       __SEH_epilog4              00449d71 f   LIBCMT:sehprolg4.obj
 0001:00048d90       __except_handler4          00449d90 f   LIBCMT:chandler4.obj
 0001:00048f7d       __VEC_memzero              00449f7d f   LIBCMT:p4_memset.obj
 0001:0004900c       __sse2_mathfcns_init       0044a00c f   LIBCMT:mathfcns.obj
 0001:00049020       _free                      0044a020 f   LIBCMT:free.obj
 0001:000490ae       __close_nolock             0044a0ae f   LIBCMT:close.obj
 0001:00049142       _close                     0044a142 f   LIBCMT:close.obj
 0001:00049142       __close                    0044a142 f   LIBCMT:close.obj
 0001:0004920f       __fileno                   0044a20f f   LIBCMT:fileno.obj
 0001:0004923c       __freebuf                  0044a23c f   LIBCMT:_freebuf.obj
 0001:00049268       ___iob_func                0044a268 f   LIBCMT:_file.obj
 0001:0004926e       ___initstdio               0044a26e f   LIBCMT:_file.obj
 0001:0004931f       ___endstdio                0044a31f f   LIBCMT:_file.obj
 0001:0004933f       __lock_file                0044a33f f   LIBCMT:_file.obj
 0001:0004937b       __lock_file2               0044a37b f   LIBCMT:_file.obj
 0001:000493a9       __unlock_file              0044a3a9 f   LIBCMT:_file.obj
 0001:000493df       __unlock_file2             0044a3df f   LIBCMT:_file.obj
 0001:00049409       __filbuf                   0044a409 f   LIBCMT:_filbuf.obj
 0001:00049529       __lseek_nolock             0044a529 f   LIBCMT:lseek.obj
 0001:0004959b       _lseek                     0044a59b f   LIBCMT:lseek.obj
 0001:0004959b       __lseek                    0044a59b f   LIBCMT:lseek.obj
 0001:00049677       __openfile                 0044a677 f   LIBCMT:_open.obj
 0001:00049917       __getstream                0044a917 f   LIBCMT:stream.obj
 0001:00049a48       __local_unwind4            0044aa48 f   LIBCMT:exsup4.obj
 0001:00049b1e       __seh_longjmp_unwind4@4    0044ab1e f   LIBCMT:exsup4.obj
 0001:00049b3a       @_EH4_CallFilterFunc@8     0044ab3a f   LIBCMT:exsup4.obj
 0001:00049b51       @_EH4_TransferToHandler@8  0044ab51 f   LIBCMT:exsup4.obj
 0001:00049b6a       @_EH4_GlobalUnwind@4       0044ab6a f   LIBCMT:exsup4.obj
 0001:00049b84       @_EH4_LocalUnwind@16       0044ab84 f   LIBCMT:exsup4.obj
 0001:00049c54       ___onexitinit              0044ac54 f   LIBCMT:onexit.obj
 0001:00049c83       __onexit                   0044ac83 f   LIBCMT:onexit.obj
 0001:00049cbf       _atexit                    0044acbf f   LIBCMT:onexit.obj
 0001:00049cd1       _V6_HeapAlloc              0044acd1 f   LIBCMT:malloc.obj
 0001:00049d20       _malloc                    0044ad20 f   LIBCMT:malloc.obj
 0001:00049de3       __initp_heap_handler       0044ade3 f   LIBCMT:handler.obj
 0001:00049ded       __callnewh                 0044aded f   LIBCMT:handler.obj
 0001:00049e0f       __read_nolock              0044ae0f f   LIBCMT:read.obj
 0001:0004a3d0       _read                      0044b3d0 f   LIBCMT:read.obj
 0001:0004a3d0       __read                     0044b3d0 f   LIBCMT:read.obj
 0001:0004a4cd       __write_nolock             0044b4cd f   LIBCMT:write.obj
 0001:0004aa93       _write                     0044ba93 f   LIBCMT:write.obj
 0001:0004aa93       __write                    0044ba93 f   LIBCMT:write.obj
 0001:0004ab70       _memcpy                    0044bb70 f   LIBCMT:memcpy.obj
 0001:0004aed5       __stbuf                    0044bed5 f   LIBCMT:_sftbuf.obj
 0001:0004af6b       __ftbuf                    0044bf6b f   LIBCMT:_sftbuf.obj
 0001:0004afa0       _memmove                   0044bfa0 f   LIBCMT:memmove.obj
 0001:0004b305       _strcpy_s                  0044c305 f   LIBCMT:strcpy_s.obj
 0001:0004b36a       __crt_debugger_hook        0044c36a f   LIBCMT:dbghook.obj
 0001:0004b372       ?_Type_info_dtor@type_info@@CAXPAV1@@Z 0044c372 f   LIBCMT:typname.obj
 0001:0004b3f0       _strcmp                    0044c3f0 f   LIBCMT:strcmp.obj
 0001:0004b478       ??1bad_exception@std@@UAE@XZ 0044c478 f i LIBCMT:frame.obj
 0001:0004b483       ??_Ebad_exception@std@@UAEPAXI@Z 0044c483 f i LIBCMT:frame.obj
 0001:0004b483       ??_Gbad_exception@std@@UAEPAXI@Z 0044c483 f i LIBCMT:frame.obj
 0001:0004b4a5       ___TypeMatch               0044c4a5 f   LIBCMT:frame.obj
 0001:0004b501       ___FrameUnwindFilter       0044c501 f   LIBCMT:frame.obj
 0001:0004b545       ___FrameUnwindToState      0044c545 f   LIBCMT:frame.obj
 0001:0004b66b       ___DestructExceptionObject 0044c66b f   LIBCMT:frame.obj
 0001:0004b6bf       ___AdjustPointer           0044c6bf f   LIBCMT:frame.obj
 0001:0004b942       ___BuildCatchObjectHelper  0044c942 f   LIBCMT:frame.obj
 0001:0004bac1       ___BuildCatchObject        0044cac1 f   LIBCMT:frame.obj
 0001:0004c006       ??0bad_exception@std@@QAE@ABV01@@Z 0044d006 f i LIBCMT:frame.obj
 0001:0004c01e       ___InternalCxxFrameHandler 0044d01e f   LIBCMT:frame.obj
 0001:0004c102       ?terminate@@YAXXZ          0044d102 f   LIBCMT:hooks.obj
 0001:0004c13b       ?unexpected@@YAXXZ         0044d13b f   LIBCMT:hooks.obj
 0001:0004c14e       ?_inconsistency@@YAXXZ     0044d14e f   LIBCMT:hooks.obj
 0001:0004c185       __initp_eh_hooks           0044d185 f   LIBCMT:hooks.obj
 0001:0004c1a0       __CallSettingFrame@12      0044d1a0 f   LIBCMT:lowhelpr.obj
 0001:0004c1c7       __NLG_Return               0044d1c7     LIBCMT:lowhelpr.obj
 0001:0004c1ec       __forcdecpt_l              0044d1ec f   LIBCMT:cvt.obj
 0001:0004c25d       __cropzeros_l              0044d25d f   LIBCMT:cvt.obj
 0001:0004c2dd       __positive                 0044d2dd f   LIBCMT:cvt.obj
 0001:0004c2f3       __fassign_l                0044d2f3 f   LIBCMT:cvt.obj
 0001:0004c333       __fassign                  0044d333 f   LIBCMT:cvt.obj
 0001:0004c367       __forcdecpt                0044d367 f   LIBCMT:cvt.obj
 0001:0004c375       __cropzeros                0044d375 f   LIBCMT:cvt.obj
 0001:0004c4f0       __cftoe_l                  0044d4f0 f   LIBCMT:cvt.obj
 0001:0004c5be       __cftoe                    0044d5be f   LIBCMT:cvt.obj
 0001:0004c5dc       __cftoa_l                  0044d5dc f   LIBCMT:cvt.obj
 0001:0004ca42       __cftof_l                  0044da42 f   LIBCMT:cvt.obj
 0001:0004cafb       __cftog_l                  0044dafb f   LIBCMT:cvt.obj
 0001:0004cbf3       __cfltcvt_l                0044dbf3 f   LIBCMT:cvt.obj
 0001:0004cc79       __cfltcvt                  0044dc79 f   LIBCMT:cvt.obj
 0001:0004cc9a       __initp_misc_cfltcvt_tab   0044dc9a f   LIBCMT:cmiscdat.obj
 0001:0004ccb9       __setdefaultprecision      0044dcb9 f   LIBCMT:fp8.obj
 0001:0004cce2       __ms_p5_test_fdiv          0044dce2 f   LIBCMT:testfdiv.obj
 0001:0004cd1e       __ms_p5_mp_test_fdiv       0044dd1e f   LIBCMT:testfdiv.obj
 0001:0004cdd6       __input_l                  0044ddd6 f   LIBCMT:input.obj
 0001:0004da23       __commit                   0044ea23 f   LIBCMT:commit.obj
 0001:0004db04       __mtinitlocks              0044eb04 f   LIBCMT:mlock.obj
 0001:0004db4d       __mtdeletelocks            0044eb4d f   LIBCMT:mlock.obj
 0001:0004dba2       __unlock                   0044eba2 f   LIBCMT:mlock.obj
 0001:0004dbb7       __mtinitlocknum            0044ebb7 f   LIBCMT:mlock.obj
 0001:0004dc7a       __lock                     0044ec7a f   LIBCMT:mlock.obj
 0001:0004e397       ___tzset                   0044f397 f   LIBCMT:tzset.obj
 0001:0004e3e6       __isindst                  0044f3e6 f   LIBCMT:tzset.obj
 0001:0004e427       __gmtime64_s               0044f427 f   LIBCMT:gmtime64.obj
 0001:0004e670       __alldiv                   0044f670 f   LIBCMT:lldiv.obj
 0001:0004e720       __allrem                   0044f720 f   LIBCMT:llrem.obj
 0001:0004e7d2       ___getgmtimebuf            0044f7d2 f   LIBCMT:gmtime.obj
 0001:0004e820       __aulldiv                  0044f820 f   LIBCMT:ulldiv.obj
 0001:0004e888       ?__CxxUnhandledExceptionFilter@@YGJPAU_EXCEPTION_POINTERS@@@Z 0044f888 f   LIBCMT:unhandld.obj
 0001:0004e8c5       ___CxxSetUnhandledExceptionFilter 0044f8c5 f   LIBCMT:unhandld.obj
 0001:0004e8d3       __amsg_exit                0044f8d3 f   LIBCMT:crt0dat.obj
 0001:0004e8f7       ___crtCorExitProcess       0044f8f7 f   LIBCMT:crt0dat.obj
 0001:0004e91d       ___crtExitProcess          0044f91d f   LIBCMT:crt0dat.obj
 0001:0004e932       __lockexit                 0044f932 f   LIBCMT:crt0dat.obj
 0001:0004e93b       __unlockexit               0044f93b f   LIBCMT:crt0dat.obj
 0001:0004e95c       __initterm_e               0044f95c f   LIBCMT:crt0dat.obj
 0001:0004e97c       __get_osplatform           0044f97c f   LIBCMT:crt0dat.obj
 0001:0004e9b3       __get_winmajor             0044f9b3 f   LIBCMT:crt0dat.obj
 0001:0004e9ef       __cinit                    0044f9ef f   LIBCMT:crt0dat.obj
 0001:0004eb63       _exit                      0044fb63 f   LIBCMT:crt0dat.obj
 0001:0004eb74       __exit                     0044fb74 f   LIBCMT:crt0dat.obj
 0001:0004eb85       __cexit                    0044fb85 f   LIBCMT:crt0dat.obj
 0001:0004eb94       __c_exit                   0044fb94 f   LIBCMT:crt0dat.obj
 0001:0004eba3       __init_pointers            0044fba3 f   LIBCMT:crt0dat.obj
 0001:0004ebef       __NMSG_WRITE               0044fbef f   LIBCMT:crt0msg.obj
 0001:0004ed8f       __FF_MSGBANNER             0044fd8f f   LIBCMT:crt0msg.obj
 0001:0004edc8       __XcptFilter               0044fdc8 f   LIBCMT:winxfltr.obj
 0001:0004ef26       __wincmdln                 0044ff26 f   LIBCMT:wincmdln.obj
 0001:0004ef83       __setenvp                  0044ff83 f   LIBCMT:stdenvp.obj
 0001:0004f1f6       __setargv                  004501f6 f   LIBCMT:stdargv.obj
 0001:0004f2af       ___crtGetEnvironmentStringsA 004502af f   LIBCMT:a_env.obj
 0001:0004f3e4       __RTC_Initialize           004503e4 f   LIBCMT:initsect.obj
 0001:0004f408       __RTC_Terminate            00450408 f   LIBCMT:initsect.obj
 0001:0004f42c       ___heap_select             0045042c f   LIBCMT:heapinit.obj
 0001:0004f487       __heap_init                00450487 f   LIBCMT:heapinit.obj
 0001:0004f4e1       ___security_init_cookie    004504e1 f   LIBCMT:gs_support.obj
 0001:0004f575       ___report_gsfailure        00450575 f   LIBCMT:gs_report.obj
 0001:0004f679       __lseeki64_nolock          00450679 f   LIBCMT:lseeki64.obj
 0001:0004f6fc       __lseeki64                 004506fc f   LIBCMT:lseeki64.obj
 0001:0004f815       __getbuf                   00450815 f   LIBCMT:_getbuf.obj
 0001:0004f859       __isatty                   00450859 f   LIBCMT:isatty.obj
 0001:0004fac5       ___updatetmbcinfo          00450ac5 f   LIBCMT:mbctype.obj
 0001:0004fbe3       __setmbcp_nolock           00450be3 f   LIBCMT:mbctype.obj
 0001:0004fdbc       __setmbcp                  00450dbc f   LIBCMT:mbctype.obj
 0001:0004ff56       ___initmbctable            00450f56 f   LIBCMT:mbctype.obj
 0001:0004ff74       ___freetlocinfo            00450f74 f   LIBCMT:setlocal.obj
 0001:000500b4       ___addlocaleref            004510b4 f   LIBCMT:setlocal.obj
 0001:0005013a       ___removelocaleref         0045113a f   LIBCMT:setlocal.obj
 0001:00050204       ___updatetlocinfo          00451204 f   LIBCMT:setlocal.obj
 0001:0005027a       __malloc_crt               0045127a f   LIBCMT:crtheap.obj
 0001:000502ba       __calloc_crt               004512ba f   LIBCMT:crtheap.obj
 0001:00050302       __realloc_crt              00451302 f   LIBCMT:crtheap.obj
 0001:0005034d       __recalloc_crt             0045134d f   LIBCMT:crtheap.obj
 0001:0005039d       __wctomb_s_l               0045139d f   LIBCMT:wctomb.obj
 0001:000504fc       _wctomb_s                  004514fc f   LIBCMT:wctomb.obj
 0001:00050517       __isleadbyte_l             00451517 f i LIBCMT:_wctype.obj
 0001:0005054d       _isleadbyte                0045154d f i LIBCMT:_wctype.obj
 0001:00050560       __aulldvrm                 00451560 f   LIBCMT:ulldvrm.obj
 0001:000505f5       __initp_misc_initcrit      004515f5 f   LIBCMT:initcrit.obj
 0001:0005060f       ___crtInitCritSecAndSpinCount 0045160f f   LIBCMT:initcrit.obj
 0001:000506e0       __ValidateImageBase        004516e0 f   LIBCMT:pesect.obj
 0001:00050710       __FindPESection            00451710 f   LIBCMT:pesect.obj
 0001:00050760       __IsNonwritableInCurrentImage 00451760 f   LIBCMT:pesect.obj
 0001:0005086b       __get_sse2_info            0045186b f   LIBCMT:cpu_disp.obj
 0001:000508cb       ___sse2_available_init     004518cb f   LIBCMT:cpu_disp.obj
 0001:000508d8       ___sbh_heap_init           004518d8 f   LIBCMT:sbheap.obj
 0001:00050920       ___sbh_find_block          00451920 f   LIBCMT:sbheap.obj
 0001:0005094b       ___sbh_free_block          0045194b f   LIBCMT:sbheap.obj
 0001:00050c5f       ___sbh_alloc_new_region    00451c5f f   LIBCMT:sbheap.obj
 0001:00050d0f       ___sbh_alloc_new_group     00451d0f f   LIBCMT:sbheap.obj
 0001:00050e15       ___sbh_resize_block        00451e15 f   LIBCMT:sbheap.obj
 0001:000510f4       ___sbh_alloc_block         004520f4 f   LIBCMT:sbheap.obj
 0001:000513d7       __fcloseall                004523d7 f   LIBCMT:closeall.obj
 0001:00051bcf       __open                     00452bcf f   LIBCMT:open.obj
 0001:00051bcf       _open                      00452bcf f   LIBCMT:open.obj
 0001:00051c85       __sopen_helper             00452c85 f   LIBCMT:open.obj
 0001:00051d51       __sopen_s                  00452d51 f   LIBCMT:open.obj
 0001:00051d6f       __mbsicmp_l                00452d6f f   LIBCMT:mbsicmp.obj
 0001:00051f89       __mbsicmp                  00452f89 f   LIBCMT:mbsicmp.obj
 0001:00051f9c       __mbsnbcmp_l               00452f9c f   LIBCMT:mbsnbcmp.obj
 0001:00052105       __mbsnbcmp                 00453105 f   LIBCMT:mbsnbcmp.obj
 0001:0005211c       __global_unwind2           0045311c f   LIBCMT:exsup.obj
 0001:00052181       __local_unwind2            00453181 f   LIBCMT:exsup.obj
 0001:00052205       __abnormal_termination     00453205 f   LIBCMT:exsup.obj
 0001:00052228       __NLG_Notify1              00453228 f   LIBCMT:exsup.obj
 0001:00052231       __NLG_Notify               00453231 f   LIBCMT:exsup.obj
 0001:00052248       __NLG_Dispatch             00453248     LIBCMT:exsup.obj
 0001:00052248       __NLG_Dispatch2            00453248     LIBCMT:exsup.obj
 0001:00052250       __NLG_Call                 00453250 f   LIBCMT:exsup.obj
 0001:00052252       __NLG_Return2              00453252     LIBCMT:exsup.obj
 0001:00052253       __msize                    00453253 f   LIBCMT:msize.obj
 0001:000522f6       __putwch_nolock            004532f6 f   LIBCMT:putwch.obj
 0001:000523b8       __mbtowc_l                 004533b8 f   LIBCMT:mbtowc.obj
 0001:000524cb       _mbtowc                    004534cb f   LIBCMT:mbtowc.obj
 0001:00052569       __VEC_memcpy               00453569 f   LIBCMT:p4_memcpy.obj
 0001:0005264c       ?_ValidateRead@@YAHPBXI@Z  0045364c f   LIBCMT:validate.obj
 0001:0005264c       ?_ValidateWrite@@YAHPAXI@Z 0045364c f   LIBCMT:validate.obj
 0001:0005264c       ?_ValidateExecute@@YAHP6GHXZ@Z 0045364c f   LIBCMT:validate.obj
 0001:00052659       _abort                     00453659 f   LIBCMT:abort.obj
 0001:00052750       _strrchr                   00453750 f   LIBCMT:strrchr.obj
 0001:0005277d       __isdigit_l                0045377d f i LIBCMT:_ctype.obj
 0001:000527cc       _isdigit                   004537cc f i LIBCMT:_ctype.obj
 0001:000527f5       __isxdigit_l               004537f5 f i LIBCMT:_ctype.obj
 0001:00052849       _isxdigit                  00453849 f i LIBCMT:_ctype.obj
 0001:00052874       __isspace_l                00453874 f i LIBCMT:_ctype.obj
 0001:000528c3       _isspace                   004538c3 f i LIBCMT:_ctype.obj
 0001:000528ec       __tolower_l                004538ec f   LIBCMT:tolower.obj
 0001:00052a03       _tolower                   00453a03 f   LIBCMT:tolower.obj
 0001:00052a2a       __atodbl_l                 00453a2a f   LIBCMT:atodbl.obj
 0001:00052ad0       __atoflt_l                 00453ad0 f   LIBCMT:atodbl.obj
 0001:00052b76       __fptostr                  00453b76 f   LIBCMT:_fptostr.obj
 0001:00052c33       ___dtold                   00453c33 f   LIBCMT:cfout.obj
 0001:00052cee       __fltout2                  00453cee f   LIBCMT:cfout.obj
 0001:00052d80       __alldvrm                  00453d80 f   LIBCMT:lldvrm.obj
 0001:00052e60       __aullshr                  00453e60 f   LIBCMT:ullshr.obj
 0001:00052e7f       __fptrap                   00453e7f f   LIBCMT:crt0fp.obj
 0001:00052e88       __controlfp_s              00453e88 f   LIBCMT:contrlfp.obj
 0001:00052ef2       __ungetc_nolock            00453ef2 f   LIBCMT:ungetc.obj
 0001:00053010       _atol                      00454010 f   LIBCMT:atox.obj
 0001:00053021       _strncpy_s                 00454021 f   LIBCMT:strncpy_s.obj
 0001:000530d4       __getenv_helper_nolock     004540d4 f   LIBCMT:getenv.obj
 0001:00053155       ____lc_codepage_func       00454155 f   LIBCMT:initctyp.obj
 0001:0005317b       __initp_misc_winsig        0045417b f   LIBCMT:winsig.obj
 0001:000531c8       ___get_sigabrt             004541c8 f   LIBCMT:winsig.obj
 0001:000531d5       _raise                     004541d5 f   LIBCMT:winsig.obj
 0001:00053385       __initp_misc_rand_s        00454385 f   LIBCMT:rand_s.obj
 0001:0005338f       __initp_misc_purevirt      0045438f f   LIBCMT:inithelp.obj
 0001:00053399       ___crtMessageBoxA          00454399 f   LIBCMT:crtmbox.obj
 0001:00053556       _strcat_s                  00454556 f   LIBCMT:strcat_s.obj
 0001:000535c7       __set_error_mode           004545c7 f   LIBCMT:errmode.obj
 0001:0005365e       __ismbblead                0045465e f   LIBCMT:ismbbyte.obj
 0001:00053671       __freea                    00454671 f i LIBCMT:a_map.obj
 0001:00053a2e       ___crtLCMapStringA         00454a2e f   LIBCMT:a_map.obj
 0001:00053c29       ___crtGetStringTypeA       00454c29 f   LIBCMT:a_str.obj
 0001:00053c69       ___free_lc_time            00454c69 f   LIBCMT:inittime.obj
 0001:00053df9       ___free_lconv_num          00454df9 f   LIBCMT:initnum.obj
 0001:00053e39       ___free_lconv_mon          00454e39 f   LIBCMT:initmon.obj
 0001:00053ed0       _strcspn                   00454ed0 f   LIBCMT:strcspn.obj
 0001:00053f20       _strpbrk                   00454f20 f   LIBCMT:strpbrk.obj
 0001:00053f60       __calloc_impl              00454f60 f   LIBCMT:calloc.obj
 0001:0005407e       _realloc                   0045507e f   LIBCMT:realloc.obj
 0001:00054299       __recalloc                 00455299 f   LIBCMT:realloc.obj
 0001:0005453d       _strtol                    0045553d f   LIBCMT:strtol.obj
 0001:00054566       __chsize_nolock            00455566 f   LIBCMT:chsize.obj
 0001:0005471a       __setmode_nolock           0045571a f   LIBCMT:setmode.obj
 0001:000547d6       __get_fmode                004557d6 f   LIBCMT:setmode.obj
 0001:0005480a       ___ascii_stricmp           0045580a f   LIBCMT:stricmp.obj
 0001:0005483f       __stricmp_l                0045583f f   LIBCMT:stricmp.obj
 0001:00054912       __stricmp                  00455912 f   LIBCMT:stricmp.obj
 0001:00054912       _stricmp                   00455912 f   LIBCMT:stricmp.obj
 0001:00054962       ___initconout              00455962 f   LIBCMT:initcon.obj
 0001:00054981       ___termcon                 00455981 f   LIBCMT:initcon.obj
 0001:000549ae       __isctype_l                004559ae f   LIBCMT:isctype.obj
 0001:00054a64       __ld12tod                  00455a64 f   LIBCMT:intrncvt.obj
 0001:00054fa6       __ld12tof                  00455fa6 f   LIBCMT:intrncvt.obj
 0001:000554e8       ___strgtold12_l            004564e8 f   LIBCMT:strgtold.obj
 0001:00055ba8       _$I10_OUTPUT               00456ba8 f   LIBCMT:x10fout.obj
 0001:0005659c       __control87                0045759c f i LIBCMT:ieee87.obj
 0001:0005689f       __mbsnbicoll_l             0045789f f   LIBCMT:mbsnbico.obj
 0001:0005698b       __mbsnbicoll               0045798b f   LIBCMT:mbsnbico.obj
 0001:000569a2       ___wtomb_environ           004579a2 f   LIBCMT:wtombenv.obj
 0001:00056a37       ___ansicp                  00457a37 f   LIBCMT:convrtcp.obj
 0001:00056a7e       ___convertcp               00457a7e f   LIBCMT:convrtcp.obj
 0001:00056c30       __alloca_probe_16          00457c30 f   LIBCMT:alloca16.obj
 0001:00056c46       __alloca_probe_8           00457c46     LIBCMT:alloca16.obj
 0001:00056c5c       __strnicmp_l               00457c5c f   LIBCMT:strnicmp.obj
 0001:00056d4c       __strnicmp                 00457d4c f   LIBCMT:strnicmp.obj
 0001:00056d4c       _strnicmp                  00457d4c f   LIBCMT:strnicmp.obj
 0001:00056da8       ___mtold12                 00457da8 f   LIBCMT:mantold.obj
 0001:00056f74       ___set_fpsr_sse2           00457f74 f   LIBCMT:fpctrl.obj
 0001:0005736f       ___crtCompareStringA       0045836f f   LIBCMT:a_cmp.obj
 0001:000573af       __strnicoll_l              004583af f   LIBCMT:strnicol.obj
 0001:00057551       ___crtsetenv               00458551 f   LIBCMT:setenv.obj
 0001:000577a0       __chkstk                   004587a0 f   LIBCMT:chkstk.obj
 0001:000577a0       __alloca_probe             004587a0     LIBCMT:chkstk.obj
 0001:000577d0       ___ascii_strnicmp          004587d0 f   LIBCMT:_strnicm.obj
 0001:00057831       __strdup                   00458831 f   LIBCMT:strdup.obj
 0001:00057881       __mbschr_l                 00458881 f   LIBCMT:mbschr.obj
 0001:0005793b       __mbschr                   0045893b f   LIBCMT:mbschr.obj
 0001:00057960       _strchr                    00458960 f   LIBCMT:strchr.obj
 0001:00057966       ___from_strstr_to_strchr   00458966     LIBCMT:strchr.obj
 0001:00057a1e       _RtlUnwind@16              00458a1e f   kernel32:KERNEL32.dll
 0001:00057a24       __tell                     00458a24 f   LIBCMT:tell.obj
 0001:00057a24       _tell                      00458a24 f   LIBCMT:tell.obj
 0002:00000000       __imp__DescribePixelFormat@16 00459000     gdi32:GDI32.dll
 0002:00000004       __imp__SetPixelFormat@12   00459004     gdi32:GDI32.dll
 0002:00000008       __imp__ChoosePixelFormat@8 00459008     gdi32:GDI32.dll
 0002:0000000c       __imp__GetStockObject@4    0045900c     gdi32:GDI32.dll
 0002:00000010       __imp__GetPixelFormat@4    00459010     gdi32:GDI32.dll
 0002:00000014       \177GDI32_NULL_THUNK_DATA  00459014     gdi32:GDI32.dll
 0002:00000018       __imp__GetLocaleInfoA@16   00459018     kernel32:KERNEL32.dll
 0002:0000001c       __imp__GetStringTypeW@16   0045901c     kernel32:KERNEL32.dll
 0002:00000020       __imp__GetStringTypeA@20   00459020     kernel32:KERNEL32.dll
 0002:00000024       __imp__LCMapStringW@24     00459024     kernel32:KERNEL32.dll
 0002:00000028       __imp__LCMapStringA@24     00459028     kernel32:KERNEL32.dll
 0002:0000002c       __imp__WriteConsoleW@20    0045902c     kernel32:KERNEL32.dll
 0002:00000030       __imp__GetConsoleOutputCP@0 00459030     kernel32:KERNEL32.dll
 0002:00000034       __imp__WriteConsoleA@20    00459034     kernel32:KERNEL32.dll
 0002:00000038       __imp__HeapSize@12         00459038     kernel32:KERNEL32.dll
 0002:0000003c       __imp__CreateFileA@28      0045903c     kernel32:KERNEL32.dll
 0002:00000040       __imp__HeapReAlloc@16      00459040     kernel32:KERNEL32.dll
 0002:00000044       __imp__InitializeCriticalSection@4 00459044     kernel32:KERNEL32.dll
 0002:00000048       __imp__IsValidCodePage@4   00459048     kernel32:KERNEL32.dll
 0002:0000004c       __imp__GetOEMCP@0          0045904c     kernel32:KERNEL32.dll
 0002:00000050       __imp__GetACP@0            00459050     kernel32:KERNEL32.dll
 0002:00000054       __imp__GetCPInfo@8         00459054     kernel32:KERNEL32.dll
 0002:00000058       __imp__GetCurrentProcessId@0 00459058     kernel32:KERNEL32.dll
 0002:0000005c       __imp__GetTickCount@0      0045905c     kernel32:KERNEL32.dll
 0002:00000060       __imp__HeapCreate@12       00459060     kernel32:KERNEL32.dll
 0002:00000064       __imp__HeapDestroy@4       00459064     kernel32:KERNEL32.dll
 0002:00000068       __imp__GetEnvironmentStringsW@0 00459068     kernel32:KERNEL32.dll
 0002:0000006c       __imp__FreeEnvironmentStringsW@4 0045906c     kernel32:KERNEL32.dll
 0002:00000070       __imp__GetEnvironmentStrings@0 00459070     kernel32:KERNEL32.dll
 0002:00000074       __imp__FreeEnvironmentStringsA@4 00459074     kernel32:KERNEL32.dll
 0002:00000078       __imp__GetModuleFileNameA@12 00459078     kernel32:KERNEL32.dll
 0002:0000007c       __imp__ExitProcess@4       0045907c     kernel32:KERNEL32.dll
 0002:00000080       __imp__GetTimeZoneInformation@4 00459080     kernel32:KERNEL32.dll
 0002:00000084       __imp__FlushFileBuffers@4  00459084     kernel32:KERNEL32.dll
 0002:00000088       __imp__GetConsoleMode@8    00459088     kernel32:KERNEL32.dll
 0002:0000008c       __imp__GetConsoleCP@0      0045908c     kernel32:KERNEL32.dll
 0002:00000090       __imp__WideCharToMultiByte@32 00459090     kernel32:KERNEL32.dll
 0002:00000094       __imp__ReadFile@20         00459094     kernel32:KERNEL32.dll
 0002:00000098       __imp__MultiByteToWideChar@24 00459098     kernel32:KERNEL32.dll
 0002:0000009c       __imp__SetFilePointer@16   0045909c     kernel32:KERNEL32.dll
 0002:000000a0       __imp__CloseHandle@4       004590a0     kernel32:KERNEL32.dll
 0002:000000a4       __imp__DeleteCriticalSection@4 004590a4     kernel32:KERNEL32.dll
 0002:000000a8       __imp__GetStdHandle@4      004590a8     kernel32:KERNEL32.dll
 0002:000000ac       __imp__SetHandleCount@4    004590ac     kernel32:KERNEL32.dll
 0002:000000b0       __imp__LeaveCriticalSection@4 004590b0     kernel32:KERNEL32.dll
 0002:000000b4       __imp__EnterCriticalSection@4 004590b4     kernel32:KERNEL32.dll
 0002:000000b8       __imp__SetStdHandle@8      004590b8     kernel32:KERNEL32.dll
 0002:000000bc       __imp__InterlockedDecrement@4 004590bc     kernel32:KERNEL32.dll
 0002:000000c0       __imp__GetCurrentThreadId@0 004590c0     kernel32:KERNEL32.dll
 0002:000000c4       __imp__SetLastError@4      004590c4     kernel32:KERNEL32.dll
 0002:000000c8       __imp__InterlockedIncrement@4 004590c8     kernel32:KERNEL32.dll
 0002:000000cc       __imp__TlsFree@4           004590cc     kernel32:KERNEL32.dll
 0002:000000d0       __imp__TlsSetValue@8       004590d0     kernel32:KERNEL32.dll
 0002:000000d4       __imp__TlsAlloc@0          004590d4     kernel32:KERNEL32.dll
 0002:000000d8       __imp__TlsGetValue@4       004590d8     kernel32:KERNEL32.dll
 0002:000000dc       __imp__GetProcAddress@8    004590dc     kernel32:KERNEL32.dll
 0002:000000e0       __imp__GetModuleHandleA@4  004590e0     kernel32:KERNEL32.dll
 0002:000000e4       __imp__GetStartupInfoA@4   004590e4     kernel32:KERNEL32.dll
 0002:000000e8       __imp__GetProcessHeap@0    004590e8     kernel32:KERNEL32.dll
 0002:000000ec       __imp__HeapAlloc@12        004590ec     kernel32:KERNEL32.dll
 0002:000000f0       __imp__GetVersionExA@4     004590f0     kernel32:KERNEL32.dll
 0002:000000f4       __imp__HeapFree@12         004590f4     kernel32:KERNEL32.dll
 0002:000000f8       __imp__GetCommandLineA@0   004590f8     kernel32:KERNEL32.dll
 0002:000000fc       __imp__GetSystemTimeAsFileTime@4 004590fc     kernel32:KERNEL32.dll
 0002:00000100       __imp__RtlUnwind@16        00459100     kernel32:KERNEL32.dll
 0002:00000104       __imp__RaiseException@16   00459104     kernel32:KERNEL32.dll
 0002:00000108       __imp__IsDebuggerPresent@0 00459108     kernel32:KERNEL32.dll
 0002:0000010c       __imp__SetUnhandledExceptionFilter@4 0045910c     kernel32:KERNEL32.dll
 0002:00000110       __imp__UnhandledExceptionFilter@4 00459110     kernel32:KERNEL32.dll
 0002:00000114       __imp__GetCurrentProcess@0 00459114     kernel32:KERNEL32.dll
 0002:00000118       __imp__TerminateProcess@8  00459118     kernel32:KERNEL32.dll
 0002:0000011c       __imp__GetFileType@4       0045911c     kernel32:KERNEL32.dll
 0002:00000120       __imp__PeekNamedPipe@24    00459120     kernel32:KERNEL32.dll
 0002:00000124       __imp__GetFileInformationByHandle@8 00459124     kernel32:KERNEL32.dll
 0002:00000128       __imp__FileTimeToLocalFileTime@8 00459128     kernel32:KERNEL32.dll
 0002:0000012c       __imp__FileTimeToSystemTime@8 0045912c     kernel32:KERNEL32.dll
 0002:00000130       __imp__SetEndOfFile@4      00459130     kernel32:KERNEL32.dll
 0002:00000134       __imp__CompareStringA@24   00459134     kernel32:KERNEL32.dll
 0002:00000138       __imp__CompareStringW@24   00459138     kernel32:KERNEL32.dll
 0002:0000013c       __imp__WriteFile@20        0045913c     kernel32:KERNEL32.dll
 0002:00000140       __imp__FormatMessageA@28   00459140     kernel32:KERNEL32.dll
 0002:00000144       __imp__QueryPerformanceCounter@4 00459144     kernel32:KERNEL32.dll
 0002:00000148       __imp__QueryPerformanceFrequency@4 00459148     kernel32:KERNEL32.dll
 0002:0000014c       __imp__Sleep@4             0045914c     kernel32:KERNEL32.dll
 0002:00000150       __imp__LoadLibraryA@4      00459150     kernel32:KERNEL32.dll
 0002:00000154       __imp__VirtualFree@12      00459154     kernel32:KERNEL32.dll
 0002:00000158       __imp__VirtualAlloc@16     00459158     kernel32:KERNEL32.dll
 0002:0000015c       __imp__CreateThread@24     0045915c     kernel32:KERNEL32.dll
 0002:00000160       __imp__GetLastError@0      00459160     kernel32:KERNEL32.dll
 0002:00000164       __imp__SetEnvironmentVariableA@8 00459164     kernel32:KERNEL32.dll
 0002:00000168       __imp__LocalFree@4         00459168     kernel32:KERNEL32.dll
 0002:0000016c       \177KERNEL32_NULL_THUNK_DATA 0045916c     kernel32:KERNEL32.dll
 0002:00000170       __imp__glTexSubImage2D@36  00459170     opengl32:OPENGL32.dll
 0002:00000174       __imp__glCallList@4        00459174     opengl32:OPENGL32.dll
 0002:00000178       __imp__glFlush@0           00459178     opengl32:OPENGL32.dll
 0002:0000017c       __imp__glGenTextures@8     0045917c     opengl32:OPENGL32.dll
 0002:00000180       __imp__glIsList@4          00459180     opengl32:OPENGL32.dll
 0002:00000184       __imp__glGenLists@4        00459184     opengl32:OPENGL32.dll
 0002:00000188       __imp__glNewList@8         00459188     opengl32:OPENGL32.dll
 0002:0000018c       __imp__glBegin@4           0045918c     opengl32:OPENGL32.dll
 0002:00000190       __imp__glVertex2f@8        00459190     opengl32:OPENGL32.dll
 0002:00000194       __imp__glEnd@0             00459194     opengl32:OPENGL32.dll
 0002:00000198       __imp__glEndList@0         00459198     opengl32:OPENGL32.dll
 0002:0000019c       __imp__glEnable@4          0045919c     opengl32:OPENGL32.dll
 0002:000001a0       __imp__glBindTexture@8     004591a0     opengl32:OPENGL32.dll
 0002:000001a4       __imp__glTexImage2D@36     004591a4     opengl32:OPENGL32.dll
 0002:000001a8       __imp__wglDeleteContext@4  004591a8     opengl32:OPENGL32.dll
 0002:000001ac       __imp__wglMakeCurrent@8    004591ac     opengl32:OPENGL32.dll
 0002:000001b0       __imp__glTexParameterfv@12 004591b0     opengl32:OPENGL32.dll
 0002:000001b4       __imp__glTexParameteri@12  004591b4     opengl32:OPENGL32.dll
 0002:000001b8       __imp__glTexEnvi@12        004591b8     opengl32:OPENGL32.dll
 0002:000001bc       __imp__glLoadMatrixf@4     004591bc     opengl32:OPENGL32.dll
 0002:000001c0       __imp__glPixelTransferf@8  004591c0     opengl32:OPENGL32.dll
 0002:000001c4       __imp__glViewport@16       004591c4     opengl32:OPENGL32.dll
 0002:000001c8       __imp__glMatrixMode@4      004591c8     opengl32:OPENGL32.dll
 0002:000001cc       __imp__glLoadIdentity@0    004591cc     opengl32:OPENGL32.dll
 0002:000001d0       __imp__glOrtho@48          004591d0     opengl32:OPENGL32.dll
 0002:000001d4       __imp__glDisable@4         004591d4     opengl32:OPENGL32.dll
 0002:000001d8       __imp__glClear@4           004591d8     opengl32:OPENGL32.dll
 0002:000001dc       __imp__wglCreateContext@4  004591dc     opengl32:OPENGL32.dll
 0002:000001e0       \177OPENGL32_NULL_THUNK_DATA 004591e0     opengl32:OPENGL32.dll
 0002:000001e4       __imp__MessageBoxA@16      004591e4     user32:USER32.dll
 0002:000001e8       __imp__SendMessageA@16     004591e8     user32:USER32.dll
 0002:000001ec       __imp__AdjustWindowRectEx@16 004591ec     user32:USER32.dll
 0002:000001f0       __imp__GetClientRect@8     004591f0     user32:USER32.dll
 0002:000001f4       __imp__GetWindowRect@8     004591f4     user32:USER32.dll
 0002:000001f8       __imp__PostMessageA@16     004591f8     user32:USER32.dll
 0002:000001fc       __imp__ChangeDisplaySettingsA@8 004591fc     user32:USER32.dll
 0002:00000200       __imp__ShowWindow@8        00459200     user32:USER32.dll
 0002:00000204       __imp__ReleaseDC@8         00459204     user32:USER32.dll
 0002:00000208       __imp__DestroyWindow@4     00459208     user32:USER32.dll
 0002:0000020c       __imp__GetDC@4             0045920c     user32:USER32.dll
 0002:00000210       __imp__CreateWindowExA@48  00459210     user32:USER32.dll
 0002:00000214       __imp__ShowCursor@4        00459214     user32:USER32.dll
 0002:00000218       __imp__UnregisterClassA@8  00459218     user32:USER32.dll
 0002:0000021c       __imp__DefWindowProcA@16   0045921c     user32:USER32.dll
 0002:00000220       __imp__SetWindowPos@28     00459220     user32:USER32.dll
 0002:00000224       __imp__EndPaint@8          00459224     user32:USER32.dll
 0002:00000228       __imp__BeginPaint@8        00459228     user32:USER32.dll
 0002:0000022c       __imp__SetWindowLongA@12   0045922c     user32:USER32.dll
 0002:00000230       __imp__CreateDialogParamA@20 00459230     user32:USER32.dll
 0002:00000234       __imp__EndDialog@8         00459234     user32:USER32.dll
 0002:00000238       __imp__LoadIconA@8         00459238     user32:USER32.dll
 0002:0000023c       __imp__LoadBitmapA@8       0045923c     user32:USER32.dll
 0002:00000240       __imp__GetDlgItem@8        00459240     user32:USER32.dll
 0002:00000244       __imp__IsDialogMessageA@8  00459244     user32:USER32.dll
 0002:00000248       __imp__InvalidateRect@12   00459248     user32:USER32.dll
 0002:0000024c       __imp__UpdateWindow@4      0045924c     user32:USER32.dll
 0002:00000250       __imp__EnableWindow@8      00459250     user32:USER32.dll
 0002:00000254       __imp__WaitMessage@0       00459254     user32:USER32.dll
 0002:00000258       __imp__PeekMessageA@20     00459258     user32:USER32.dll
 0002:0000025c       __imp__DispatchMessageA@4  0045925c     user32:USER32.dll
 0002:00000260       __imp__LoadCursorA@8       00459260     user32:USER32.dll
 0002:00000264       __imp__RegisterClassExA@4  00459264     user32:USER32.dll
 0002:00000268       __imp__GetWindowLongA@8    00459268     user32:USER32.dll
 0002:0000026c       \177USER32_NULL_THUNK_DATA 0045926c     user32:USER32.dll
 0002:00000270       __imp__timeBeginPeriod@4   00459270     winmm:WINMM.dll
 0002:00000274       __imp__timeKillEvent@4     00459274     winmm:WINMM.dll
 0002:00000278       __imp__timeSetEvent@20     00459278     winmm:WINMM.dll
 0002:0000027c       \177WINMM_NULL_THUNK_DATA  0045927c     winmm:WINMM.dll
 0002:00000280       __imp__GetOpenFileNameA@4  00459280     comdlg32:comdlg32.dll
 0002:00000284       \177comdlg32_NULL_THUNK_DATA 00459284     comdlg32:comdlg32.dll
 0002:00000288       __imp__FSOUND_Stream_Close@4 00459288     fmodvc:fmod.dll
 0002:0000028c       __imp__FSOUND_Init@12      0045928c     fmodvc:fmod.dll
 0002:00000290       __imp__FSOUND_Stream_Create@20 00459290     fmodvc:fmod.dll
 0002:00000294       __imp__FSOUND_SetMute@8    00459294     fmodvc:fmod.dll
 0002:00000298       __imp__FSOUND_SetFrequency@8 00459298     fmodvc:fmod.dll
 0002:0000029c       __imp__FSOUND_IsPlaying@4  0045929c     fmodvc:fmod.dll
 0002:000002a0       __imp__FSOUND_Stream_Stop@4 004592a0     fmodvc:fmod.dll
 0002:000002a4       __imp__FSOUND_SetVolume@8  004592a4     fmodvc:fmod.dll
 0002:000002a8       __imp__FSOUND_Close@0      004592a8     fmodvc:fmod.dll
 0002:000002ac       __imp__FSOUND_Stream_Play@8 004592ac     fmodvc:fmod.dll
 0002:000002b0       __imp__FSOUND_SetDriver@4  004592b0     fmodvc:fmod.dll
 0002:000002b4       \177fmod_NULL_THUNK_DATA   004592b4     fmodvc:fmod.dll
 0002:000002b8       __imp____glewActiveTexture 004592b8     glew32:glew32.dll
 0002:000002bc       __imp____glewMultiTexCoord2fvARB 004592bc     glew32:glew32.dll
 0002:000002c0       __imp____glewGetUniformLocationARB 004592c0     glew32:glew32.dll
 0002:000002c4       __imp____glewUniform1iARB  004592c4     glew32:glew32.dll
 0002:000002c8       __imp____glewActiveTextureARB 004592c8     glew32:glew32.dll
 0002:000002cc       __imp____wglewFreeMemoryNV 004592cc     glew32:glew32.dll
 0002:000002d0       __imp____glewUseProgramObjectARB 004592d0     glew32:glew32.dll
 0002:000002d4       __imp____glewAttachObjectARB 004592d4     glew32:glew32.dll
 0002:000002d8       __imp____glewLinkProgramARB 004592d8     glew32:glew32.dll
 0002:000002dc       __imp____glewCompileShaderARB 004592dc     glew32:glew32.dll
 0002:000002e0       __imp____glewShaderSourceARB 004592e0     glew32:glew32.dll
 0002:000002e4       __imp____glewGetObjectParameterivARB 004592e4     glew32:glew32.dll
 0002:000002e8       __imp____glewGetInfoLogARB 004592e8     glew32:glew32.dll
 0002:000002ec       __imp____glewCreateProgramObjectARB 004592ec     glew32:glew32.dll
 0002:000002f0       __imp____glewCreateShaderObjectARB 004592f0     glew32:glew32.dll
 0002:000002f4       __imp__glewInit            004592f4     glew32:glew32.dll
 0002:000002f8       __imp__glewGetErrorString  004592f8     glew32:glew32.dll
 0002:000002fc       \177glew32_NULL_THUNK_DATA 004592fc     glew32:glew32.dll
 0002:00000300       ___xc_a                    00459300     LIBCMT:crt0init.obj
 0002:00000304       ___xc_z                    00459304     LIBCMT:crt0init.obj
 0002:00000308       ___xi_a                    00459308     LIBCMT:crt0init.obj
 0002:00000324       ___xi_z                    00459324     LIBCMT:crt0init.obj
 0002:00000328       ___xp_a                    00459328     LIBCMT:crt0init.obj
 0002:00000334       ___xp_z                    00459334     LIBCMT:crt0init.obj
 0002:00000338       ___xt_a                    00459338     LIBCMT:crt0init.obj
 0002:0000033c       ___xt_z                    0045933c     LIBCMT:crt0init.obj
 0002:0000036c       ??_C@_0P@GHFPNOJB@bad?5allocation?$AA@ 0045936c     bdma_type12.obj
 0002:00000f40       ??_C@_02JDPG@rb?$AA@       00459f40     FlashEEPROM.obj
 0002:00000f44       ??_C@_02GMLFBBN@wb?$AA@    00459f44     FlashEEPROM.obj
 0002:00000f48       ??_C@_08KFANBBMC@GLWindow?$AA@ 00459f48     GLWindow.obj
 0002:00000f54       ??_C@_0CO@HMJOAONH@Mode?5Switch?5Failed?4?6Running?5In?5W@ 00459f54     GLWindow.obj
 0002:00000f84       ??_C@_05NAOIJFC@Error?$AA@ 00459f84     GLWindow.obj
 0002:00000f8c       ??_C@_0BI@HEJEKKA@RegisterClassEx?5Failed?$CB?$AA@ 00459f8c     GLWindow.obj
 0002:00000fa4       ??_C@_0BN@KLAEEBDJ@Error?5Creating?5OpenGL?5Window?$AA@ 00459fa4     GLWindow.obj
 0002:00000fc4       ??_C@_0CA@GKHOFDLK@Error?5Registering?5Window?5Class?$CB?$AA@ 00459fc4     GLWindow.obj
 0002:000010f0       ??_C@_0BD@OLBABOEK@vector?$DMT?$DO?5too?5long?$AA@ 0045a0f0     MemoryManager.obj
 0002:00001180       __real@3fef0a3d70a3d70a    0045a180     nativecodecache.obj
 0002:00001188       __real@41f0000000000000    0045a188     nativecodecache.obj
 0002:00001ba0       __real@bff0000000000000    0045aba0     NuanceMain.obj
 0002:00001ba8       __real@408f400000000000    0045aba8     NuanceMain.obj
 0002:00001ecc       ??_C@_0BA@LJCMGLJN@FlashEEPROM?4bin?$AA@ 0045aecc     NuonEnvironment.obj
 0002:00003978       ??_C@_04HDOCAJNK@?$CFs?$CFs?$AA@ 0045c978     PrintMisc.obj
 0002:0000397d       ??_C@_00CNPNBAHC@?$AA@     0045c97d     PrintMisc.obj
 0002:00003980       ??_C@_01EEMJAFIK@?6?$AA@   0045c980     PrintMisc.obj
 0002:00003984       ??_C@_0M@FEDFHMHF@PacketStart?$AA@ 0045c984     PrintMisc.obj
 0002:00003990       ??_C@_09ICNFADAB@PacketEnd?$AA@ 0045c990     PrintMisc.obj
 0002:0000399c       ??_C@_0BE@GNILGCGJ@CheckECUSkipCounter?$AA@ 0045c99c     PrintMisc.obj
 0002:000039b0       ??_C@_09PJCMNALL@SaveFlags?$AA@ 0045c9b0     PrintMisc.obj
 0002:000039bc       ??_C@_08JOEICBDF@SaveRegs?$AA@ 0045c9bc     PrintMisc.obj
 0002:00004094       ??_C@_0CP@LONCKNIA@OpenGLShader?5could?5not?5allocate?5@ 0045d094     ShaderProgram.obj
 0002:000040c4       ??_C@_0BK@DPEJPPJ@Shader?5Program?5Link?5Error?$AA@ 0045d0c4     ShaderProgram.obj
 0002:000040e0       ??_C@_0BM@FBFNENOG@Vertex?5Shader?5Compile?5Error?$AA@ 0045d0e0     ShaderProgram.obj
 0002:000040fc       ??_C@_0BO@EBPNPBC@Fragment?5Shader?5Compile?5Error?$AA@ 0045d0fc     ShaderProgram.obj
 0002:0000411c       ??_C@_01NOFIACDB@w?$AA@    0045d11c     SuperBlock.obj
 0002:00004120       ??_C@_0BD@GCCOADMA@SuperBlocks?$CFli?4txt?$AA@ 0045d120     SuperBlock.obj
 0002:00004134       ??_C@_0BJ@IGOFAMIL@?$FL?$CFs?$CFs?$CFs?$CFs?$CFs?$CFs?$CFs?$CFs?$CFs?$CFs?$CFs?$FN?$AA@ 0045d134     SuperBlock.obj
 0002:00004150       ??_C@_02OPDOKCIF@N?5?$AA@  0045d150     SuperBlock.obj
 0002:00004154       ??_C@_02PNALFAEN@V?5?$AA@  0045d154     SuperBlock.obj
 0002:00004158       ??_C@_02PEBBKJCJ@Z?5?$AA@  0045d158     SuperBlock.obj
 0002:0000415c       ??_C@_02OHOGDBNG@C?5?$AA@  0045d15c     SuperBlock.obj
 0002:00004160       ??_C@_03EKHANGKD@MV?5?$AA@ 0045d160     SuperBlock.obj
 0002:00004164       ??_C@_04CCAKFNBO@C0Z?5?$AA@ 0045d164     SuperBlock.obj
 0002:0000416c       ??_C@_04JKLGDKHL@C1Z?5?$AA@ 0045d16c     SuperBlock.obj
 0002:00004174       ??_C@_06PBCEHJAF@MODGE?5?$AA@ 0045d174     SuperBlock.obj
 0002:0000417c       ??_C@_06JHIDGAAF@MODMI?5?$AA@ 0045d17c     SuperBlock.obj
 0002:00004184       ??_C@_04CJBOOMKI@CF0?5?$AA@ 0045d184     SuperBlock.obj
 0002:0000418c       ??_C@_04CINMIGJP@CF1?5?$AA@ 0045d18c     SuperBlock.obj
 0002:00004194       ??_C@_0CL@MIIPMIMG@?$CK?$CK?$CK?$CK?$CK?$CK?$CK?$CK?$CK?$CK?$CK?$CK?$CK?$CK?$CK?$CK?$CK?$CK?$CK?$CK?$CK?$CK?$CK?$CK?$CK?$CK?$CK?$CK?$CK?$CK?$CK?$CK@ 0045d194     SuperBlock.obj
 0002:000041c0       ??_C@_0BK@HMMIMFFC@Next?5Delay?5Counter?3?5$?$CFlx?6?$AA@ 0045d1c0     SuperBlock.obj
 0002:000041dc       ??_C@_0BN@LMFAEJAH@Next?5Virtual?5Address?3?5$?$CF8lx?6?$AA@ 0045d1dc     SuperBlock.obj
 0002:000041fc       ??_C@_0O@JADAMHCH@EMPTY?5BLOCK?6?6?$AA@ 0045d1fc     SuperBlock.obj
 0002:0000420c       ??_C@_0BF@MENIKMFB@?$CIDEPENDENCY_PRESENT?$CJ?$AA@ 0045d20c     SuperBlock.obj
 0002:00004224       ??_C@_09PFNEJDOC@?$CINATIVE?$CJ?5?$AA@ 0045d224     SuperBlock.obj
 0002:00004230       ??_C@_05IDPLFNHH@?$CIIL?$CJ?5?$AA@ 0045d230     SuperBlock.obj
 0002:00004238       ??_C@_0BC@OBINKHBK@FlagsOutDep?3?5?$CFs?$CJ?6?$AA@ 0045d238     SuperBlock.obj
 0002:0000424c       ??_C@_0BA@PNCPLPNA@FlagsInDep?3?5?$CFs?5?$AA@ 0045d24c     SuperBlock.obj
 0002:00004260       ??_C@_0FI@KKAOLKMC@?$CIScalarInDep?3?5$?$CF8?48LX?0?5MiscInDep@ 0045d260     SuperBlock.obj
 0002:000042b8       ??_C@_03IKGEINEE@?$CFs?5?$AA@ 0045d2b8     SuperBlock.obj
 0002:000042bc       ??_C@_08KPENFJFL@?$CKDEAD?$CK?3?5?$AA@ 0045d2bc     SuperBlock.obj
 0002:000042c8       ??_C@_0BI@FEFIIMFF@Compile?5Type?3?5Unknown?6?6?$AA@ 0045d2c8     SuperBlock.obj
 0002:000042e0       ??_C@_0BN@PHFOKFNE@Compile?5Type?3?5Native?5block?6?6?$AA@ 0045d2e0     SuperBlock.obj
 0002:00004300       ??_C@_0BJ@KAPBNGLF@Compile?5Type?3?5IL?5block?6?6?$AA@ 0045d300     SuperBlock.obj
 0002:0000431c       ??_C@_0BK@FOJMHEOO@Compile?5Type?3?5IL?5single?6?6?$AA@ 0045d31c     SuperBlock.obj
 0002:00004338       ??_C@_0BN@GBAEKMF@Code?5Cache?5Usage?3?5?$CFlu?5bytes?6?$AA@ 0045d338     SuperBlock.obj
 0002:00004358       ??_C@_0BG@LAFMPMOJ@Code?5Size?3?5?$CFlu?5bytes?6?$AA@ 0045d358     SuperBlock.obj
 0002:00004370       ??_C@_0BD@OHEIDKMO@Packet?5Count?3?5?$CFli?6?$AA@ 0045d370     SuperBlock.obj
 0002:00004384       ??_C@_0BI@JCHMHAAP@Instruction?5Count?3?5?$CFli?6?$AA@ 0045d384     SuperBlock.obj
 0002:0000439c       ??_C@_0BN@GNKKNKMB@Constants?5Propagated?3?5FALSE?6?$AA@ 0045d39c     SuperBlock.obj
 0002:000043bc       ??_C@_0BM@LMOOBJNE@Constants?5Propagated?3?5TRUE?6?$AA@ 0045d3bc     SuperBlock.obj
 0002:000043d8       ??_C@_0BI@PIDAFEOM@Virtual?5Address?3?5$?$CF8lx?6?$AA@ 0045d3d8     SuperBlock.obj
 0002:000043f0       ??_C@_0CK@LIEMKPCM@?$CK?$CK?$CK?$CK?$CK?$CK?$CK?$CK?$CK?$CK?$CK?$CK?$CK?$CK?$CK?$CK?$CK?$CK?$CK?$CK?$CK?$CK?$CK?$CK?$CK?$CK?$CK?$CK?$CK?$CK?$CK?$CK@ 0045d3f0     SuperBlock.obj
 0002:00004430       __real@412e848000000000    0045d430     timer.obj
 0002:00004438       __real@3f50624dd2f1a9fc    0045d438     timer.obj
 0002:00004440       __real@4f800000            0045d440     timer.obj
 0002:000044f8       __real@406fe00000000000    0045d4f8     video.obj
 0002:00004500       __real@bf62d0e5            0045d500     video.obj
 0002:00004504       __real@3f051eb8            0045d504     video.obj
 0002:00004508       __real@bf3374bc            0045d508     video.obj
 0002:0000450c       __real@3b000000            0045d50c     video.obj
 0002:00004510       __real@3a800000            0045d510     video.obj
 0002:00004514       __real@80000000            0045d514     video.obj
 0002:00004518       __real@3f70101010101010    0045d518     video.obj
 0002:00004520       __real@43f00000            0045d520     video.obj
 0002:00004524       __real@44340000            0045d524     video.obj
 0002:0000452c       ??_7bad_alloc@std@@6B@     0045d52c     libcpmt:string.obj
 0002:00004538       ??_7logic_error@std@@6B@   0045d538     libcpmt:string.obj
 0002:00004544       ??_7length_error@std@@6B@  0045d544     libcpmt:string.obj
 0002:00004550       ??_7out_of_range@std@@6B@  0045d550     libcpmt:string.obj
 0002:00004558       ??_C@_0BA@JFNIOLAK@string?5too?5long?$AA@ 0045d558     libcpmt:string.obj
 0002:00004568       ??_C@_0BI@CFPLBAOH@invalid?5string?5position?$AA@ 0045d568     libcpmt:string.obj
 0002:00004584       ??_7exception@std@@6B@     0045d584     LIBCMT:stdexcpt.obj
 0002:0000458c       ??_C@_0BC@EOODALEL@Unknown?5exception?$AA@ 0045d58c     LIBCMT:stdexcpt.obj
 0002:000045c4       ??_7type_info@@6B@         0045d5c4     LIBCMT:typinfo.obj
 0002:000045c8       __FPinit                   0045d5c8     LIBCMT:fpinit.obj
 0002:000045cc       __FPmtinit                 0045d5cc     LIBCMT:fpinit.obj
 0002:000045d0       __FPmtterm                 0045d5d0     LIBCMT:fpinit.obj
 0002:000045d4       ___dnames                  0045d5d4     LIBCMT:timeset.obj
 0002:000045ec       ___mnames                  0045d5ec     LIBCMT:timeset.obj
 0002:00004614       ??_C@_1O@CEDCILHN@?$AA?$CI?$AAn?$AAu?$AAl?$AAl?$AA?$CJ?$AA?$AA@ 0045d614     LIBCMT:output.obj
 0002:00004624       ??_C@_06OJHGLDPL@?$CInull?$CJ?$AA@ 0045d624     LIBCMT:output.obj
 0002:00004630       ___lookuptable             0045d630     LIBCMT:output.obj
 0002:0000468c       ??_C@_07EPKMNAGK@?4mixcrt?$AA@ 0045d68c     LIBCMT:tidtable.obj
 0002:00004694       ??_C@_0O@NLDKAIKN@EncodePointer?$AA@ 0045d694     LIBCMT:tidtable.obj
 0002:000046a4       ??_C@_0N@NHGLKGEC@KERNEL32?4DLL?$AA@ 0045d6a4     LIBCMT:tidtable.obj
 0002:000046b4       ??_C@_0O@KBPMFGHI@DecodePointer?$AA@ 0045d6b4     LIBCMT:tidtable.obj
 0002:000046c4       ??_C@_07PEJMOBNF@FlsFree?$AA@ 0045d6c4     LIBCMT:tidtable.obj
 0002:000046cc       ??_C@_0M@JCPCPOEF@FlsSetValue?$AA@ 0045d6cc     LIBCMT:tidtable.obj
 0002:000046d8       ??_C@_0M@GDNOONDI@FlsGetValue?$AA@ 0045d6d8     LIBCMT:tidtable.obj
 0002:000046e4       ??_C@_08KNHFBNJ@FlsAlloc?$AA@ 0045d6e4     LIBCMT:tidtable.obj
 0002:00004714       __pDestructExceptionObject 0045d714     LIBCMT:frame.obj
 0002:0000471c       ??_7bad_exception@std@@6B@ 0045d71c     LIBCMT:frame.obj
 0002:00004724       ??_C@_0O@DPKOEFFH@bad?5exception?$AA@ 0045d724     LIBCMT:frame.obj
 0002:00004734       ??_C@_05KLBDPFGC@e?$CL000?$AA@ 0045d734     LIBCMT:cvt.obj
 0002:00004740       __real@4150017ec0000000    0045d740     LIBCMT:testfdiv.obj
 0002:00004748       __real@4147ffff80000000    0045d748     LIBCMT:testfdiv.obj
 0002:00004750       ??_C@_0BK@NHEOCAHP@IsProcessorFeaturePresent?$AA@ 0045d750     LIBCMT:testfdiv.obj
 0002:0000476c       ??_C@_08CPNIBGIE@KERNEL32?$AA@ 0045d76c     LIBCMT:testfdiv.obj
 0002:00004778       ??_C@_02CLFPBFFP@TZ?$AA@   0045d778     LIBCMT:tzset.obj
 0002:0000477c       ??_C@_0P@MIGLKIOC@CorExitProcess?$AA@ 0045d77c     LIBCMT:crt0dat.obj
 0002:0000478c       ??_C@_0M@MBOPBNBK@mscoree?4dll?$AA@ 0045d78c     LIBCMT:crt0dat.obj
 0002:00004798       ??_C@_0P@GGKDKEEG@runtime?5error?5?$AA@ 0045d798     LIBCMT:crt0msg.obj
 0002:000047a8       ??_C@_02PCIJFNDE@?$AN?6?$AA@ 0045d7a8     LIBCMT:crt0msg.obj
 0002:000047ac       ??_C@_0O@MJNIPGOH@TLOSS?5error?$AN?6?$AA@ 0045d7ac     LIBCMT:crt0msg.obj
 0002:000047bc       ??_C@_0N@BONNPDHF@SING?5error?$AN?6?$AA@ 0045d7bc     LIBCMT:crt0msg.obj
 0002:000047cc       ??_C@_0P@MBDAJNE@DOMAIN?5error?$AN?6?$AA@ 0045d7cc     LIBCMT:crt0msg.obj
 0002:000047e0       ??_C@_0JL@DFDOOABL@R6034?$AN?6An?5application?5has?5made?5a@ 0045d7e0     LIBCMT:crt0msg.obj
 0002:00004880       ??_C@_0PH@EPAFIJ@R6033?$AN?6?9?5Attempt?5to?5use?5MSIL?5cod@ 0045d880     LIBCMT:crt0msg.obj
 0002:00004978       ??_C@_0DD@BKEEABMM@R6032?$AN?6?9?5not?5enough?5space?5for?5lo@ 0045d978     LIBCMT:crt0msg.obj
 0002:000049b0       ??_C@_0GD@OFKILIED@R6031?$AN?6?9?5Attempt?5to?5initialize?5t@ 0045d9b0     LIBCMT:crt0msg.obj
 0002:00004a14       ??_C@_0BP@LPMHJOKI@R6030?$AN?6?9?5CRT?5not?5initialized?$AN?6?$AA@ 0045da14     LIBCMT:crt0msg.obj
 0002:00004a34       ??_C@_0CF@KJDAIALP@R6028?$AN?6?9?5unable?5to?5initialize?5he@ 0045da34     LIBCMT:crt0msg.obj
 0002:00004a5c       ??_C@_0DF@GAKBPDFP@R6027?$AN?6?9?5not?5enough?5space?5for?5lo@ 0045da5c     LIBCMT:crt0msg.obj
 0002:00004a94       ??_C@_0DF@IBLNNAIG@R6026?$AN?6?9?5not?5enough?5space?5for?5st@ 0045da94     LIBCMT:crt0msg.obj
 0002:00004acc       ??_C@_0CG@IOHKGFNJ@R6025?$AN?6?9?5pure?5virtual?5function?5c@ 0045dacc     LIBCMT:crt0msg.obj
 0002:00004af4       ??_C@_0DF@JIJJFJDC@R6024?$AN?6?9?5not?5enough?5space?5for?5_o@ 0045daf4     LIBCMT:crt0msg.obj
 0002:00004b2c       ??_C@_0CJ@EGEJHFME@R6019?$AN?6?9?5unable?5to?5open?5console?5@ 0045db2c     LIBCMT:crt0msg.obj
 0002:00004b58       ??_C@_0CB@GNHNIELH@R6018?$AN?6?9?5unexpected?5heap?5error?$AN?6@ 0045db58     LIBCMT:crt0msg.obj
 0002:00004b7c       ??_C@_0CN@FOLDKNG@R6017?$AN?6?9?5unexpected?5multithread?5@ 0045db7c     LIBCMT:crt0msg.obj
 0002:00004bac       ??_C@_0CM@FAHFJNHO@R6016?$AN?6?9?5not?5enough?5space?5for?5th@ 0045dbac     LIBCMT:crt0msg.obj
 0002:00004bd8       ??_C@_0JG@LBKMGKLD@?$AN?6This?5application?5has?5requested@ 0045dbd8     LIBCMT:crt0msg.obj
 0002:00004c70       ??_C@_0CM@FLCNIPKK@R6009?$AN?6?9?5not?5enough?5space?5for?5en@ 0045dc70     LIBCMT:crt0msg.obj
 0002:00004c9c       ??_C@_0CK@KMMJOAPP@R6008?$AN?6?9?5not?5enough?5space?5for?5ar@ 0045dc9c     LIBCMT:crt0msg.obj
 0002:00004cc8       ??_C@_0CN@LEKKICBM@R6002?$AN?6?9?5floating?5point?5support?5@ 0045dcc8     LIBCMT:crt0msg.obj
 0002:00004cf8       ??_C@_0CF@GOGNBNAK@Microsoft?5Visual?5C?$CL?$CL?5Runtime?5Lib@ 0045dcf8     LIBCMT:crt0msg.obj
 0002:00004d20       ??_C@_02PHMGELLB@?6?6?$AA@ 0045dd20     LIBCMT:crt0msg.obj
 0002:00004d24       ??_C@_03KHICJKCI@?4?4?4?$AA@ 0045dd24     LIBCMT:crt0msg.obj
 0002:00004d28       ??_C@_0BH@DNAGHKFM@?$DMprogram?5name?5unknown?$DO?$AA@ 0045dd28     LIBCMT:crt0msg.obj
 0002:00004d40       ??_C@_0BK@OFGJDLJJ@Runtime?5Error?$CB?6?6Program?3?5?$AA@ 0045dd40     LIBCMT:crt0msg.obj
 0002:00004de8       ??_C@_01NEMOKFLO@?$DN?$AA@ 0045dde8     LIBCMT:setlocal.obj
 0002:00004df0       ___lookuptable_s           0045ddf0     LIBCMT:outputs.obj
 0002:00004e4c       ??_C@_0CG@PKBDLMEO@InitializeCriticalSectionAndSpin@ 0045de4c     LIBCMT:initcrit.obj
 0002:00004e74       ??_C@_0N@MDJJJHMB@kernel32?4dll?$AA@ 0045de74     LIBCMT:initcrit.obj
 0002:00004e84       ??_C@_0BK@CFCOFLF@?5Complete?5Object?5Locator?8?$AA@ 0045de84     LIBCMT:undname.obj
 0002:00004ea0       ??_C@_0BN@MECKDCOJ@?5Class?5Hierarchy?5Descriptor?8?$AA@ 0045dea0     LIBCMT:undname.obj
 0002:00004ec0       ??_C@_0BD@LGICGFMM@?5Base?5Class?5Array?8?$AA@ 0045dec0     LIBCMT:undname.obj
 0002:00004ed4       ??_C@_0BM@LDKODKLH@?5Base?5Class?5Descriptor?5at?5?$CI?$AA@ 0045ded4     LIBCMT:undname.obj
 0002:00004ef0       ??_C@_0BC@DAFEJGAK@?5Type?5Descriptor?8?$AA@ 0045def0     LIBCMT:undname.obj
 0002:00004f04       ??_C@_0BM@PMGGMLDN@?$GAlocal?5static?5thread?5guard?8?$AA@ 0045df04     LIBCMT:undname.obj
 0002:00004f20       ??_C@_0CL@FGIJHLCE@?$GAmanaged?5vector?5copy?5constructor@ 0045df20     LIBCMT:undname.obj
 0002:00004f4c       ??_C@_0CJ@GJELGAMM@?$GAvector?5vbase?5copy?5constructor?5i@ 0045df4c     LIBCMT:undname.obj
 0002:00004f78       ??_C@_0CD@CGAJBKEJ@?$GAvector?5copy?5constructor?5iterato@ 0045df78     LIBCMT:undname.obj
 0002:00004f9c       ??_C@_0CB@PDBIFEP@?$GAdynamic?5atexit?5destructor?5for?5?8@ 0045df9c     LIBCMT:undname.obj
 0002:00004fc0       ??_C@_0BL@CLIPGLGB@?$GAdynamic?5initializer?5for?5?8?$AA@ 0045dfc0     LIBCMT:undname.obj
 0002:00004fdc       ??_C@_0CM@FCBBDIGB@?$GAeh?5vector?5vbase?5copy?5constructo@ 0045dfdc     LIBCMT:undname.obj
 0002:00005008       ??_C@_0CG@HLDDJMAG@?$GAeh?5vector?5copy?5constructor?5iter@ 0045e008     LIBCMT:undname.obj
 0002:00005030       ??_C@_0CF@IMGKMJNO@?$GAmanaged?5vector?5destructor?5itera@ 0045e030     LIBCMT:undname.obj
 0002:00005058       ??_C@_0CG@CFDHKGGD@?$GAmanaged?5vector?5constructor?5iter@ 0045e058     LIBCMT:undname.obj
 0002:00005080       ??_C@_0BN@CKNJLHMB@?$GAplacement?5delete?$FL?$FN?5closure?8?$AA@ 0045e080     LIBCMT:undname.obj
 0002:000050a0       ??_C@_0BL@CNOONJFP@?$GAplacement?5delete?5closure?8?$AA@ 0045e0a0     LIBCMT:undname.obj
 0002:000050bc       ??_C@_0P@HJKNJFNN@?$GAomni?5callsig?8?$AA@ 0045e0bc     LIBCMT:undname.obj
 0002:000050cc       ??_C@_09LBNFPBCA@?5delete?$FL?$FN?$AA@ 0045e0cc     LIBCMT:undname.obj
 0002:000050d8       ??_C@_06FHBGPFGH@?5new?$FL?$FN?$AA@ 0045e0d8     LIBCMT:undname.obj
 0002:000050e0       ??_C@_0CE@IIHCMGGL@?$GAlocal?5vftable?5constructor?5closu@ 0045e0e0     LIBCMT:undname.obj
 0002:00005104       ??_C@_0BA@KKLDJDLB@?$GAlocal?5vftable?8?$AA@ 0045e104     LIBCMT:undname.obj
 0002:00005114       ??_C@_05KHLCHHI@?$GARTTI?$AA@ 0045e114     LIBCMT:undname.obj
 0002:0000511c       ??_C@_03KLGMFNMG@?$GAEH?$AA@ 0045e11c     LIBCMT:undname.obj
 0002:00005120       ??_C@_0BA@KBCDOMBN@?$GAudt?5returning?8?$AA@ 0045e120     LIBCMT:undname.obj
 0002:00005130       ??_C@_0BL@LLKPOHJI@?$GAcopy?5constructor?5closure?8?$AA@ 0045e130     LIBCMT:undname.obj
 0002:0000514c       ??_C@_0CH@OOJPLCPH@?$GAeh?5vector?5vbase?5constructor?5ite@ 0045e14c     LIBCMT:undname.obj
 0002:00005174       ??_C@_0CA@GCEOPDGL@?$GAeh?5vector?5destructor?5iterator?8?$AA@ 0045e174     LIBCMT:undname.obj
 0002:00005194       ??_C@_0CB@JONCMFFK@?$GAeh?5vector?5constructor?5iterator?8@ 0045e194     LIBCMT:undname.obj
 0002:000051b8       ??_C@_0BL@NILFHHPC@?$GAvirtual?5displacement?5map?8?$AA@ 0045e1b8     LIBCMT:undname.obj
 0002:000051d4       ??_C@_0CE@IKBNEHA@?$GAvector?5vbase?5constructor?5iterat@ 0045e1d4     LIBCMT:undname.obj
 0002:000051f8       ??_C@_0BN@LFPFMEDL@?$GAvector?5destructor?5iterator?8?$AA@ 0045e1f8     LIBCMT:undname.obj
 0002:00005218       ??_C@_0BO@PFGOCPJJ@?$GAvector?5constructor?5iterator?8?$AA@ 0045e218     LIBCMT:undname.obj
 0002:00005238       ??_C@_0BN@IMDCHIKM@?$GAscalar?5deleting?5destructor?8?$AA@ 0045e238     LIBCMT:undname.obj
 0002:00005258       ??_C@_0BO@OBMKPJIG@?$GAdefault?5constructor?5closure?8?$AA@ 0045e258     LIBCMT:undname.obj
 0002:00005278       ??_C@_0BN@DEGPLNFK@?$GAvector?5deleting?5destructor?8?$AA@ 0045e278     LIBCMT:undname.obj
 0002:00005298       ??_C@_0BD@JDLKDPAB@?$GAvbase?5destructor?8?$AA@ 0045e298     LIBCMT:undname.obj
 0002:000052ac       ??_C@_08OBABFOLI@?$GAstring?8?$AA@ 0045e2ac     LIBCMT:undname.obj
 0002:000052b8       ??_C@_0BF@KDPPACIK@?$GAlocal?5static?5guard?8?$AA@ 0045e2b8     LIBCMT:undname.obj
 0002:000052d0       ??_C@_08LLFFHHDJ@?$GAtypeof?8?$AA@ 0045e2d0     LIBCMT:undname.obj
 0002:000052dc       ??_C@_07FEEIOKP@?$GAvcall?8?$AA@ 0045e2dc     LIBCMT:undname.obj
 0002:000052e4       ??_C@_09BLBHBJP@?$GAvbtable?8?$AA@ 0045e2e4     LIBCMT:undname.obj
 0002:000052f0       ??_C@_09IFPLHPGF@?$GAvftable?8?$AA@ 0045e2f0     LIBCMT:undname.obj
 0002:000052fc       ??_C@_02MHEGNOJ@?$FO?$DN?$AA@ 0045e2fc     LIBCMT:undname.obj
 0002:00005300       ??_C@_02DHLNPPGH@?$HM?$DN?$AA@ 0045e300     LIBCMT:undname.obj
 0002:00005304       ??_C@_02FGJGFEAB@?$CG?$DN?$AA@ 0045e304     LIBCMT:undname.obj
 0002:00005308       ??_C@_03CDNPDDLA@?$DM?$DM?$DN?$AA@ 0045e308     LIBCMT:undname.obj
 0002:0000530c       ??_C@_03IKFCCPFF@?$DO?$DO?$DN?$AA@ 0045e30c     LIBCMT:undname.obj
 0002:00005310       ??_C@_02FENAOKFI@?$CF?$DN?$AA@ 0045e310     LIBCMT:undname.obj
 0002:00005314       ??_C@_02FJEHGPIO@?1?$DN?$AA@ 0045e314     LIBCMT:undname.obj
 0002:00005318       ??_C@_02FKMDLLOA@?9?$DN?$AA@ 0045e318     LIBCMT:undname.obj
 0002:0000531c       ??_C@_02FOEOMHFC@?$CL?$DN?$AA@ 0045e31c     LIBCMT:undname.obj
 0002:00005320       ??_C@_02FPIMKNGF@?$CK?$DN?$AA@ 0045e320     LIBCMT:undname.obj
 0002:00005324       ??_C@_02NONPIBCD@?$HM?$HM?$AA@ 0045e324     LIBCMT:undname.obj
 0002:00005328       ??_C@_02PPKAJPJL@?$CG?$CG?$AA@ 0045e328     LIBCMT:undname.obj
 0002:0000532c       ??_C@_01DNKMNLPK@?$HM?$AA@ 0045e32c     LIBCMT:undname.obj
 0002:00005330       ??_C@_01JKBOJNNK@?$FO?$AA@ 0045e330     LIBCMT:undname.obj
 0002:00005334       ??_C@_01PJKLJHI@?$HO?$AA@  0045e334     LIBCMT:undname.obj
 0002:00005338       ??_C@_02HCKGKOFO@?$CI?$CJ?$AA@ 0045e338     LIBCMT:undname.obj
 0002:0000533c       ??_C@_01IHBHIGKO@?0?$AA@   0045e33c     LIBCMT:undname.obj
 0002:00005340       ??_C@_02EEKDKGMJ@?$DO?$DN?$AA@ 0045e340     LIBCMT:undname.obj
 0002:00005344       ??_C@_01PPODPGHN@?$DO?$AA@ 0045e344     LIBCMT:undname.obj
 0002:00005348       ??_C@_02EHCHHCKH@?$DM?$DN?$AA@ 0045e348     LIBCMT:undname.obj
 0002:0000534c       ??_C@_01MNNFJEPP@?$DM?$AA@ 0045e34c     LIBCMT:undname.obj
 0002:00005350       ??_C@_01FGNFDNOH@?$CF?$AA@ 0045e350     LIBCMT:undname.obj
 0002:00005354       ??_C@_01KMDKNFGN@?1?$AA@   0045e354     LIBCMT:undname.obj
 0002:00005358       ??_C@_03MNHNFDLC@?9?$DO?$CK?$AA@ 0045e358     LIBCMT:undname.obj
 0002:0000535c       ??_C@_01HNPIGOCE@?$CG?$AA@ 0045e35c     LIBCMT:undname.obj
 0002:00005360       ??_C@_01MIFGBAGJ@?$CL?$AA@ 0045e360     LIBCMT:undname.obj
 0002:00005364       ??_C@_01JOAMLHOP@?9?$AA@   0045e364     LIBCMT:undname.obj
 0002:00005368       ??_C@_02BAABKJLB@?9?9?$AA@ 0045e368     LIBCMT:undname.obj
 0002:0000536c       ??_C@_02ECNGHCIF@?$CL?$CL?$AA@ 0045e36c     LIBCMT:undname.obj
 0002:00005370       ??_C@_01NBENCBCI@?$CK?$AA@ 0045e370     LIBCMT:undname.obj
 0002:00005374       ??_C@_02HBOOOICD@?9?$DO?$AA@ 0045e374     LIBCMT:undname.obj
 0002:00005378       ??_C@_08LHJFAFGD@operator?$AA@ 0045e378     LIBCMT:undname.obj
 0002:00005384       ??_C@_02GPECMEKF@?$FL?$FN?$AA@ 0045e384     LIBCMT:undname.obj
 0002:00005388       ??_C@_02FDNJECIE@?$CB?$DN?$AA@ 0045e388     LIBCMT:undname.obj
 0002:0000538c       ??_C@_02EGOFBIJA@?$DN?$DN?$AA@ 0045e38c     LIBCMT:undname.obj
 0002:00005390       ??_C@_01DCLJPIOD@?$CB?$AA@ 0045e390     LIBCMT:undname.obj
 0002:00005394       ??_C@_02FODMEDOG@?$DM?$DM?$AA@ 0045e394     LIBCMT:undname.obj
 0002:00005398       ??_C@_02GPIOPFAK@?$DO?$DO?$AA@ 0045e398     LIBCMT:undname.obj
 0002:0000539c       ??_C@_07FPCDHGMM@?5delete?$AA@ 0045e39c     LIBCMT:undname.obj
 0002:000053a4       ??_C@_04NIHEBCM@?5new?$AA@ 0045e3a4     LIBCMT:undname.obj
 0002:000053ac       ??_C@_0M@GFIIJFMG@__unaligned?$AA@ 0045e3ac     LIBCMT:undname.obj
 0002:000053b8       ??_C@_0L@PILCLIHE@__restrict?$AA@ 0045e3b8     LIBCMT:undname.obj
 0002:000053c4       ??_C@_07JOMMBBKO@__ptr64?$AA@ 0045e3c4     LIBCMT:undname.obj
 0002:000053cc       ??_C@_09HIJEGCPM@__clrcall?$AA@ 0045e3cc     LIBCMT:undname.obj
 0002:000053d8       ??_C@_0L@JMKHOMEK@__fastcall?$AA@ 0045e3d8     LIBCMT:undname.obj
 0002:000053e4       ??_C@_0L@NPHFGOKO@__thiscall?$AA@ 0045e3e4     LIBCMT:undname.obj
 0002:000053f0       ??_C@_09IFJBGAPI@__stdcall?$AA@ 0045e3f0     LIBCMT:undname.obj
 0002:000053fc       ??_C@_08GHMPAG@__pascal?$AA@ 0045e3fc     LIBCMT:undname.obj
 0002:00005408       ??_C@_07KOLFKCDI@__cdecl?$AA@ 0045e408     LIBCMT:undname.obj
 0002:00005410       ??_C@_08EHJDFFNH@__based?$CI?$AA@ 0045e410     LIBCMT:undname.obj
 0002:000055a0       ??_C@_0BI@DFKBFLJE@GetProcessWindowStation?$AA@ 0045e5a0     LIBCMT:crtmbox.obj
 0002:000055b8       ??_C@_0BK@CIDNPOGP@GetUserObjectInformationA?$AA@ 0045e5b8     LIBCMT:crtmbox.obj
 0002:000055d4       ??_C@_0BD@HHGDFDBJ@GetLastActivePopup?$AA@ 0045e5d4     LIBCMT:crtmbox.obj
 0002:000055e8       ??_C@_0BA@HNOPNCHB@GetActiveWindow?$AA@ 0045e5e8     LIBCMT:crtmbox.obj
 0002:000055f8       ??_C@_0M@CHKKJDAI@MessageBoxA?$AA@ 0045e5f8     LIBCMT:crtmbox.obj
 0002:00005604       ??_C@_0L@NDEGIDAG@USER32?4DLL?$AA@ 0045e604     LIBCMT:crtmbox.obj
 0002:00005610       ??_C@_13NOLLCAOD@?$AA?$AA?$AA?$AA@ 0045e610     LIBCMT:a_map.obj
 0002:00005618       ___newctype                0045e618     LIBCMT:ctype.obj
 0002:00005918       __wctype                   0045e918     LIBCMT:ctype.obj
 0002:00005b20       ___newclmap                0045eb20     LIBCMT:ctype.obj
 0002:00005ca0       ___newcumap                0045eca0     LIBCMT:ctype.obj
 0002:00005e20       ??_C@_08JCCMCCIL@HH?3mm?3ss?$AA@ 0045ee20     LIBCMT:strftime.obj
 0002:00005e2c       ??_C@_0BE@CKGJFCPC@dddd?0?5MMMM?5dd?0?5yyyy?$AA@ 0045ee2c     LIBCMT:strftime.obj
 0002:00005e40       ??_C@_08BPBNCDIB@MM?1dd?1yy?$AA@ 0045ee40     LIBCMT:strftime.obj
 0002:00005e4c       ??_C@_02CJNFDJBF@PM?$AA@   0045ee4c     LIBCMT:strftime.obj
 0002:00005e50       ??_C@_02DEDBPAFC@AM?$AA@   0045ee50     LIBCMT:strftime.obj
 0002:00005e54       ??_C@_08EDHMEBNP@December?$AA@ 0045ee54     LIBCMT:strftime.obj
 0002:00005e60       ??_C@_08HCHEGEOA@November?$AA@ 0045ee60     LIBCMT:strftime.obj
 0002:00005e6c       ??_C@_07JJNFCEND@October?$AA@ 0045ee6c     LIBCMT:strftime.obj
 0002:00005e74       ??_C@_09BHHEALKD@September?$AA@ 0045ee74     LIBCMT:strftime.obj
 0002:00005e80       ??_C@_06LBBHFDDG@August?$AA@ 0045ee80     LIBCMT:strftime.obj
 0002:00005e88       ??_C@_04MIEPOIFP@July?$AA@ 0045ee88     LIBCMT:strftime.obj
 0002:00005e90       ??_C@_04CNLMGBGM@June?$AA@ 0045ee90     LIBCMT:strftime.obj
 0002:00005e98       ??_C@_05DMJDNLEJ@April?$AA@ 0045ee98     LIBCMT:strftime.obj
 0002:00005ea0       ??_C@_05HPCKOFNC@March?$AA@ 0045eea0     LIBCMT:strftime.obj
 0002:00005ea8       ??_C@_08GNJGEPFN@February?$AA@ 0045eea8     LIBCMT:strftime.obj
 0002:00005eb4       ??_C@_07CGJPFGJA@January?$AA@ 0045eeb4     LIBCMT:strftime.obj
 0002:00005ebc       ??_C@_03MKABNOCG@Dec?$AA@  0045eebc     LIBCMT:strftime.obj
 0002:00005ec0       ??_C@_03JPJOFNIA@Nov?$AA@  0045eec0     LIBCMT:strftime.obj
 0002:00005ec4       ??_C@_03BMAOKBAD@Oct?$AA@  0045eec4     LIBCMT:strftime.obj
 0002:00005ec8       ??_C@_03GGCAPAJC@Sep?$AA@  0045eec8     LIBCMT:strftime.obj
 0002:00005ecc       ??_C@_03IFJFEIGA@Aug?$AA@  0045eecc     LIBCMT:strftime.obj
 0002:00005ed0       ??_C@_03LBGABGKK@Jul?$AA@  0045eed0     LIBCMT:strftime.obj
 0002:00005ed4       ??_C@_03IDFGHECI@Jun?$AA@  0045eed4     LIBCMT:strftime.obj
 0002:00005ed8       ??_C@_03CNMDKL@May?$AA@    0045eed8     LIBCMT:strftime.obj
 0002:00005edc       ??_C@_03LEOLGMJP@Apr?$AA@  0045eedc     LIBCMT:strftime.obj
 0002:00005ee0       ??_C@_03ODNJBKGA@Mar?$AA@  0045eee0     LIBCMT:strftime.obj
 0002:00005ee4       ??_C@_03HJBDCHOM@Feb?$AA@  0045eee4     LIBCMT:strftime.obj
 0002:00005ee8       ??_C@_03JIHJHPIE@Jan?$AA@  0045eee8     LIBCMT:strftime.obj
 0002:00005eec       ??_C@_08INBOOONO@Saturday?$AA@ 0045eeec     LIBCMT:strftime.obj
 0002:00005ef8       ??_C@_06JECMNKMI@Friday?$AA@ 0045eef8     LIBCMT:strftime.obj
 0002:00005f00       ??_C@_08HACCIKIA@Thursday?$AA@ 0045ef00     LIBCMT:strftime.obj
 0002:00005f0c       ??_C@_09DLIGFAKA@Wednesday?$AA@ 0045ef0c     LIBCMT:strftime.obj
 0002:00005f18       ??_C@_07BAAGCFCM@Tuesday?$AA@ 0045ef18     LIBCMT:strftime.obj
 0002:00005f20       ??_C@_06JLEDEDGH@Monday?$AA@ 0045ef20     LIBCMT:strftime.obj
 0002:00005f28       ??_C@_06OOPIFAJ@Sunday?$AA@ 0045ef28     LIBCMT:strftime.obj
 0002:00005f30       ??_C@_03FEFJNEK@Sat?$AA@   0045ef30     LIBCMT:strftime.obj
 0002:00005f34       ??_C@_03IDIOELNC@Fri?$AA@  0045ef34     LIBCMT:strftime.obj
 0002:00005f38       ??_C@_03IOFIKPDN@Thu?$AA@  0045ef38     LIBCMT:strftime.obj
 0002:00005f3c       ??_C@_03MHOMLAJA@Wed?$AA@  0045ef3c     LIBCMT:strftime.obj
 0002:00005f40       ??_C@_03NAGEINEP@Tue?$AA@  0045ef40     LIBCMT:strftime.obj
 0002:00005f44       ??_C@_03PDAGKDH@Mon?$AA@   0045ef44     LIBCMT:strftime.obj
 0002:00005f48       ??_C@_03KOEHGMDN@Sun?$AA@  0045ef48     LIBCMT:strftime.obj
 0002:00005f4c       ??_C@_07GPDNMNG@CONOUT$?$AA@ 0045ef4c     LIBCMT:initcon.obj
 0002:00005f54       ??_C@_06IMKFLFPG@1?$CDQNAN?$AA@ 0045ef54     LIBCMT:x10fout.obj
 0002:00005f5c       ??_C@_05DNEBIAHO@1?$CDINF?$AA@ 0045ef5c     LIBCMT:x10fout.obj
 0002:00005f64       ??_C@_05PHHOCPM@1?$CDIND?$AA@ 0045ef64     LIBCMT:x10fout.obj
 0002:00005f6c       ??_C@_06PGGFOGJG@1?$CDSNAN?$AA@ 0045ef6c     LIBCMT:x10fout.obj
 0002:00005f78       __load_config_used         0045ef78     LIBCMT:loadcfg.obj
 0002:00006004       ??_R4bad_alloc@std@@6B@    0045f004     libcpmt:string.obj
 0002:00006018       ??_R3bad_alloc@std@@8      0045f018     libcpmt:string.obj
 0002:00006028       ??_R2bad_alloc@std@@8      0045f028     libcpmt:string.obj
 0002:00006034       ??_R1A@?0A@EA@bad_alloc@std@@8 0045f034     libcpmt:string.obj
 0002:00006050       ??_R1A@?0A@EA@exception@std@@8 0045f050     libcpmt:string.obj
 0002:0000606c       ??_R3exception@std@@8      0045f06c     libcpmt:string.obj
 0002:0000607c       ??_R2exception@std@@8      0045f07c     libcpmt:string.obj
 0002:00006084       ??_R4logic_error@std@@6B@  0045f084     libcpmt:string.obj
 0002:00006098       ??_R3logic_error@std@@8    0045f098     libcpmt:string.obj
 0002:000060a8       ??_R2logic_error@std@@8    0045f0a8     libcpmt:string.obj
 0002:000060b4       ??_R1A@?0A@EA@logic_error@std@@8 0045f0b4     libcpmt:string.obj
 0002:000060d0       ??_R4length_error@std@@6B@ 0045f0d0     libcpmt:string.obj
 0002:000060e4       ??_R3length_error@std@@8   0045f0e4     libcpmt:string.obj
 0002:000060f4       ??_R2length_error@std@@8   0045f0f4     libcpmt:string.obj
 0002:00006104       ??_R1A@?0A@EA@length_error@std@@8 0045f104     libcpmt:string.obj
 0002:00006120       ??_R4out_of_range@std@@6B@ 0045f120     libcpmt:string.obj
 0002:00006134       ??_R3out_of_range@std@@8   0045f134     libcpmt:string.obj
 0002:00006144       ??_R2out_of_range@std@@8   0045f144     libcpmt:string.obj
 0002:00006154       ??_R1A@?0A@EA@out_of_range@std@@8 0045f154     libcpmt:string.obj
 0002:00006170       ??_R4exception@std@@6B@    0045f170     LIBCMT:stdexcpt.obj
 0002:00006184       ??_R4type_info@@6B@        0045f184     LIBCMT:typinfo.obj
 0002:00006198       ??_R3type_info@@8          0045f198     LIBCMT:typinfo.obj
 0002:000061a8       ??_R2type_info@@8          0045f1a8     LIBCMT:typinfo.obj
 0002:000061b0       ??_R1A@?0A@EA@type_info@@8 0045f1b0     LIBCMT:typinfo.obj
 0002:000061cc       ??_R4bad_exception@std@@6B@ 0045f1cc     LIBCMT:frame.obj
 0002:000061e0       ??_R3bad_exception@std@@8  0045f1e0     LIBCMT:frame.obj
 0002:000061f0       ??_R2bad_exception@std@@8  0045f1f0     LIBCMT:frame.obj
 0002:000061fc       ??_R1A@?0A@EA@bad_exception@std@@8 0045f1fc     LIBCMT:frame.obj
 0002:00006220       ___safe_se_handler_table   0045f220     <linker-defined>
 0002:00006270       ___rtc_iaa                 0045f270     LIBCMT:initsect.obj
 0002:00006274       ___rtc_izz                 0045f274     LIBCMT:initsect.obj
 0002:00006278       ___rtc_taa                 0045f278     LIBCMT:initsect.obj
 0002:0000627c       ___rtc_tzz                 0045f27c     LIBCMT:initsect.obj
 0002:00006280       __TI2?AVbad_alloc@std@@    0045f280     MemoryManager.obj
 0002:00006290       __CTA2?AVbad_alloc@std@@   0045f290     MemoryManager.obj
 0002:0000629c       __CT??_R0?AVbad_alloc@std@@@8??0bad_alloc@std@@QAE@ABV01@@Z12 0045f29c     MemoryManager.obj
 0002:000062b8       __CT??_R0?AVexception@std@@@8??0exception@std@@QAE@ABV01@@Z12 0045f2b8     MemoryManager.obj
 0002:00006360       __TI3?AVlength_error@std@@ 0045f360     MemoryManager.obj
 0002:0000639c       __CTA3?AVlength_error@std@@ 0045f39c     MemoryManager.obj
 0002:000063ac       __CT??_R0?AVlength_error@std@@@8??0length_error@std@@QAE@ABV01@@Z40 0045f3ac     MemoryManager.obj
 0002:000063c8       __CT??_R0?AVlogic_error@std@@@8??0logic_error@std@@QAE@ABV01@@Z40 0045f3c8     MemoryManager.obj
 0002:000066e4       __TI3?AVout_of_range@std@@ 0045f6e4     libcpmt:string.obj
 0002:000066f4       __CTA3?AVout_of_range@std@@ 0045f6f4     libcpmt:string.obj
 0002:00006704       __CT??_R0?AVout_of_range@std@@@8??0out_of_range@std@@QAE@ABV01@@Z40 0045f704     libcpmt:string.obj
 0002:00006be4       __TI2?AVbad_exception@std@@ 0045fbe4     LIBCMT:frame.obj
 0002:00006bf4       __CTA2?AVbad_exception@std@@ 0045fbf4     LIBCMT:frame.obj
 0002:00006c00       __CT??_R0?AVbad_exception@std@@@8??0bad_exception@std@@QAE@ABV01@@Z12 0045fc00     LIBCMT:frame.obj
 0002:00006efc       __IMPORT_DESCRIPTOR_glew32 0045fefc     glew32:glew32.dll
 0002:00006f10       __IMPORT_DESCRIPTOR_USER32 0045ff10     user32:USER32.dll
 0002:00006f24       __IMPORT_DESCRIPTOR_WINMM  0045ff24     winmm:WINMM.dll
 0002:00006f38       __IMPORT_DESCRIPTOR_fmod   0045ff38     fmodvc:fmod.dll
 0002:00006f4c       __IMPORT_DESCRIPTOR_OPENGL32 0045ff4c     opengl32:OPENGL32.dll
 0002:00006f60       __IMPORT_DESCRIPTOR_KERNEL32 0045ff60     kernel32:KERNEL32.dll
 0002:00006f74       __IMPORT_DESCRIPTOR_GDI32  0045ff74     gdi32:GDI32.dll
 0002:00006f88       __IMPORT_DESCRIPTOR_comdlg32 0045ff88     comdlg32:comdlg32.dll
 0002:00006f9c       __NULL_IMPORT_DESCRIPTOR   0045ff9c     glew32:glew32.dll
 0003:00000020       ?BiosRoutineNames@@3PAPADA 00462020     bios.obj
 0003:00000820       ?BiosJumpTable@@3PAP6AXPAVMPE@@@ZA 00462820     bios.obj
 0003:00000c28       ?flagDependencies@@3PAIA   00462c28     DecodeECU.obj
 0003:00000cb8       ?BilinearDMAHandlers@@3PAP6AXPAVMPE@@IIIII@ZA 00462cb8     dma.obj
 0003:000010b8       ?sub_sv_mask@@3PAIA        004630b8     EmitALU.obj
 0003:000010cc       ?YLookup@?1??SaturateColorComponents@@YAXPAI00_N@Z@4PAIA 004630cc     ExecuteMEM.obj
 0003:000010e8       ?fileDescriptors@@3PAHA    004630e8     file.obj
 0003:00001128       ?defaultTitle@@3PADA       00463128     GLWindow.obj
 0003:00001134       ?className@@3PADA          00463134     GLWindow.obj
 0003:00001150       ?DeviceInfo@@3PAUMediaDevInfo@@A 00463150     media.obj
 0003:000011c8       ?fileNameArray@@3PAPADA    004631c8     media.obj
 0003:0000121c       ??_R0?AVbad_alloc@std@@@8  0046321c     MemoryManager.obj
 0003:00001238       ??_R0?AVexception@std@@@8  00463238     MemoryManager.obj
 0003:00001254       ??_R0?AVlength_error@std@@@8 00463254     MemoryManager.obj
 0003:00001274       ??_R0?AVlogic_error@std@@@8 00463274     MemoryManager.obj
 0003:000012a0       ?nuanceHandlers@@3PAP6AXAAVMPE@@AAVInstructionCacheEntry@@AAVNuance@@@ZA 004632a0     mpe.obj
 0003:00001620       ?printHandlers@@3PAP6AIPADAAVNuance@@_N@ZA 00463620     mpe.obj
 0003:000019a0       ?emitHandlers@@3PAP6AXPAVEmitterVariables@@AAVNuance@@@ZA 004639a0     mpe.obj
 0003:00001dd8       ?pixel_type_width@@3PAHA   00463dd8     MPEControlRegisters.obj
 0003:00001e1c       ?whichController@@3KA      00463e1c     NuanceMain.obj
 0003:00001e20       ?disassemblyMPE@@3KA       00463e20     NuanceMain.obj
 0003:00001e24       ?displayWindowTitle@@3PADA 00463e24     NuanceMain.obj
 0003:00001e50       ?SVC_API_Table@@3PAP6AXPAVMPE@@@ZA 00463e50     PresentationEngine.obj
 0003:00002050       ?DVD_API_Table@@3PAP6AXPAVMPE@@@ZA 00464050     PresentationEngine.obj
 0003:00002180       ?ConstantHandlers@@3PAP6AXAAVSuperBlockConstants@@@ZA 00464180     PropagateConstantsHandlers.obj
 0003:00002504       ?mainInternalTextureFormat@@3HA 00464504     video.obj
 0003:00002508       ?mainExternalTextureFormat@@3HA 00464508     video.obj
 0003:0000250c       ?mainPixelType@@3HA        0046450c     video.obj
 0003:00002510       ?mainTextureUnit@@3HA      00464510     video.obj
 0003:00002514       ?osdInternalTextureFormat@@3HA 00464514     video.obj
 0003:00002518       ?osdExternalTextureFormat@@3HA 00464518     video.obj
 0003:0000251c       ?osdTextureUnit@@3HA       0046451c     video.obj
 0003:00002520       ?clutPtr@@3PAEA            00464520     video.obj
 0003:00002524       ?mainChannelScaleX@@3MA    00464524     video.obj
 0003:00002528       ?mainChannelScaleY@@3MA    00464528     video.obj
 0003:0000252c       ?overlayChannelScaleX@@3MA 0046452c     video.obj
 0003:00002530       ?overlayChannelScaleY@@3MA 00464530     video.obj
 0003:00002534       ?lineIncrement@@3IA        00464534     video.obj
 0003:00002538       ?ycrcb2rgbColorMatrix@@3PAMA 00464538     video.obj
 0003:00002578       ?ycrcb2rgbGreyscaleColorMatrix@@3PAMA 00464578     video.obj
 0003:000025b8       ?transparencyTexture@@3PAEA 004645b8     video.obj
 0003:000025c8       ?borderTexture@@3PAEA      004645c8     video.obj
 0003:000025d8       ?fieldIncrement@@3IA       004645d8     video.obj
 0003:000025dc       ?audioCounter@@3IA         004645dc     video.obj
 0003:000025e0       ?pixTypeToPixWidth@@3PAIA  004645e0     video.obj
 0003:00002604       ??_R0?AVout_of_range@std@@@8 00464604     libcpmt:string.obj
 0003:000027ac       ??_R0?AVtype_info@@@8      004647ac     LIBCMT:typinfo.obj
 0003:000027c4       __fltused                  004647c4     LIBCMT:fpinit.obj
 0003:000027c8       __ldused                   004647c8     LIBCMT:fpinit.obj
 0003:000027d0       __timezone                 004647d0     LIBCMT:timeset.obj
 0003:000027d4       __daylight                 004647d4     LIBCMT:timeset.obj
 0003:000027d8       __dstbias                  004647d8     LIBCMT:timeset.obj
 0003:00002860       __tzname                   00464860     LIBCMT:timeset.obj
 0003:00002870       ___app_type                00464870     LIBCMT:wincrt0.obj
 0003:00002880       ___nullstring              00464880     LIBCMT:output.obj
 0003:00002884       ___wnullstring             00464884     LIBCMT:output.obj
 0003:00002888       ___flsindex                00464888     LIBCMT:tidtable.obj
 0003:0000288c       ___getvalueindex           0046488c     LIBCMT:tidtable.obj
 0003:00002890       ___badioinfo               00464890     LIBCMT:ioinit.obj
 0003:000028c8       __iob                      004648c8     LIBCMT:_file.obj
 0003:00002b48       ___security_cookie         00464b48     LIBCMT:gs_cookie.obj
 0003:00002b4c       ___security_cookie_complement 00464b4c     LIBCMT:gs_cookie.obj
 0003:00002b50       __lookuptrailbytes         00464b50     LIBCMT:read.obj
 0003:00002c64       ??_R0?AVbad_exception@std@@@8 00464c64     LIBCMT:frame.obj
 0003:00002c90       __cfltcvt_tab              00464c90     LIBCMT:cmiscdat.obj
 0003:00002df0       __aexit_rtn                00464df0     LIBCMT:crt0dat.obj
 0003:00002eb0       __XcptActTab               00464eb0     LIBCMT:winxfltr.obj
 0003:00002f28       __First_FPE_Indx           00464f28     LIBCMT:winxfltr.obj
 0003:00002f2c       __Num_FPE                  00464f2c     LIBCMT:winxfltr.obj
 0003:00002f30       __XcptActTabSize           00464f30     LIBCMT:winxfltr.obj
 0003:00002f34       __XcptActTabCount          00464f34     LIBCMT:winxfltr.obj
 0003:00002f38       __amblksiz                 00464f38     LIBCMT:heapinit.obj
 0003:00002f40       ___initialmbcinfo          00464f40     LIBCMT:mbctype.obj
 0003:00003160       __mbctype                  00465160     LIBCMT:mbctype.obj
 0003:00003268       __mbcasemap                00465268     LIBCMT:mbctype.obj
 0003:00003368       ___ptmbcinfo               00465368     LIBCMT:mbctype.obj
 0003:00003464       ___globallocalestatus      00465464     LIBCMT:glstatus.obj
 0003:00003468       ___clocalestr              00465468     LIBCMT:nlsdata2.obj
 0003:00003470       ___initiallocinfo          00465470     LIBCMT:nlsdata2.obj
 0003:00003548       ___ptlocinfo               00465548     LIBCMT:nlsdata2.obj
 0003:0000354c       ___lc_clike                0046554c     LIBCMT:nlsdata2.obj
 0003:00003550       ___initiallocalestructinfo 00465550     LIBCMT:nlsdata2.obj
 0003:00003560       __lpdays                   00465560     LIBCMT:days.obj
 0003:00003594       __days                     00465594     LIBCMT:days.obj
 0003:000035c8       __NLG_Destination          004655c8     LIBCMT:exsup.obj
 0003:000035dc       ___abort_behavior          004655dc     LIBCMT:abort.obj
 0003:000035e0       __pctype                   004655e0     LIBCMT:ctype.obj
 0003:000035e4       __pwctype                  004655e4     LIBCMT:ctype.obj
 0003:000035e8       ___lc_time_c               004655e8     LIBCMT:strftime.obj
 0003:000036a0       ___lc_time_curr            004656a0     LIBCMT:strftime.obj
 0003:000036a4       ___lconv_static_decimal    004656a4     LIBCMT:lconv.obj
 0003:000036a8       ___lconv_c                 004656a8     LIBCMT:lconv.obj
 0003:000036d8       ___lconv                   004656d8     LIBCMT:lconv.obj
 0003:000036dc       ___mb_cur_max              004656dc     LIBCMT:nlsdata1.obj
 0003:000036e0       ___decimal_point           004656e0     LIBCMT:nlsdata1.obj
 0003:000036e4       ___decimal_point_length    004656e4     LIBCMT:nlsdata1.obj
 0003:000036f0       __coninpfh                 004656f0     LIBCMT:initcon.obj
 0003:000036f4       __confh                    004656f4     LIBCMT:initcon.obj
 0003:00003730       __pow10pos                 00465730     LIBCMT:constpow.obj
 0003:00003890       __pow10neg                 00465890     LIBCMT:constpow.obj
 0003:00003a20       ?InterruptVectors@@3PAIA   00465a20     bios.obj
 0003:00003a28       ?commLogFile@@3PAU_iobuf@@A 00465a28     comm.obj
 0003:00003a30       ?msgBuf@@3PADA             00465a30     comm.obj
 0003:00003c40       ?braConditionalFlags@@3IA  00465c40     DecodeECU.obj
 0003:00003c44       ?braConditionalNOPFlags@@3IA 00465c44     DecodeECU.obj
 0003:00003c48       ?braAlwaysFlags@@3IA       00465c48     DecodeECU.obj
 0003:00003c4c       ?braAlwaysNOPFlags@@3IA    00465c4c     DecodeECU.obj
 0003:00003c50       ?jmpAlwaysIndirectFlags@@3IA 00465c50     DecodeECU.obj
 0003:00003c54       ?jmpAlwaysIndirectNOPFlags@@3IA 00465c54     DecodeECU.obj
 0003:00003c58       ?jmpConditionalIndirectFlags@@3IA 00465c58     DecodeECU.obj
 0003:00003c5c       ?jmpConditionalIndirectNOPFlags@@3IA 00465c5c     DecodeECU.obj
 0003:00003c60       ?jsrAlwaysFlags@@3IA       00465c60     DecodeECU.obj
 0003:00003c64       ?jsrAlwaysNOPFlags@@3IA    00465c64     DecodeECU.obj
 0003:00003c68       ?jsrAlwaysIndirectFlags@@3IA 00465c68     DecodeECU.obj
 0003:00003c6c       ?jsrAlwaysIndirectNOPFlags@@3IA 00465c6c     DecodeECU.obj
 0003:00003c70       ?jsrConditionalFlags@@3IA  00465c70     DecodeECU.obj
 0003:00003c74       ?jsrConditionalNOPFlags@@3IA 00465c74     DecodeECU.obj
 0003:00003c78       ?jsrConditionalIndirectFlags@@3IA 00465c78     DecodeECU.obj
 0003:00003c7c       ?jsrConditionalIndirectNOPFlags@@3IA 00465c7c     DecodeECU.obj
 0003:00003c80       ?rtsAlwaysFlags@@3IA       00465c80     DecodeECU.obj
 0003:00003c84       ?rtsAlwaysNOPFlags@@3IA    00465c84     DecodeECU.obj
 0003:00003c88       ?rtsConditionalFlags@@3IA  00465c88     DecodeECU.obj
 0003:00003c8c       ?rtsConditionalNOPFlags@@3IA 00465c8c     DecodeECU.obj
 0003:00003c90       ?rti1ConditionalFlags@@3IA 00465c90     DecodeECU.obj
 0003:00003c94       ?rti1ConditionalNOPFlags@@3IA 00465c94     DecodeECU.obj
 0003:00003c98       ?rti2ConditionalFlags@@3IA 00465c98     DecodeECU.obj
 0003:00003c9c       ?rti2ConditionalNOPFlags@@3IA 00465c9c     DecodeECU.obj
 0003:00003ca0       ?saveReg@@3IA              00465ca0     EmitRCU.obj
 0003:00003ca4       ?bilinearAddressInfo@@3UstructBilinearAddressInfo@@A 00465ca4     ExecuteMEM.obj
 0003:00003cd0       ?mipped_xoffset@@3IA       00465cd0     ExecuteMEM.obj
 0003:00003cd4       ?fdesc@@3HA                00465cd4     file.obj
 0003:00003cd8       ?hWnd@@3RAUHWND__@@A       00465cd8     GLWindow.obj
 0003:00003cdc       ?bFullScreen@@3_NA         00465cdc     GLWindow.obj
 0003:00003cdd       ?bTerminate@@3_NA          00465cdd     GLWindow.obj
 0003:00003ce0       ?pfd@@3UtagPIXELFORMATDESCRIPTOR@@A 00465ce0     GLWindow.obj
 0003:00003d08       ?controller@@3PAUControllerData@@A 00465d08     joystick.obj
 0003:00003d10       ?bEmulatorFileOpen@@3_NA   00465d10     media.obj
 0003:00003d11       ?bNvramFileOpen@@3_NA      00465d11     media.obj
 0003:00003d12       ?bCableFileOpen@@3_NA      00465d12     media.obj
 0003:00003d13       ?bCallingMediaCallback@@3_NA 00465d13     media.obj
 0003:00003d14       ?media_mpe_allocated@@3IA  00465d14     media.obj
 0003:00003d18       ?media_mpe@@3IA            00465d18     media.obj
 0003:00003d20       ?fileModeArray@@3PAIA      00465d20     media.obj
 0003:00003d70       ?timer_end@@3_KA           00465d70     mpe.obj
 0003:00003d78       ?timeDelta@@3NA            00465d78     mpe.obj
 0003:00003d80       ?mirrorLookup@MPE@@2PAEA   00465d80     mpe.obj
 0003:00003e80       ?timer_start@@3_KA         00465e80     mpe.obj
 0003:00003e88       ?logfile@@3PAU_iobuf@@A    00465e88     mpe.obj
 0003:00003e8c       ?mpeFlags@@3PAIA           00465e8c     mpe_alloc.obj
 0003:00003ec0       ?cbMPEStatus@@3PAUHWND__@@A 00465ec0     NuanceMain.obj
 0003:00003ec4       ?cbReset@@3PAUHWND__@@A    00465ec4     NuanceMain.obj
 0003:00003ec8       ?textMPE2@@3PAUHWND__@@A   00465ec8     NuanceMain.obj
 0003:00003ecc       ?textMPE0Pcexec@@3PAUHWND__@@A 00465ecc     NuanceMain.obj
 0003:00003ed0       ?bmpLEDOff@@3PAUHBITMAP__@@A 00465ed0     NuanceMain.obj
 0003:00003ed4       ?cbDisplayStatus@@3PAUHWND__@@A 00465ed4     NuanceMain.obj
 0003:00003ed8       ?cbStop@@3PAUHWND__@@A     00465ed8     NuanceMain.obj
 0003:00003edc       ?reStatus@@3PAUHWND__@@A   00465edc     NuanceMain.obj
 0003:00003ee0       ?cbSingleStep@@3PAUHWND__@@A 00465ee0     NuanceMain.obj
 0003:00003ee4       ?iconApp@@3PAUHICON__@@A   00465ee4     NuanceMain.obj
 0003:00003ee8       ?picMPE2LED@@3PAUHWND__@@A 00465ee8     NuanceMain.obj
 0003:00003eec       ?bClosingApplication@@3_NA 00465eec     NuanceMain.obj
 0003:00003eed       ?bRun@@3_NA                00465eed     NuanceMain.obj
 0003:00003ef0       ?textMPE3@@3PAUHWND__@@A   00465ef0     NuanceMain.obj
 0003:00003ef4       ?cbLoadFile@@3PAUHWND__@@A 00465ef4     NuanceMain.obj
 0003:00003ef8       ?reTermDisplay@@3PAUHWND__@@A 00465ef8     NuanceMain.obj
 0003:00003efc       ?picMPE0LED@@3PAUHWND__@@A 00465efc     NuanceMain.obj
 0003:00003f00       ?picMPE3LED@@3PAUHWND__@@A 00465f00     NuanceMain.obj
 0003:00003f04       ?cbCommStatus@@3PAUHWND__@@A 00465f04     NuanceMain.obj
 0003:00003f08       ?textMPE3Pcexec@@3PAUHWND__@@A 00465f08     NuanceMain.obj
 0003:00003f0c       ?cbRun@@3PAUHWND__@@A      00465f0c     NuanceMain.obj
 0003:00003f10       ?bmpLEDOn@@3PAUHBITMAP__@@A 00465f10     NuanceMain.obj
 0003:00003f14       ?textMPE0@@3PAUHWND__@@A   00465f14     NuanceMain.obj
 0003:00003f18       ?openFileName@@3PADA       00465f18     NuanceMain.obj
 0003:00004118       ?ofn@@3UtagOFNA@@A         00466118     NuanceMain.obj
 0003:00004164       ?cbDumpMPEs@@3PAUHWND__@@A 00466164     NuanceMain.obj
 0003:00004168       ?display@@3PAVGLWindow@@A  00466168     NuanceMain.obj
 0003:0000416c       ?textMPE2Pcexec@@3PAUHWND__@@A 0046616c     NuanceMain.obj
 0003:00004170       ?textMPE1@@3PAUHWND__@@A   00466170     NuanceMain.obj
 0003:00004174       ?textMPE1Pcexec@@3PAUHWND__@@A 00466174     NuanceMain.obj
 0003:00004178       ?picMPE1LED@@3PAUHWND__@@A 00466178     NuanceMain.obj
 0003:0000417c       ?nuonEnv@@3PAVNuonEnvironment@@A 0046617c     NuanceMain.obj
 0003:00004180       ?csVideoDisplay@@3PAVCriticalSection@@A 00466180     NuanceMain.obj
 0003:00004184       ?csDebugDisplay@@3PAVCriticalSection@@A 00466184     NuanceMain.obj
 0003:00004188       ?pArgs@@3PAPADA            00466188     NuanceMain.obj
 0003:0000418c       ?bQuit@@3_NA               0046618c     NuanceMain.obj
 0003:00004190       ?whichStatus@@3KA          00466190     NuanceMain.obj
 0003:00004998       ?dvdReadBase@@3PADA        00466998     NuonEnvironment.obj
 0003:0000499c       ?dvdReadWriteBase@@3PADA   0046699c     NuonEnvironment.obj
 0003:000049a0       ?dvdWriteBase@@3PADA       004669a0     NuonEnvironment.obj
 0003:000049a4       ?audioCallbacks@@3VAudioCallbacks@@A 004669a4     NuonEnvironment.obj
 0003:000049b4       ?audioStream@@3PAUFSOUND_STREAM@@A 004669b4     NuonEnvironment.obj
 0003:000049b8       ?line@@3PADA               004669b8     NuonEnvironment.obj
 0003:00004db8       ?bFMODInitialized@@3_NA    00466db8     NuonEnvironment.obj
 0003:00004dbc       ?audioChannel@@3HA         00466dbc     NuonEnvironment.obj
 0003:00004dc0       ?lastLinearVolumeSetting@@3IA 00466dc0     NuonEnvironment.obj
 0003:00004dc4       ?position@?1??StreamCallback@AudioCallbacks@@SGCPAUFSOUND_STREAM@@PAXHH@Z@4IA 00466dc4     NuonEnvironment.obj
 0003:000051c8       ?dummyCounter@@3T_LARGE_INTEGER@@A 004671c8     PerformanceTimer.obj
 0003:000051d0       ?tickFrequency@@3T_LARGE_INTEGER@@A 004671d0     PerformanceTimer.obj
 0003:000051d8       ?counterStart@@3T_LARGE_INTEGER@@A 004671d8     PerformanceTimer.obj
 0003:000051e0       ?counterEnd@@3T_LARGE_INTEGER@@A 004671e0     PerformanceTimer.obj
 0003:000051e8       ?blockFile@@3PAU_iobuf@@A  004671e8     SuperBlock.obj
 0003:000051ec       ?dummyVar@@3IC             004671ec     SuperBlock.obj
 0003:000051f0       ?tempStr@@3PADA            004671f0     SuperBlock.obj
 0003:000059f0       ?WaitForInterruptList@@3PAIA 004679f0     Syscall.obj
 0003:00005a00       ?tickCount@@3_KA           00467a00     timer.obj
 0003:00005a08       ?ticksAtBootTime@@3T_LARGE_INTEGER@@A 00467a08     timer.obj
 0003:00005a10       ?hSysTimer2@@3IA           00467a10     timer.obj
 0003:00005a14       ?hSysTimer0@@3IA           00467a14     timer.obj
 0003:00005a18       ?hSysTimer1@@3IA           00467a18     timer.obj
 0003:00005a1c       ?bHighPerformanceTimerAvailable@@3_NA 00467a1c     timer.obj
 0003:00005a1d       ?bSysTimer0Initialized@@3_NA 00467a1d     timer.obj
 0003:00005a1e       ?bSysTimer1Initialized@@3_NA 00467a1e     timer.obj
 0003:00005a1f       ?bSysTimer2Initialized@@3_NA 00467a1f     timer.obj
 0003:00005a20       ?overlay_write_pixel_type@@3IA 00467a20     video.obj
 0003:00005a24       ?overlay_fetch_pixel_type@@3IA 00467a24     video.obj
 0003:00005a28       ?overlay_pixel_type_width@@3IA 00467a28     video.obj
 0003:00005a2c       ?shaderProgram@@3PAVShaderProgram@@A 00467a2c     video.obj
 0003:00005a30       ?structOverlayChannel@@3UVidChannel@@A 00467a30     video.obj
 0003:00005a70       ?counter_end@@3T_LARGE_INTEGER@@A 00467a70     video.obj
 0003:00005a78       ?ChromianceTable@@3PACA    00467a78     video.obj
 0003:00005b78       ?structMainChannel@@3UVidChannel@@A 00467b78     video.obj
 0003:00005bb8       ?LuminanceTable@@3PACA     00467bb8     video.obj
 0003:00005cb8       ?msg@@3PADA                00467cb8     video.obj
 0003:00005eb8       ?counter_start@@3T_LARGE_INTEGER@@A 00467eb8     video.obj
 0003:00005ec0       ?videoTexInfo@@3UvidTexInfo@@A 00467ec0     video.obj
 0003:00005f44       ?structMainDisplayPrev@@3UVidDisplay@@A 00467f44     video.obj
 0003:00005f6c       ?main_fetch_pixel_type@@3IA 00467f6c     video.obj
 0003:00005f70       ?structOverlayChannelPrev@@3UVidChannel@@A 00467f70     video.obj
 0003:00005fb0       ?render_time@@3MA          00467fb0     video.obj
 0003:00005fb4       ?main_write_pixel_type@@3IA 00467fb4     video.obj
 0003:00005fb8       ?structMainChannelPrev@@3UVidChannel@@A 00467fb8     video.obj
 0003:00005ff8       ?structMainDisplay@@3UVidDisplay@@A 00467ff8     video.obj
 0003:00006020       ?vdgCLUT@@3PAIA            00468020     video.obj
 0003:00006420       ?bUseBilinearFiltering@@3_NA 00468420     video.obj
 0003:00006421       ?bMainChannelActive@@3_NA  00468421     video.obj
 0003:00006422       ?bOverlayChannelActive@@3_NA 00468422     video.obj
 0003:00006423       ?bMainTextureCreated@@3_NA 00468423     video.obj
 0003:00006424       ?mainDisplayBuffer@@3PAEA  00468424     video.obj
 0003:00006428       ?mainChannelBuffer@@3PAEA  00468428     video.obj
 0003:0000642c       ?overlayChannelBuffer@@3PAEA 0046842c     video.obj
 0003:00006430       ?bOverlayTextureCreated@@3_NA 00468430     video.obj
 0003:00006431       ?bCanDisplayVideo@@3_NA    00468431     video.obj
 0003:00006432       ?bTexturesInitialized@@3_NA 00468432     video.obj
 0003:00006433       ?bMainChannelMemoryAGP@@3_NA 00468433     video.obj
 0003:00006434       ?channelState@@3IA         00468434     video.obj
 0003:00006438       ?channelStatePrev@@3IA     00468438     video.obj
 0003:0000643c       ?fieldMask@@3IA            0046843c     video.obj
 0003:00006470       ?clearColorR@@3MA          00468470     video.obj
 0003:00006474       ?clearColorG@@3MA          00468474     video.obj
 0003:00006478       ?clearColorB@@3MA          00468478     video.obj
 0003:0000647c       ?bOverlayChannelMemoryAGP@@3_NA 0046847c     video.obj
 0003:000064a0       ___pInvalidArgHandler      004684a0     LIBCMT:invarg.obj
 0003:000064a4       ___fastflag                004684a4     LIBCMT:fpinit.obj
 0003:000064a8       __adjust_fdiv              004684a8     LIBCMT:fpinit.obj
 0003:000064ac       __aenvptr                  004684ac     LIBCMT:wincrt0.obj
 0003:000064b0       __wenvptr                  004684b0     LIBCMT:wincrt0.obj
 0003:000064b4       ___error_mode              004684b4     LIBCMT:wincrt0.obj
 0003:000064b8       _gpFlsAlloc                004684b8     LIBCMT:tidtable.obj
 0003:000064bc       _gpFlsGetValue             004684bc     LIBCMT:tidtable.obj
 0003:000064c0       _gpFlsSetValue             004684c0     LIBCMT:tidtable.obj
 0003:000064c4       _gpFlsFree                 004684c4     LIBCMT:tidtable.obj
 0003:000064c8       __cflush                   004684c8     LIBCMT:_file.obj
 0003:000064cc       ?_pnhHeap@@3P6AHI@ZA       004684cc     LIBCMT:handler.obj
 0003:000064d0       __stdbuf                   004684d0     LIBCMT:_sftbuf.obj
 0003:000064e0       ?__pInconsistency@@3P6AXXZA 004684e0     LIBCMT:hooks.obj
 0003:000066f0       __umaskval                 004686f0     LIBCMT:crt0dat.obj
 0003:000066f4       __osplatform               004686f4     LIBCMT:crt0dat.obj
 0003:000066f8       __osver                    004686f8     LIBCMT:crt0dat.obj
 0003:000066fc       __winver                   004686fc     LIBCMT:crt0dat.obj
 0003:00006700       __winmajor                 00468700     LIBCMT:crt0dat.obj
 0003:00006704       __winminor                 00468704     LIBCMT:crt0dat.obj
 0003:00006708       ___argc                    00468708     LIBCMT:crt0dat.obj
 0003:0000670c       ___argv                    0046870c     LIBCMT:crt0dat.obj
 0003:00006710       ___wargv                   00468710     LIBCMT:crt0dat.obj
 0003:00006714       __environ                  00468714     LIBCMT:crt0dat.obj
 0003:00006718       ___initenv                 00468718     LIBCMT:crt0dat.obj
 0003:0000671c       __wenviron                 0046871c     LIBCMT:crt0dat.obj
 0003:00006720       ___winitenv                00468720     LIBCMT:crt0dat.obj
 0003:00006724       __pgmptr                   00468724     LIBCMT:crt0dat.obj
 0003:00006728       __wpgmptr                  00468728     LIBCMT:crt0dat.obj
 0003:0000672c       __exitflag                 0046872c     LIBCMT:crt0dat.obj
 0003:00006730       __C_Termination_Done       00468730     LIBCMT:crt0dat.obj
 0003:00006734       __C_Exit_Done              00468734     LIBCMT:crt0dat.obj
 0003:00006b5c       __crtheap                  00468b5c     LIBCMT:heapinit.obj
 0003:00006e88       ___mbulinfo                00468e88     LIBCMT:mbctype.obj
 0003:00006e94       ___mbcodepage              00468e94     LIBCMT:mbctype.obj
 0003:00006e98       ___ismbcodepage            00468e98     LIBCMT:mbctype.obj
 0003:00006e9c       ___mblcid                  00468e9c     LIBCMT:mbctype.obj
 0003:00006ea0       ___locale_changed          00468ea0     LIBCMT:setlocal.obj
 0003:00006ea4       ___lc_handle               00468ea4     LIBCMT:nlsdata2.obj
 0003:00006ebc       ___lc_codepage             00468ebc     LIBCMT:nlsdata2.obj
 0003:00006ec0       ___lc_collate_cp           00468ec0     LIBCMT:nlsdata2.obj
 0003:00006ec4       __maxwait                  00468ec4     LIBCMT:crtheap.obj
 0003:00006ecc       ___sbh_pHeaderDefer        00468ecc     LIBCMT:sbheap.obj
 0003:00006ed0       __commode                  00468ed0     LIBCMT:ncommode.obj
 0003:00006ed4       __newmode                  00468ed4     LIBCMT:_newmode.obj
 0003:00006eec       ?pArgList@UnDecorator@@0PAVReplicator@@A 00468eec     LIBCMT:undname.obj
 0003:00006ef0       ?pZNameList@UnDecorator@@0PAVReplicator@@A 00468ef0     LIBCMT:undname.obj
 0003:00006ef4       ?pTemplateArgList@UnDecorator@@0PAVReplicator@@A 00468ef4     LIBCMT:undname.obj
 0003:00006ef8       ?gName@UnDecorator@@0PBDB  00468ef8     LIBCMT:undname.obj
 0003:00006efc       ?name@UnDecorator@@0PBDB   00468efc     LIBCMT:undname.obj
 0003:00006f00       ?outputString@UnDecorator@@0PADA 00468f00     LIBCMT:undname.obj
 0003:00006f04       ?maxStringLength@UnDecorator@@0HA 00468f04     LIBCMT:undname.obj
 0003:00006f08       ?disableFlags@UnDecorator@@0KA 00468f08     LIBCMT:undname.obj
 0003:00006f0c       ?m_pGetParameter@UnDecorator@@0P6APADJ@ZA 00468f0c     LIBCMT:undname.obj
 0003:00006f10       ?fExplicitTemplateParams@UnDecorator@@0_NA 00468f10     LIBCMT:undname.obj
 0003:00006f11       ?fGetTemplateArgumentList@UnDecorator@@0_NA 00468f11     LIBCMT:undname.obj
 0003:00006f14       __outputformat             00468f14     LIBCMT:outputformat.obj
 0003:00006f38       ___pPurecall               00468f38     LIBCMT:inithelp.obj
 0003:00006f58       ___lconv_static_null       00468f58     LIBCMT:lconv.obj
 0003:00006f5c       __fmode                    00468f5c     LIBCMT:txtmode.obj
 0003:00006f68       ___sbh_cntHeaderList       00468f68     <common>
 0003:00006f6c       ___sbh_pHeaderList         00468f6c     <common>
 0003:00006f70       ___sbh_threshold           00468f70     <common>
 0003:00006f74       ___sbh_pHeaderScan         00468f74     <common>
 0003:00006f78       ___sbh_sizeHeaderList      00468f78     <common>
 0003:00006f7c       ___sbh_indGroupDefer       00468f7c     <common>
 0003:00006f80       ___active_heap             00468f80     <common>
 0003:00006f84       ___env_initialized         00468f84     <common>
 0003:00006f88       ___onexitend               00468f88     <common>
 0003:00006f8c       ___onexitbegin             00468f8c     <common>
 0003:00006f90       ___mbctype_initialized     00468f90     <common>
 0003:00006f94       ___dyn_tls_init_callback   00468f94     <common>
 0003:00006f98       __debugger_hook_dummy      00468f98     <common>
 0003:00006f9c       ___piob                    00468f9c     <common>
 0003:00006fa0       __bufin                    00468fa0     <common>
 0003:00007fa0       __nstream                  00469fa0     <common>
 0003:00007fa4       ___use_sse2_mathfcns       00469fa4     <common>
 0003:00007fa8       ___sse2_available          00469fa8     <common>
 0003:00007fac       __nhandle                  00469fac     <common>
 0003:00007fc0       ___pioinfo                 00469fc0     <common>
 0003:000080c0       __acmdln                   0046a0c0     <common>

 entry point at        0001:00047230

 Static symbols

 0001:00026ad3       __catch$?_Copy@?$basic_string@DU?$char_traits@D@std@@V?$allocator@D@2@@std@@IAEXII@Z$0 00427ad3 f i MemoryManager.obj
 0001:00026b65       __catch$?_Copy@?$basic_string@DU?$char_traits@D@std@@V?$allocator@D@2@@std@@IAEXII@Z$1 00427b65 f i MemoryManager.obj
 0001:0002743e       __catch$?_Insert_n@?$vector@VFreeMemoryBlock@@V?$allocator@VFreeMemoryBlock@@@std@@@std@@IAEXV?$_Vector_iterator@VFreeMemoryBlock@@V?$allocator@VFreeMemoryBlock@@@std@@@2@IABVFreeMemoryBlock@@@Z$0 0042843e f i MemoryManager.obj
 0001:0002744a       __catch$?_Insert_n@?$vector@VFreeMemoryBlock@@V?$allocator@VFreeMemoryBlock@@@std@@@std@@IAEXV?$_Vector_iterator@VFreeMemoryBlock@@V?$allocator@VFreeMemoryBlock@@@std@@@2@IABVFreeMemoryBlock@@@Z$2 0042844a f i MemoryManager.obj
 0001:0002769f       __catch$?_Insert_n@?$vector@VAllocatedMemoryBlock@@V?$allocator@VAllocatedMemoryBlock@@@std@@@std@@IAEXV?$_Vector_iterator@VAllocatedMemoryBlock@@V?$allocator@VAllocatedMemoryBlock@@@std@@@2@IABVAllocatedMemoryBlock@@@Z$0 0042869f f i MemoryManager.obj
 0001:000276ab       __catch$?_Insert_n@?$vector@VAllocatedMemoryBlock@@V?$allocator@VAllocatedMemoryBlock@@@std@@@std@@IAEXV?$_Vector_iterator@VAllocatedMemoryBlock@@V?$allocator@VAllocatedMemoryBlock@@@std@@@2@IABVAllocatedMemoryBlock@@@Z$2 004286ab f i MemoryManager.obj
 0001:0004613d       ?CatchGuardHandler@@YA?AW4_EXCEPTION_DISPOSITION@@PAUEHExceptionRecord@@PAUCatchGuardRN@@PAX2@Z 0044713d f   LIBCMT:trnsctrl.obj
 0001:00046242       ?TranslatorGuardHandler@@YA?AW4_EXCEPTION_DISPOSITION@@PAUEHExceptionRecord@@PAUTranslatorGuardRN@@PAX2@Z 00447242 f   LIBCMT:trnsctrl.obj
 0001:000468c3       _vscan_fn                  004478c3 f   LIBCMT:sscanf.obj
 0001:000469ee       _flsall                    004479ee f   LIBCMT:fflush.obj
 0001:00046feb       _fast_error_exit           00447feb f   LIBCMT:wincrt0.obj
 0001:0004700f       _check_managed_app         0044800f f   LIBCMT:wincrt0.obj
 0001:00047050       ___tmainCRTStartup         00448050 f   LIBCMT:wincrt0.obj
 0001:00047525       _write_char                00448525 f   LIBCMT:output.obj
 0001:00047558       _write_multi_char          00448558 f   LIBCMT:output.obj
 0001:0004757c       _write_string              0044857c f   LIBCMT:output.obj
 0001:00047f5a       __use_encode_pointer       00448f5a f   LIBCMT:tidtable.obj
 0001:00048f26       _fastzero_I                00449f26 f   LIBCMT:p4_memset.obj
 0001:00049ad8       __unwind_handler4          0044aad8 f   LIBCMT:exsup4.obj
 0001:00049b9b       __onexit_nolock            0044ab9b f   LIBCMT:onexit.obj
 0001:0004b626       ?ExFilterRethrow@@YAHPAU_EXCEPTION_POINTERS@@@Z 0044c626 f   LIBCMT:frame.obj
 0001:0004b6e4       ?IsInExceptionSpec@@YAEPAUEHExceptionRecord@@PBU_s_ESTypeList@@@Z 0044c6e4 f   LIBCMT:frame.obj
 0001:0004b75d       ?CallUnexpected@@YAXPBU_s_ESTypeList@@@Z 0044c75d f   LIBCMT:frame.obj
 0001:0004b78e       __catch$?CallUnexpected@@YAXPBU_s_ESTypeList@@@Z$0 0044c78e f   LIBCMT:frame.obj
 0001:0004b7a6       ?CallCatchBlock@@YAPAXPAUEHExceptionRecord@@PAUEHRegistrationNode@@PAU_CONTEXT@@PBU_s_FuncInfo@@PAXHK@Z 0044c7a6 f   LIBCMT:frame.obj
 0001:0004bb52       ?CatchIt@@YAXPAUEHExceptionRecord@@PAUEHRegistrationNode@@PAU_CONTEXT@@PAXPBU_s_FuncInfo@@PBU_s_HandlerType@@PBU_s_CatchableType@@PBU_s_TryBlockMapEntry@@H1E@Z 0044cb52 f   LIBCMT:frame.obj
 0001:0004bbbe       ?FindHandlerForForeignException@@YAXPAUEHExceptionRecord@@PAUEHRegistrationNode@@PAU_CONTEXT@@PAXPBU_s_FuncInfo@@HH1@Z 0044cbbe f   LIBCMT:frame.obj
 0001:0004bcb0       ?FindHandler@@YAXPAUEHExceptionRecord@@PAUEHRegistrationNode@@PAU_CONTEXT@@PAXPBU_s_FuncInfo@@EH1@Z 0044ccb0 f   LIBCMT:frame.obj
 0001:0004c34a       __shift                    0044d34a f   LIBCMT:cvt.obj
 0001:0004c383       __cftoe2_l                 0044d383 f   LIBCMT:cvt.obj
 0001:0004c94d       __cftof2_l                 0044d94d f   LIBCMT:cvt.obj
 0001:0004cd47       ___check_float_string      0044dd47 f   LIBCMT:input.obj
 0001:0004cd9b       __inc                      0044dd9b f   LIBCMT:input.obj
 0001:0004cdb1       __whiteout                 0044ddb1 f   LIBCMT:input.obj
 0001:0004dcab       __tzset_nolock             0044ecab f   LIBCMT:tzset.obj
 0001:0004dff4       _cvtdate                   0044eff4 f   LIBCMT:tzset.obj
 0001:0004e1e9       __isindst_nolock           0044f1e9 f   LIBCMT:tzset.obj
 0001:0004e944       __initterm                 0044f944 f   LIBCMT:crt0dat.obj
 0001:0004ea81       _doexit                    0044fa81 f   LIBCMT:crt0dat.obj
 0001:0004f05e       _parse_cmdline             0045005e f   LIBCMT:stdargv.obj
 0001:0004f8b7       ?CPtoLCID@@YAHH@Z          004508b7 f   LIBCMT:mbctype.obj
 0001:0004f8e6       ?setSBCS@@YAXPAUthreadmbcinfostruct@@@Z 004508e6 f   LIBCMT:mbctype.obj
 0001:0004f93b       ?setSBUpLow@@YAXPAUthreadmbcinfostruct@@@Z 0045093b f   LIBCMT:mbctype.obj
 0001:0004fb69       ?getSystemCP@@YAHH@Z       00450b69 f   LIBCMT:mbctype.obj
 0001:000501c6       __updatetlocinfoEx_nolock  004511c6 f   LIBCMT:setlocal.obj
 0001:000505ff       ___crtInitCritSecNoSpinCount@8 004515ff f   LIBCMT:initcrit.obj
 0001:0005081b       _has_osfxsr_set            0045181b f   LIBCMT:cpu_disp.obj
 0001:00051476       __tsopen_nolock            00452476 f   LIBCMT:open.obj
 0001:0005213c       __unwind_handler           0045313c f   LIBCMT:exsup.obj
 0001:000524e2       _fastcopy_I                004534e2 f   LIBCMT:p4_memcpy.obj
 0001:00053194       _siglookup                 00454194 f   LIBCMT:winsig.obj
 0001:0005360d       ?x_ismbbtype_l@@YAHPAUlocaleinfo_struct@@IHH@Z 0045460d f   LIBCMT:ismbbyte.obj
 0001:0005368c       ?__crtLCMapStringA_stat@@YAHPAUlocaleinfo_struct@@KKPBDHPADHHH@Z 0045468c f   LIBCMT:a_map.obj
 0001:00053a71       ?__crtGetStringTypeA_stat@@YAHPAUlocaleinfo_struct@@KPBDHPAGHHH@Z 00454a71 f   LIBCMT:a_str.obj
 0001:00054312       ?strtoxl@@YAKPAUlocaleinfo_struct@@PBDPAPBDHH@Z 00455312 f   LIBCMT:strtol.obj
 0001:0005646e       __hw_cw                    0045746e f   LIBCMT:ieee87.obj
 0001:000564fc       ___hw_cw_sse2              004574fc f   LIBCMT:ieee87.obj
 0001:00056fe6       ?__crtCompareStringA_stat@@YAHPAUlocaleinfo_struct@@KKPBDH1HH@Z 00457fe6 f   LIBCMT:a_cmp.obj
 0001:000574a7       _findenv                   004584a7 f   LIBCMT:setenv.obj
 0001:000574f4       _copy_environ              004584f4 f   LIBCMT:setenv.obj
 0001:00057a40       __ehhandler$?_Copy@?$basic_string@DU?$char_traits@D@std@@V?$allocator@D@2@@std@@IAEXII@Z 00458a40 f   MemoryManager.obj
 0001:00057a50       __unwindfunclet$?_Xlen@?$vector@VFreeMemoryBlock@@V?$allocator@VFreeMemoryBlock@@@std@@@std@@KAXXZ$0 00458a50 f   MemoryManager.obj
 0001:00057a50       __unwindfunclet$?_Xlen@?$vector@VAllocatedMemoryBlock@@V?$allocator@VAllocatedMemoryBlock@@@std@@@std@@KAXXZ$0 00458a50 f   MemoryManager.obj
 0001:00057a58       __ehhandler$?_Xlen@?$vector@VAllocatedMemoryBlock@@V?$allocator@VAllocatedMemoryBlock@@@std@@@std@@KAXXZ 00458a58 f   MemoryManager.obj
 0001:00057a58       __ehhandler$?_Xlen@?$vector@VFreeMemoryBlock@@V?$allocator@VFreeMemoryBlock@@@std@@@std@@KAXXZ 00458a58 f   MemoryManager.obj
 0001:00057a70       __unwindfunclet$??0logic_error@std@@QAE@ABV?$basic_string@DU?$char_traits@D@std@@V?$allocator@D@2@@1@@Z$0 00458a70 f   MemoryManager.obj
 0001:00057a70       __unwindfunclet$??0logic_error@std@@QAE@ABV01@@Z$0 00458a70 f   MemoryManager.obj
 0001:00057a78       __ehhandler$??0logic_error@std@@QAE@ABV01@@Z 00458a78 f   MemoryManager.obj
 0001:00057a78       __ehhandler$??0logic_error@std@@QAE@ABV?$basic_string@DU?$char_traits@D@std@@V?$allocator@D@2@@1@@Z 00458a78 f   MemoryManager.obj
 0001:00057a90       __ehhandler$?_Insert_n@?$vector@VFreeMemoryBlock@@V?$allocator@VFreeMemoryBlock@@@std@@@std@@IAEXV?$_Vector_iterator@VFreeMemoryBlock@@V?$allocator@VFreeMemoryBlock@@@std@@@2@IABVFreeMemoryBlock@@@Z 00458a90 f   MemoryManager.obj
 0001:00057aa0       __ehhandler$?_Insert_n@?$vector@VAllocatedMemoryBlock@@V?$allocator@VAllocatedMemoryBlock@@@std@@@std@@IAEXV?$_Vector_iterator@VAllocatedMemoryBlock@@V?$allocator@VAllocatedMemoryBlock@@@std@@@2@IABVAllocatedMemoryBlock@@@Z 00458aa0 f   MemoryManager.obj
 0001:00057ab0       __unwindfunclet$??0MemoryManager@@QAE@II@Z$0 00458ab0 f   MemoryManager.obj
 0001:00057abb       __ehhandler$??0MemoryManager@@QAE@II@Z 00458abb f   MemoryManager.obj
 0001:00057ad0       __unwindfunclet$??0MPE@@QAE@I@Z$0 00458ad0 f   mpe.obj
 0001:00057adb       __unwindfunclet$??0MPE@@QAE@I@Z$1 00458adb f   mpe.obj
 0001:00057ae6       __unwindfunclet$??0MPE@@QAE@I@Z$2 00458ae6 f   mpe.obj
 0001:00057af1       __unwindfunclet$??0MPE@@QAE@I@Z$3 00458af1 f   mpe.obj
 0001:00057afc       __ehhandler$??0MPE@@QAE@I@Z 00458afc f   mpe.obj
 0001:00057b10       __unwindfunclet$??0NativeCodeCache@@QAE@III@Z$0 00458b10 f   nativecodecache.obj
 0001:00057b1b       __ehhandler$??0NativeCodeCache@@QAE@III@Z 00458b1b f   nativecodecache.obj
 0001:00057b30       __unwindfunclet$??0NuonEnvironment@@QAE@XZ$0 00458b30 f   NuonEnvironment.obj
 0001:00057b3b       __unwindfunclet$??0NuonEnvironment@@QAE@XZ$1 00458b3b f   NuonEnvironment.obj
 0001:00057b46       __unwindfunclet$??0NuonEnvironment@@QAE@XZ$2 00458b46 f   NuonEnvironment.obj
 0001:00057b51       __ehhandler$??0NuonEnvironment@@QAE@XZ 00458b51 f   NuonEnvironment.obj
 0001:00057b60       __unwindfunclet$??1NuonEnvironment@@QAE@XZ$0 00458b60 f   NuonEnvironment.obj
 0001:00057b6b       __ehhandler$??1NuonEnvironment@@QAE@XZ 00458b6b f   NuonEnvironment.obj
 0001:00057b80       __unwindfunclet$??0NuonMemoryManager@@QAE@XZ$0 00458b80 f   NuonMemoryManager.obj
 0001:00057b8b       __unwindfunclet$??0NuonMemoryManager@@QAE@XZ$1 00458b8b f   NuonMemoryManager.obj
 0001:00057b96       __ehhandler$??0NuonMemoryManager@@QAE@XZ 00458b96 f   NuonMemoryManager.obj
 0001:00057ba0       __unwindfunclet$??0SuperBlock@@QAE@PAVMPE@@II@Z$0 00458ba0 f   SuperBlock.obj
 0001:00057bae       __ehhandler$??0SuperBlock@@QAE@PAVMPE@@II@Z 00458bae f   SuperBlock.obj
 0001:00057bc0       __unwindfunclet$?UpdateTextureStates@@YAXXZ$0 00458bc0 f   video.obj
 0001:00057bcb       __ehhandler$?UpdateTextureStates@@YAXXZ 00458bcb f   video.obj
 0001:00057bd5       __unwindfunclet$?_Xlen@_String_base@std@@SAXXZ$0 00458bd5 f   libcpmt:string.obj
 0001:00057bd5       __unwindfunclet$?_Xran@_String_base@std@@SAXXZ$0 00458bd5 f   libcpmt:string.obj
 0001:00057bdd       __ehhandler$?_Xlen@_String_base@std@@SAXXZ 00458bdd f   libcpmt:string.obj
 0001:00057bdd       __ehhandler$?_Xran@_String_base@std@@SAXXZ 00458bdd f   libcpmt:string.obj
 0001:00057bf8       __ehhandler$?CallUnexpected@@YAXPBU_s_ESTypeList@@@Z 00458bf8 f   LIBCMT:frame.obj
 0001:00057c13       ??__Fnomem@?5???2@YAPAXI@Z@YAXXZ 00458c13 f   LIBCMT:new.obj
